
ls_O0_debug:     file format elf64-x86-64

Contents of the .eh_frame section (loaded from ls_O0_debug):


00000000 0000000000000014 00000000 CIE
  Version:               1
  Augmentation:          "zR"
  Code alignment factor: 1
  Data alignment factor: -8
  Return address column: 16
  Augmentation data:     1b
  DW_CFA_def_cfa: r7 (rsp) ofs 8
  DW_CFA_offset: r16 (rip) at cfa-8
  DW_CFA_nop
  DW_CFA_nop

00000018 0000000000000014 0000001c FDE cie=00000000 pc=0000000000004d40..0000000000004d6f
  DW_CFA_advance_loc: 4 to 0000000000004d44
  DW_CFA_undefined: r16 (rip)
  DW_CFA_nop
  DW_CFA_nop
  DW_CFA_nop
  DW_CFA_nop

00000030 0000000000000024 00000034 FDE cie=00000000 pc=0000000000004020..0000000000004690
  DW_CFA_def_cfa_offset: 16
  DW_CFA_advance_loc: 6 to 0000000000004026
  DW_CFA_def_cfa_offset: 24
  DW_CFA_advance_loc: 10 to 0000000000004030
  DW_CFA_def_cfa_expression (DW_OP_breg7 (rsp): 8; DW_OP_breg16 (rip): 0; DW_OP_lit15; DW_OP_and; DW_OP_lit10; DW_OP_ge; DW_OP_lit3; DW_OP_shl; DW_OP_plus)
  DW_CFA_nop
  DW_CFA_nop
  DW_CFA_nop
  DW_CFA_nop

00000058 0000000000000014 0000005c FDE cie=00000000 pc=0000000000004690..00000000000046e0
  DW_CFA_nop
  DW_CFA_nop
  DW_CFA_nop
  DW_CFA_nop
  DW_CFA_nop
  DW_CFA_nop
  DW_CFA_nop

00000070 0000000000000014 00000074 FDE cie=00000000 pc=00000000000046e0..0000000000004d40
  DW_CFA_nop
  DW_CFA_nop
  DW_CFA_nop
  DW_CFA_nop
  DW_CFA_nop
  DW_CFA_nop
  DW_CFA_nop

00000088 000000000000001c 0000008c FDE cie=00000000 pc=0000000000004e29..0000000000004e42
  DW_CFA_advance_loc: 1 to 0000000000004e2a
  DW_CFA_def_cfa_offset: 16
  DW_CFA_offset: r6 (rbp) at cfa-16
  DW_CFA_advance_loc: 3 to 0000000000004e2d
  DW_CFA_def_cfa_register: r6 (rbp)
  DW_CFA_advance_loc: 20 to 0000000000004e41
  DW_CFA_def_cfa: r7 (rsp) ofs 8
  DW_CFA_nop
  DW_CFA_nop
  DW_CFA_nop

000000a8 000000000000001c 000000ac FDE cie=00000000 pc=0000000000004e42..0000000000004e51
  DW_CFA_advance_loc: 1 to 0000000000004e43
  DW_CFA_def_cfa_offset: 16
  DW_CFA_offset: r6 (rbp) at cfa-16
  DW_CFA_advance_loc: 3 to 0000000000004e46
  DW_CFA_def_cfa_register: r6 (rbp)
  DW_CFA_advance_loc: 10 to 0000000000004e50
  DW_CFA_def_cfa: r7 (rsp) ofs 8
  DW_CFA_nop
  DW_CFA_nop
  DW_CFA_nop

000000c8 000000000000001c 000000cc FDE cie=00000000 pc=0000000000004e51..0000000000004eb0
  DW_CFA_advance_loc: 1 to 0000000000004e52
  DW_CFA_def_cfa_offset: 16
  DW_CFA_offset: r6 (rbp) at cfa-16
  DW_CFA_advance_loc: 3 to 0000000000004e55
  DW_CFA_def_cfa_register: r6 (rbp)
  DW_CFA_advance_loc1: 90 to 0000000000004eaf
  DW_CFA_def_cfa: r7 (rsp) ofs 8
  DW_CFA_nop
  DW_CFA_nop

000000e8 000000000000001c 000000ec FDE cie=00000000 pc=0000000000004eb0..0000000000004ee1
  DW_CFA_advance_loc: 1 to 0000000000004eb1
  DW_CFA_def_cfa_offset: 16
  DW_CFA_offset: r6 (rbp) at cfa-16
  DW_CFA_advance_loc: 3 to 0000000000004eb4
  DW_CFA_def_cfa_register: r6 (rbp)
  DW_CFA_advance_loc: 5 to 0000000000004eb9
  DW_CFA_offset: r3 (rbx) at cfa-24
  DW_CFA_advance_loc: 39 to 0000000000004ee0
  DW_CFA_def_cfa: r7 (rsp) ofs 8

00000108 000000000000001c 0000010c FDE cie=00000000 pc=0000000000004ee1..0000000000004f12
  DW_CFA_advance_loc: 1 to 0000000000004ee2
  DW_CFA_def_cfa_offset: 16
  DW_CFA_offset: r6 (rbp) at cfa-16
  DW_CFA_advance_loc: 3 to 0000000000004ee5
  DW_CFA_def_cfa_register: r6 (rbp)
  DW_CFA_advance_loc: 5 to 0000000000004eea
  DW_CFA_offset: r3 (rbx) at cfa-24
  DW_CFA_advance_loc: 39 to 0000000000004f11
  DW_CFA_def_cfa: r7 (rsp) ofs 8

00000128 0000000000000020 0000012c FDE cie=00000000 pc=0000000000004f12..00000000000051a9
  DW_CFA_advance_loc: 1 to 0000000000004f13
  DW_CFA_def_cfa_offset: 16
  DW_CFA_offset: r6 (rbp) at cfa-16
  DW_CFA_advance_loc: 3 to 0000000000004f16
  DW_CFA_def_cfa_register: r6 (rbp)
  DW_CFA_advance_loc: 8 to 0000000000004f1e
  DW_CFA_offset: r3 (rbx) at cfa-24
  DW_CFA_advance_loc2: 650 to 00000000000051a8
  DW_CFA_def_cfa: r7 (rsp) ofs 8
  DW_CFA_nop
  DW_CFA_nop

0000014c 000000000000001c 00000150 FDE cie=00000000 pc=00000000000051a9..00000000000051ce
  DW_CFA_advance_loc: 1 to 00000000000051aa
  DW_CFA_def_cfa_offset: 16
  DW_CFA_offset: r6 (rbp) at cfa-16
  DW_CFA_advance_loc: 3 to 00000000000051ad
  DW_CFA_def_cfa_register: r6 (rbp)
  DW_CFA_advance_loc: 32 to 00000000000051cd
  DW_CFA_def_cfa: r7 (rsp) ofs 8
  DW_CFA_nop
  DW_CFA_nop
  DW_CFA_nop

0000016c 000000000000001c 00000170 FDE cie=00000000 pc=00000000000051ce..00000000000051dc
  DW_CFA_advance_loc: 1 to 00000000000051cf
  DW_CFA_def_cfa_offset: 16
  DW_CFA_offset: r6 (rbp) at cfa-16
  DW_CFA_advance_loc: 3 to 00000000000051d2
  DW_CFA_def_cfa_register: r6 (rbp)
  DW_CFA_advance_loc: 9 to 00000000000051db
  DW_CFA_def_cfa: r7 (rsp) ofs 8
  DW_CFA_nop
  DW_CFA_nop
  DW_CFA_nop

0000018c 000000000000001c 00000190 FDE cie=00000000 pc=00000000000051dc..00000000000051ec
  DW_CFA_advance_loc: 1 to 00000000000051dd
  DW_CFA_def_cfa_offset: 16
  DW_CFA_offset: r6 (rbp) at cfa-16
  DW_CFA_advance_loc: 3 to 00000000000051e0
  DW_CFA_def_cfa_register: r6 (rbp)
  DW_CFA_advance_loc: 11 to 00000000000051eb
  DW_CFA_def_cfa: r7 (rsp) ofs 8
  DW_CFA_nop
  DW_CFA_nop
  DW_CFA_nop

000001ac 000000000000001c 000001b0 FDE cie=00000000 pc=00000000000051ec..00000000000051f7
  DW_CFA_advance_loc: 1 to 00000000000051ed
  DW_CFA_def_cfa_offset: 16
  DW_CFA_offset: r6 (rbp) at cfa-16
  DW_CFA_advance_loc: 3 to 00000000000051f0
  DW_CFA_def_cfa_register: r6 (rbp)
  DW_CFA_advance_loc: 6 to 00000000000051f6
  DW_CFA_def_cfa: r7 (rsp) ofs 8
  DW_CFA_nop
  DW_CFA_nop
  DW_CFA_nop

000001cc 000000000000001c 000001d0 FDE cie=00000000 pc=00000000000051f7..0000000000005227
  DW_CFA_advance_loc: 1 to 00000000000051f8
  DW_CFA_def_cfa_offset: 16
  DW_CFA_offset: r6 (rbp) at cfa-16
  DW_CFA_advance_loc: 3 to 00000000000051fb
  DW_CFA_def_cfa_register: r6 (rbp)
  DW_CFA_advance_loc: 43 to 0000000000005226
  DW_CFA_def_cfa: r7 (rsp) ofs 8
  DW_CFA_nop
  DW_CFA_nop
  DW_CFA_nop

000001ec 0000000000000020 000001f0 FDE cie=00000000 pc=0000000000005227..0000000000005377
  DW_CFA_advance_loc: 1 to 0000000000005228
  DW_CFA_def_cfa_offset: 16
  DW_CFA_offset: r6 (rbp) at cfa-16
  DW_CFA_advance_loc: 3 to 000000000000522b
  DW_CFA_def_cfa_register: r6 (rbp)
  DW_CFA_advance_loc: 5 to 0000000000005230
  DW_CFA_offset: r3 (rbx) at cfa-24
  DW_CFA_advance_loc2: 326 to 0000000000005376
  DW_CFA_def_cfa: r7 (rsp) ofs 8
  DW_CFA_nop
  DW_CFA_nop

00000210 000000000000001c 00000214 FDE cie=00000000 pc=0000000000005377..00000000000053b2
  DW_CFA_advance_loc: 5 to 000000000000537c
  DW_CFA_def_cfa_offset: 16
  DW_CFA_offset: r6 (rbp) at cfa-16
  DW_CFA_advance_loc: 3 to 000000000000537f
  DW_CFA_def_cfa_register: r6 (rbp)
  DW_CFA_advance_loc: 50 to 00000000000053b1
  DW_CFA_def_cfa: r7 (rsp) ofs 8
  DW_CFA_nop
  DW_CFA_nop
  DW_CFA_nop

00000230 000000000000001c 00000234 FDE cie=00000000 pc=00000000000053b2..00000000000053e3
  DW_CFA_advance_loc: 5 to 00000000000053b7
  DW_CFA_def_cfa_offset: 16
  DW_CFA_offset: r6 (rbp) at cfa-16
  DW_CFA_advance_loc: 3 to 00000000000053ba
  DW_CFA_def_cfa_register: r6 (rbp)
  DW_CFA_advance_loc: 40 to 00000000000053e2
  DW_CFA_def_cfa: r7 (rsp) ofs 8
  DW_CFA_nop
  DW_CFA_nop
  DW_CFA_nop

00000250 000000000000001c 00000254 FDE cie=00000000 pc=00000000000053e3..000000000000542e
  DW_CFA_advance_loc: 5 to 00000000000053e8
  DW_CFA_def_cfa_offset: 16
  DW_CFA_offset: r6 (rbp) at cfa-16
  DW_CFA_advance_loc: 3 to 00000000000053eb
  DW_CFA_def_cfa_register: r6 (rbp)
  DW_CFA_advance_loc1: 66 to 000000000000542d
  DW_CFA_def_cfa: r7 (rsp) ofs 8
  DW_CFA_nop
  DW_CFA_nop

00000270 000000000000001c 00000274 FDE cie=00000000 pc=000000000000542e..000000000000545f
  DW_CFA_advance_loc: 5 to 0000000000005433
  DW_CFA_def_cfa_offset: 16
  DW_CFA_offset: r6 (rbp) at cfa-16
  DW_CFA_advance_loc: 3 to 0000000000005436
  DW_CFA_def_cfa_register: r6 (rbp)
  DW_CFA_advance_loc: 40 to 000000000000545e
  DW_CFA_def_cfa: r7 (rsp) ofs 8
  DW_CFA_nop
  DW_CFA_nop
  DW_CFA_nop

00000290 000000000000001c 00000294 FDE cie=00000000 pc=000000000000545f..0000000000005484
  DW_CFA_advance_loc: 5 to 0000000000005464
  DW_CFA_def_cfa_offset: 16
  DW_CFA_offset: r6 (rbp) at cfa-16
  DW_CFA_advance_loc: 3 to 0000000000005467
  DW_CFA_def_cfa_register: r6 (rbp)
  DW_CFA_advance_loc: 28 to 0000000000005483
  DW_CFA_def_cfa: r7 (rsp) ofs 8
  DW_CFA_nop
  DW_CFA_nop
  DW_CFA_nop

000002b0 000000000000001c 000002b4 FDE cie=00000000 pc=0000000000005484..000000000000551e
  DW_CFA_advance_loc: 5 to 0000000000005489
  DW_CFA_def_cfa_offset: 16
  DW_CFA_offset: r6 (rbp) at cfa-16
  DW_CFA_advance_loc: 3 to 000000000000548c
  DW_CFA_def_cfa_register: r6 (rbp)
  DW_CFA_advance_loc1: 145 to 000000000000551d
  DW_CFA_def_cfa: r7 (rsp) ofs 8
  DW_CFA_nop
  DW_CFA_nop

000002d0 000000000000001c 000002d4 FDE cie=00000000 pc=000000000000551e..00000000000055cd
  DW_CFA_advance_loc: 5 to 0000000000005523
  DW_CFA_def_cfa_offset: 16
  DW_CFA_offset: r6 (rbp) at cfa-16
  DW_CFA_advance_loc: 3 to 0000000000005526
  DW_CFA_def_cfa_register: r6 (rbp)
  DW_CFA_advance_loc1: 166 to 00000000000055cc
  DW_CFA_def_cfa: r7 (rsp) ofs 8
  DW_CFA_nop
  DW_CFA_nop

000002f0 000000000000001c 000002f4 FDE cie=00000000 pc=00000000000055cd..000000000000566c
  DW_CFA_advance_loc: 5 to 00000000000055d2
  DW_CFA_def_cfa_offset: 16
  DW_CFA_offset: r6 (rbp) at cfa-16
  DW_CFA_advance_loc: 3 to 00000000000055d5
  DW_CFA_def_cfa_register: r6 (rbp)
  DW_CFA_advance_loc1: 150 to 000000000000566b
  DW_CFA_def_cfa: r7 (rsp) ofs 8
  DW_CFA_nop
  DW_CFA_nop

00000310 000000000000001c 00000314 FDE cie=00000000 pc=000000000000566c..00000000000057af
  DW_CFA_advance_loc: 5 to 0000000000005671
  DW_CFA_def_cfa_offset: 16
  DW_CFA_offset: r6 (rbp) at cfa-16
  DW_CFA_advance_loc: 3 to 0000000000005674
  DW_CFA_def_cfa_register: r6 (rbp)
  DW_CFA_advance_loc2: 314 to 00000000000057ae
  DW_CFA_def_cfa: r7 (rsp) ofs 8
  DW_CFA_nop

00000330 000000000000001c 00000334 FDE cie=00000000 pc=00000000000057af..0000000000005920
  DW_CFA_advance_loc: 5 to 00000000000057b4
  DW_CFA_def_cfa_offset: 16
  DW_CFA_offset: r6 (rbp) at cfa-16
  DW_CFA_advance_loc: 3 to 00000000000057b7
  DW_CFA_def_cfa_register: r6 (rbp)
  DW_CFA_advance_loc2: 360 to 000000000000591f
  DW_CFA_def_cfa: r7 (rsp) ofs 8
  DW_CFA_nop

00000350 000000000000001c 00000354 FDE cie=00000000 pc=0000000000005920..000000000000594e
  DW_CFA_advance_loc: 5 to 0000000000005925
  DW_CFA_def_cfa_offset: 16
  DW_CFA_offset: r6 (rbp) at cfa-16
  DW_CFA_advance_loc: 3 to 0000000000005928
  DW_CFA_def_cfa_register: r6 (rbp)
  DW_CFA_advance_loc: 37 to 000000000000594d
  DW_CFA_def_cfa: r7 (rsp) ofs 8
  DW_CFA_nop
  DW_CFA_nop
  DW_CFA_nop

00000370 000000000000001c 00000374 FDE cie=00000000 pc=000000000000594e..000000000000599c
  DW_CFA_advance_loc: 5 to 0000000000005953
  DW_CFA_def_cfa_offset: 16
  DW_CFA_offset: r6 (rbp) at cfa-16
  DW_CFA_advance_loc: 3 to 0000000000005956
  DW_CFA_def_cfa_register: r6 (rbp)
  DW_CFA_advance_loc1: 69 to 000000000000599b
  DW_CFA_def_cfa: r7 (rsp) ofs 8
  DW_CFA_nop
  DW_CFA_nop

00000390 000000000000001c 00000394 FDE cie=00000000 pc=000000000000599c..0000000000005a62
  DW_CFA_advance_loc: 5 to 00000000000059a1
  DW_CFA_def_cfa_offset: 16
  DW_CFA_offset: r6 (rbp) at cfa-16
  DW_CFA_advance_loc: 3 to 00000000000059a4
  DW_CFA_def_cfa_register: r6 (rbp)
  DW_CFA_advance_loc1: 189 to 0000000000005a61
  DW_CFA_def_cfa: r7 (rsp) ofs 8
  DW_CFA_nop
  DW_CFA_nop

000003b0 0000000000000020 000003b4 FDE cie=00000000 pc=0000000000005a62..0000000000005b9e
  DW_CFA_advance_loc: 5 to 0000000000005a67
  DW_CFA_def_cfa_offset: 16
  DW_CFA_offset: r6 (rbp) at cfa-16
  DW_CFA_advance_loc: 3 to 0000000000005a6a
  DW_CFA_def_cfa_register: r6 (rbp)
  DW_CFA_advance_loc: 8 to 0000000000005a72
  DW_CFA_offset: r3 (rbx) at cfa-24
  DW_CFA_advance_loc2: 299 to 0000000000005b9d
  DW_CFA_def_cfa: r7 (rsp) ofs 8
  DW_CFA_nop
  DW_CFA_nop

000003d4 000000000000001c 000003d8 FDE cie=00000000 pc=0000000000005b9e..0000000000005bd8
  DW_CFA_advance_loc: 5 to 0000000000005ba3
  DW_CFA_def_cfa_offset: 16
  DW_CFA_offset: r6 (rbp) at cfa-16
  DW_CFA_advance_loc: 3 to 0000000000005ba6
  DW_CFA_def_cfa_register: r6 (rbp)
  DW_CFA_advance_loc: 49 to 0000000000005bd7
  DW_CFA_def_cfa: r7 (rsp) ofs 8
  DW_CFA_nop
  DW_CFA_nop
  DW_CFA_nop

000003f4 000000000000001c 000003f8 FDE cie=00000000 pc=0000000000005bd8..0000000000005c12
  DW_CFA_advance_loc: 5 to 0000000000005bdd
  DW_CFA_def_cfa_offset: 16
  DW_CFA_offset: r6 (rbp) at cfa-16
  DW_CFA_advance_loc: 3 to 0000000000005be0
  DW_CFA_def_cfa_register: r6 (rbp)
  DW_CFA_advance_loc: 49 to 0000000000005c11
  DW_CFA_def_cfa: r7 (rsp) ofs 8
  DW_CFA_nop
  DW_CFA_nop
  DW_CFA_nop

00000414 000000000000001c 00000418 FDE cie=00000000 pc=0000000000005c12..0000000000005c48
  DW_CFA_advance_loc: 5 to 0000000000005c17
  DW_CFA_def_cfa_offset: 16
  DW_CFA_offset: r6 (rbp) at cfa-16
  DW_CFA_advance_loc: 3 to 0000000000005c1a
  DW_CFA_def_cfa_register: r6 (rbp)
  DW_CFA_advance_loc: 45 to 0000000000005c47
  DW_CFA_def_cfa: r7 (rsp) ofs 8
  DW_CFA_nop
  DW_CFA_nop
  DW_CFA_nop

00000434 000000000000001c 00000438 FDE cie=00000000 pc=0000000000005c48..0000000000005c7e
  DW_CFA_advance_loc: 5 to 0000000000005c4d
  DW_CFA_def_cfa_offset: 16
  DW_CFA_offset: r6 (rbp) at cfa-16
  DW_CFA_advance_loc: 3 to 0000000000005c50
  DW_CFA_def_cfa_register: r6 (rbp)
  DW_CFA_advance_loc: 45 to 0000000000005c7d
  DW_CFA_def_cfa: r7 (rsp) ofs 8
  DW_CFA_nop
  DW_CFA_nop
  DW_CFA_nop

00000454 000000000000001c 00000458 FDE cie=00000000 pc=0000000000005c7e..0000000000005cb3
  DW_CFA_advance_loc: 5 to 0000000000005c83
  DW_CFA_def_cfa_offset: 16
  DW_CFA_offset: r6 (rbp) at cfa-16
  DW_CFA_advance_loc: 3 to 0000000000005c86
  DW_CFA_def_cfa_register: r6 (rbp)
  DW_CFA_advance_loc: 44 to 0000000000005cb2
  DW_CFA_def_cfa: r7 (rsp) ofs 8
  DW_CFA_nop
  DW_CFA_nop
  DW_CFA_nop

00000474 000000000000001c 00000478 FDE cie=00000000 pc=0000000000005cb3..0000000000005d07
  DW_CFA_advance_loc: 5 to 0000000000005cb8
  DW_CFA_def_cfa_offset: 16
  DW_CFA_offset: r6 (rbp) at cfa-16
  DW_CFA_advance_loc: 3 to 0000000000005cbb
  DW_CFA_def_cfa_register: r6 (rbp)
  DW_CFA_advance_loc1: 75 to 0000000000005d06
  DW_CFA_def_cfa: r7 (rsp) ofs 8
  DW_CFA_nop
  DW_CFA_nop

00000494 000000000000001c 00000498 FDE cie=00000000 pc=0000000000005d07..0000000000005d84
  DW_CFA_advance_loc: 5 to 0000000000005d0c
  DW_CFA_def_cfa_offset: 16
  DW_CFA_offset: r6 (rbp) at cfa-16
  DW_CFA_advance_loc: 3 to 0000000000005d0f
  DW_CFA_def_cfa_register: r6 (rbp)
  DW_CFA_advance_loc1: 116 to 0000000000005d83
  DW_CFA_def_cfa: r7 (rsp) ofs 8
  DW_CFA_nop
  DW_CFA_nop

000004b4 0000000000000020 000004b8 FDE cie=00000000 pc=0000000000005d84..0000000000005ed3
  DW_CFA_advance_loc: 5 to 0000000000005d89
  DW_CFA_def_cfa_offset: 16
  DW_CFA_offset: r6 (rbp) at cfa-16
  DW_CFA_advance_loc: 3 to 0000000000005d8c
  DW_CFA_def_cfa_register: r6 (rbp)
  DW_CFA_advance_loc: 5 to 0000000000005d91
  DW_CFA_offset: r3 (rbx) at cfa-24
  DW_CFA_advance_loc2: 321 to 0000000000005ed2
  DW_CFA_def_cfa: r7 (rsp) ofs 8
  DW_CFA_nop
  DW_CFA_nop

000004d8 000000000000001c 000004dc FDE cie=00000000 pc=0000000000005ed3..000000000000614d
  DW_CFA_advance_loc: 5 to 0000000000005ed8
  DW_CFA_def_cfa_offset: 16
  DW_CFA_offset: r6 (rbp) at cfa-16
  DW_CFA_advance_loc: 3 to 0000000000005edb
  DW_CFA_def_cfa_register: r6 (rbp)
  DW_CFA_advance_loc2: 625 to 000000000000614c
  DW_CFA_def_cfa: r7 (rsp) ofs 8
  DW_CFA_nop

000004f8 000000000000001c 000004fc FDE cie=00000000 pc=000000000000614d..000000000000617a
  DW_CFA_advance_loc: 5 to 0000000000006152
  DW_CFA_def_cfa_offset: 16
  DW_CFA_offset: r6 (rbp) at cfa-16
  DW_CFA_advance_loc: 3 to 0000000000006155
  DW_CFA_def_cfa_register: r6 (rbp)
  DW_CFA_advance_loc: 36 to 0000000000006179
  DW_CFA_def_cfa: r7 (rsp) ofs 8
  DW_CFA_nop
  DW_CFA_nop
  DW_CFA_nop

00000518 000000000000001c 0000051c FDE cie=00000000 pc=000000000000617a..00000000000061d3
  DW_CFA_advance_loc: 5 to 000000000000617f
  DW_CFA_def_cfa_offset: 16
  DW_CFA_offset: r6 (rbp) at cfa-16
  DW_CFA_advance_loc: 3 to 0000000000006182
  DW_CFA_def_cfa_register: r6 (rbp)
  DW_CFA_advance_loc1: 80 to 00000000000061d2
  DW_CFA_def_cfa: r7 (rsp) ofs 8
  DW_CFA_nop
  DW_CFA_nop

00000538 000000000000001c 0000053c FDE cie=00000000 pc=00000000000061d3..00000000000061f2
  DW_CFA_advance_loc: 5 to 00000000000061d8
  DW_CFA_def_cfa_offset: 16
  DW_CFA_offset: r6 (rbp) at cfa-16
  DW_CFA_advance_loc: 3 to 00000000000061db
  DW_CFA_def_cfa_register: r6 (rbp)
  DW_CFA_advance_loc: 22 to 00000000000061f1
  DW_CFA_def_cfa: r7 (rsp) ofs 8
  DW_CFA_nop
  DW_CFA_nop
  DW_CFA_nop

00000558 000000000000001c 0000055c FDE cie=00000000 pc=00000000000061f2..0000000000006277
  DW_CFA_advance_loc: 5 to 00000000000061f7
  DW_CFA_def_cfa_offset: 16
  DW_CFA_offset: r6 (rbp) at cfa-16
  DW_CFA_advance_loc: 3 to 00000000000061fa
  DW_CFA_def_cfa_register: r6 (rbp)
  DW_CFA_advance_loc1: 124 to 0000000000006276
  DW_CFA_def_cfa: r7 (rsp) ofs 8
  DW_CFA_nop
  DW_CFA_nop

00000578 000000000000001c 0000057c FDE cie=00000000 pc=0000000000006277..00000000000062b5
  DW_CFA_advance_loc: 5 to 000000000000627c
  DW_CFA_def_cfa_offset: 16
  DW_CFA_offset: r6 (rbp) at cfa-16
  DW_CFA_advance_loc: 3 to 000000000000627f
  DW_CFA_def_cfa_register: r6 (rbp)
  DW_CFA_advance_loc: 53 to 00000000000062b4
  DW_CFA_def_cfa: r7 (rsp) ofs 8
  DW_CFA_nop
  DW_CFA_nop
  DW_CFA_nop

00000598 000000000000001c 0000059c FDE cie=00000000 pc=00000000000062b5..0000000000006355
  DW_CFA_advance_loc: 5 to 00000000000062ba
  DW_CFA_def_cfa_offset: 16
  DW_CFA_offset: r6 (rbp) at cfa-16
  DW_CFA_advance_loc: 3 to 00000000000062bd
  DW_CFA_def_cfa_register: r6 (rbp)
  DW_CFA_advance_loc1: 151 to 0000000000006354
  DW_CFA_def_cfa: r7 (rsp) ofs 8
  DW_CFA_nop
  DW_CFA_nop

000005b8 000000000000001c 000005bc FDE cie=00000000 pc=0000000000006355..000000000000637e
  DW_CFA_advance_loc: 5 to 000000000000635a
  DW_CFA_def_cfa_offset: 16
  DW_CFA_offset: r6 (rbp) at cfa-16
  DW_CFA_advance_loc: 3 to 000000000000635d
  DW_CFA_def_cfa_register: r6 (rbp)
  DW_CFA_advance_loc: 32 to 000000000000637d
  DW_CFA_def_cfa: r7 (rsp) ofs 8
  DW_CFA_nop
  DW_CFA_nop
  DW_CFA_nop

000005d8 000000000000001c 000005dc FDE cie=00000000 pc=000000000000637e..00000000000063cf
  DW_CFA_advance_loc: 5 to 0000000000006383
  DW_CFA_def_cfa_offset: 16
  DW_CFA_offset: r6 (rbp) at cfa-16
  DW_CFA_advance_loc: 3 to 0000000000006386
  DW_CFA_def_cfa_register: r6 (rbp)
  DW_CFA_advance_loc1: 72 to 00000000000063ce
  DW_CFA_def_cfa: r7 (rsp) ofs 8
  DW_CFA_nop
  DW_CFA_nop

000005f8 000000000000001c 000005fc FDE cie=00000000 pc=00000000000063cf..00000000000063f0
  DW_CFA_advance_loc: 5 to 00000000000063d4
  DW_CFA_def_cfa_offset: 16
  DW_CFA_offset: r6 (rbp) at cfa-16
  DW_CFA_advance_loc: 3 to 00000000000063d7
  DW_CFA_def_cfa_register: r6 (rbp)
  DW_CFA_advance_loc: 24 to 00000000000063ef
  DW_CFA_def_cfa: r7 (rsp) ofs 8
  DW_CFA_nop
  DW_CFA_nop
  DW_CFA_nop

00000618 000000000000001c 0000061c FDE cie=00000000 pc=00000000000063f0..0000000000006417
  DW_CFA_advance_loc: 5 to 00000000000063f5
  DW_CFA_def_cfa_offset: 16
  DW_CFA_offset: r6 (rbp) at cfa-16
  DW_CFA_advance_loc: 3 to 00000000000063f8
  DW_CFA_def_cfa_register: r6 (rbp)
  DW_CFA_advance_loc: 30 to 0000000000006416
  DW_CFA_def_cfa: r7 (rsp) ofs 8
  DW_CFA_nop
  DW_CFA_nop
  DW_CFA_nop

00000638 000000000000001c 0000063c FDE cie=00000000 pc=0000000000006417..000000000000651e
  DW_CFA_advance_loc: 5 to 000000000000641c
  DW_CFA_def_cfa_offset: 16
  DW_CFA_offset: r6 (rbp) at cfa-16
  DW_CFA_advance_loc: 3 to 000000000000641f
  DW_CFA_def_cfa_register: r6 (rbp)
  DW_CFA_advance_loc1: 254 to 000000000000651d
  DW_CFA_def_cfa: r7 (rsp) ofs 8
  DW_CFA_nop
  DW_CFA_nop

00000658 000000000000001c 0000065c FDE cie=00000000 pc=000000000000651e..00000000000067e3
  DW_CFA_advance_loc: 5 to 0000000000006523
  DW_CFA_def_cfa_offset: 16
  DW_CFA_offset: r6 (rbp) at cfa-16
  DW_CFA_advance_loc: 3 to 0000000000006526
  DW_CFA_def_cfa_register: r6 (rbp)
  DW_CFA_advance_loc2: 700 to 00000000000067e2
  DW_CFA_def_cfa: r7 (rsp) ofs 8
  DW_CFA_nop

00000678 000000000000001c 0000067c FDE cie=00000000 pc=00000000000067e3..00000000000067f8
  DW_CFA_advance_loc: 5 to 00000000000067e8
  DW_CFA_def_cfa_offset: 16
  DW_CFA_offset: r6 (rbp) at cfa-16
  DW_CFA_advance_loc: 3 to 00000000000067eb
  DW_CFA_def_cfa_register: r6 (rbp)
  DW_CFA_advance_loc: 12 to 00000000000067f7
  DW_CFA_def_cfa: r7 (rsp) ofs 8
  DW_CFA_nop
  DW_CFA_nop
  DW_CFA_nop

00000698 000000000000001c 0000069c FDE cie=00000000 pc=00000000000067f8..000000000000680d
  DW_CFA_advance_loc: 5 to 00000000000067fd
  DW_CFA_def_cfa_offset: 16
  DW_CFA_offset: r6 (rbp) at cfa-16
  DW_CFA_advance_loc: 3 to 0000000000006800
  DW_CFA_def_cfa_register: r6 (rbp)
  DW_CFA_advance_loc: 12 to 000000000000680c
  DW_CFA_def_cfa: r7 (rsp) ofs 8
  DW_CFA_nop
  DW_CFA_nop
  DW_CFA_nop

000006b8 000000000000001c 000006bc FDE cie=00000000 pc=000000000000680d..0000000000006f71
  DW_CFA_advance_loc: 5 to 0000000000006812
  DW_CFA_def_cfa_offset: 16
  DW_CFA_offset: r6 (rbp) at cfa-16
  DW_CFA_advance_loc: 3 to 0000000000006815
  DW_CFA_def_cfa_register: r6 (rbp)
  DW_CFA_advance_loc2: 1883 to 0000000000006f70
  DW_CFA_def_cfa: r7 (rsp) ofs 8
  DW_CFA_nop

000006d8 000000000000001c 000006dc FDE cie=00000000 pc=0000000000006f71..0000000000006ff5
  DW_CFA_advance_loc: 5 to 0000000000006f76
  DW_CFA_def_cfa_offset: 16
  DW_CFA_offset: r6 (rbp) at cfa-16
  DW_CFA_advance_loc: 3 to 0000000000006f79
  DW_CFA_def_cfa_register: r6 (rbp)
  DW_CFA_advance_loc1: 123 to 0000000000006ff4
  DW_CFA_def_cfa: r7 (rsp) ofs 8
  DW_CFA_nop
  DW_CFA_nop

000006f8 000000000000001c 000006fc FDE cie=00000000 pc=0000000000006ff5..000000000000703a
  DW_CFA_advance_loc: 5 to 0000000000006ffa
  DW_CFA_def_cfa_offset: 16
  DW_CFA_offset: r6 (rbp) at cfa-16
  DW_CFA_advance_loc: 3 to 0000000000006ffd
  DW_CFA_def_cfa_register: r6 (rbp)
  DW_CFA_advance_loc: 60 to 0000000000007039
  DW_CFA_def_cfa: r7 (rsp) ofs 8
  DW_CFA_nop
  DW_CFA_nop
  DW_CFA_nop

00000718 0000000000000020 0000071c FDE cie=00000000 pc=000000000000703a..00000000000083ba
  DW_CFA_advance_loc: 5 to 000000000000703f
  DW_CFA_def_cfa_offset: 16
  DW_CFA_offset: r6 (rbp) at cfa-16
  DW_CFA_advance_loc: 3 to 0000000000007042
  DW_CFA_def_cfa_register: r6 (rbp)
  DW_CFA_advance_loc: 8 to 000000000000704a
  DW_CFA_offset: r3 (rbx) at cfa-24
  DW_CFA_advance_loc2: 4975 to 00000000000083b9
  DW_CFA_def_cfa: r7 (rsp) ofs 8
  DW_CFA_nop
  DW_CFA_nop

0000073c 000000000000001c 00000740 FDE cie=00000000 pc=00000000000083ba..0000000000008777
  DW_CFA_advance_loc: 5 to 00000000000083bf
  DW_CFA_def_cfa_offset: 16
  DW_CFA_offset: r6 (rbp) at cfa-16
  DW_CFA_advance_loc: 3 to 00000000000083c2
  DW_CFA_def_cfa_register: r6 (rbp)
  DW_CFA_advance_loc2: 948 to 0000000000008776
  DW_CFA_def_cfa: r7 (rsp) ofs 8
  DW_CFA_nop

0000075c 000000000000001c 00000760 FDE cie=00000000 pc=0000000000008777..0000000000008836
  DW_CFA_advance_loc: 5 to 000000000000877c
  DW_CFA_def_cfa_offset: 16
  DW_CFA_offset: r6 (rbp) at cfa-16
  DW_CFA_advance_loc: 3 to 000000000000877f
  DW_CFA_def_cfa_register: r6 (rbp)
  DW_CFA_advance_loc1: 182 to 0000000000008835
  DW_CFA_def_cfa: r7 (rsp) ofs 8
  DW_CFA_nop
  DW_CFA_nop

0000077c 0000000000000020 00000780 FDE cie=00000000 pc=0000000000008836..0000000000008c7e
  DW_CFA_advance_loc: 5 to 000000000000883b
  DW_CFA_def_cfa_offset: 16
  DW_CFA_offset: r6 (rbp) at cfa-16
  DW_CFA_advance_loc: 3 to 000000000000883e
  DW_CFA_def_cfa_register: r6 (rbp)
  DW_CFA_advance_loc: 5 to 0000000000008843
  DW_CFA_offset: r3 (rbx) at cfa-24
  DW_CFA_advance_loc2: 1082 to 0000000000008c7d
  DW_CFA_def_cfa: r7 (rsp) ofs 8
  DW_CFA_nop
  DW_CFA_nop

000007a0 0000000000000020 000007a4 FDE cie=00000000 pc=0000000000008c7e..0000000000008d30
  DW_CFA_advance_loc: 5 to 0000000000008c83
  DW_CFA_def_cfa_offset: 16
  DW_CFA_offset: r6 (rbp) at cfa-16
  DW_CFA_advance_loc: 3 to 0000000000008c86
  DW_CFA_def_cfa_register: r6 (rbp)
  DW_CFA_advance_loc: 5 to 0000000000008c8b
  DW_CFA_offset: r3 (rbx) at cfa-24
  DW_CFA_advance_loc1: 164 to 0000000000008d2f
  DW_CFA_def_cfa: r7 (rsp) ofs 8
  DW_CFA_nop
  DW_CFA_nop
  DW_CFA_nop

000007c4 000000000000001c 000007c8 FDE cie=00000000 pc=0000000000008d30..0000000000008d66
  DW_CFA_advance_loc: 5 to 0000000000008d35
  DW_CFA_def_cfa_offset: 16
  DW_CFA_offset: r6 (rbp) at cfa-16
  DW_CFA_advance_loc: 3 to 0000000000008d38
  DW_CFA_def_cfa_register: r6 (rbp)
  DW_CFA_advance_loc: 45 to 0000000000008d65
  DW_CFA_def_cfa: r7 (rsp) ofs 8
  DW_CFA_nop
  DW_CFA_nop
  DW_CFA_nop

000007e4 0000000000000020 000007e8 FDE cie=00000000 pc=0000000000008d66..0000000000008dc5
  DW_CFA_advance_loc: 5 to 0000000000008d6b
  DW_CFA_def_cfa_offset: 16
  DW_CFA_offset: r6 (rbp) at cfa-16
  DW_CFA_advance_loc: 3 to 0000000000008d6e
  DW_CFA_def_cfa_register: r6 (rbp)
  DW_CFA_advance_loc: 5 to 0000000000008d73
  DW_CFA_offset: r3 (rbx) at cfa-24
  DW_CFA_advance_loc1: 81 to 0000000000008dc4
  DW_CFA_def_cfa: r7 (rsp) ofs 8
  DW_CFA_nop
  DW_CFA_nop
  DW_CFA_nop

00000808 000000000000001c 0000080c FDE cie=00000000 pc=0000000000008dc5..0000000000008e5d
  DW_CFA_advance_loc: 5 to 0000000000008dca
  DW_CFA_def_cfa_offset: 16
  DW_CFA_offset: r6 (rbp) at cfa-16
  DW_CFA_advance_loc: 3 to 0000000000008dcd
  DW_CFA_def_cfa_register: r6 (rbp)
  DW_CFA_advance_loc1: 143 to 0000000000008e5c
  DW_CFA_def_cfa: r7 (rsp) ofs 8
  DW_CFA_nop
  DW_CFA_nop

00000828 0000000000000020 0000082c FDE cie=00000000 pc=0000000000008e5d..0000000000009468
  DW_CFA_advance_loc: 5 to 0000000000008e62
  DW_CFA_def_cfa_offset: 16
  DW_CFA_offset: r6 (rbp) at cfa-16
  DW_CFA_advance_loc: 3 to 0000000000008e65
  DW_CFA_def_cfa_register: r6 (rbp)
  DW_CFA_advance_loc: 8 to 0000000000008e6d
  DW_CFA_offset: r3 (rbx) at cfa-24
  DW_CFA_advance_loc2: 1530 to 0000000000009467
  DW_CFA_def_cfa: r7 (rsp) ofs 8
  DW_CFA_nop
  DW_CFA_nop

0000084c 000000000000001c 00000850 FDE cie=00000000 pc=0000000000009468..00000000000094ae
  DW_CFA_advance_loc: 5 to 000000000000946d
  DW_CFA_def_cfa_offset: 16
  DW_CFA_offset: r6 (rbp) at cfa-16
  DW_CFA_advance_loc: 3 to 0000000000009470
  DW_CFA_def_cfa_register: r6 (rbp)
  DW_CFA_advance_loc: 61 to 00000000000094ad
  DW_CFA_def_cfa: r7 (rsp) ofs 8
  DW_CFA_nop
  DW_CFA_nop
  DW_CFA_nop

0000086c 000000000000001c 00000870 FDE cie=00000000 pc=00000000000094ae..000000000000950c
  DW_CFA_advance_loc: 5 to 00000000000094b3
  DW_CFA_def_cfa_offset: 16
  DW_CFA_offset: r6 (rbp) at cfa-16
  DW_CFA_advance_loc: 3 to 00000000000094b6
  DW_CFA_def_cfa_register: r6 (rbp)
  DW_CFA_advance_loc1: 85 to 000000000000950b
  DW_CFA_def_cfa: r7 (rsp) ofs 8
  DW_CFA_nop
  DW_CFA_nop

0000088c 000000000000001c 00000890 FDE cie=00000000 pc=000000000000950c..00000000000095b4
  DW_CFA_advance_loc: 5 to 0000000000009511
  DW_CFA_def_cfa_offset: 16
  DW_CFA_offset: r6 (rbp) at cfa-16
  DW_CFA_advance_loc: 3 to 0000000000009514
  DW_CFA_def_cfa_register: r6 (rbp)
  DW_CFA_advance_loc1: 159 to 00000000000095b3
  DW_CFA_def_cfa: r7 (rsp) ofs 8
  DW_CFA_nop
  DW_CFA_nop

000008ac 000000000000001c 000008b0 FDE cie=00000000 pc=00000000000095b4..00000000000095c6
  DW_CFA_advance_loc: 5 to 00000000000095b9
  DW_CFA_def_cfa_offset: 16
  DW_CFA_offset: r6 (rbp) at cfa-16
  DW_CFA_advance_loc: 3 to 00000000000095bc
  DW_CFA_def_cfa_register: r6 (rbp)
  DW_CFA_advance_loc: 9 to 00000000000095c5
  DW_CFA_def_cfa: r7 (rsp) ofs 8
  DW_CFA_nop
  DW_CFA_nop
  DW_CFA_nop

000008cc 000000000000001c 000008d0 FDE cie=00000000 pc=00000000000095c6..00000000000095e8
  DW_CFA_advance_loc: 5 to 00000000000095cb
  DW_CFA_def_cfa_offset: 16
  DW_CFA_offset: r6 (rbp) at cfa-16
  DW_CFA_advance_loc: 3 to 00000000000095ce
  DW_CFA_def_cfa_register: r6 (rbp)
  DW_CFA_advance_loc: 25 to 00000000000095e7
  DW_CFA_def_cfa: r7 (rsp) ofs 8
  DW_CFA_nop
  DW_CFA_nop
  DW_CFA_nop

000008ec 000000000000001c 000008f0 FDE cie=00000000 pc=00000000000095e8..0000000000009672
  DW_CFA_advance_loc: 5 to 00000000000095ed
  DW_CFA_def_cfa_offset: 16
  DW_CFA_offset: r6 (rbp) at cfa-16
  DW_CFA_advance_loc: 3 to 00000000000095f0
  DW_CFA_def_cfa_register: r6 (rbp)
  DW_CFA_advance_loc1: 129 to 0000000000009671
  DW_CFA_def_cfa: r7 (rsp) ofs 8
  DW_CFA_nop
  DW_CFA_nop

0000090c 000000000000001c 00000910 FDE cie=00000000 pc=0000000000009672..000000000000973f
  DW_CFA_advance_loc: 5 to 0000000000009677
  DW_CFA_def_cfa_offset: 16
  DW_CFA_offset: r6 (rbp) at cfa-16
  DW_CFA_advance_loc: 3 to 000000000000967a
  DW_CFA_def_cfa_register: r6 (rbp)
  DW_CFA_advance_loc1: 196 to 000000000000973e
  DW_CFA_def_cfa: r7 (rsp) ofs 8
  DW_CFA_nop
  DW_CFA_nop

0000092c 000000000000001c 00000930 FDE cie=00000000 pc=000000000000973f..0000000000009779
  DW_CFA_advance_loc: 5 to 0000000000009744
  DW_CFA_def_cfa_offset: 16
  DW_CFA_offset: r6 (rbp) at cfa-16
  DW_CFA_advance_loc: 3 to 0000000000009747
  DW_CFA_def_cfa_register: r6 (rbp)
  DW_CFA_advance_loc: 49 to 0000000000009778
  DW_CFA_def_cfa: r7 (rsp) ofs 8
  DW_CFA_nop
  DW_CFA_nop
  DW_CFA_nop

0000094c 000000000000001c 00000950 FDE cie=00000000 pc=0000000000009779..000000000000982a
  DW_CFA_advance_loc: 5 to 000000000000977e
  DW_CFA_def_cfa_offset: 16
  DW_CFA_offset: r6 (rbp) at cfa-16
  DW_CFA_advance_loc: 3 to 0000000000009781
  DW_CFA_def_cfa_register: r6 (rbp)
  DW_CFA_advance_loc1: 168 to 0000000000009829
  DW_CFA_def_cfa: r7 (rsp) ofs 8
  DW_CFA_nop
  DW_CFA_nop

0000096c 000000000000001c 00000970 FDE cie=00000000 pc=000000000000982a..00000000000098b5
  DW_CFA_advance_loc: 5 to 000000000000982f
  DW_CFA_def_cfa_offset: 16
  DW_CFA_offset: r6 (rbp) at cfa-16
  DW_CFA_advance_loc: 3 to 0000000000009832
  DW_CFA_def_cfa_register: r6 (rbp)
  DW_CFA_advance_loc1: 130 to 00000000000098b4
  DW_CFA_def_cfa: r7 (rsp) ofs 8
  DW_CFA_nop
  DW_CFA_nop

0000098c 000000000000001c 00000990 FDE cie=00000000 pc=00000000000098b5..0000000000009930
  DW_CFA_advance_loc: 5 to 00000000000098ba
  DW_CFA_def_cfa_offset: 16
  DW_CFA_offset: r6 (rbp) at cfa-16
  DW_CFA_advance_loc: 3 to 00000000000098bd
  DW_CFA_def_cfa_register: r6 (rbp)
  DW_CFA_advance_loc1: 114 to 000000000000992f
  DW_CFA_def_cfa: r7 (rsp) ofs 8
  DW_CFA_nop
  DW_CFA_nop

000009ac 000000000000001c 000009b0 FDE cie=00000000 pc=0000000000009930..00000000000099bf
  DW_CFA_advance_loc: 5 to 0000000000009935
  DW_CFA_def_cfa_offset: 16
  DW_CFA_offset: r6 (rbp) at cfa-16
  DW_CFA_advance_loc: 3 to 0000000000009938
  DW_CFA_def_cfa_register: r6 (rbp)
  DW_CFA_advance_loc1: 134 to 00000000000099be
  DW_CFA_def_cfa: r7 (rsp) ofs 8
  DW_CFA_nop
  DW_CFA_nop

000009cc 0000000000000020 000009d0 FDE cie=00000000 pc=00000000000099bf..000000000000a7e8
  DW_CFA_advance_loc: 5 to 00000000000099c4
  DW_CFA_def_cfa_offset: 16
  DW_CFA_offset: r6 (rbp) at cfa-16
  DW_CFA_advance_loc: 3 to 00000000000099c7
  DW_CFA_def_cfa_register: r6 (rbp)
  DW_CFA_advance_loc: 8 to 00000000000099cf
  DW_CFA_offset: r3 (rbx) at cfa-24
  DW_CFA_advance_loc2: 3608 to 000000000000a7e7
  DW_CFA_def_cfa: r7 (rsp) ofs 8
  DW_CFA_nop
  DW_CFA_nop

000009f0 000000000000001c 000009f4 FDE cie=00000000 pc=000000000000a7e8..000000000000a823
  DW_CFA_advance_loc: 5 to 000000000000a7ed
  DW_CFA_def_cfa_offset: 16
  DW_CFA_offset: r6 (rbp) at cfa-16
  DW_CFA_advance_loc: 3 to 000000000000a7f0
  DW_CFA_def_cfa_register: r6 (rbp)
  DW_CFA_advance_loc: 50 to 000000000000a822
  DW_CFA_def_cfa: r7 (rsp) ofs 8
  DW_CFA_nop
  DW_CFA_nop
  DW_CFA_nop

00000a10 000000000000001c 00000a14 FDE cie=00000000 pc=000000000000a823..000000000000a874
  DW_CFA_advance_loc: 5 to 000000000000a828
  DW_CFA_def_cfa_offset: 16
  DW_CFA_offset: r6 (rbp) at cfa-16
  DW_CFA_advance_loc: 3 to 000000000000a82b
  DW_CFA_def_cfa_register: r6 (rbp)
  DW_CFA_advance_loc1: 72 to 000000000000a873
  DW_CFA_def_cfa: r7 (rsp) ofs 8
  DW_CFA_nop
  DW_CFA_nop

00000a30 000000000000001c 00000a34 FDE cie=00000000 pc=000000000000a874..000000000000a8e3
  DW_CFA_advance_loc: 5 to 000000000000a879
  DW_CFA_def_cfa_offset: 16
  DW_CFA_offset: r6 (rbp) at cfa-16
  DW_CFA_advance_loc: 3 to 000000000000a87c
  DW_CFA_def_cfa_register: r6 (rbp)
  DW_CFA_advance_loc1: 102 to 000000000000a8e2
  DW_CFA_def_cfa: r7 (rsp) ofs 8
  DW_CFA_nop
  DW_CFA_nop

00000a50 000000000000001c 00000a54 FDE cie=00000000 pc=000000000000a8e3..000000000000a9b6
  DW_CFA_advance_loc: 5 to 000000000000a8e8
  DW_CFA_def_cfa_offset: 16
  DW_CFA_offset: r6 (rbp) at cfa-16
  DW_CFA_advance_loc: 3 to 000000000000a8eb
  DW_CFA_def_cfa_register: r6 (rbp)
  DW_CFA_advance_loc1: 202 to 000000000000a9b5
  DW_CFA_def_cfa: r7 (rsp) ofs 8
  DW_CFA_nop
  DW_CFA_nop

00000a70 000000000000001c 00000a74 FDE cie=00000000 pc=000000000000a9b6..000000000000a9e4
  DW_CFA_advance_loc: 5 to 000000000000a9bb
  DW_CFA_def_cfa_offset: 16
  DW_CFA_offset: r6 (rbp) at cfa-16
  DW_CFA_advance_loc: 3 to 000000000000a9be
  DW_CFA_def_cfa_register: r6 (rbp)
  DW_CFA_advance_loc: 37 to 000000000000a9e3
  DW_CFA_def_cfa: r7 (rsp) ofs 8
  DW_CFA_nop
  DW_CFA_nop
  DW_CFA_nop

00000a90 000000000000001c 00000a94 FDE cie=00000000 pc=000000000000a9e4..000000000000abb5
  DW_CFA_advance_loc: 5 to 000000000000a9e9
  DW_CFA_def_cfa_offset: 16
  DW_CFA_offset: r6 (rbp) at cfa-16
  DW_CFA_advance_loc: 3 to 000000000000a9ec
  DW_CFA_def_cfa_register: r6 (rbp)
  DW_CFA_advance_loc2: 456 to 000000000000abb4
  DW_CFA_def_cfa: r7 (rsp) ofs 8
  DW_CFA_nop

00000ab0 0000000000000024 00000ab4 FDE cie=00000000 pc=000000000000abb5..000000000000ac81
  DW_CFA_advance_loc: 5 to 000000000000abba
  DW_CFA_def_cfa_offset: 16
  DW_CFA_offset: r6 (rbp) at cfa-16
  DW_CFA_advance_loc: 3 to 000000000000abbd
  DW_CFA_def_cfa_register: r6 (rbp)
  DW_CFA_advance_loc: 9 to 000000000000abc6
  DW_CFA_offset: r13 (r13) at cfa-24
  DW_CFA_offset: r12 (r12) at cfa-32
  DW_CFA_offset: r3 (rbx) at cfa-40
  DW_CFA_advance_loc1: 186 to 000000000000ac80
  DW_CFA_def_cfa: r7 (rsp) ofs 8
  DW_CFA_nop
  DW_CFA_nop
  DW_CFA_nop

00000ad8 0000000000000020 00000adc FDE cie=00000000 pc=000000000000ac81..000000000000ace4
  DW_CFA_advance_loc: 5 to 000000000000ac86
  DW_CFA_def_cfa_offset: 16
  DW_CFA_offset: r6 (rbp) at cfa-16
  DW_CFA_advance_loc: 3 to 000000000000ac89
  DW_CFA_def_cfa_register: r6 (rbp)
  DW_CFA_advance_loc: 5 to 000000000000ac8e
  DW_CFA_offset: r3 (rbx) at cfa-24
  DW_CFA_advance_loc1: 85 to 000000000000ace3
  DW_CFA_def_cfa: r7 (rsp) ofs 8
  DW_CFA_nop
  DW_CFA_nop
  DW_CFA_nop

00000afc 0000000000000024 00000b00 FDE cie=00000000 pc=000000000000ace4..000000000000ad77
  DW_CFA_advance_loc: 5 to 000000000000ace9
  DW_CFA_def_cfa_offset: 16
  DW_CFA_offset: r6 (rbp) at cfa-16
  DW_CFA_advance_loc: 3 to 000000000000acec
  DW_CFA_def_cfa_register: r6 (rbp)
  DW_CFA_advance_loc: 9 to 000000000000acf5
  DW_CFA_offset: r13 (r13) at cfa-24
  DW_CFA_offset: r12 (r12) at cfa-32
  DW_CFA_offset: r3 (rbx) at cfa-40
  DW_CFA_advance_loc1: 129 to 000000000000ad76
  DW_CFA_def_cfa: r7 (rsp) ofs 8
  DW_CFA_nop
  DW_CFA_nop
  DW_CFA_nop

00000b24 0000000000000024 00000b28 FDE cie=00000000 pc=000000000000ad77..000000000000ae0a
  DW_CFA_advance_loc: 5 to 000000000000ad7c
  DW_CFA_def_cfa_offset: 16
  DW_CFA_offset: r6 (rbp) at cfa-16
  DW_CFA_advance_loc: 3 to 000000000000ad7f
  DW_CFA_def_cfa_register: r6 (rbp)
  DW_CFA_advance_loc: 9 to 000000000000ad88
  DW_CFA_offset: r13 (r13) at cfa-24
  DW_CFA_offset: r12 (r12) at cfa-32
  DW_CFA_offset: r3 (rbx) at cfa-40
  DW_CFA_advance_loc1: 129 to 000000000000ae09
  DW_CFA_def_cfa: r7 (rsp) ofs 8
  DW_CFA_nop
  DW_CFA_nop
  DW_CFA_nop

00000b4c 0000000000000024 00000b50 FDE cie=00000000 pc=000000000000ae0a..000000000000ae9d
  DW_CFA_advance_loc: 5 to 000000000000ae0f
  DW_CFA_def_cfa_offset: 16
  DW_CFA_offset: r6 (rbp) at cfa-16
  DW_CFA_advance_loc: 3 to 000000000000ae12
  DW_CFA_def_cfa_register: r6 (rbp)
  DW_CFA_advance_loc: 9 to 000000000000ae1b
  DW_CFA_offset: r13 (r13) at cfa-24
  DW_CFA_offset: r12 (r12) at cfa-32
  DW_CFA_offset: r3 (rbx) at cfa-40
  DW_CFA_advance_loc1: 129 to 000000000000ae9c
  DW_CFA_def_cfa: r7 (rsp) ofs 8
  DW_CFA_nop
  DW_CFA_nop
  DW_CFA_nop

00000b74 0000000000000024 00000b78 FDE cie=00000000 pc=000000000000ae9d..000000000000af30
  DW_CFA_advance_loc: 5 to 000000000000aea2
  DW_CFA_def_cfa_offset: 16
  DW_CFA_offset: r6 (rbp) at cfa-16
  DW_CFA_advance_loc: 3 to 000000000000aea5
  DW_CFA_def_cfa_register: r6 (rbp)
  DW_CFA_advance_loc: 9 to 000000000000aeae
  DW_CFA_offset: r13 (r13) at cfa-24
  DW_CFA_offset: r12 (r12) at cfa-32
  DW_CFA_offset: r3 (rbx) at cfa-40
  DW_CFA_advance_loc1: 129 to 000000000000af2f
  DW_CFA_def_cfa: r7 (rsp) ofs 8
  DW_CFA_nop
  DW_CFA_nop
  DW_CFA_nop

00000b9c 000000000000001c 00000ba0 FDE cie=00000000 pc=000000000000af30..000000000000af61
  DW_CFA_advance_loc: 5 to 000000000000af35
  DW_CFA_def_cfa_offset: 16
  DW_CFA_offset: r6 (rbp) at cfa-16
  DW_CFA_advance_loc: 3 to 000000000000af38
  DW_CFA_def_cfa_register: r6 (rbp)
  DW_CFA_advance_loc: 40 to 000000000000af60
  DW_CFA_def_cfa: r7 (rsp) ofs 8
  DW_CFA_nop
  DW_CFA_nop
  DW_CFA_nop

00000bbc 000000000000001c 00000bc0 FDE cie=00000000 pc=000000000000af61..000000000000afbe
  DW_CFA_advance_loc: 5 to 000000000000af66
  DW_CFA_def_cfa_offset: 16
  DW_CFA_offset: r6 (rbp) at cfa-16
  DW_CFA_advance_loc: 3 to 000000000000af69
  DW_CFA_def_cfa_register: r6 (rbp)
  DW_CFA_advance_loc1: 84 to 000000000000afbd
  DW_CFA_def_cfa: r7 (rsp) ofs 8
  DW_CFA_nop
  DW_CFA_nop

00000bdc 000000000000001c 00000be0 FDE cie=00000000 pc=000000000000afbe..000000000000aff2
  DW_CFA_advance_loc: 5 to 000000000000afc3
  DW_CFA_def_cfa_offset: 16
  DW_CFA_offset: r6 (rbp) at cfa-16
  DW_CFA_advance_loc: 3 to 000000000000afc6
  DW_CFA_def_cfa_register: r6 (rbp)
  DW_CFA_advance_loc: 43 to 000000000000aff1
  DW_CFA_def_cfa: r7 (rsp) ofs 8
  DW_CFA_nop
  DW_CFA_nop
  DW_CFA_nop

00000bfc 000000000000001c 00000c00 FDE cie=00000000 pc=000000000000aff2..000000000000b098
  DW_CFA_advance_loc: 5 to 000000000000aff7
  DW_CFA_def_cfa_offset: 16
  DW_CFA_offset: r6 (rbp) at cfa-16
  DW_CFA_advance_loc: 3 to 000000000000affa
  DW_CFA_def_cfa_register: r6 (rbp)
  DW_CFA_advance_loc1: 157 to 000000000000b097
  DW_CFA_def_cfa: r7 (rsp) ofs 8
  DW_CFA_nop
  DW_CFA_nop

00000c1c 000000000000001c 00000c20 FDE cie=00000000 pc=000000000000b098..000000000000b0ea
  DW_CFA_advance_loc: 5 to 000000000000b09d
  DW_CFA_def_cfa_offset: 16
  DW_CFA_offset: r6 (rbp) at cfa-16
  DW_CFA_advance_loc: 3 to 000000000000b0a0
  DW_CFA_def_cfa_register: r6 (rbp)
  DW_CFA_advance_loc1: 73 to 000000000000b0e9
  DW_CFA_def_cfa: r7 (rsp) ofs 8
  DW_CFA_nop
  DW_CFA_nop

00000c3c 0000000000000020 00000c40 FDE cie=00000000 pc=000000000000b0ea..000000000000b151
  DW_CFA_advance_loc: 5 to 000000000000b0ef
  DW_CFA_def_cfa_offset: 16
  DW_CFA_offset: r6 (rbp) at cfa-16
  DW_CFA_advance_loc: 3 to 000000000000b0f2
  DW_CFA_def_cfa_register: r6 (rbp)
  DW_CFA_advance_loc: 5 to 000000000000b0f7
  DW_CFA_offset: r3 (rbx) at cfa-24
  DW_CFA_advance_loc1: 89 to 000000000000b150
  DW_CFA_def_cfa: r7 (rsp) ofs 8
  DW_CFA_nop
  DW_CFA_nop
  DW_CFA_nop

00000c60 000000000000001c 00000c64 FDE cie=00000000 pc=000000000000b151..000000000000b181
  DW_CFA_advance_loc: 5 to 000000000000b156
  DW_CFA_def_cfa_offset: 16
  DW_CFA_offset: r6 (rbp) at cfa-16
  DW_CFA_advance_loc: 3 to 000000000000b159
  DW_CFA_def_cfa_register: r6 (rbp)
  DW_CFA_advance_loc: 39 to 000000000000b180
  DW_CFA_def_cfa: r7 (rsp) ofs 8
  DW_CFA_nop
  DW_CFA_nop
  DW_CFA_nop

00000c80 000000000000001c 00000c84 FDE cie=00000000 pc=000000000000b181..000000000000b1b1
  DW_CFA_advance_loc: 5 to 000000000000b186
  DW_CFA_def_cfa_offset: 16
  DW_CFA_offset: r6 (rbp) at cfa-16
  DW_CFA_advance_loc: 3 to 000000000000b189
  DW_CFA_def_cfa_register: r6 (rbp)
  DW_CFA_advance_loc: 39 to 000000000000b1b0
  DW_CFA_def_cfa: r7 (rsp) ofs 8
  DW_CFA_nop
  DW_CFA_nop
  DW_CFA_nop

00000ca0 000000000000001c 00000ca4 FDE cie=00000000 pc=000000000000b1b1..000000000000b1e1
  DW_CFA_advance_loc: 5 to 000000000000b1b6
  DW_CFA_def_cfa_offset: 16
  DW_CFA_offset: r6 (rbp) at cfa-16
  DW_CFA_advance_loc: 3 to 000000000000b1b9
  DW_CFA_def_cfa_register: r6 (rbp)
  DW_CFA_advance_loc: 39 to 000000000000b1e0
  DW_CFA_def_cfa: r7 (rsp) ofs 8
  DW_CFA_nop
  DW_CFA_nop
  DW_CFA_nop

00000cc0 000000000000001c 00000cc4 FDE cie=00000000 pc=000000000000b1e1..000000000000b211
  DW_CFA_advance_loc: 5 to 000000000000b1e6
  DW_CFA_def_cfa_offset: 16
  DW_CFA_offset: r6 (rbp) at cfa-16
  DW_CFA_advance_loc: 3 to 000000000000b1e9
  DW_CFA_def_cfa_register: r6 (rbp)
  DW_CFA_advance_loc: 39 to 000000000000b210
  DW_CFA_def_cfa: r7 (rsp) ofs 8
  DW_CFA_nop
  DW_CFA_nop
  DW_CFA_nop

00000ce0 000000000000001c 00000ce4 FDE cie=00000000 pc=000000000000b211..000000000000b241
  DW_CFA_advance_loc: 5 to 000000000000b216
  DW_CFA_def_cfa_offset: 16
  DW_CFA_offset: r6 (rbp) at cfa-16
  DW_CFA_advance_loc: 3 to 000000000000b219
  DW_CFA_def_cfa_register: r6 (rbp)
  DW_CFA_advance_loc: 39 to 000000000000b240
  DW_CFA_def_cfa: r7 (rsp) ofs 8
  DW_CFA_nop
  DW_CFA_nop
  DW_CFA_nop

00000d00 000000000000001c 00000d04 FDE cie=00000000 pc=000000000000b241..000000000000b271
  DW_CFA_advance_loc: 5 to 000000000000b246
  DW_CFA_def_cfa_offset: 16
  DW_CFA_offset: r6 (rbp) at cfa-16
  DW_CFA_advance_loc: 3 to 000000000000b249
  DW_CFA_def_cfa_register: r6 (rbp)
  DW_CFA_advance_loc: 39 to 000000000000b270
  DW_CFA_def_cfa: r7 (rsp) ofs 8
  DW_CFA_nop
  DW_CFA_nop
  DW_CFA_nop

00000d20 000000000000001c 00000d24 FDE cie=00000000 pc=000000000000b271..000000000000b2a1
  DW_CFA_advance_loc: 5 to 000000000000b276
  DW_CFA_def_cfa_offset: 16
  DW_CFA_offset: r6 (rbp) at cfa-16
  DW_CFA_advance_loc: 3 to 000000000000b279
  DW_CFA_def_cfa_register: r6 (rbp)
  DW_CFA_advance_loc: 39 to 000000000000b2a0
  DW_CFA_def_cfa: r7 (rsp) ofs 8
  DW_CFA_nop
  DW_CFA_nop
  DW_CFA_nop

00000d40 000000000000001c 00000d44 FDE cie=00000000 pc=000000000000b2a1..000000000000b2d1
  DW_CFA_advance_loc: 5 to 000000000000b2a6
  DW_CFA_def_cfa_offset: 16
  DW_CFA_offset: r6 (rbp) at cfa-16
  DW_CFA_advance_loc: 3 to 000000000000b2a9
  DW_CFA_def_cfa_register: r6 (rbp)
  DW_CFA_advance_loc: 39 to 000000000000b2d0
  DW_CFA_def_cfa: r7 (rsp) ofs 8
  DW_CFA_nop
  DW_CFA_nop
  DW_CFA_nop

00000d60 000000000000001c 00000d64 FDE cie=00000000 pc=000000000000b2d1..000000000000b301
  DW_CFA_advance_loc: 5 to 000000000000b2d6
  DW_CFA_def_cfa_offset: 16
  DW_CFA_offset: r6 (rbp) at cfa-16
  DW_CFA_advance_loc: 3 to 000000000000b2d9
  DW_CFA_def_cfa_register: r6 (rbp)
  DW_CFA_advance_loc: 39 to 000000000000b300
  DW_CFA_def_cfa: r7 (rsp) ofs 8
  DW_CFA_nop
  DW_CFA_nop
  DW_CFA_nop

00000d80 000000000000001c 00000d84 FDE cie=00000000 pc=000000000000b301..000000000000b331
  DW_CFA_advance_loc: 5 to 000000000000b306
  DW_CFA_def_cfa_offset: 16
  DW_CFA_offset: r6 (rbp) at cfa-16
  DW_CFA_advance_loc: 3 to 000000000000b309
  DW_CFA_def_cfa_register: r6 (rbp)
  DW_CFA_advance_loc: 39 to 000000000000b330
  DW_CFA_def_cfa: r7 (rsp) ofs 8
  DW_CFA_nop
  DW_CFA_nop
  DW_CFA_nop

00000da0 000000000000001c 00000da4 FDE cie=00000000 pc=000000000000b331..000000000000b361
  DW_CFA_advance_loc: 5 to 000000000000b336
  DW_CFA_def_cfa_offset: 16
  DW_CFA_offset: r6 (rbp) at cfa-16
  DW_CFA_advance_loc: 3 to 000000000000b339
  DW_CFA_def_cfa_register: r6 (rbp)
  DW_CFA_advance_loc: 39 to 000000000000b360
  DW_CFA_def_cfa: r7 (rsp) ofs 8
  DW_CFA_nop
  DW_CFA_nop
  DW_CFA_nop

00000dc0 000000000000001c 00000dc4 FDE cie=00000000 pc=000000000000b361..000000000000b391
  DW_CFA_advance_loc: 5 to 000000000000b366
  DW_CFA_def_cfa_offset: 16
  DW_CFA_offset: r6 (rbp) at cfa-16
  DW_CFA_advance_loc: 3 to 000000000000b369
  DW_CFA_def_cfa_register: r6 (rbp)
  DW_CFA_advance_loc: 39 to 000000000000b390
  DW_CFA_def_cfa: r7 (rsp) ofs 8
  DW_CFA_nop
  DW_CFA_nop
  DW_CFA_nop

00000de0 000000000000001c 00000de4 FDE cie=00000000 pc=000000000000b391..000000000000b3c1
  DW_CFA_advance_loc: 5 to 000000000000b396
  DW_CFA_def_cfa_offset: 16
  DW_CFA_offset: r6 (rbp) at cfa-16
  DW_CFA_advance_loc: 3 to 000000000000b399
  DW_CFA_def_cfa_register: r6 (rbp)
  DW_CFA_advance_loc: 39 to 000000000000b3c0
  DW_CFA_def_cfa: r7 (rsp) ofs 8
  DW_CFA_nop
  DW_CFA_nop
  DW_CFA_nop

00000e00 000000000000001c 00000e04 FDE cie=00000000 pc=000000000000b3c1..000000000000b3f1
  DW_CFA_advance_loc: 5 to 000000000000b3c6
  DW_CFA_def_cfa_offset: 16
  DW_CFA_offset: r6 (rbp) at cfa-16
  DW_CFA_advance_loc: 3 to 000000000000b3c9
  DW_CFA_def_cfa_register: r6 (rbp)
  DW_CFA_advance_loc: 39 to 000000000000b3f0
  DW_CFA_def_cfa: r7 (rsp) ofs 8
  DW_CFA_nop
  DW_CFA_nop
  DW_CFA_nop

00000e20 000000000000001c 00000e24 FDE cie=00000000 pc=000000000000b3f1..000000000000b421
  DW_CFA_advance_loc: 5 to 000000000000b3f6
  DW_CFA_def_cfa_offset: 16
  DW_CFA_offset: r6 (rbp) at cfa-16
  DW_CFA_advance_loc: 3 to 000000000000b3f9
  DW_CFA_def_cfa_register: r6 (rbp)
  DW_CFA_advance_loc: 39 to 000000000000b420
  DW_CFA_def_cfa: r7 (rsp) ofs 8
  DW_CFA_nop
  DW_CFA_nop
  DW_CFA_nop

00000e40 000000000000001c 00000e44 FDE cie=00000000 pc=000000000000b421..000000000000b451
  DW_CFA_advance_loc: 5 to 000000000000b426
  DW_CFA_def_cfa_offset: 16
  DW_CFA_offset: r6 (rbp) at cfa-16
  DW_CFA_advance_loc: 3 to 000000000000b429
  DW_CFA_def_cfa_register: r6 (rbp)
  DW_CFA_advance_loc: 39 to 000000000000b450
  DW_CFA_def_cfa: r7 (rsp) ofs 8
  DW_CFA_nop
  DW_CFA_nop
  DW_CFA_nop

00000e60 000000000000001c 00000e64 FDE cie=00000000 pc=000000000000b451..000000000000b481
  DW_CFA_advance_loc: 5 to 000000000000b456
  DW_CFA_def_cfa_offset: 16
  DW_CFA_offset: r6 (rbp) at cfa-16
  DW_CFA_advance_loc: 3 to 000000000000b459
  DW_CFA_def_cfa_register: r6 (rbp)
  DW_CFA_advance_loc: 39 to 000000000000b480
  DW_CFA_def_cfa: r7 (rsp) ofs 8
  DW_CFA_nop
  DW_CFA_nop
  DW_CFA_nop

00000e80 000000000000001c 00000e84 FDE cie=00000000 pc=000000000000b481..000000000000b4b1
  DW_CFA_advance_loc: 5 to 000000000000b486
  DW_CFA_def_cfa_offset: 16
  DW_CFA_offset: r6 (rbp) at cfa-16
  DW_CFA_advance_loc: 3 to 000000000000b489
  DW_CFA_def_cfa_register: r6 (rbp)
  DW_CFA_advance_loc: 39 to 000000000000b4b0
  DW_CFA_def_cfa: r7 (rsp) ofs 8
  DW_CFA_nop
  DW_CFA_nop
  DW_CFA_nop

00000ea0 000000000000001c 00000ea4 FDE cie=00000000 pc=000000000000b4b1..000000000000b4e1
  DW_CFA_advance_loc: 5 to 000000000000b4b6
  DW_CFA_def_cfa_offset: 16
  DW_CFA_offset: r6 (rbp) at cfa-16
  DW_CFA_advance_loc: 3 to 000000000000b4b9
  DW_CFA_def_cfa_register: r6 (rbp)
  DW_CFA_advance_loc: 39 to 000000000000b4e0
  DW_CFA_def_cfa: r7 (rsp) ofs 8
  DW_CFA_nop
  DW_CFA_nop
  DW_CFA_nop

00000ec0 000000000000001c 00000ec4 FDE cie=00000000 pc=000000000000b4e1..000000000000b511
  DW_CFA_advance_loc: 5 to 000000000000b4e6
  DW_CFA_def_cfa_offset: 16
  DW_CFA_offset: r6 (rbp) at cfa-16
  DW_CFA_advance_loc: 3 to 000000000000b4e9
  DW_CFA_def_cfa_register: r6 (rbp)
  DW_CFA_advance_loc: 39 to 000000000000b510
  DW_CFA_def_cfa: r7 (rsp) ofs 8
  DW_CFA_nop
  DW_CFA_nop
  DW_CFA_nop

00000ee0 000000000000001c 00000ee4 FDE cie=00000000 pc=000000000000b511..000000000000b541
  DW_CFA_advance_loc: 5 to 000000000000b516
  DW_CFA_def_cfa_offset: 16
  DW_CFA_offset: r6 (rbp) at cfa-16
  DW_CFA_advance_loc: 3 to 000000000000b519
  DW_CFA_def_cfa_register: r6 (rbp)
  DW_CFA_advance_loc: 39 to 000000000000b540
  DW_CFA_def_cfa: r7 (rsp) ofs 8
  DW_CFA_nop
  DW_CFA_nop
  DW_CFA_nop

00000f00 000000000000001c 00000f04 FDE cie=00000000 pc=000000000000b541..000000000000b571
  DW_CFA_advance_loc: 5 to 000000000000b546
  DW_CFA_def_cfa_offset: 16
  DW_CFA_offset: r6 (rbp) at cfa-16
  DW_CFA_advance_loc: 3 to 000000000000b549
  DW_CFA_def_cfa_register: r6 (rbp)
  DW_CFA_advance_loc: 39 to 000000000000b570
  DW_CFA_def_cfa: r7 (rsp) ofs 8
  DW_CFA_nop
  DW_CFA_nop
  DW_CFA_nop

00000f20 000000000000001c 00000f24 FDE cie=00000000 pc=000000000000b571..000000000000b5a1
  DW_CFA_advance_loc: 5 to 000000000000b576
  DW_CFA_def_cfa_offset: 16
  DW_CFA_offset: r6 (rbp) at cfa-16
  DW_CFA_advance_loc: 3 to 000000000000b579
  DW_CFA_def_cfa_register: r6 (rbp)
  DW_CFA_advance_loc: 39 to 000000000000b5a0
  DW_CFA_def_cfa: r7 (rsp) ofs 8
  DW_CFA_nop
  DW_CFA_nop
  DW_CFA_nop

00000f40 000000000000001c 00000f44 FDE cie=00000000 pc=000000000000b5a1..000000000000b5d1
  DW_CFA_advance_loc: 5 to 000000000000b5a6
  DW_CFA_def_cfa_offset: 16
  DW_CFA_offset: r6 (rbp) at cfa-16
  DW_CFA_advance_loc: 3 to 000000000000b5a9
  DW_CFA_def_cfa_register: r6 (rbp)
  DW_CFA_advance_loc: 39 to 000000000000b5d0
  DW_CFA_def_cfa: r7 (rsp) ofs 8
  DW_CFA_nop
  DW_CFA_nop
  DW_CFA_nop

00000f60 000000000000001c 00000f64 FDE cie=00000000 pc=000000000000b5d1..000000000000b601
  DW_CFA_advance_loc: 5 to 000000000000b5d6
  DW_CFA_def_cfa_offset: 16
  DW_CFA_offset: r6 (rbp) at cfa-16
  DW_CFA_advance_loc: 3 to 000000000000b5d9
  DW_CFA_def_cfa_register: r6 (rbp)
  DW_CFA_advance_loc: 39 to 000000000000b600
  DW_CFA_def_cfa: r7 (rsp) ofs 8
  DW_CFA_nop
  DW_CFA_nop
  DW_CFA_nop

00000f80 000000000000001c 00000f84 FDE cie=00000000 pc=000000000000b601..000000000000b631
  DW_CFA_advance_loc: 5 to 000000000000b606
  DW_CFA_def_cfa_offset: 16
  DW_CFA_offset: r6 (rbp) at cfa-16
  DW_CFA_advance_loc: 3 to 000000000000b609
  DW_CFA_def_cfa_register: r6 (rbp)
  DW_CFA_advance_loc: 39 to 000000000000b630
  DW_CFA_def_cfa: r7 (rsp) ofs 8
  DW_CFA_nop
  DW_CFA_nop
  DW_CFA_nop

00000fa0 000000000000001c 00000fa4 FDE cie=00000000 pc=000000000000b631..000000000000b661
  DW_CFA_advance_loc: 5 to 000000000000b636
  DW_CFA_def_cfa_offset: 16
  DW_CFA_offset: r6 (rbp) at cfa-16
  DW_CFA_advance_loc: 3 to 000000000000b639
  DW_CFA_def_cfa_register: r6 (rbp)
  DW_CFA_advance_loc: 39 to 000000000000b660
  DW_CFA_def_cfa: r7 (rsp) ofs 8
  DW_CFA_nop
  DW_CFA_nop
  DW_CFA_nop

00000fc0 000000000000001c 00000fc4 FDE cie=00000000 pc=000000000000b661..000000000000b691
  DW_CFA_advance_loc: 5 to 000000000000b666
  DW_CFA_def_cfa_offset: 16
  DW_CFA_offset: r6 (rbp) at cfa-16
  DW_CFA_advance_loc: 3 to 000000000000b669
  DW_CFA_def_cfa_register: r6 (rbp)
  DW_CFA_advance_loc: 39 to 000000000000b690
  DW_CFA_def_cfa: r7 (rsp) ofs 8
  DW_CFA_nop
  DW_CFA_nop
  DW_CFA_nop

00000fe0 000000000000001c 00000fe4 FDE cie=00000000 pc=000000000000b691..000000000000b6c1
  DW_CFA_advance_loc: 5 to 000000000000b696
  DW_CFA_def_cfa_offset: 16
  DW_CFA_offset: r6 (rbp) at cfa-16
  DW_CFA_advance_loc: 3 to 000000000000b699
  DW_CFA_def_cfa_register: r6 (rbp)
  DW_CFA_advance_loc: 39 to 000000000000b6c0
  DW_CFA_def_cfa: r7 (rsp) ofs 8
  DW_CFA_nop
  DW_CFA_nop
  DW_CFA_nop

00001000 000000000000001c 00001004 FDE cie=00000000 pc=000000000000b6c1..000000000000b6f1
  DW_CFA_advance_loc: 5 to 000000000000b6c6
  DW_CFA_def_cfa_offset: 16
  DW_CFA_offset: r6 (rbp) at cfa-16
  DW_CFA_advance_loc: 3 to 000000000000b6c9
  DW_CFA_def_cfa_register: r6 (rbp)
  DW_CFA_advance_loc: 39 to 000000000000b6f0
  DW_CFA_def_cfa: r7 (rsp) ofs 8
  DW_CFA_nop
  DW_CFA_nop
  DW_CFA_nop

00001020 000000000000001c 00001024 FDE cie=00000000 pc=000000000000b6f1..000000000000b721
  DW_CFA_advance_loc: 5 to 000000000000b6f6
  DW_CFA_def_cfa_offset: 16
  DW_CFA_offset: r6 (rbp) at cfa-16
  DW_CFA_advance_loc: 3 to 000000000000b6f9
  DW_CFA_def_cfa_register: r6 (rbp)
  DW_CFA_advance_loc: 39 to 000000000000b720
  DW_CFA_def_cfa: r7 (rsp) ofs 8
  DW_CFA_nop
  DW_CFA_nop
  DW_CFA_nop

00001040 000000000000001c 00001044 FDE cie=00000000 pc=000000000000b721..000000000000b751
  DW_CFA_advance_loc: 5 to 000000000000b726
  DW_CFA_def_cfa_offset: 16
  DW_CFA_offset: r6 (rbp) at cfa-16
  DW_CFA_advance_loc: 3 to 000000000000b729
  DW_CFA_def_cfa_register: r6 (rbp)
  DW_CFA_advance_loc: 39 to 000000000000b750
  DW_CFA_def_cfa: r7 (rsp) ofs 8
  DW_CFA_nop
  DW_CFA_nop
  DW_CFA_nop

00001060 000000000000001c 00001064 FDE cie=00000000 pc=000000000000b751..000000000000b781
  DW_CFA_advance_loc: 5 to 000000000000b756
  DW_CFA_def_cfa_offset: 16
  DW_CFA_offset: r6 (rbp) at cfa-16
  DW_CFA_advance_loc: 3 to 000000000000b759
  DW_CFA_def_cfa_register: r6 (rbp)
  DW_CFA_advance_loc: 39 to 000000000000b780
  DW_CFA_def_cfa: r7 (rsp) ofs 8
  DW_CFA_nop
  DW_CFA_nop
  DW_CFA_nop

00001080 000000000000001c 00001084 FDE cie=00000000 pc=000000000000b781..000000000000b7b1
  DW_CFA_advance_loc: 5 to 000000000000b786
  DW_CFA_def_cfa_offset: 16
  DW_CFA_offset: r6 (rbp) at cfa-16
  DW_CFA_advance_loc: 3 to 000000000000b789
  DW_CFA_def_cfa_register: r6 (rbp)
  DW_CFA_advance_loc: 39 to 000000000000b7b0
  DW_CFA_def_cfa: r7 (rsp) ofs 8
  DW_CFA_nop
  DW_CFA_nop
  DW_CFA_nop

000010a0 000000000000001c 000010a4 FDE cie=00000000 pc=000000000000b7b1..000000000000b7e1
  DW_CFA_advance_loc: 5 to 000000000000b7b6
  DW_CFA_def_cfa_offset: 16
  DW_CFA_offset: r6 (rbp) at cfa-16
  DW_CFA_advance_loc: 3 to 000000000000b7b9
  DW_CFA_def_cfa_register: r6 (rbp)
  DW_CFA_advance_loc: 39 to 000000000000b7e0
  DW_CFA_def_cfa: r7 (rsp) ofs 8
  DW_CFA_nop
  DW_CFA_nop
  DW_CFA_nop

000010c0 000000000000001c 000010c4 FDE cie=00000000 pc=000000000000b7e1..000000000000b811
  DW_CFA_advance_loc: 5 to 000000000000b7e6
  DW_CFA_def_cfa_offset: 16
  DW_CFA_offset: r6 (rbp) at cfa-16
  DW_CFA_advance_loc: 3 to 000000000000b7e9
  DW_CFA_def_cfa_register: r6 (rbp)
  DW_CFA_advance_loc: 39 to 000000000000b810
  DW_CFA_def_cfa: r7 (rsp) ofs 8
  DW_CFA_nop
  DW_CFA_nop
  DW_CFA_nop

000010e0 000000000000001c 000010e4 FDE cie=00000000 pc=000000000000b811..000000000000b841
  DW_CFA_advance_loc: 5 to 000000000000b816
  DW_CFA_def_cfa_offset: 16
  DW_CFA_offset: r6 (rbp) at cfa-16
  DW_CFA_advance_loc: 3 to 000000000000b819
  DW_CFA_def_cfa_register: r6 (rbp)
  DW_CFA_advance_loc: 39 to 000000000000b840
  DW_CFA_def_cfa: r7 (rsp) ofs 8
  DW_CFA_nop
  DW_CFA_nop
  DW_CFA_nop

00001100 000000000000001c 00001104 FDE cie=00000000 pc=000000000000b841..000000000000b871
  DW_CFA_advance_loc: 5 to 000000000000b846
  DW_CFA_def_cfa_offset: 16
  DW_CFA_offset: r6 (rbp) at cfa-16
  DW_CFA_advance_loc: 3 to 000000000000b849
  DW_CFA_def_cfa_register: r6 (rbp)
  DW_CFA_advance_loc: 39 to 000000000000b870
  DW_CFA_def_cfa: r7 (rsp) ofs 8
  DW_CFA_nop
  DW_CFA_nop
  DW_CFA_nop

00001120 000000000000001c 00001124 FDE cie=00000000 pc=000000000000b871..000000000000b8a1
  DW_CFA_advance_loc: 5 to 000000000000b876
  DW_CFA_def_cfa_offset: 16
  DW_CFA_offset: r6 (rbp) at cfa-16
  DW_CFA_advance_loc: 3 to 000000000000b879
  DW_CFA_def_cfa_register: r6 (rbp)
  DW_CFA_advance_loc: 39 to 000000000000b8a0
  DW_CFA_def_cfa: r7 (rsp) ofs 8
  DW_CFA_nop
  DW_CFA_nop
  DW_CFA_nop

00001140 000000000000001c 00001144 FDE cie=00000000 pc=000000000000b8a1..000000000000b8d1
  DW_CFA_advance_loc: 5 to 000000000000b8a6
  DW_CFA_def_cfa_offset: 16
  DW_CFA_offset: r6 (rbp) at cfa-16
  DW_CFA_advance_loc: 3 to 000000000000b8a9
  DW_CFA_def_cfa_register: r6 (rbp)
  DW_CFA_advance_loc: 39 to 000000000000b8d0
  DW_CFA_def_cfa: r7 (rsp) ofs 8
  DW_CFA_nop
  DW_CFA_nop
  DW_CFA_nop

00001160 000000000000001c 00001164 FDE cie=00000000 pc=000000000000b8d1..000000000000b901
  DW_CFA_advance_loc: 5 to 000000000000b8d6
  DW_CFA_def_cfa_offset: 16
  DW_CFA_offset: r6 (rbp) at cfa-16
  DW_CFA_advance_loc: 3 to 000000000000b8d9
  DW_CFA_def_cfa_register: r6 (rbp)
  DW_CFA_advance_loc: 39 to 000000000000b900
  DW_CFA_def_cfa: r7 (rsp) ofs 8
  DW_CFA_nop
  DW_CFA_nop
  DW_CFA_nop

00001180 000000000000001c 00001184 FDE cie=00000000 pc=000000000000b901..000000000000b931
  DW_CFA_advance_loc: 5 to 000000000000b906
  DW_CFA_def_cfa_offset: 16
  DW_CFA_offset: r6 (rbp) at cfa-16
  DW_CFA_advance_loc: 3 to 000000000000b909
  DW_CFA_def_cfa_register: r6 (rbp)
  DW_CFA_advance_loc: 39 to 000000000000b930
  DW_CFA_def_cfa: r7 (rsp) ofs 8
  DW_CFA_nop
  DW_CFA_nop
  DW_CFA_nop

000011a0 000000000000001c 000011a4 FDE cie=00000000 pc=000000000000b931..000000000000b961
  DW_CFA_advance_loc: 5 to 000000000000b936
  DW_CFA_def_cfa_offset: 16
  DW_CFA_offset: r6 (rbp) at cfa-16
  DW_CFA_advance_loc: 3 to 000000000000b939
  DW_CFA_def_cfa_register: r6 (rbp)
  DW_CFA_advance_loc: 39 to 000000000000b960
  DW_CFA_def_cfa: r7 (rsp) ofs 8
  DW_CFA_nop
  DW_CFA_nop
  DW_CFA_nop

000011c0 000000000000001c 000011c4 FDE cie=00000000 pc=000000000000b961..000000000000b991
  DW_CFA_advance_loc: 5 to 000000000000b966
  DW_CFA_def_cfa_offset: 16
  DW_CFA_offset: r6 (rbp) at cfa-16
  DW_CFA_advance_loc: 3 to 000000000000b969
  DW_CFA_def_cfa_register: r6 (rbp)
  DW_CFA_advance_loc: 39 to 000000000000b990
  DW_CFA_def_cfa: r7 (rsp) ofs 8
  DW_CFA_nop
  DW_CFA_nop
  DW_CFA_nop

000011e0 000000000000001c 000011e4 FDE cie=00000000 pc=000000000000b991..000000000000b9c1
  DW_CFA_advance_loc: 5 to 000000000000b996
  DW_CFA_def_cfa_offset: 16
  DW_CFA_offset: r6 (rbp) at cfa-16
  DW_CFA_advance_loc: 3 to 000000000000b999
  DW_CFA_def_cfa_register: r6 (rbp)
  DW_CFA_advance_loc: 39 to 000000000000b9c0
  DW_CFA_def_cfa: r7 (rsp) ofs 8
  DW_CFA_nop
  DW_CFA_nop
  DW_CFA_nop

00001200 000000000000001c 00001204 FDE cie=00000000 pc=000000000000b9c1..000000000000b9f1
  DW_CFA_advance_loc: 5 to 000000000000b9c6
  DW_CFA_def_cfa_offset: 16
  DW_CFA_offset: r6 (rbp) at cfa-16
  DW_CFA_advance_loc: 3 to 000000000000b9c9
  DW_CFA_def_cfa_register: r6 (rbp)
  DW_CFA_advance_loc: 39 to 000000000000b9f0
  DW_CFA_def_cfa: r7 (rsp) ofs 8
  DW_CFA_nop
  DW_CFA_nop
  DW_CFA_nop

00001220 000000000000001c 00001224 FDE cie=00000000 pc=000000000000b9f1..000000000000ba21
  DW_CFA_advance_loc: 5 to 000000000000b9f6
  DW_CFA_def_cfa_offset: 16
  DW_CFA_offset: r6 (rbp) at cfa-16
  DW_CFA_advance_loc: 3 to 000000000000b9f9
  DW_CFA_def_cfa_register: r6 (rbp)
  DW_CFA_advance_loc: 39 to 000000000000ba20
  DW_CFA_def_cfa: r7 (rsp) ofs 8
  DW_CFA_nop
  DW_CFA_nop
  DW_CFA_nop

00001240 000000000000001c 00001244 FDE cie=00000000 pc=000000000000ba21..000000000000ba51
  DW_CFA_advance_loc: 5 to 000000000000ba26
  DW_CFA_def_cfa_offset: 16
  DW_CFA_offset: r6 (rbp) at cfa-16
  DW_CFA_advance_loc: 3 to 000000000000ba29
  DW_CFA_def_cfa_register: r6 (rbp)
  DW_CFA_advance_loc: 39 to 000000000000ba50
  DW_CFA_def_cfa: r7 (rsp) ofs 8
  DW_CFA_nop
  DW_CFA_nop
  DW_CFA_nop

00001260 000000000000001c 00001264 FDE cie=00000000 pc=000000000000ba51..000000000000ba81
  DW_CFA_advance_loc: 5 to 000000000000ba56
  DW_CFA_def_cfa_offset: 16
  DW_CFA_offset: r6 (rbp) at cfa-16
  DW_CFA_advance_loc: 3 to 000000000000ba59
  DW_CFA_def_cfa_register: r6 (rbp)
  DW_CFA_advance_loc: 39 to 000000000000ba80
  DW_CFA_def_cfa: r7 (rsp) ofs 8
  DW_CFA_nop
  DW_CFA_nop
  DW_CFA_nop

00001280 000000000000001c 00001284 FDE cie=00000000 pc=000000000000ba81..000000000000bab1
  DW_CFA_advance_loc: 5 to 000000000000ba86
  DW_CFA_def_cfa_offset: 16
  DW_CFA_offset: r6 (rbp) at cfa-16
  DW_CFA_advance_loc: 3 to 000000000000ba89
  DW_CFA_def_cfa_register: r6 (rbp)
  DW_CFA_advance_loc: 39 to 000000000000bab0
  DW_CFA_def_cfa: r7 (rsp) ofs 8
  DW_CFA_nop
  DW_CFA_nop
  DW_CFA_nop

000012a0 000000000000001c 000012a4 FDE cie=00000000 pc=000000000000bab1..000000000000bae1
  DW_CFA_advance_loc: 5 to 000000000000bab6
  DW_CFA_def_cfa_offset: 16
  DW_CFA_offset: r6 (rbp) at cfa-16
  DW_CFA_advance_loc: 3 to 000000000000bab9
  DW_CFA_def_cfa_register: r6 (rbp)
  DW_CFA_advance_loc: 39 to 000000000000bae0
  DW_CFA_def_cfa: r7 (rsp) ofs 8
  DW_CFA_nop
  DW_CFA_nop
  DW_CFA_nop

000012c0 000000000000001c 000012c4 FDE cie=00000000 pc=000000000000bae1..000000000000bb11
  DW_CFA_advance_loc: 5 to 000000000000bae6
  DW_CFA_def_cfa_offset: 16
  DW_CFA_offset: r6 (rbp) at cfa-16
  DW_CFA_advance_loc: 3 to 000000000000bae9
  DW_CFA_def_cfa_register: r6 (rbp)
  DW_CFA_advance_loc: 39 to 000000000000bb10
  DW_CFA_def_cfa: r7 (rsp) ofs 8
  DW_CFA_nop
  DW_CFA_nop
  DW_CFA_nop

000012e0 000000000000001c 000012e4 FDE cie=00000000 pc=000000000000bb11..000000000000bb41
  DW_CFA_advance_loc: 5 to 000000000000bb16
  DW_CFA_def_cfa_offset: 16
  DW_CFA_offset: r6 (rbp) at cfa-16
  DW_CFA_advance_loc: 3 to 000000000000bb19
  DW_CFA_def_cfa_register: r6 (rbp)
  DW_CFA_advance_loc: 39 to 000000000000bb40
  DW_CFA_def_cfa: r7 (rsp) ofs 8
  DW_CFA_nop
  DW_CFA_nop
  DW_CFA_nop

00001300 000000000000001c 00001304 FDE cie=00000000 pc=000000000000bb41..000000000000bb71
  DW_CFA_advance_loc: 5 to 000000000000bb46
  DW_CFA_def_cfa_offset: 16
  DW_CFA_offset: r6 (rbp) at cfa-16
  DW_CFA_advance_loc: 3 to 000000000000bb49
  DW_CFA_def_cfa_register: r6 (rbp)
  DW_CFA_advance_loc: 39 to 000000000000bb70
  DW_CFA_def_cfa: r7 (rsp) ofs 8
  DW_CFA_nop
  DW_CFA_nop
  DW_CFA_nop

00001320 000000000000001c 00001324 FDE cie=00000000 pc=000000000000bb71..000000000000bba1
  DW_CFA_advance_loc: 5 to 000000000000bb76
  DW_CFA_def_cfa_offset: 16
  DW_CFA_offset: r6 (rbp) at cfa-16
  DW_CFA_advance_loc: 3 to 000000000000bb79
  DW_CFA_def_cfa_register: r6 (rbp)
  DW_CFA_advance_loc: 39 to 000000000000bba0
  DW_CFA_def_cfa: r7 (rsp) ofs 8
  DW_CFA_nop
  DW_CFA_nop
  DW_CFA_nop

00001340 000000000000001c 00001344 FDE cie=00000000 pc=000000000000bba1..000000000000bbd1
  DW_CFA_advance_loc: 5 to 000000000000bba6
  DW_CFA_def_cfa_offset: 16
  DW_CFA_offset: r6 (rbp) at cfa-16
  DW_CFA_advance_loc: 3 to 000000000000bba9
  DW_CFA_def_cfa_register: r6 (rbp)
  DW_CFA_advance_loc: 39 to 000000000000bbd0
  DW_CFA_def_cfa: r7 (rsp) ofs 8
  DW_CFA_nop
  DW_CFA_nop
  DW_CFA_nop

00001360 000000000000001c 00001364 FDE cie=00000000 pc=000000000000bbd1..000000000000bc01
  DW_CFA_advance_loc: 5 to 000000000000bbd6
  DW_CFA_def_cfa_offset: 16
  DW_CFA_offset: r6 (rbp) at cfa-16
  DW_CFA_advance_loc: 3 to 000000000000bbd9
  DW_CFA_def_cfa_register: r6 (rbp)
  DW_CFA_advance_loc: 39 to 000000000000bc00
  DW_CFA_def_cfa: r7 (rsp) ofs 8
  DW_CFA_nop
  DW_CFA_nop
  DW_CFA_nop

00001380 000000000000001c 00001384 FDE cie=00000000 pc=000000000000bc01..000000000000bc31
  DW_CFA_advance_loc: 5 to 000000000000bc06
  DW_CFA_def_cfa_offset: 16
  DW_CFA_offset: r6 (rbp) at cfa-16
  DW_CFA_advance_loc: 3 to 000000000000bc09
  DW_CFA_def_cfa_register: r6 (rbp)
  DW_CFA_advance_loc: 39 to 000000000000bc30
  DW_CFA_def_cfa: r7 (rsp) ofs 8
  DW_CFA_nop
  DW_CFA_nop
  DW_CFA_nop

000013a0 000000000000001c 000013a4 FDE cie=00000000 pc=000000000000bc31..000000000000bc61
  DW_CFA_advance_loc: 5 to 000000000000bc36
  DW_CFA_def_cfa_offset: 16
  DW_CFA_offset: r6 (rbp) at cfa-16
  DW_CFA_advance_loc: 3 to 000000000000bc39
  DW_CFA_def_cfa_register: r6 (rbp)
  DW_CFA_advance_loc: 39 to 000000000000bc60
  DW_CFA_def_cfa: r7 (rsp) ofs 8
  DW_CFA_nop
  DW_CFA_nop
  DW_CFA_nop

000013c0 000000000000001c 000013c4 FDE cie=00000000 pc=000000000000bc61..000000000000bc91
  DW_CFA_advance_loc: 5 to 000000000000bc66
  DW_CFA_def_cfa_offset: 16
  DW_CFA_offset: r6 (rbp) at cfa-16
  DW_CFA_advance_loc: 3 to 000000000000bc69
  DW_CFA_def_cfa_register: r6 (rbp)
  DW_CFA_advance_loc: 39 to 000000000000bc90
  DW_CFA_def_cfa: r7 (rsp) ofs 8
  DW_CFA_nop
  DW_CFA_nop
  DW_CFA_nop

000013e0 000000000000001c 000013e4 FDE cie=00000000 pc=000000000000bc91..000000000000bcc1
  DW_CFA_advance_loc: 5 to 000000000000bc96
  DW_CFA_def_cfa_offset: 16
  DW_CFA_offset: r6 (rbp) at cfa-16
  DW_CFA_advance_loc: 3 to 000000000000bc99
  DW_CFA_def_cfa_register: r6 (rbp)
  DW_CFA_advance_loc: 39 to 000000000000bcc0
  DW_CFA_def_cfa: r7 (rsp) ofs 8
  DW_CFA_nop
  DW_CFA_nop
  DW_CFA_nop

00001400 000000000000001c 00001404 FDE cie=00000000 pc=000000000000bcc1..000000000000bcf1
  DW_CFA_advance_loc: 5 to 000000000000bcc6
  DW_CFA_def_cfa_offset: 16
  DW_CFA_offset: r6 (rbp) at cfa-16
  DW_CFA_advance_loc: 3 to 000000000000bcc9
  DW_CFA_def_cfa_register: r6 (rbp)
  DW_CFA_advance_loc: 39 to 000000000000bcf0
  DW_CFA_def_cfa: r7 (rsp) ofs 8
  DW_CFA_nop
  DW_CFA_nop
  DW_CFA_nop

00001420 000000000000001c 00001424 FDE cie=00000000 pc=000000000000bcf1..000000000000bd21
  DW_CFA_advance_loc: 5 to 000000000000bcf6
  DW_CFA_def_cfa_offset: 16
  DW_CFA_offset: r6 (rbp) at cfa-16
  DW_CFA_advance_loc: 3 to 000000000000bcf9
  DW_CFA_def_cfa_register: r6 (rbp)
  DW_CFA_advance_loc: 39 to 000000000000bd20
  DW_CFA_def_cfa: r7 (rsp) ofs 8
  DW_CFA_nop
  DW_CFA_nop
  DW_CFA_nop

00001440 000000000000001c 00001444 FDE cie=00000000 pc=000000000000bd21..000000000000bd51
  DW_CFA_advance_loc: 5 to 000000000000bd26
  DW_CFA_def_cfa_offset: 16
  DW_CFA_offset: r6 (rbp) at cfa-16
  DW_CFA_advance_loc: 3 to 000000000000bd29
  DW_CFA_def_cfa_register: r6 (rbp)
  DW_CFA_advance_loc: 39 to 000000000000bd50
  DW_CFA_def_cfa: r7 (rsp) ofs 8
  DW_CFA_nop
  DW_CFA_nop
  DW_CFA_nop

00001460 000000000000001c 00001464 FDE cie=00000000 pc=000000000000bd51..000000000000bda7
  DW_CFA_advance_loc: 5 to 000000000000bd56
  DW_CFA_def_cfa_offset: 16
  DW_CFA_offset: r6 (rbp) at cfa-16
  DW_CFA_advance_loc: 3 to 000000000000bd59
  DW_CFA_def_cfa_register: r6 (rbp)
  DW_CFA_advance_loc1: 77 to 000000000000bda6
  DW_CFA_def_cfa: r7 (rsp) ofs 8
  DW_CFA_nop
  DW_CFA_nop

00001480 000000000000001c 00001484 FDE cie=00000000 pc=000000000000bda7..000000000000bdd0
  DW_CFA_advance_loc: 5 to 000000000000bdac
  DW_CFA_def_cfa_offset: 16
  DW_CFA_offset: r6 (rbp) at cfa-16
  DW_CFA_advance_loc: 3 to 000000000000bdaf
  DW_CFA_def_cfa_register: r6 (rbp)
  DW_CFA_advance_loc: 32 to 000000000000bdcf
  DW_CFA_def_cfa: r7 (rsp) ofs 8
  DW_CFA_nop
  DW_CFA_nop
  DW_CFA_nop

000014a0 000000000000001c 000014a4 FDE cie=00000000 pc=000000000000bdd0..000000000000bdf9
  DW_CFA_advance_loc: 5 to 000000000000bdd5
  DW_CFA_def_cfa_offset: 16
  DW_CFA_offset: r6 (rbp) at cfa-16
  DW_CFA_advance_loc: 3 to 000000000000bdd8
  DW_CFA_def_cfa_register: r6 (rbp)
  DW_CFA_advance_loc: 32 to 000000000000bdf8
  DW_CFA_def_cfa: r7 (rsp) ofs 8
  DW_CFA_nop
  DW_CFA_nop
  DW_CFA_nop

000014c0 000000000000001c 000014c4 FDE cie=00000000 pc=000000000000bdf9..000000000000be29
  DW_CFA_advance_loc: 5 to 000000000000bdfe
  DW_CFA_def_cfa_offset: 16
  DW_CFA_offset: r6 (rbp) at cfa-16
  DW_CFA_advance_loc: 3 to 000000000000be01
  DW_CFA_def_cfa_register: r6 (rbp)
  DW_CFA_advance_loc: 39 to 000000000000be28
  DW_CFA_def_cfa: r7 (rsp) ofs 8
  DW_CFA_nop
  DW_CFA_nop
  DW_CFA_nop

000014e0 000000000000001c 000014e4 FDE cie=00000000 pc=000000000000be29..000000000000be59
  DW_CFA_advance_loc: 5 to 000000000000be2e
  DW_CFA_def_cfa_offset: 16
  DW_CFA_offset: r6 (rbp) at cfa-16
  DW_CFA_advance_loc: 3 to 000000000000be31
  DW_CFA_def_cfa_register: r6 (rbp)
  DW_CFA_advance_loc: 39 to 000000000000be58
  DW_CFA_def_cfa: r7 (rsp) ofs 8
  DW_CFA_nop
  DW_CFA_nop
  DW_CFA_nop

00001500 000000000000001c 00001504 FDE cie=00000000 pc=000000000000be59..000000000000bebc
  DW_CFA_advance_loc: 5 to 000000000000be5e
  DW_CFA_def_cfa_offset: 16
  DW_CFA_offset: r6 (rbp) at cfa-16
  DW_CFA_advance_loc: 3 to 000000000000be61
  DW_CFA_def_cfa_register: r6 (rbp)
  DW_CFA_advance_loc1: 90 to 000000000000bebb
  DW_CFA_def_cfa: r7 (rsp) ofs 8
  DW_CFA_nop
  DW_CFA_nop

00001520 000000000000001c 00001524 FDE cie=00000000 pc=000000000000bebc..000000000000bf44
  DW_CFA_advance_loc: 5 to 000000000000bec1
  DW_CFA_def_cfa_offset: 16
  DW_CFA_offset: r6 (rbp) at cfa-16
  DW_CFA_advance_loc: 3 to 000000000000bec4
  DW_CFA_def_cfa_register: r6 (rbp)
  DW_CFA_advance_loc1: 127 to 000000000000bf43
  DW_CFA_def_cfa: r7 (rsp) ofs 8
  DW_CFA_nop
  DW_CFA_nop

00001540 000000000000001c 00001544 FDE cie=00000000 pc=000000000000bf44..000000000000c0ac
  DW_CFA_advance_loc: 5 to 000000000000bf49
  DW_CFA_def_cfa_offset: 16
  DW_CFA_offset: r6 (rbp) at cfa-16
  DW_CFA_advance_loc: 3 to 000000000000bf4c
  DW_CFA_def_cfa_register: r6 (rbp)
  DW_CFA_advance_loc2: 351 to 000000000000c0ab
  DW_CFA_def_cfa: r7 (rsp) ofs 8
  DW_CFA_nop

00001560 000000000000001c 00001564 FDE cie=00000000 pc=000000000000c0ac..000000000000c1de
  DW_CFA_advance_loc: 5 to 000000000000c0b1
  DW_CFA_def_cfa_offset: 16
  DW_CFA_offset: r6 (rbp) at cfa-16
  DW_CFA_advance_loc: 3 to 000000000000c0b4
  DW_CFA_def_cfa_register: r6 (rbp)
  DW_CFA_advance_loc2: 297 to 000000000000c1dd
  DW_CFA_def_cfa: r7 (rsp) ofs 8
  DW_CFA_nop

00001580 000000000000001c 00001584 FDE cie=00000000 pc=000000000000c1de..000000000000c287
  DW_CFA_advance_loc: 5 to 000000000000c1e3
  DW_CFA_def_cfa_offset: 16
  DW_CFA_offset: r6 (rbp) at cfa-16
  DW_CFA_advance_loc: 3 to 000000000000c1e6
  DW_CFA_def_cfa_register: r6 (rbp)
  DW_CFA_advance_loc1: 160 to 000000000000c286
  DW_CFA_def_cfa: r7 (rsp) ofs 8
  DW_CFA_nop
  DW_CFA_nop

000015a0 000000000000001c 000015a4 FDE cie=00000000 pc=000000000000c287..000000000000c37b
  DW_CFA_advance_loc: 5 to 000000000000c28c
  DW_CFA_def_cfa_offset: 16
  DW_CFA_offset: r6 (rbp) at cfa-16
  DW_CFA_advance_loc: 3 to 000000000000c28f
  DW_CFA_def_cfa_register: r6 (rbp)
  DW_CFA_advance_loc1: 235 to 000000000000c37a
  DW_CFA_def_cfa: r7 (rsp) ofs 8
  DW_CFA_nop
  DW_CFA_nop

000015c0 000000000000001c 000015c4 FDE cie=00000000 pc=000000000000c37b..000000000000c41d
  DW_CFA_advance_loc: 5 to 000000000000c380
  DW_CFA_def_cfa_offset: 16
  DW_CFA_offset: r6 (rbp) at cfa-16
  DW_CFA_advance_loc: 3 to 000000000000c383
  DW_CFA_def_cfa_register: r6 (rbp)
  DW_CFA_advance_loc1: 153 to 000000000000c41c
  DW_CFA_def_cfa: r7 (rsp) ofs 8
  DW_CFA_nop
  DW_CFA_nop

000015e0 0000000000000020 000015e4 FDE cie=00000000 pc=000000000000c41d..000000000000c47d
  DW_CFA_advance_loc: 5 to 000000000000c422
  DW_CFA_def_cfa_offset: 16
  DW_CFA_offset: r6 (rbp) at cfa-16
  DW_CFA_advance_loc: 3 to 000000000000c425
  DW_CFA_def_cfa_register: r6 (rbp)
  DW_CFA_advance_loc: 5 to 000000000000c42a
  DW_CFA_offset: r3 (rbx) at cfa-24
  DW_CFA_advance_loc1: 82 to 000000000000c47c
  DW_CFA_def_cfa: r7 (rsp) ofs 8
  DW_CFA_nop
  DW_CFA_nop
  DW_CFA_nop

00001604 0000000000000020 00001608 FDE cie=00000000 pc=000000000000c47d..000000000000c4dd
  DW_CFA_advance_loc: 5 to 000000000000c482
  DW_CFA_def_cfa_offset: 16
  DW_CFA_offset: r6 (rbp) at cfa-16
  DW_CFA_advance_loc: 3 to 000000000000c485
  DW_CFA_def_cfa_register: r6 (rbp)
  DW_CFA_advance_loc: 5 to 000000000000c48a
  DW_CFA_offset: r3 (rbx) at cfa-24
  DW_CFA_advance_loc1: 82 to 000000000000c4dc
  DW_CFA_def_cfa: r7 (rsp) ofs 8
  DW_CFA_nop
  DW_CFA_nop
  DW_CFA_nop

00001628 000000000000001c 0000162c FDE cie=00000000 pc=000000000000c4dd..000000000000c542
  DW_CFA_advance_loc: 5 to 000000000000c4e2
  DW_CFA_def_cfa_offset: 16
  DW_CFA_offset: r6 (rbp) at cfa-16
  DW_CFA_advance_loc: 3 to 000000000000c4e5
  DW_CFA_def_cfa_register: r6 (rbp)
  DW_CFA_advance_loc1: 92 to 000000000000c541
  DW_CFA_def_cfa: r7 (rsp) ofs 8
  DW_CFA_nop
  DW_CFA_nop

00001648 000000000000001c 0000164c FDE cie=00000000 pc=000000000000c542..000000000000c582
  DW_CFA_advance_loc: 5 to 000000000000c547
  DW_CFA_def_cfa_offset: 16
  DW_CFA_offset: r6 (rbp) at cfa-16
  DW_CFA_advance_loc: 3 to 000000000000c54a
  DW_CFA_def_cfa_register: r6 (rbp)
  DW_CFA_advance_loc: 5 to 000000000000c54f
  DW_CFA_offset: r3 (rbx) at cfa-24
  DW_CFA_advance_loc: 50 to 000000000000c581
  DW_CFA_def_cfa: r7 (rsp) ofs 8

00001668 000000000000001c 0000166c FDE cie=00000000 pc=000000000000c582..000000000000c5c2
  DW_CFA_advance_loc: 5 to 000000000000c587
  DW_CFA_def_cfa_offset: 16
  DW_CFA_offset: r6 (rbp) at cfa-16
  DW_CFA_advance_loc: 3 to 000000000000c58a
  DW_CFA_def_cfa_register: r6 (rbp)
  DW_CFA_advance_loc: 5 to 000000000000c58f
  DW_CFA_offset: r3 (rbx) at cfa-24
  DW_CFA_advance_loc: 50 to 000000000000c5c1
  DW_CFA_def_cfa: r7 (rsp) ofs 8

00001688 000000000000001c 0000168c FDE cie=00000000 pc=000000000000c5c2..000000000000c647
  DW_CFA_advance_loc: 5 to 000000000000c5c7
  DW_CFA_def_cfa_offset: 16
  DW_CFA_offset: r6 (rbp) at cfa-16
  DW_CFA_advance_loc: 3 to 000000000000c5ca
  DW_CFA_def_cfa_register: r6 (rbp)
  DW_CFA_advance_loc1: 124 to 000000000000c646
  DW_CFA_def_cfa: r7 (rsp) ofs 8
  DW_CFA_nop
  DW_CFA_nop

000016a8 0000000000000020 000016ac FDE cie=00000000 pc=000000000000c647..000000000000d08b
  DW_CFA_advance_loc: 5 to 000000000000c64c
  DW_CFA_def_cfa_offset: 16
  DW_CFA_offset: r6 (rbp) at cfa-16
  DW_CFA_advance_loc: 3 to 000000000000c64f
  DW_CFA_def_cfa_register: r6 (rbp)
  DW_CFA_advance_loc: 22 to 000000000000c665
  DW_CFA_offset: r12 (r12) at cfa-24
  DW_CFA_offset: r3 (rbx) at cfa-32
  DW_CFA_advance_loc2: 2597 to 000000000000d08a
  DW_CFA_def_cfa: r7 (rsp) ofs 8

000016cc 0000000000000020 000016d0 FDE cie=00000000 pc=000000000000d08b..000000000000d5f0
  DW_CFA_advance_loc: 5 to 000000000000d090
  DW_CFA_def_cfa_offset: 16
  DW_CFA_offset: r6 (rbp) at cfa-16
  DW_CFA_advance_loc: 3 to 000000000000d093
  DW_CFA_def_cfa_register: r6 (rbp)
  DW_CFA_advance_loc: 8 to 000000000000d09b
  DW_CFA_offset: r3 (rbx) at cfa-24
  DW_CFA_advance_loc2: 1364 to 000000000000d5ef
  DW_CFA_def_cfa: r7 (rsp) ofs 8
  DW_CFA_nop
  DW_CFA_nop

000016f0 000000000000001c 000016f4 FDE cie=00000000 pc=000000000000d5f0..000000000000d6f4
  DW_CFA_advance_loc: 5 to 000000000000d5f5
  DW_CFA_def_cfa_offset: 16
  DW_CFA_offset: r6 (rbp) at cfa-16
  DW_CFA_advance_loc: 3 to 000000000000d5f8
  DW_CFA_def_cfa_register: r6 (rbp)
  DW_CFA_advance_loc1: 251 to 000000000000d6f3
  DW_CFA_def_cfa: r7 (rsp) ofs 8
  DW_CFA_nop
  DW_CFA_nop

00001710 000000000000001c 00001714 FDE cie=00000000 pc=000000000000d6f4..000000000000d7fe
  DW_CFA_advance_loc: 5 to 000000000000d6f9
  DW_CFA_def_cfa_offset: 16
  DW_CFA_offset: r6 (rbp) at cfa-16
  DW_CFA_advance_loc: 3 to 000000000000d6fc
  DW_CFA_def_cfa_register: r6 (rbp)
  DW_CFA_advance_loc2: 257 to 000000000000d7fd
  DW_CFA_def_cfa: r7 (rsp) ofs 8
  DW_CFA_nop

00001730 000000000000001c 00001734 FDE cie=00000000 pc=000000000000d7fe..000000000000db1f
  DW_CFA_advance_loc: 5 to 000000000000d803
  DW_CFA_def_cfa_offset: 16
  DW_CFA_offset: r6 (rbp) at cfa-16
  DW_CFA_advance_loc: 3 to 000000000000d806
  DW_CFA_def_cfa_register: r6 (rbp)
  DW_CFA_advance_loc2: 792 to 000000000000db1e
  DW_CFA_def_cfa: r7 (rsp) ofs 8
  DW_CFA_nop

00001750 000000000000001c 00001754 FDE cie=00000000 pc=000000000000db1f..000000000000dc6c
  DW_CFA_advance_loc: 5 to 000000000000db24
  DW_CFA_def_cfa_offset: 16
  DW_CFA_offset: r6 (rbp) at cfa-16
  DW_CFA_advance_loc: 3 to 000000000000db27
  DW_CFA_def_cfa_register: r6 (rbp)
  DW_CFA_advance_loc2: 324 to 000000000000dc6b
  DW_CFA_def_cfa: r7 (rsp) ofs 8
  DW_CFA_nop

00001770 000000000000001c 00001774 FDE cie=00000000 pc=000000000000dc6c..000000000000dcc1
  DW_CFA_advance_loc: 5 to 000000000000dc71
  DW_CFA_def_cfa_offset: 16
  DW_CFA_offset: r6 (rbp) at cfa-16
  DW_CFA_advance_loc: 3 to 000000000000dc74
  DW_CFA_def_cfa_register: r6 (rbp)
  DW_CFA_advance_loc1: 76 to 000000000000dcc0
  DW_CFA_def_cfa: r7 (rsp) ofs 8
  DW_CFA_nop
  DW_CFA_nop

00001790 000000000000001c 00001794 FDE cie=00000000 pc=000000000000dcc1..000000000000deac
  DW_CFA_advance_loc: 5 to 000000000000dcc6
  DW_CFA_def_cfa_offset: 16
  DW_CFA_offset: r6 (rbp) at cfa-16
  DW_CFA_advance_loc: 3 to 000000000000dcc9
  DW_CFA_def_cfa_register: r6 (rbp)
  DW_CFA_advance_loc2: 482 to 000000000000deab
  DW_CFA_def_cfa: r7 (rsp) ofs 8
  DW_CFA_nop

000017b0 000000000000001c 000017b4 FDE cie=00000000 pc=000000000000deac..000000000000dfe5
  DW_CFA_advance_loc: 5 to 000000000000deb1
  DW_CFA_def_cfa_offset: 16
  DW_CFA_offset: r6 (rbp) at cfa-16
  DW_CFA_advance_loc: 3 to 000000000000deb4
  DW_CFA_def_cfa_register: r6 (rbp)
  DW_CFA_advance_loc2: 304 to 000000000000dfe4
  DW_CFA_def_cfa: r7 (rsp) ofs 8
  DW_CFA_nop

000017d0 000000000000001c 000017d4 FDE cie=00000000 pc=000000000000dfe5..000000000000e02c
  DW_CFA_advance_loc: 5 to 000000000000dfea
  DW_CFA_def_cfa_offset: 16
  DW_CFA_offset: r6 (rbp) at cfa-16
  DW_CFA_advance_loc: 3 to 000000000000dfed
  DW_CFA_def_cfa_register: r6 (rbp)
  DW_CFA_advance_loc: 62 to 000000000000e02b
  DW_CFA_def_cfa: r7 (rsp) ofs 8
  DW_CFA_nop
  DW_CFA_nop
  DW_CFA_nop

000017f0 000000000000001c 000017f4 FDE cie=00000000 pc=000000000000e02c..000000000000e08a
  DW_CFA_advance_loc: 5 to 000000000000e031
  DW_CFA_def_cfa_offset: 16
  DW_CFA_offset: r6 (rbp) at cfa-16
  DW_CFA_advance_loc: 3 to 000000000000e034
  DW_CFA_def_cfa_register: r6 (rbp)
  DW_CFA_advance_loc1: 85 to 000000000000e089
  DW_CFA_def_cfa: r7 (rsp) ofs 8
  DW_CFA_nop
  DW_CFA_nop

00001810 000000000000001c 00001814 FDE cie=00000000 pc=000000000000e08a..000000000000e453
  DW_CFA_advance_loc: 5 to 000000000000e08f
  DW_CFA_def_cfa_offset: 16
  DW_CFA_offset: r6 (rbp) at cfa-16
  DW_CFA_advance_loc: 3 to 000000000000e092
  DW_CFA_def_cfa_register: r6 (rbp)
  DW_CFA_advance_loc2: 960 to 000000000000e452
  DW_CFA_def_cfa: r7 (rsp) ofs 8
  DW_CFA_nop

00001830 000000000000001c 00001834 FDE cie=00000000 pc=000000000000e453..000000000000e4b9
  DW_CFA_advance_loc: 5 to 000000000000e458
  DW_CFA_def_cfa_offset: 16
  DW_CFA_offset: r6 (rbp) at cfa-16
  DW_CFA_advance_loc: 3 to 000000000000e45b
  DW_CFA_def_cfa_register: r6 (rbp)
  DW_CFA_advance_loc1: 93 to 000000000000e4b8
  DW_CFA_def_cfa: r7 (rsp) ofs 8
  DW_CFA_nop
  DW_CFA_nop

00001850 000000000000001c 00001854 FDE cie=00000000 pc=000000000000e4b9..000000000000e691
  DW_CFA_advance_loc: 5 to 000000000000e4be
  DW_CFA_def_cfa_offset: 16
  DW_CFA_offset: r6 (rbp) at cfa-16
  DW_CFA_advance_loc: 3 to 000000000000e4c1
  DW_CFA_def_cfa_register: r6 (rbp)
  DW_CFA_advance_loc2: 463 to 000000000000e690
  DW_CFA_def_cfa: r7 (rsp) ofs 8
  DW_CFA_nop

00001870 000000000000001c 00001874 FDE cie=00000000 pc=000000000000e691..000000000000e7f3
  DW_CFA_advance_loc: 5 to 000000000000e696
  DW_CFA_def_cfa_offset: 16
  DW_CFA_offset: r6 (rbp) at cfa-16
  DW_CFA_advance_loc: 3 to 000000000000e699
  DW_CFA_def_cfa_register: r6 (rbp)
  DW_CFA_advance_loc2: 345 to 000000000000e7f2
  DW_CFA_def_cfa: r7 (rsp) ofs 8
  DW_CFA_nop

00001890 000000000000001c 00001894 FDE cie=00000000 pc=000000000000e7f3..000000000000e95f
  DW_CFA_advance_loc: 5 to 000000000000e7f8
  DW_CFA_def_cfa_offset: 16
  DW_CFA_offset: r6 (rbp) at cfa-16
  DW_CFA_advance_loc: 3 to 000000000000e7fb
  DW_CFA_def_cfa_register: r6 (rbp)
  DW_CFA_advance_loc2: 355 to 000000000000e95e
  DW_CFA_def_cfa: r7 (rsp) ofs 8
  DW_CFA_nop

000018b0 000000000000001c 000018b4 FDE cie=00000000 pc=000000000000e95f..000000000000ea78
  DW_CFA_advance_loc: 5 to 000000000000e964
  DW_CFA_def_cfa_offset: 16
  DW_CFA_offset: r6 (rbp) at cfa-16
  DW_CFA_advance_loc: 3 to 000000000000e967
  DW_CFA_def_cfa_register: r6 (rbp)
  DW_CFA_advance_loc2: 272 to 000000000000ea77
  DW_CFA_def_cfa: r7 (rsp) ofs 8
  DW_CFA_nop

000018d0 000000000000001c 000018d4 FDE cie=00000000 pc=000000000000ea78..000000000000eb1d
  DW_CFA_advance_loc: 5 to 000000000000ea7d
  DW_CFA_def_cfa_offset: 16
  DW_CFA_offset: r6 (rbp) at cfa-16
  DW_CFA_advance_loc: 3 to 000000000000ea80
  DW_CFA_def_cfa_register: r6 (rbp)
  DW_CFA_advance_loc1: 156 to 000000000000eb1c
  DW_CFA_def_cfa: r7 (rsp) ofs 8
  DW_CFA_nop
  DW_CFA_nop

000018f0 000000000000001c 000018f4 FDE cie=00000000 pc=000000000000eb1d..000000000000ebd9
  DW_CFA_advance_loc: 5 to 000000000000eb22
  DW_CFA_def_cfa_offset: 16
  DW_CFA_offset: r6 (rbp) at cfa-16
  DW_CFA_advance_loc: 3 to 000000000000eb25
  DW_CFA_def_cfa_register: r6 (rbp)
  DW_CFA_advance_loc1: 179 to 000000000000ebd8
  DW_CFA_def_cfa: r7 (rsp) ofs 8
  DW_CFA_nop
  DW_CFA_nop

00001910 000000000000001c 00001914 FDE cie=00000000 pc=000000000000ebd9..000000000000edfc
  DW_CFA_advance_loc: 5 to 000000000000ebde
  DW_CFA_def_cfa_offset: 16
  DW_CFA_offset: r6 (rbp) at cfa-16
  DW_CFA_advance_loc: 3 to 000000000000ebe1
  DW_CFA_def_cfa_register: r6 (rbp)
  DW_CFA_advance_loc2: 538 to 000000000000edfb
  DW_CFA_def_cfa: r7 (rsp) ofs 8
  DW_CFA_nop

00001930 000000000000001c 00001934 FDE cie=00000000 pc=000000000000edfc..000000000000f0be
  DW_CFA_advance_loc: 5 to 000000000000ee01
  DW_CFA_def_cfa_offset: 16
  DW_CFA_offset: r6 (rbp) at cfa-16
  DW_CFA_advance_loc: 3 to 000000000000ee04
  DW_CFA_def_cfa_register: r6 (rbp)
  DW_CFA_advance_loc2: 697 to 000000000000f0bd
  DW_CFA_def_cfa: r7 (rsp) ofs 8
  DW_CFA_nop

00001950 000000000000001c 00001954 FDE cie=00000000 pc=000000000000f0be..000000000000f729
  DW_CFA_advance_loc: 5 to 000000000000f0c3
  DW_CFA_def_cfa_offset: 16
  DW_CFA_offset: r6 (rbp) at cfa-16
  DW_CFA_advance_loc: 3 to 000000000000f0c6
  DW_CFA_def_cfa_register: r6 (rbp)
  DW_CFA_advance_loc: 5 to 000000000000f0cb
  DW_CFA_offset: r3 (rbx) at cfa-24
  DW_CFA_nop
  DW_CFA_nop
  DW_CFA_nop
  DW_CFA_nop

00001970 000000000000001c 00001974 FDE cie=00000000 pc=000000000000f729..000000000000f9f2
  DW_CFA_advance_loc: 5 to 000000000000f72e
  DW_CFA_def_cfa_offset: 16
  DW_CFA_offset: r6 (rbp) at cfa-16
  DW_CFA_advance_loc: 3 to 000000000000f731
  DW_CFA_def_cfa_register: r6 (rbp)
  DW_CFA_advance_loc2: 704 to 000000000000f9f1
  DW_CFA_def_cfa: r7 (rsp) ofs 8
  DW_CFA_nop

00001990 000000000000001c 00001994 FDE cie=00000000 pc=000000000000f9f2..000000000000fa07
  DW_CFA_advance_loc: 5 to 000000000000f9f7
  DW_CFA_def_cfa_offset: 16
  DW_CFA_offset: r6 (rbp) at cfa-16
  DW_CFA_advance_loc: 3 to 000000000000f9fa
  DW_CFA_def_cfa_register: r6 (rbp)
  DW_CFA_advance_loc: 12 to 000000000000fa06
  DW_CFA_def_cfa: r7 (rsp) ofs 8
  DW_CFA_nop
  DW_CFA_nop
  DW_CFA_nop

000019b0 000000000000001c 000019b4 FDE cie=00000000 pc=000000000000fa07..000000000000fb3a
  DW_CFA_advance_loc: 5 to 000000000000fa0c
  DW_CFA_def_cfa_offset: 16
  DW_CFA_offset: r6 (rbp) at cfa-16
  DW_CFA_advance_loc: 3 to 000000000000fa0f
  DW_CFA_def_cfa_register: r6 (rbp)
  DW_CFA_advance_loc2: 298 to 000000000000fb39
  DW_CFA_def_cfa: r7 (rsp) ofs 8
  DW_CFA_nop

000019d0 000000000000001c 000019d4 FDE cie=00000000 pc=000000000000fb3a..000000000000fbb0
  DW_CFA_advance_loc: 5 to 000000000000fb3f
  DW_CFA_def_cfa_offset: 16
  DW_CFA_offset: r6 (rbp) at cfa-16
  DW_CFA_advance_loc: 3 to 000000000000fb42
  DW_CFA_def_cfa_register: r6 (rbp)
  DW_CFA_advance_loc1: 109 to 000000000000fbaf
  DW_CFA_def_cfa: r7 (rsp) ofs 8
  DW_CFA_nop
  DW_CFA_nop

000019f0 0000000000000020 000019f4 FDE cie=00000000 pc=000000000000fbb0..000000000000fc49
  DW_CFA_advance_loc: 5 to 000000000000fbb5
  DW_CFA_def_cfa_offset: 16
  DW_CFA_offset: r6 (rbp) at cfa-16
  DW_CFA_advance_loc: 3 to 000000000000fbb8
  DW_CFA_def_cfa_register: r6 (rbp)
  DW_CFA_advance_loc: 5 to 000000000000fbbd
  DW_CFA_offset: r3 (rbx) at cfa-24
  DW_CFA_advance_loc1: 139 to 000000000000fc48
  DW_CFA_def_cfa: r7 (rsp) ofs 8
  DW_CFA_nop
  DW_CFA_nop
  DW_CFA_nop

00001a14 0000000000000020 00001a18 FDE cie=00000000 pc=000000000000fc49..000000000000fda0
  DW_CFA_advance_loc: 5 to 000000000000fc4e
  DW_CFA_def_cfa_offset: 16
  DW_CFA_offset: r6 (rbp) at cfa-16
  DW_CFA_advance_loc: 3 to 000000000000fc51
  DW_CFA_def_cfa_register: r6 (rbp)
  DW_CFA_advance_loc: 5 to 000000000000fc56
  DW_CFA_offset: r3 (rbx) at cfa-24
  DW_CFA_advance_loc2: 329 to 000000000000fd9f
  DW_CFA_def_cfa: r7 (rsp) ofs 8
  DW_CFA_nop
  DW_CFA_nop

00001a38 000000000000001c 00001a3c FDE cie=00000000 pc=000000000000fda0..000000000000fe4f
  DW_CFA_advance_loc: 5 to 000000000000fda5
  DW_CFA_def_cfa_offset: 16
  DW_CFA_offset: r6 (rbp) at cfa-16
  DW_CFA_advance_loc: 3 to 000000000000fda8
  DW_CFA_def_cfa_register: r6 (rbp)
  DW_CFA_advance_loc1: 166 to 000000000000fe4e
  DW_CFA_def_cfa: r7 (rsp) ofs 8
  DW_CFA_nop
  DW_CFA_nop

00001a58 000000000000001c 00001a5c FDE cie=00000000 pc=000000000000fe4f..000000000000fedf
  DW_CFA_advance_loc: 5 to 000000000000fe54
  DW_CFA_def_cfa_offset: 16
  DW_CFA_offset: r6 (rbp) at cfa-16
  DW_CFA_advance_loc: 3 to 000000000000fe57
  DW_CFA_def_cfa_register: r6 (rbp)
  DW_CFA_advance_loc1: 135 to 000000000000fede
  DW_CFA_def_cfa: r7 (rsp) ofs 8
  DW_CFA_nop
  DW_CFA_nop

00001a78 000000000000001c 00001a7c FDE cie=00000000 pc=000000000000fedf..000000000000ff4c
  DW_CFA_advance_loc: 5 to 000000000000fee4
  DW_CFA_def_cfa_offset: 16
  DW_CFA_offset: r6 (rbp) at cfa-16
  DW_CFA_advance_loc: 3 to 000000000000fee7
  DW_CFA_def_cfa_register: r6 (rbp)
  DW_CFA_advance_loc1: 100 to 000000000000ff4b
  DW_CFA_def_cfa: r7 (rsp) ofs 8
  DW_CFA_nop
  DW_CFA_nop

00001a98 000000000000001c 00001a9c FDE cie=00000000 pc=000000000000ff4c..000000000000ff9f
  DW_CFA_advance_loc: 5 to 000000000000ff51
  DW_CFA_def_cfa_offset: 16
  DW_CFA_offset: r6 (rbp) at cfa-16
  DW_CFA_advance_loc: 3 to 000000000000ff54
  DW_CFA_def_cfa_register: r6 (rbp)
  DW_CFA_advance_loc1: 74 to 000000000000ff9e
  DW_CFA_def_cfa: r7 (rsp) ofs 8
  DW_CFA_nop
  DW_CFA_nop

00001ab8 000000000000001c 00001abc FDE cie=00000000 pc=000000000000ff9f..000000000000ffdd
  DW_CFA_advance_loc: 5 to 000000000000ffa4
  DW_CFA_def_cfa_offset: 16
  DW_CFA_offset: r6 (rbp) at cfa-16
  DW_CFA_advance_loc: 3 to 000000000000ffa7
  DW_CFA_def_cfa_register: r6 (rbp)
  DW_CFA_advance_loc: 53 to 000000000000ffdc
  DW_CFA_def_cfa: r7 (rsp) ofs 8
  DW_CFA_nop
  DW_CFA_nop
  DW_CFA_nop

00001ad8 000000000000001c 00001adc FDE cie=00000000 pc=000000000000ffdd..000000000001000f
  DW_CFA_advance_loc: 5 to 000000000000ffe2
  DW_CFA_def_cfa_offset: 16
  DW_CFA_offset: r6 (rbp) at cfa-16
  DW_CFA_advance_loc: 3 to 000000000000ffe5
  DW_CFA_def_cfa_register: r6 (rbp)
  DW_CFA_advance_loc: 41 to 000000000001000e
  DW_CFA_def_cfa: r7 (rsp) ofs 8
  DW_CFA_nop
  DW_CFA_nop
  DW_CFA_nop

00001af8 000000000000001c 00001afc FDE cie=00000000 pc=000000000001000f..0000000000010030
  DW_CFA_advance_loc: 5 to 0000000000010014
  DW_CFA_def_cfa_offset: 16
  DW_CFA_offset: r6 (rbp) at cfa-16
  DW_CFA_advance_loc: 3 to 0000000000010017
  DW_CFA_def_cfa_register: r6 (rbp)
  DW_CFA_advance_loc: 24 to 000000000001002f
  DW_CFA_def_cfa: r7 (rsp) ofs 8
  DW_CFA_nop
  DW_CFA_nop
  DW_CFA_nop

00001b18 000000000000001c 00001b1c FDE cie=00000000 pc=0000000000010030..0000000000010058
  DW_CFA_advance_loc: 5 to 0000000000010035
  DW_CFA_def_cfa_offset: 16
  DW_CFA_offset: r6 (rbp) at cfa-16
  DW_CFA_advance_loc: 3 to 0000000000010038
  DW_CFA_def_cfa_register: r6 (rbp)
  DW_CFA_advance_loc: 31 to 0000000000010057
  DW_CFA_def_cfa: r7 (rsp) ofs 8
  DW_CFA_nop
  DW_CFA_nop
  DW_CFA_nop

00001b38 000000000000001c 00001b3c FDE cie=00000000 pc=0000000000010058..0000000000010085
  DW_CFA_advance_loc: 5 to 000000000001005d
  DW_CFA_def_cfa_offset: 16
  DW_CFA_offset: r6 (rbp) at cfa-16
  DW_CFA_advance_loc: 3 to 0000000000010060
  DW_CFA_def_cfa_register: r6 (rbp)
  DW_CFA_advance_loc: 36 to 0000000000010084
  DW_CFA_def_cfa: r7 (rsp) ofs 8
  DW_CFA_nop
  DW_CFA_nop
  DW_CFA_nop

00001b58 000000000000001c 00001b5c FDE cie=00000000 pc=0000000000010085..00000000000100a9
  DW_CFA_advance_loc: 5 to 000000000001008a
  DW_CFA_def_cfa_offset: 16
  DW_CFA_offset: r6 (rbp) at cfa-16
  DW_CFA_advance_loc: 3 to 000000000001008d
  DW_CFA_def_cfa_register: r6 (rbp)
  DW_CFA_advance_loc: 27 to 00000000000100a8
  DW_CFA_def_cfa: r7 (rsp) ofs 8
  DW_CFA_nop
  DW_CFA_nop
  DW_CFA_nop

00001b78 000000000000001c 00001b7c FDE cie=00000000 pc=00000000000100a9..00000000000100cd
  DW_CFA_advance_loc: 5 to 00000000000100ae
  DW_CFA_def_cfa_offset: 16
  DW_CFA_offset: r6 (rbp) at cfa-16
  DW_CFA_advance_loc: 3 to 00000000000100b1
  DW_CFA_def_cfa_register: r6 (rbp)
  DW_CFA_advance_loc: 27 to 00000000000100cc
  DW_CFA_def_cfa: r7 (rsp) ofs 8
  DW_CFA_nop
  DW_CFA_nop
  DW_CFA_nop

00001b98 000000000000001c 00001b9c FDE cie=00000000 pc=00000000000100cd..00000000000100f1
  DW_CFA_advance_loc: 5 to 00000000000100d2
  DW_CFA_def_cfa_offset: 16
  DW_CFA_offset: r6 (rbp) at cfa-16
  DW_CFA_advance_loc: 3 to 00000000000100d5
  DW_CFA_def_cfa_register: r6 (rbp)
  DW_CFA_advance_loc: 27 to 00000000000100f0
  DW_CFA_def_cfa: r7 (rsp) ofs 8
  DW_CFA_nop
  DW_CFA_nop
  DW_CFA_nop

00001bb8 000000000000001c 00001bbc FDE cie=00000000 pc=00000000000100f1..0000000000010115
  DW_CFA_advance_loc: 5 to 00000000000100f6
  DW_CFA_def_cfa_offset: 16
  DW_CFA_offset: r6 (rbp) at cfa-16
  DW_CFA_advance_loc: 3 to 00000000000100f9
  DW_CFA_def_cfa_register: r6 (rbp)
  DW_CFA_advance_loc: 27 to 0000000000010114
  DW_CFA_def_cfa: r7 (rsp) ofs 8
  DW_CFA_nop
  DW_CFA_nop
  DW_CFA_nop

00001bd8 000000000000001c 00001bdc FDE cie=00000000 pc=0000000000010115..000000000001015f
  DW_CFA_advance_loc: 5 to 000000000001011a
  DW_CFA_def_cfa_offset: 16
  DW_CFA_offset: r6 (rbp) at cfa-16
  DW_CFA_advance_loc: 3 to 000000000001011d
  DW_CFA_def_cfa_register: r6 (rbp)
  DW_CFA_advance_loc1: 65 to 000000000001015e
  DW_CFA_def_cfa: r7 (rsp) ofs 8
  DW_CFA_nop
  DW_CFA_nop

00001bf8 000000000000001c 00001bfc FDE cie=00000000 pc=000000000001015f..000000000001018c
  DW_CFA_advance_loc: 5 to 0000000000010164
  DW_CFA_def_cfa_offset: 16
  DW_CFA_offset: r6 (rbp) at cfa-16
  DW_CFA_advance_loc: 3 to 0000000000010167
  DW_CFA_def_cfa_register: r6 (rbp)
  DW_CFA_advance_loc: 36 to 000000000001018b
  DW_CFA_def_cfa: r7 (rsp) ofs 8
  DW_CFA_nop
  DW_CFA_nop
  DW_CFA_nop

00001c18 000000000000001c 00001c1c FDE cie=00000000 pc=000000000001018c..00000000000101b0
  DW_CFA_advance_loc: 5 to 0000000000010191
  DW_CFA_def_cfa_offset: 16
  DW_CFA_offset: r6 (rbp) at cfa-16
  DW_CFA_advance_loc: 3 to 0000000000010194
  DW_CFA_def_cfa_register: r6 (rbp)
  DW_CFA_advance_loc: 27 to 00000000000101af
  DW_CFA_def_cfa: r7 (rsp) ofs 8
  DW_CFA_nop
  DW_CFA_nop
  DW_CFA_nop

00001c38 000000000000001c 00001c3c FDE cie=00000000 pc=00000000000101b0..00000000000101f8
  DW_CFA_advance_loc: 5 to 00000000000101b5
  DW_CFA_def_cfa_offset: 16
  DW_CFA_offset: r6 (rbp) at cfa-16
  DW_CFA_advance_loc: 3 to 00000000000101b8
  DW_CFA_def_cfa_register: r6 (rbp)
  DW_CFA_advance_loc: 63 to 00000000000101f7
  DW_CFA_def_cfa: r7 (rsp) ofs 8
  DW_CFA_nop
  DW_CFA_nop
  DW_CFA_nop

00001c58 000000000000001c 00001c5c FDE cie=00000000 pc=00000000000101f8..000000000001021b
  DW_CFA_advance_loc: 5 to 00000000000101fd
  DW_CFA_def_cfa_offset: 16
  DW_CFA_offset: r6 (rbp) at cfa-16
  DW_CFA_advance_loc: 3 to 0000000000010200
  DW_CFA_def_cfa_register: r6 (rbp)
  DW_CFA_advance_loc: 26 to 000000000001021a
  DW_CFA_def_cfa: r7 (rsp) ofs 8
  DW_CFA_nop
  DW_CFA_nop
  DW_CFA_nop

00001c78 000000000000001c 00001c7c FDE cie=00000000 pc=000000000001021b..000000000001023e
  DW_CFA_advance_loc: 5 to 0000000000010220
  DW_CFA_def_cfa_offset: 16
  DW_CFA_offset: r6 (rbp) at cfa-16
  DW_CFA_advance_loc: 3 to 0000000000010223
  DW_CFA_def_cfa_register: r6 (rbp)
  DW_CFA_advance_loc: 26 to 000000000001023d
  DW_CFA_def_cfa: r7 (rsp) ofs 8
  DW_CFA_nop
  DW_CFA_nop
  DW_CFA_nop

00001c98 0000000000000024 00001c9c FDE cie=00000000 pc=000000000001023e..00000000000102cc
  DW_CFA_advance_loc: 5 to 0000000000010243
  DW_CFA_def_cfa_offset: 16
  DW_CFA_offset: r6 (rbp) at cfa-16
  DW_CFA_advance_loc: 3 to 0000000000010246
  DW_CFA_def_cfa_register: r6 (rbp)
  DW_CFA_advance_loc: 7 to 000000000001024d
  DW_CFA_offset: r12 (r12) at cfa-24
  DW_CFA_offset: r3 (rbx) at cfa-32
  DW_CFA_advance_loc1: 126 to 00000000000102cb
  DW_CFA_def_cfa: r7 (rsp) ofs 8
  DW_CFA_nop
  DW_CFA_nop
  DW_CFA_nop
  DW_CFA_nop
  DW_CFA_nop

00001cc0 000000000000001c 00001cc4 FDE cie=00000000 pc=00000000000102cc..00000000000102f2
  DW_CFA_advance_loc: 1 to 00000000000102cd
  DW_CFA_def_cfa_offset: 16
  DW_CFA_offset: r6 (rbp) at cfa-16
  DW_CFA_advance_loc: 3 to 00000000000102d0
  DW_CFA_def_cfa_register: r6 (rbp)
  DW_CFA_advance_loc: 33 to 00000000000102f1
  DW_CFA_def_cfa: r7 (rsp) ofs 8
  DW_CFA_nop
  DW_CFA_nop
  DW_CFA_nop

00001ce0 000000000000001c 00001ce4 FDE cie=00000000 pc=00000000000102f2..0000000000010324
  DW_CFA_advance_loc: 1 to 00000000000102f3
  DW_CFA_def_cfa_offset: 16
  DW_CFA_offset: r6 (rbp) at cfa-16
  DW_CFA_advance_loc: 3 to 00000000000102f6
  DW_CFA_def_cfa_register: r6 (rbp)
  DW_CFA_advance_loc: 45 to 0000000000010323
  DW_CFA_def_cfa: r7 (rsp) ofs 8
  DW_CFA_nop
  DW_CFA_nop
  DW_CFA_nop

00001d00 000000000000001c 00001d04 FDE cie=00000000 pc=0000000000010324..0000000000010356
  DW_CFA_advance_loc: 5 to 0000000000010329
  DW_CFA_def_cfa_offset: 16
  DW_CFA_offset: r6 (rbp) at cfa-16
  DW_CFA_advance_loc: 3 to 000000000001032c
  DW_CFA_def_cfa_register: r6 (rbp)
  DW_CFA_advance_loc: 41 to 0000000000010355
  DW_CFA_def_cfa: r7 (rsp) ofs 8
  DW_CFA_nop
  DW_CFA_nop
  DW_CFA_nop

00001d20 000000000000001c 00001d24 FDE cie=00000000 pc=0000000000010356..00000000000103eb
  DW_CFA_advance_loc: 5 to 000000000001035b
  DW_CFA_def_cfa_offset: 16
  DW_CFA_offset: r6 (rbp) at cfa-16
  DW_CFA_advance_loc: 3 to 000000000001035e
  DW_CFA_def_cfa_register: r6 (rbp)
  DW_CFA_advance_loc1: 140 to 00000000000103ea
  DW_CFA_def_cfa: r7 (rsp) ofs 8
  DW_CFA_nop
  DW_CFA_nop

00001d40 000000000000001c 00001d44 FDE cie=00000000 pc=00000000000103eb..000000000001041b
  DW_CFA_advance_loc: 5 to 00000000000103f0
  DW_CFA_def_cfa_offset: 16
  DW_CFA_offset: r6 (rbp) at cfa-16
  DW_CFA_advance_loc: 3 to 00000000000103f3
  DW_CFA_def_cfa_register: r6 (rbp)
  DW_CFA_advance_loc: 39 to 000000000001041a
  DW_CFA_def_cfa: r7 (rsp) ofs 8
  DW_CFA_nop
  DW_CFA_nop
  DW_CFA_nop

00001d60 000000000000001c 00001d64 FDE cie=00000000 pc=000000000001041b..0000000000010436
  DW_CFA_advance_loc: 5 to 0000000000010420
  DW_CFA_def_cfa_offset: 16
  DW_CFA_offset: r6 (rbp) at cfa-16
  DW_CFA_advance_loc: 3 to 0000000000010423
  DW_CFA_def_cfa_register: r6 (rbp)
  DW_CFA_advance_loc: 18 to 0000000000010435
  DW_CFA_def_cfa: r7 (rsp) ofs 8
  DW_CFA_nop
  DW_CFA_nop
  DW_CFA_nop

00001d80 000000000000001c 00001d84 FDE cie=00000000 pc=0000000000010436..00000000000104ef
  DW_CFA_advance_loc: 5 to 000000000001043b
  DW_CFA_def_cfa_offset: 16
  DW_CFA_offset: r6 (rbp) at cfa-16
  DW_CFA_advance_loc: 3 to 000000000001043e
  DW_CFA_def_cfa_register: r6 (rbp)
  DW_CFA_advance_loc1: 176 to 00000000000104ee
  DW_CFA_def_cfa: r7 (rsp) ofs 8
  DW_CFA_nop
  DW_CFA_nop

00001da0 000000000000001c 00001da4 FDE cie=00000000 pc=00000000000104ef..0000000000010f9c
  DW_CFA_advance_loc: 5 to 00000000000104f4
  DW_CFA_def_cfa_offset: 16
  DW_CFA_offset: r6 (rbp) at cfa-16
  DW_CFA_advance_loc: 3 to 00000000000104f7
  DW_CFA_def_cfa_register: r6 (rbp)
  DW_CFA_advance_loc2: 2724 to 0000000000010f9b
  DW_CFA_def_cfa: r7 (rsp) ofs 8
  DW_CFA_nop

00001dc0 000000000000001c 00001dc4 FDE cie=00000000 pc=0000000000010f9c..0000000000010ffb
  DW_CFA_advance_loc: 5 to 0000000000010fa1
  DW_CFA_def_cfa_offset: 16
  DW_CFA_offset: r6 (rbp) at cfa-16
  DW_CFA_advance_loc: 3 to 0000000000010fa4
  DW_CFA_def_cfa_register: r6 (rbp)
  DW_CFA_advance_loc1: 86 to 0000000000010ffa
  DW_CFA_def_cfa: r7 (rsp) ofs 8
  DW_CFA_nop
  DW_CFA_nop

00001de0 000000000000001c 00001de4 FDE cie=00000000 pc=0000000000010ffb..0000000000011015
  DW_CFA_advance_loc: 5 to 0000000000011000
  DW_CFA_def_cfa_offset: 16
  DW_CFA_offset: r6 (rbp) at cfa-16
  DW_CFA_advance_loc: 3 to 0000000000011003
  DW_CFA_def_cfa_register: r6 (rbp)
  DW_CFA_advance_loc: 17 to 0000000000011014
  DW_CFA_def_cfa: r7 (rsp) ofs 8
  DW_CFA_nop
  DW_CFA_nop
  DW_CFA_nop

00001e00 000000000000001c 00001e04 FDE cie=00000000 pc=0000000000011015..000000000001102f
  DW_CFA_advance_loc: 5 to 000000000001101a
  DW_CFA_def_cfa_offset: 16
  DW_CFA_offset: r6 (rbp) at cfa-16
  DW_CFA_advance_loc: 3 to 000000000001101d
  DW_CFA_def_cfa_register: r6 (rbp)
  DW_CFA_advance_loc: 17 to 000000000001102e
  DW_CFA_def_cfa: r7 (rsp) ofs 8
  DW_CFA_nop
  DW_CFA_nop
  DW_CFA_nop

00001e20 0000000000000024 00001e24 FDE cie=00000000 pc=000000000001102f..0000000000011127
  DW_CFA_advance_loc: 5 to 0000000000011034
  DW_CFA_def_cfa_offset: 16
  DW_CFA_offset: r6 (rbp) at cfa-16
  DW_CFA_advance_loc: 3 to 0000000000011037
  DW_CFA_def_cfa_register: r6 (rbp)
  DW_CFA_advance_loc: 5 to 000000000001103c
  DW_CFA_offset: r3 (rbx) at cfa-24
  DW_CFA_advance_loc1: 234 to 0000000000011126
  DW_CFA_def_cfa: r7 (rsp) ofs 8
  DW_CFA_nop
  DW_CFA_nop
  DW_CFA_nop
  DW_CFA_nop
  DW_CFA_nop
  DW_CFA_nop
  DW_CFA_nop

00001e48 000000000000001c 00001e4c FDE cie=00000000 pc=0000000000011127..00000000000111ac
  DW_CFA_advance_loc: 5 to 000000000001112c
  DW_CFA_def_cfa_offset: 16
  DW_CFA_offset: r6 (rbp) at cfa-16
  DW_CFA_advance_loc: 3 to 000000000001112f
  DW_CFA_def_cfa_register: r6 (rbp)
  DW_CFA_advance_loc1: 124 to 00000000000111ab
  DW_CFA_def_cfa: r7 (rsp) ofs 8
  DW_CFA_nop
  DW_CFA_nop

00001e68 000000000000001c 00001e6c FDE cie=00000000 pc=00000000000111ac..0000000000011247
  DW_CFA_advance_loc: 5 to 00000000000111b1
  DW_CFA_def_cfa_offset: 16
  DW_CFA_offset: r6 (rbp) at cfa-16
  DW_CFA_advance_loc: 3 to 00000000000111b4
  DW_CFA_def_cfa_register: r6 (rbp)
  DW_CFA_advance_loc1: 146 to 0000000000011246
  DW_CFA_def_cfa: r7 (rsp) ofs 8
  DW_CFA_nop
  DW_CFA_nop

00001e88 000000000000001c 00001e8c FDE cie=00000000 pc=0000000000011247..000000000001125e
  DW_CFA_advance_loc: 5 to 000000000001124c
  DW_CFA_def_cfa_offset: 16
  DW_CFA_offset: r6 (rbp) at cfa-16
  DW_CFA_advance_loc: 3 to 000000000001124f
  DW_CFA_def_cfa_register: r6 (rbp)
  DW_CFA_advance_loc: 14 to 000000000001125d
  DW_CFA_def_cfa: r7 (rsp) ofs 8
  DW_CFA_nop
  DW_CFA_nop
  DW_CFA_nop

00001ea8 000000000000001c 00001eac FDE cie=00000000 pc=000000000001125e..00000000000112fe
  DW_CFA_advance_loc: 5 to 0000000000011263
  DW_CFA_def_cfa_offset: 16
  DW_CFA_offset: r6 (rbp) at cfa-16
  DW_CFA_advance_loc: 3 to 0000000000011266
  DW_CFA_def_cfa_register: r6 (rbp)
  DW_CFA_advance_loc1: 151 to 00000000000112fd
  DW_CFA_def_cfa: r7 (rsp) ofs 8
  DW_CFA_nop
  DW_CFA_nop

00001ec8 000000000000001c 00001ecc FDE cie=00000000 pc=00000000000112fe..0000000000011381
  DW_CFA_advance_loc: 5 to 0000000000011303
  DW_CFA_def_cfa_offset: 16
  DW_CFA_offset: r6 (rbp) at cfa-16
  DW_CFA_advance_loc: 3 to 0000000000011306
  DW_CFA_def_cfa_register: r6 (rbp)
  DW_CFA_advance_loc1: 122 to 0000000000011380
  DW_CFA_def_cfa: r7 (rsp) ofs 8
  DW_CFA_nop
  DW_CFA_nop

00001ee8 000000000000001c 00001eec FDE cie=00000000 pc=0000000000011381..0000000000011430
  DW_CFA_advance_loc: 5 to 0000000000011386
  DW_CFA_def_cfa_offset: 16
  DW_CFA_offset: r6 (rbp) at cfa-16
  DW_CFA_advance_loc: 3 to 0000000000011389
  DW_CFA_def_cfa_register: r6 (rbp)
  DW_CFA_advance_loc1: 166 to 000000000001142f
  DW_CFA_def_cfa: r7 (rsp) ofs 8
  DW_CFA_nop
  DW_CFA_nop

00001f08 000000000000001c 00001f0c FDE cie=00000000 pc=0000000000011430..00000000000115fc
  DW_CFA_advance_loc: 5 to 0000000000011435
  DW_CFA_def_cfa_offset: 16
  DW_CFA_offset: r6 (rbp) at cfa-16
  DW_CFA_advance_loc: 3 to 0000000000011438
  DW_CFA_def_cfa_register: r6 (rbp)
  DW_CFA_advance_loc2: 451 to 00000000000115fb
  DW_CFA_def_cfa: r7 (rsp) ofs 8
  DW_CFA_nop

00001f28 000000000000001c 00001f2c FDE cie=00000000 pc=00000000000115fc..0000000000011628
  DW_CFA_advance_loc: 5 to 0000000000011601
  DW_CFA_def_cfa_offset: 16
  DW_CFA_offset: r6 (rbp) at cfa-16
  DW_CFA_advance_loc: 3 to 0000000000011604
  DW_CFA_def_cfa_register: r6 (rbp)
  DW_CFA_advance_loc: 35 to 0000000000011627
  DW_CFA_def_cfa: r7 (rsp) ofs 8
  DW_CFA_nop
  DW_CFA_nop
  DW_CFA_nop

00001f48 000000000000001c 00001f4c FDE cie=00000000 pc=0000000000011628..000000000001166d
  DW_CFA_advance_loc: 5 to 000000000001162d
  DW_CFA_def_cfa_offset: 16
  DW_CFA_offset: r6 (rbp) at cfa-16
  DW_CFA_advance_loc: 3 to 0000000000011630
  DW_CFA_def_cfa_register: r6 (rbp)
  DW_CFA_advance_loc: 60 to 000000000001166c
  DW_CFA_def_cfa: r7 (rsp) ofs 8
  DW_CFA_nop
  DW_CFA_nop
  DW_CFA_nop

00001f68 000000000000001c 00001f6c FDE cie=00000000 pc=000000000001166d..00000000000117af
  DW_CFA_advance_loc: 5 to 0000000000011672
  DW_CFA_def_cfa_offset: 16
  DW_CFA_offset: r6 (rbp) at cfa-16
  DW_CFA_advance_loc: 3 to 0000000000011675
  DW_CFA_def_cfa_register: r6 (rbp)
  DW_CFA_advance_loc2: 313 to 00000000000117ae
  DW_CFA_def_cfa: r7 (rsp) ofs 8
  DW_CFA_nop

00001f88 000000000000001c 00001f8c FDE cie=00000000 pc=00000000000117af..00000000000118d0
  DW_CFA_advance_loc: 5 to 00000000000117b4
  DW_CFA_def_cfa_offset: 16
  DW_CFA_offset: r6 (rbp) at cfa-16
  DW_CFA_advance_loc: 3 to 00000000000117b7
  DW_CFA_def_cfa_register: r6 (rbp)
  DW_CFA_advance_loc2: 280 to 00000000000118cf
  DW_CFA_def_cfa: r7 (rsp) ofs 8
  DW_CFA_nop

00001fa8 000000000000001c 00001fac FDE cie=00000000 pc=00000000000118d0..000000000001194d
  DW_CFA_advance_loc: 5 to 00000000000118d5
  DW_CFA_def_cfa_offset: 16
  DW_CFA_offset: r6 (rbp) at cfa-16
  DW_CFA_advance_loc: 3 to 00000000000118d8
  DW_CFA_def_cfa_register: r6 (rbp)
  DW_CFA_advance_loc1: 116 to 000000000001194c
  DW_CFA_def_cfa: r7 (rsp) ofs 8
  DW_CFA_nop
  DW_CFA_nop

00001fc8 000000000000001c 00001fcc FDE cie=00000000 pc=000000000001194d..0000000000011b85
  DW_CFA_advance_loc: 5 to 0000000000011952
  DW_CFA_def_cfa_offset: 16
  DW_CFA_offset: r6 (rbp) at cfa-16
  DW_CFA_advance_loc: 3 to 0000000000011955
  DW_CFA_def_cfa_register: r6 (rbp)
  DW_CFA_advance_loc2: 559 to 0000000000011b84
  DW_CFA_def_cfa: r7 (rsp) ofs 8
  DW_CFA_nop

00001fe8 000000000000001c 00001fec FDE cie=00000000 pc=0000000000011b85..0000000000011bb9
  DW_CFA_advance_loc: 5 to 0000000000011b8a
  DW_CFA_def_cfa_offset: 16
  DW_CFA_offset: r6 (rbp) at cfa-16
  DW_CFA_advance_loc: 3 to 0000000000011b8d
  DW_CFA_def_cfa_register: r6 (rbp)
  DW_CFA_advance_loc: 43 to 0000000000011bb8
  DW_CFA_def_cfa: r7 (rsp) ofs 8
  DW_CFA_nop
  DW_CFA_nop
  DW_CFA_nop

00002008 000000000000001c 0000200c FDE cie=00000000 pc=0000000000011bb9..0000000000011e44
  DW_CFA_advance_loc: 5 to 0000000000011bbe
  DW_CFA_def_cfa_offset: 16
  DW_CFA_offset: r6 (rbp) at cfa-16
  DW_CFA_advance_loc: 3 to 0000000000011bc1
  DW_CFA_def_cfa_register: r6 (rbp)
  DW_CFA_advance_loc2: 642 to 0000000000011e43
  DW_CFA_def_cfa: r7 (rsp) ofs 8
  DW_CFA_nop

00002028 0000000000000024 0000202c FDE cie=00000000 pc=0000000000011e44..0000000000011ec7
  DW_CFA_advance_loc: 5 to 0000000000011e49
  DW_CFA_def_cfa_offset: 16
  DW_CFA_offset: r6 (rbp) at cfa-16
  DW_CFA_advance_loc: 3 to 0000000000011e4c
  DW_CFA_def_cfa_register: r6 (rbp)
  DW_CFA_advance_loc: 5 to 0000000000011e51
  DW_CFA_offset: r3 (rbx) at cfa-24
  DW_CFA_advance_loc1: 117 to 0000000000011ec6
  DW_CFA_def_cfa: r7 (rsp) ofs 8
  DW_CFA_nop
  DW_CFA_nop
  DW_CFA_nop
  DW_CFA_nop
  DW_CFA_nop
  DW_CFA_nop
  DW_CFA_nop

00002050 000000000000001c 00002054 FDE cie=00000000 pc=0000000000011ec7..0000000000011eeb
  DW_CFA_advance_loc: 5 to 0000000000011ecc
  DW_CFA_def_cfa_offset: 16
  DW_CFA_offset: r6 (rbp) at cfa-16
  DW_CFA_advance_loc: 3 to 0000000000011ecf
  DW_CFA_def_cfa_register: r6 (rbp)
  DW_CFA_advance_loc: 27 to 0000000000011eea
  DW_CFA_def_cfa: r7 (rsp) ofs 8
  DW_CFA_nop
  DW_CFA_nop
  DW_CFA_nop

00002070 000000000000001c 00002074 FDE cie=00000000 pc=0000000000011eeb..0000000000011f30
  DW_CFA_advance_loc: 5 to 0000000000011ef0
  DW_CFA_def_cfa_offset: 16
  DW_CFA_offset: r6 (rbp) at cfa-16
  DW_CFA_advance_loc: 3 to 0000000000011ef3
  DW_CFA_def_cfa_register: r6 (rbp)
  DW_CFA_advance_loc: 60 to 0000000000011f2f
  DW_CFA_def_cfa: r7 (rsp) ofs 8
  DW_CFA_nop
  DW_CFA_nop
  DW_CFA_nop

00002090 000000000000001c 00002094 FDE cie=00000000 pc=0000000000011f30..0000000000011fda
  DW_CFA_advance_loc: 5 to 0000000000011f35
  DW_CFA_def_cfa_offset: 16
  DW_CFA_offset: r6 (rbp) at cfa-16
  DW_CFA_advance_loc: 3 to 0000000000011f38
  DW_CFA_def_cfa_register: r6 (rbp)
  DW_CFA_advance_loc1: 161 to 0000000000011fd9
  DW_CFA_def_cfa: r7 (rsp) ofs 8
  DW_CFA_nop
  DW_CFA_nop

000020b0 000000000000001c 000020b4 FDE cie=00000000 pc=0000000000011fda..0000000000011ff0
  DW_CFA_advance_loc: 5 to 0000000000011fdf
  DW_CFA_def_cfa_offset: 16
  DW_CFA_offset: r6 (rbp) at cfa-16
  DW_CFA_advance_loc: 3 to 0000000000011fe2
  DW_CFA_def_cfa_register: r6 (rbp)
  DW_CFA_advance_loc: 13 to 0000000000011fef
  DW_CFA_def_cfa: r7 (rsp) ofs 8
  DW_CFA_nop
  DW_CFA_nop
  DW_CFA_nop

000020d0 000000000000001c 000020d4 FDE cie=00000000 pc=0000000000011ff0..0000000000012006
  DW_CFA_advance_loc: 5 to 0000000000011ff5
  DW_CFA_def_cfa_offset: 16
  DW_CFA_offset: r6 (rbp) at cfa-16
  DW_CFA_advance_loc: 3 to 0000000000011ff8
  DW_CFA_def_cfa_register: r6 (rbp)
  DW_CFA_advance_loc: 13 to 0000000000012005
  DW_CFA_def_cfa: r7 (rsp) ofs 8
  DW_CFA_nop
  DW_CFA_nop
  DW_CFA_nop

000020f0 000000000000001c 000020f4 FDE cie=00000000 pc=0000000000012006..000000000001201c
  DW_CFA_advance_loc: 5 to 000000000001200b
  DW_CFA_def_cfa_offset: 16
  DW_CFA_offset: r6 (rbp) at cfa-16
  DW_CFA_advance_loc: 3 to 000000000001200e
  DW_CFA_def_cfa_register: r6 (rbp)
  DW_CFA_advance_loc: 13 to 000000000001201b
  DW_CFA_def_cfa: r7 (rsp) ofs 8
  DW_CFA_nop
  DW_CFA_nop
  DW_CFA_nop

00002110 000000000000001c 00002114 FDE cie=00000000 pc=000000000001201c..000000000001209e
  DW_CFA_advance_loc: 5 to 0000000000012021
  DW_CFA_def_cfa_offset: 16
  DW_CFA_offset: r6 (rbp) at cfa-16
  DW_CFA_advance_loc: 3 to 0000000000012024
  DW_CFA_def_cfa_register: r6 (rbp)
  DW_CFA_advance_loc1: 121 to 000000000001209d
  DW_CFA_def_cfa: r7 (rsp) ofs 8
  DW_CFA_nop
  DW_CFA_nop

00002130 000000000000001c 00002134 FDE cie=00000000 pc=000000000001209e..000000000001213c
  DW_CFA_advance_loc: 5 to 00000000000120a3
  DW_CFA_def_cfa_offset: 16
  DW_CFA_offset: r6 (rbp) at cfa-16
  DW_CFA_advance_loc: 3 to 00000000000120a6
  DW_CFA_def_cfa_register: r6 (rbp)
  DW_CFA_advance_loc1: 149 to 000000000001213b
  DW_CFA_def_cfa: r7 (rsp) ofs 8
  DW_CFA_nop
  DW_CFA_nop

00002150 000000000000001c 00002154 FDE cie=00000000 pc=000000000001213c..0000000000012283
  DW_CFA_advance_loc: 5 to 0000000000012141
  DW_CFA_def_cfa_offset: 16
  DW_CFA_offset: r6 (rbp) at cfa-16
  DW_CFA_advance_loc: 3 to 0000000000012144
  DW_CFA_def_cfa_register: r6 (rbp)
  DW_CFA_advance_loc2: 318 to 0000000000012282
  DW_CFA_def_cfa: r7 (rsp) ofs 8
  DW_CFA_nop

00002170 000000000000001c 00002174 FDE cie=00000000 pc=0000000000012283..00000000000122de
  DW_CFA_advance_loc: 5 to 0000000000012288
  DW_CFA_def_cfa_offset: 16
  DW_CFA_offset: r6 (rbp) at cfa-16
  DW_CFA_advance_loc: 3 to 000000000001228b
  DW_CFA_def_cfa_register: r6 (rbp)
  DW_CFA_advance_loc1: 82 to 00000000000122dd
  DW_CFA_def_cfa: r7 (rsp) ofs 8
  DW_CFA_nop
  DW_CFA_nop

00002190 000000000000001c 00002194 FDE cie=00000000 pc=00000000000122de..0000000000012375
  DW_CFA_advance_loc: 5 to 00000000000122e3
  DW_CFA_def_cfa_offset: 16
  DW_CFA_offset: r6 (rbp) at cfa-16
  DW_CFA_advance_loc: 3 to 00000000000122e6
  DW_CFA_def_cfa_register: r6 (rbp)
  DW_CFA_advance_loc1: 142 to 0000000000012374
  DW_CFA_def_cfa: r7 (rsp) ofs 8
  DW_CFA_nop
  DW_CFA_nop

000021b0 000000000000001c 000021b4 FDE cie=00000000 pc=0000000000012375..00000000000123d5
  DW_CFA_advance_loc: 5 to 000000000001237a
  DW_CFA_def_cfa_offset: 16
  DW_CFA_offset: r6 (rbp) at cfa-16
  DW_CFA_advance_loc: 3 to 000000000001237d
  DW_CFA_def_cfa_register: r6 (rbp)
  DW_CFA_advance_loc1: 87 to 00000000000123d4
  DW_CFA_def_cfa: r7 (rsp) ofs 8
  DW_CFA_nop
  DW_CFA_nop

000021d0 000000000000001c 000021d4 FDE cie=00000000 pc=00000000000123d5..0000000000012473
  DW_CFA_advance_loc: 5 to 00000000000123da
  DW_CFA_def_cfa_offset: 16
  DW_CFA_offset: r6 (rbp) at cfa-16
  DW_CFA_advance_loc: 3 to 00000000000123dd
  DW_CFA_def_cfa_register: r6 (rbp)
  DW_CFA_advance_loc1: 149 to 0000000000012472
  DW_CFA_def_cfa: r7 (rsp) ofs 8
  DW_CFA_nop
  DW_CFA_nop

000021f0 000000000000001c 000021f4 FDE cie=00000000 pc=0000000000012473..0000000000012513
  DW_CFA_advance_loc: 5 to 0000000000012478
  DW_CFA_def_cfa_offset: 16
  DW_CFA_offset: r6 (rbp) at cfa-16
  DW_CFA_advance_loc: 3 to 000000000001247b
  DW_CFA_def_cfa_register: r6 (rbp)
  DW_CFA_advance_loc1: 151 to 0000000000012512
  DW_CFA_def_cfa: r7 (rsp) ofs 8
  DW_CFA_nop
  DW_CFA_nop

00002210 000000000000001c 00002214 FDE cie=00000000 pc=0000000000012513..00000000000125ab
  DW_CFA_advance_loc: 5 to 0000000000012518
  DW_CFA_def_cfa_offset: 16
  DW_CFA_offset: r6 (rbp) at cfa-16
  DW_CFA_advance_loc: 3 to 000000000001251b
  DW_CFA_def_cfa_register: r6 (rbp)
  DW_CFA_advance_loc1: 143 to 00000000000125aa
  DW_CFA_def_cfa: r7 (rsp) ofs 8
  DW_CFA_nop
  DW_CFA_nop

00002230 000000000000001c 00002234 FDE cie=00000000 pc=00000000000125ab..0000000000012605
  DW_CFA_advance_loc: 5 to 00000000000125b0
  DW_CFA_def_cfa_offset: 16
  DW_CFA_offset: r6 (rbp) at cfa-16
  DW_CFA_advance_loc: 3 to 00000000000125b3
  DW_CFA_def_cfa_register: r6 (rbp)
  DW_CFA_advance_loc1: 81 to 0000000000012604
  DW_CFA_def_cfa: r7 (rsp) ofs 8
  DW_CFA_nop
  DW_CFA_nop

00002250 000000000000001c 00002254 FDE cie=00000000 pc=0000000000012605..0000000000012674
  DW_CFA_advance_loc: 5 to 000000000001260a
  DW_CFA_def_cfa_offset: 16
  DW_CFA_offset: r6 (rbp) at cfa-16
  DW_CFA_advance_loc: 3 to 000000000001260d
  DW_CFA_def_cfa_register: r6 (rbp)
  DW_CFA_advance_loc1: 102 to 0000000000012673
  DW_CFA_def_cfa: r7 (rsp) ofs 8
  DW_CFA_nop
  DW_CFA_nop

00002270 000000000000001c 00002274 FDE cie=00000000 pc=0000000000012674..00000000000126bf
  DW_CFA_advance_loc: 5 to 0000000000012679
  DW_CFA_def_cfa_offset: 16
  DW_CFA_offset: r6 (rbp) at cfa-16
  DW_CFA_advance_loc: 3 to 000000000001267c
  DW_CFA_def_cfa_register: r6 (rbp)
  DW_CFA_advance_loc1: 66 to 00000000000126be
  DW_CFA_def_cfa: r7 (rsp) ofs 8
  DW_CFA_nop
  DW_CFA_nop

00002290 000000000000001c 00002294 FDE cie=00000000 pc=00000000000126bf..0000000000012715
  DW_CFA_advance_loc: 5 to 00000000000126c4
  DW_CFA_def_cfa_offset: 16
  DW_CFA_offset: r6 (rbp) at cfa-16
  DW_CFA_advance_loc: 3 to 00000000000126c7
  DW_CFA_def_cfa_register: r6 (rbp)
  DW_CFA_advance_loc1: 77 to 0000000000012714
  DW_CFA_def_cfa: r7 (rsp) ofs 8
  DW_CFA_nop
  DW_CFA_nop

000022b0 000000000000001c 000022b4 FDE cie=00000000 pc=0000000000012715..0000000000012750
  DW_CFA_advance_loc: 5 to 000000000001271a
  DW_CFA_def_cfa_offset: 16
  DW_CFA_offset: r6 (rbp) at cfa-16
  DW_CFA_advance_loc: 3 to 000000000001271d
  DW_CFA_def_cfa_register: r6 (rbp)
  DW_CFA_advance_loc: 50 to 000000000001274f
  DW_CFA_def_cfa: r7 (rsp) ofs 8
  DW_CFA_nop
  DW_CFA_nop
  DW_CFA_nop

000022d0 000000000000001c 000022d4 FDE cie=00000000 pc=0000000000012750..000000000001276d
  DW_CFA_advance_loc: 5 to 0000000000012755
  DW_CFA_def_cfa_offset: 16
  DW_CFA_offset: r6 (rbp) at cfa-16
  DW_CFA_advance_loc: 3 to 0000000000012758
  DW_CFA_def_cfa_register: r6 (rbp)
  DW_CFA_advance_loc: 20 to 000000000001276c
  DW_CFA_def_cfa: r7 (rsp) ofs 8
  DW_CFA_nop
  DW_CFA_nop
  DW_CFA_nop

000022f0 000000000000001c 000022f4 FDE cie=00000000 pc=000000000001276d..000000000001287a
  DW_CFA_advance_loc: 5 to 0000000000012772
  DW_CFA_def_cfa_offset: 16
  DW_CFA_offset: r6 (rbp) at cfa-16
  DW_CFA_advance_loc: 3 to 0000000000012775
  DW_CFA_def_cfa_register: r6 (rbp)
  DW_CFA_advance_loc2: 260 to 0000000000012879
  DW_CFA_def_cfa: r7 (rsp) ofs 8
  DW_CFA_nop

00002310 000000000000001c 00002314 FDE cie=00000000 pc=000000000001287a..0000000000012993
  DW_CFA_advance_loc: 5 to 000000000001287f
  DW_CFA_def_cfa_offset: 16
  DW_CFA_offset: r6 (rbp) at cfa-16
  DW_CFA_advance_loc: 3 to 0000000000012882
  DW_CFA_def_cfa_register: r6 (rbp)
  DW_CFA_advance_loc2: 272 to 0000000000012992
  DW_CFA_def_cfa: r7 (rsp) ofs 8
  DW_CFA_nop

00002330 000000000000001c 00002334 FDE cie=00000000 pc=0000000000012993..0000000000012b08
  DW_CFA_advance_loc: 5 to 0000000000012998
  DW_CFA_def_cfa_offset: 16
  DW_CFA_offset: r6 (rbp) at cfa-16
  DW_CFA_advance_loc: 3 to 000000000001299b
  DW_CFA_def_cfa_register: r6 (rbp)
  DW_CFA_advance_loc2: 364 to 0000000000012b07
  DW_CFA_def_cfa: r7 (rsp) ofs 8
  DW_CFA_nop

00002350 000000000000001c 00002354 FDE cie=00000000 pc=0000000000012b08..0000000000012c13
  DW_CFA_advance_loc: 5 to 0000000000012b0d
  DW_CFA_def_cfa_offset: 16
  DW_CFA_offset: r6 (rbp) at cfa-16
  DW_CFA_advance_loc: 3 to 0000000000012b10
  DW_CFA_def_cfa_register: r6 (rbp)
  DW_CFA_advance_loc2: 258 to 0000000000012c12
  DW_CFA_def_cfa: r7 (rsp) ofs 8
  DW_CFA_nop

00002370 000000000000001c 00002374 FDE cie=00000000 pc=0000000000012c13..0000000000012d42
  DW_CFA_advance_loc: 5 to 0000000000012c18
  DW_CFA_def_cfa_offset: 16
  DW_CFA_offset: r6 (rbp) at cfa-16
  DW_CFA_advance_loc: 3 to 0000000000012c1b
  DW_CFA_def_cfa_register: r6 (rbp)
  DW_CFA_advance_loc2: 294 to 0000000000012d41
  DW_CFA_def_cfa: r7 (rsp) ofs 8
  DW_CFA_nop

00002390 000000000000001c 00002394 FDE cie=00000000 pc=0000000000012d42..0000000000012d91
  DW_CFA_advance_loc: 5 to 0000000000012d47
  DW_CFA_def_cfa_offset: 16
  DW_CFA_offset: r6 (rbp) at cfa-16
  DW_CFA_advance_loc: 3 to 0000000000012d4a
  DW_CFA_def_cfa_register: r6 (rbp)
  DW_CFA_advance_loc1: 70 to 0000000000012d90
  DW_CFA_def_cfa: r7 (rsp) ofs 8
  DW_CFA_nop
  DW_CFA_nop

000023b0 000000000000001c 000023b4 FDE cie=00000000 pc=0000000000012d91..0000000000012dcb
  DW_CFA_advance_loc: 5 to 0000000000012d96
  DW_CFA_def_cfa_offset: 16
  DW_CFA_offset: r6 (rbp) at cfa-16
  DW_CFA_advance_loc: 3 to 0000000000012d99
  DW_CFA_def_cfa_register: r6 (rbp)
  DW_CFA_advance_loc: 49 to 0000000000012dca
  DW_CFA_def_cfa: r7 (rsp) ofs 8
  DW_CFA_nop
  DW_CFA_nop
  DW_CFA_nop

000023d0 000000000000001c 000023d4 FDE cie=00000000 pc=0000000000012dcb..0000000000012f64
  DW_CFA_advance_loc: 5 to 0000000000012dd0
  DW_CFA_def_cfa_offset: 16
  DW_CFA_offset: r6 (rbp) at cfa-16
  DW_CFA_advance_loc: 3 to 0000000000012dd3
  DW_CFA_def_cfa_register: r6 (rbp)
  DW_CFA_advance_loc2: 400 to 0000000000012f63
  DW_CFA_def_cfa: r7 (rsp) ofs 8
  DW_CFA_nop

000023f0 000000000000001c 000023f4 FDE cie=00000000 pc=0000000000012f64..0000000000013138
  DW_CFA_advance_loc: 5 to 0000000000012f69
  DW_CFA_def_cfa_offset: 16
  DW_CFA_offset: r6 (rbp) at cfa-16
  DW_CFA_advance_loc: 3 to 0000000000012f6c
  DW_CFA_def_cfa_register: r6 (rbp)
  DW_CFA_advance_loc2: 459 to 0000000000013137
  DW_CFA_def_cfa: r7 (rsp) ofs 8
  DW_CFA_nop

00002410 000000000000001c 00002414 FDE cie=00000000 pc=0000000000013138..0000000000013363
  DW_CFA_advance_loc: 5 to 000000000001313d
  DW_CFA_def_cfa_offset: 16
  DW_CFA_offset: r6 (rbp) at cfa-16
  DW_CFA_advance_loc: 3 to 0000000000013140
  DW_CFA_def_cfa_register: r6 (rbp)
  DW_CFA_advance_loc2: 546 to 0000000000013362
  DW_CFA_def_cfa: r7 (rsp) ofs 8
  DW_CFA_nop

00002430 000000000000001c 00002434 FDE cie=00000000 pc=0000000000013363..00000000000136d4
  DW_CFA_advance_loc: 5 to 0000000000013368
  DW_CFA_def_cfa_offset: 16
  DW_CFA_offset: r6 (rbp) at cfa-16
  DW_CFA_advance_loc: 3 to 000000000001336b
  DW_CFA_def_cfa_register: r6 (rbp)
  DW_CFA_advance_loc2: 872 to 00000000000136d3
  DW_CFA_def_cfa: r7 (rsp) ofs 8
  DW_CFA_nop

00002450 000000000000001c 00002454 FDE cie=00000000 pc=00000000000136d4..0000000000013744
  DW_CFA_advance_loc: 5 to 00000000000136d9
  DW_CFA_def_cfa_offset: 16
  DW_CFA_offset: r6 (rbp) at cfa-16
  DW_CFA_advance_loc: 3 to 00000000000136dc
  DW_CFA_def_cfa_register: r6 (rbp)
  DW_CFA_advance_loc1: 103 to 0000000000013743
  DW_CFA_def_cfa: r7 (rsp) ofs 8
  DW_CFA_nop
  DW_CFA_nop

00002470 000000000000001c 00002474 FDE cie=00000000 pc=0000000000013744..0000000000013a4a
  DW_CFA_advance_loc: 5 to 0000000000013749
  DW_CFA_def_cfa_offset: 16
  DW_CFA_offset: r6 (rbp) at cfa-16
  DW_CFA_advance_loc: 3 to 000000000001374c
  DW_CFA_def_cfa_register: r6 (rbp)
  DW_CFA_advance_loc2: 765 to 0000000000013a49
  DW_CFA_def_cfa: r7 (rsp) ofs 8
  DW_CFA_nop

00002490 000000000000001c 00002494 FDE cie=00000000 pc=0000000000013a4a..0000000000013a73
  DW_CFA_advance_loc: 5 to 0000000000013a4f
  DW_CFA_def_cfa_offset: 16
  DW_CFA_offset: r6 (rbp) at cfa-16
  DW_CFA_advance_loc: 3 to 0000000000013a52
  DW_CFA_def_cfa_register: r6 (rbp)
  DW_CFA_advance_loc: 32 to 0000000000013a72
  DW_CFA_def_cfa: r7 (rsp) ofs 8
  DW_CFA_nop
  DW_CFA_nop
  DW_CFA_nop

000024b0 000000000000001c 000024b4 FDE cie=00000000 pc=0000000000013a73..0000000000013ac3
  DW_CFA_advance_loc: 5 to 0000000000013a78
  DW_CFA_def_cfa_offset: 16
  DW_CFA_offset: r6 (rbp) at cfa-16
  DW_CFA_advance_loc: 3 to 0000000000013a7b
  DW_CFA_def_cfa_register: r6 (rbp)
  DW_CFA_advance_loc1: 71 to 0000000000013ac2
  DW_CFA_def_cfa: r7 (rsp) ofs 8
  DW_CFA_nop
  DW_CFA_nop

000024d0 000000000000001c 000024d4 FDE cie=00000000 pc=0000000000013ac3..0000000000013b3f
  DW_CFA_advance_loc: 5 to 0000000000013ac8
  DW_CFA_def_cfa_offset: 16
  DW_CFA_offset: r6 (rbp) at cfa-16
  DW_CFA_advance_loc: 3 to 0000000000013acb
  DW_CFA_def_cfa_register: r6 (rbp)
  DW_CFA_advance_loc1: 115 to 0000000000013b3e
  DW_CFA_def_cfa: r7 (rsp) ofs 8
  DW_CFA_nop
  DW_CFA_nop

000024f0 000000000000001c 000024f4 FDE cie=00000000 pc=0000000000013b3f..0000000000013b75
  DW_CFA_advance_loc: 5 to 0000000000013b44
  DW_CFA_def_cfa_offset: 16
  DW_CFA_offset: r6 (rbp) at cfa-16
  DW_CFA_advance_loc: 3 to 0000000000013b47
  DW_CFA_def_cfa_register: r6 (rbp)
  DW_CFA_advance_loc: 45 to 0000000000013b74
  DW_CFA_def_cfa: r7 (rsp) ofs 8
  DW_CFA_nop
  DW_CFA_nop
  DW_CFA_nop

00002510 000000000000001c 00002514 FDE cie=00000000 pc=0000000000013b75..0000000000013c5e
  DW_CFA_advance_loc: 5 to 0000000000013b7a
  DW_CFA_def_cfa_offset: 16
  DW_CFA_offset: r6 (rbp) at cfa-16
  DW_CFA_advance_loc: 3 to 0000000000013b7d
  DW_CFA_def_cfa_register: r6 (rbp)
  DW_CFA_advance_loc1: 224 to 0000000000013c5d
  DW_CFA_def_cfa: r7 (rsp) ofs 8
  DW_CFA_nop
  DW_CFA_nop

00002530 0000000000000020 00002534 FDE cie=00000000 pc=0000000000013c5e..0000000000013d95
  DW_CFA_advance_loc: 5 to 0000000000013c63
  DW_CFA_def_cfa_offset: 16
  DW_CFA_offset: r6 (rbp) at cfa-16
  DW_CFA_advance_loc: 3 to 0000000000013c66
  DW_CFA_def_cfa_register: r6 (rbp)
  DW_CFA_advance_loc: 8 to 0000000000013c6e
  DW_CFA_offset: r3 (rbx) at cfa-24
  DW_CFA_advance_loc2: 294 to 0000000000013d94
  DW_CFA_def_cfa: r7 (rsp) ofs 8
  DW_CFA_nop
  DW_CFA_nop

00002554 000000000000001c 00002558 FDE cie=00000000 pc=0000000000013d95..000000000001482f
  DW_CFA_advance_loc: 5 to 0000000000013d9a
  DW_CFA_def_cfa_offset: 16
  DW_CFA_offset: r6 (rbp) at cfa-16
  DW_CFA_advance_loc: 3 to 0000000000013d9d
  DW_CFA_def_cfa_register: r6 (rbp)
  DW_CFA_advance_loc2: 2705 to 000000000001482e
  DW_CFA_def_cfa: r7 (rsp) ofs 8
  DW_CFA_nop

00002574 000000000000001c 00002578 FDE cie=00000000 pc=000000000001482f..0000000000014859
  DW_CFA_advance_loc: 5 to 0000000000014834
  DW_CFA_def_cfa_offset: 16
  DW_CFA_offset: r6 (rbp) at cfa-16
  DW_CFA_advance_loc: 3 to 0000000000014837
  DW_CFA_def_cfa_register: r6 (rbp)
  DW_CFA_advance_loc: 33 to 0000000000014858
  DW_CFA_def_cfa: r7 (rsp) ofs 8
  DW_CFA_nop
  DW_CFA_nop
  DW_CFA_nop

00002594 000000000000001c 00002598 FDE cie=00000000 pc=0000000000014859..0000000000014a01
  DW_CFA_advance_loc: 5 to 000000000001485e
  DW_CFA_def_cfa_offset: 16
  DW_CFA_offset: r6 (rbp) at cfa-16
  DW_CFA_advance_loc: 3 to 0000000000014861
  DW_CFA_def_cfa_register: r6 (rbp)
  DW_CFA_advance_loc2: 415 to 0000000000014a00
  DW_CFA_def_cfa: r7 (rsp) ofs 8
  DW_CFA_nop

000025b4 0000000000000020 000025b8 FDE cie=00000000 pc=0000000000014a01..0000000000014a57
  DW_CFA_advance_loc: 5 to 0000000000014a06
  DW_CFA_def_cfa_offset: 16
  DW_CFA_offset: r6 (rbp) at cfa-16
  DW_CFA_advance_loc: 3 to 0000000000014a09
  DW_CFA_def_cfa_register: r6 (rbp)
  DW_CFA_advance_loc1: 77 to 0000000000014a56
  DW_CFA_def_cfa: r7 (rsp) ofs 8
  DW_CFA_nop
  DW_CFA_nop
  DW_CFA_nop
  DW_CFA_nop
  DW_CFA_nop
  DW_CFA_nop

000025d8 000000000000001c 000025dc FDE cie=00000000 pc=0000000000014a57..0000000000014b4e
  DW_CFA_advance_loc: 5 to 0000000000014a5c
  DW_CFA_def_cfa_offset: 16
  DW_CFA_offset: r6 (rbp) at cfa-16
  DW_CFA_advance_loc: 3 to 0000000000014a5f
  DW_CFA_def_cfa_register: r6 (rbp)
  DW_CFA_advance_loc1: 238 to 0000000000014b4d
  DW_CFA_def_cfa: r7 (rsp) ofs 8
  DW_CFA_nop
  DW_CFA_nop

000025f8 000000000000001c 000025fc FDE cie=00000000 pc=0000000000014b4e..0000000000014ca9
  DW_CFA_advance_loc: 5 to 0000000000014b53
  DW_CFA_def_cfa_offset: 16
  DW_CFA_offset: r6 (rbp) at cfa-16
  DW_CFA_advance_loc: 3 to 0000000000014b56
  DW_CFA_def_cfa_register: r6 (rbp)
  DW_CFA_advance_loc2: 338 to 0000000000014ca8
  DW_CFA_def_cfa: r7 (rsp) ofs 8
  DW_CFA_nop

00002618 000000000000001c 0000261c FDE cie=00000000 pc=0000000000014ca9..0000000000014da0
  DW_CFA_advance_loc: 5 to 0000000000014cae
  DW_CFA_def_cfa_offset: 16
  DW_CFA_offset: r6 (rbp) at cfa-16
  DW_CFA_advance_loc: 3 to 0000000000014cb1
  DW_CFA_def_cfa_register: r6 (rbp)
  DW_CFA_advance_loc1: 238 to 0000000000014d9f
  DW_CFA_def_cfa: r7 (rsp) ofs 8
  DW_CFA_nop
  DW_CFA_nop

00002638 000000000000001c 0000263c FDE cie=00000000 pc=0000000000014da0..0000000000014efb
  DW_CFA_advance_loc: 5 to 0000000000014da5
  DW_CFA_def_cfa_offset: 16
  DW_CFA_offset: r6 (rbp) at cfa-16
  DW_CFA_advance_loc: 3 to 0000000000014da8
  DW_CFA_def_cfa_register: r6 (rbp)
  DW_CFA_advance_loc2: 338 to 0000000000014efa
  DW_CFA_def_cfa: r7 (rsp) ofs 8
  DW_CFA_nop

00002658 000000000000001c 0000265c FDE cie=00000000 pc=0000000000014efb..0000000000015039
  DW_CFA_advance_loc: 5 to 0000000000014f00
  DW_CFA_def_cfa_offset: 16
  DW_CFA_offset: r6 (rbp) at cfa-16
  DW_CFA_advance_loc: 3 to 0000000000014f03
  DW_CFA_def_cfa_register: r6 (rbp)
  DW_CFA_advance_loc2: 309 to 0000000000015038
  DW_CFA_def_cfa: r7 (rsp) ofs 8
  DW_CFA_nop

00002678 000000000000001c 0000267c FDE cie=00000000 pc=0000000000015039..00000000000150c2
  DW_CFA_advance_loc: 5 to 000000000001503e
  DW_CFA_def_cfa_offset: 16
  DW_CFA_offset: r6 (rbp) at cfa-16
  DW_CFA_advance_loc: 3 to 0000000000015041
  DW_CFA_def_cfa_register: r6 (rbp)
  DW_CFA_advance_loc1: 128 to 00000000000150c1
  DW_CFA_def_cfa: r7 (rsp) ofs 8
  DW_CFA_nop
  DW_CFA_nop

00002698 000000000000001c 0000269c FDE cie=00000000 pc=00000000000150c2..000000000001516c
  DW_CFA_advance_loc: 5 to 00000000000150c7
  DW_CFA_def_cfa_offset: 16
  DW_CFA_offset: r6 (rbp) at cfa-16
  DW_CFA_advance_loc: 3 to 00000000000150ca
  DW_CFA_def_cfa_register: r6 (rbp)
  DW_CFA_advance_loc1: 161 to 000000000001516b
  DW_CFA_def_cfa: r7 (rsp) ofs 8
  DW_CFA_nop
  DW_CFA_nop

000026b8 000000000000001c 000026bc FDE cie=00000000 pc=000000000001516c..00000000000151be
  DW_CFA_advance_loc: 5 to 0000000000015171
  DW_CFA_def_cfa_offset: 16
  DW_CFA_offset: r6 (rbp) at cfa-16
  DW_CFA_advance_loc: 3 to 0000000000015174
  DW_CFA_def_cfa_register: r6 (rbp)
  DW_CFA_advance_loc1: 73 to 00000000000151bd
  DW_CFA_def_cfa: r7 (rsp) ofs 8
  DW_CFA_nop
  DW_CFA_nop

000026d8 000000000000001c 000026dc FDE cie=00000000 pc=00000000000151be..0000000000015248
  DW_CFA_advance_loc: 5 to 00000000000151c3
  DW_CFA_def_cfa_offset: 16
  DW_CFA_offset: r6 (rbp) at cfa-16
  DW_CFA_advance_loc: 3 to 00000000000151c6
  DW_CFA_def_cfa_register: r6 (rbp)
  DW_CFA_advance_loc1: 129 to 0000000000015247
  DW_CFA_def_cfa: r7 (rsp) ofs 8
  DW_CFA_nop
  DW_CFA_nop

000026f8 000000000000001c 000026fc FDE cie=00000000 pc=0000000000015248..0000000000015295
  DW_CFA_advance_loc: 5 to 000000000001524d
  DW_CFA_def_cfa_offset: 16
  DW_CFA_offset: r6 (rbp) at cfa-16
  DW_CFA_advance_loc: 3 to 0000000000015250
  DW_CFA_def_cfa_register: r6 (rbp)
  DW_CFA_advance_loc1: 68 to 0000000000015294
  DW_CFA_def_cfa: r7 (rsp) ofs 8
  DW_CFA_nop
  DW_CFA_nop

00002718 000000000000001c 0000271c FDE cie=00000000 pc=0000000000015295..0000000000015660
  DW_CFA_advance_loc: 5 to 000000000001529a
  DW_CFA_def_cfa_offset: 16
  DW_CFA_offset: r6 (rbp) at cfa-16
  DW_CFA_advance_loc: 3 to 000000000001529d
  DW_CFA_def_cfa_register: r6 (rbp)
  DW_CFA_advance_loc2: 962 to 000000000001565f
  DW_CFA_def_cfa: r7 (rsp) ofs 8
  DW_CFA_nop

00002738 000000000000001c 0000273c FDE cie=00000000 pc=0000000000015660..0000000000015752
  DW_CFA_advance_loc: 5 to 0000000000015665
  DW_CFA_def_cfa_offset: 16
  DW_CFA_offset: r6 (rbp) at cfa-16
  DW_CFA_advance_loc: 3 to 0000000000015668
  DW_CFA_def_cfa_register: r6 (rbp)
  DW_CFA_advance_loc1: 233 to 0000000000015751
  DW_CFA_def_cfa: r7 (rsp) ofs 8
  DW_CFA_nop
  DW_CFA_nop

00002758 000000000000001c 0000275c FDE cie=00000000 pc=0000000000015752..0000000000015788
  DW_CFA_advance_loc: 5 to 0000000000015757
  DW_CFA_def_cfa_offset: 16
  DW_CFA_offset: r6 (rbp) at cfa-16
  DW_CFA_advance_loc: 3 to 000000000001575a
  DW_CFA_def_cfa_register: r6 (rbp)
  DW_CFA_advance_loc: 45 to 0000000000015787
  DW_CFA_def_cfa: r7 (rsp) ofs 8
  DW_CFA_nop
  DW_CFA_nop
  DW_CFA_nop

00002778 000000000000001c 0000277c FDE cie=00000000 pc=0000000000015788..0000000000015a10
  DW_CFA_advance_loc: 5 to 000000000001578d
  DW_CFA_def_cfa_offset: 16
  DW_CFA_offset: r6 (rbp) at cfa-16
  DW_CFA_advance_loc: 3 to 0000000000015790
  DW_CFA_def_cfa_register: r6 (rbp)
  DW_CFA_advance_loc2: 639 to 0000000000015a0f
  DW_CFA_def_cfa: r7 (rsp) ofs 8
  DW_CFA_nop

00002798 000000000000001c 0000279c FDE cie=00000000 pc=0000000000015a10..0000000000015bb6
  DW_CFA_advance_loc: 5 to 0000000000015a15
  DW_CFA_def_cfa_offset: 16
  DW_CFA_offset: r6 (rbp) at cfa-16
  DW_CFA_advance_loc: 3 to 0000000000015a18
  DW_CFA_def_cfa_register: r6 (rbp)
  DW_CFA_advance_loc2: 413 to 0000000000015bb5
  DW_CFA_def_cfa: r7 (rsp) ofs 8
  DW_CFA_nop

000027b8 000000000000001c 000027bc FDE cie=00000000 pc=0000000000015bb6..0000000000015e00
  DW_CFA_advance_loc: 5 to 0000000000015bbb
  DW_CFA_def_cfa_offset: 16
  DW_CFA_offset: r6 (rbp) at cfa-16
  DW_CFA_advance_loc: 3 to 0000000000015bbe
  DW_CFA_def_cfa_register: r6 (rbp)
  DW_CFA_advance_loc2: 577 to 0000000000015dff
  DW_CFA_def_cfa: r7 (rsp) ofs 8
  DW_CFA_nop

000027d8 000000000000001c 000027dc FDE cie=00000000 pc=0000000000015e00..0000000000015e49
  DW_CFA_advance_loc: 5 to 0000000000015e05
  DW_CFA_def_cfa_offset: 16
  DW_CFA_offset: r6 (rbp) at cfa-16
  DW_CFA_advance_loc: 3 to 0000000000015e08
  DW_CFA_def_cfa_register: r6 (rbp)
  DW_CFA_advance_loc1: 64 to 0000000000015e48
  DW_CFA_def_cfa: r7 (rsp) ofs 8
  DW_CFA_nop
  DW_CFA_nop

000027f8 000000000000001c 000027fc FDE cie=00000000 pc=0000000000015e49..0000000000015ea1
  DW_CFA_advance_loc: 5 to 0000000000015e4e
  DW_CFA_def_cfa_offset: 16
  DW_CFA_offset: r6 (rbp) at cfa-16
  DW_CFA_advance_loc: 3 to 0000000000015e51
  DW_CFA_def_cfa_register: r6 (rbp)
  DW_CFA_advance_loc1: 79 to 0000000000015ea0
  DW_CFA_def_cfa: r7 (rsp) ofs 8
  DW_CFA_nop
  DW_CFA_nop

00002818 000000000000001c 0000281c FDE cie=00000000 pc=0000000000015ea1..0000000000015ef9
  DW_CFA_advance_loc: 5 to 0000000000015ea6
  DW_CFA_def_cfa_offset: 16
  DW_CFA_offset: r6 (rbp) at cfa-16
  DW_CFA_advance_loc: 3 to 0000000000015ea9
  DW_CFA_def_cfa_register: r6 (rbp)
  DW_CFA_advance_loc1: 79 to 0000000000015ef8
  DW_CFA_def_cfa: r7 (rsp) ofs 8
  DW_CFA_nop
  DW_CFA_nop

00002838 000000000000001c 0000283c FDE cie=00000000 pc=0000000000015ef9..0000000000015f49
  DW_CFA_advance_loc: 1 to 0000000000015efa
  DW_CFA_def_cfa_offset: 16
  DW_CFA_offset: r6 (rbp) at cfa-16
  DW_CFA_advance_loc: 3 to 0000000000015efd
  DW_CFA_def_cfa_register: r6 (rbp)
  DW_CFA_advance_loc1: 75 to 0000000000015f48
  DW_CFA_def_cfa: r7 (rsp) ofs 8
  DW_CFA_nop
  DW_CFA_nop

00002858 000000000000001c 0000285c FDE cie=00000000 pc=0000000000015f49..0000000000015fcc
  DW_CFA_advance_loc: 5 to 0000000000015f4e
  DW_CFA_def_cfa_offset: 16
  DW_CFA_offset: r6 (rbp) at cfa-16
  DW_CFA_advance_loc: 3 to 0000000000015f51
  DW_CFA_def_cfa_register: r6 (rbp)
  DW_CFA_advance_loc1: 122 to 0000000000015fcb
  DW_CFA_def_cfa: r7 (rsp) ofs 8
  DW_CFA_nop
  DW_CFA_nop

00002878 0000000000000024 0000287c FDE cie=00000000 pc=0000000000015fcc..0000000000018849
  DW_CFA_advance_loc: 5 to 0000000000015fd1
  DW_CFA_def_cfa_offset: 16
  DW_CFA_offset: r6 (rbp) at cfa-16
  DW_CFA_advance_loc: 3 to 0000000000015fd4
  DW_CFA_def_cfa_register: r6 (rbp)
  DW_CFA_advance_loc: 8 to 0000000000015fdc
  DW_CFA_offset: r3 (rbx) at cfa-24
  DW_CFA_advance_loc2: 10348 to 0000000000018848
  DW_CFA_def_cfa: r7 (rsp) ofs 8
  DW_CFA_nop
  DW_CFA_nop
  DW_CFA_nop
  DW_CFA_nop
  DW_CFA_nop
  DW_CFA_nop

000028a0 000000000000001c 000028a4 FDE cie=00000000 pc=0000000000018849..000000000001889d
  DW_CFA_advance_loc: 5 to 000000000001884e
  DW_CFA_def_cfa_offset: 16
  DW_CFA_offset: r6 (rbp) at cfa-16
  DW_CFA_advance_loc: 3 to 0000000000018851
  DW_CFA_def_cfa_register: r6 (rbp)
  DW_CFA_advance_loc1: 75 to 000000000001889c
  DW_CFA_def_cfa: r7 (rsp) ofs 8
  DW_CFA_nop
  DW_CFA_nop

000028c0 000000000000001c 000028c4 FDE cie=00000000 pc=000000000001889d..00000000000188f2
  DW_CFA_advance_loc: 5 to 00000000000188a2
  DW_CFA_def_cfa_offset: 16
  DW_CFA_offset: r6 (rbp) at cfa-16
  DW_CFA_advance_loc: 3 to 00000000000188a5
  DW_CFA_def_cfa_register: r6 (rbp)
  DW_CFA_advance_loc1: 76 to 00000000000188f1
  DW_CFA_def_cfa: r7 (rsp) ofs 8
  DW_CFA_nop
  DW_CFA_nop

000028e0 000000000000001c 000028e4 FDE cie=00000000 pc=00000000000188f2..0000000000018a18
  DW_CFA_advance_loc: 5 to 00000000000188f7
  DW_CFA_def_cfa_offset: 16
  DW_CFA_offset: r6 (rbp) at cfa-16
  DW_CFA_advance_loc: 3 to 00000000000188fa
  DW_CFA_def_cfa_register: r6 (rbp)
  DW_CFA_advance_loc2: 285 to 0000000000018a17
  DW_CFA_def_cfa: r7 (rsp) ofs 8
  DW_CFA_nop

00002900 000000000000001c 00002904 FDE cie=00000000 pc=0000000000018a18..0000000000018a77
  DW_CFA_advance_loc: 5 to 0000000000018a1d
  DW_CFA_def_cfa_offset: 16
  DW_CFA_offset: r6 (rbp) at cfa-16
  DW_CFA_advance_loc: 3 to 0000000000018a20
  DW_CFA_def_cfa_register: r6 (rbp)
  DW_CFA_advance_loc1: 86 to 0000000000018a76
  DW_CFA_def_cfa: r7 (rsp) ofs 8
  DW_CFA_nop
  DW_CFA_nop

00002920 000000000000001c 00002924 FDE cie=00000000 pc=0000000000018a77..0000000000018ae6
  DW_CFA_advance_loc: 5 to 0000000000018a7c
  DW_CFA_def_cfa_offset: 16
  DW_CFA_offset: r6 (rbp) at cfa-16
  DW_CFA_advance_loc: 3 to 0000000000018a7f
  DW_CFA_def_cfa_register: r6 (rbp)
  DW_CFA_advance_loc1: 102 to 0000000000018ae5
  DW_CFA_def_cfa: r7 (rsp) ofs 8
  DW_CFA_nop
  DW_CFA_nop

00002940 000000000000001c 00002944 FDE cie=00000000 pc=0000000000018ae6..0000000000018cdd
  DW_CFA_advance_loc: 5 to 0000000000018aeb
  DW_CFA_def_cfa_offset: 16
  DW_CFA_offset: r6 (rbp) at cfa-16
  DW_CFA_advance_loc: 3 to 0000000000018aee
  DW_CFA_def_cfa_register: r6 (rbp)
  DW_CFA_advance_loc2: 494 to 0000000000018cdc
  DW_CFA_def_cfa: r7 (rsp) ofs 8
  DW_CFA_nop

00002960 000000000000001c 00002964 FDE cie=00000000 pc=0000000000018cdd..0000000000018d3a
  DW_CFA_advance_loc: 5 to 0000000000018ce2
  DW_CFA_def_cfa_offset: 16
  DW_CFA_offset: r6 (rbp) at cfa-16
  DW_CFA_advance_loc: 3 to 0000000000018ce5
  DW_CFA_def_cfa_register: r6 (rbp)
  DW_CFA_advance_loc1: 84 to 0000000000018d39
  DW_CFA_def_cfa: r7 (rsp) ofs 8
  DW_CFA_nop
  DW_CFA_nop

00002980 000000000000001c 00002984 FDE cie=00000000 pc=0000000000018d3a..0000000000018dfe
  DW_CFA_advance_loc: 5 to 0000000000018d3f
  DW_CFA_def_cfa_offset: 16
  DW_CFA_offset: r6 (rbp) at cfa-16
  DW_CFA_advance_loc: 3 to 0000000000018d42
  DW_CFA_def_cfa_register: r6 (rbp)
  DW_CFA_advance_loc1: 187 to 0000000000018dfd
  DW_CFA_def_cfa: r7 (rsp) ofs 8
  DW_CFA_nop
  DW_CFA_nop

000029a0 000000000000001c 000029a4 FDE cie=00000000 pc=0000000000018dfe..0000000000018e48
  DW_CFA_advance_loc: 5 to 0000000000018e03
  DW_CFA_def_cfa_offset: 16
  DW_CFA_offset: r6 (rbp) at cfa-16
  DW_CFA_advance_loc: 3 to 0000000000018e06
  DW_CFA_def_cfa_register: r6 (rbp)
  DW_CFA_advance_loc1: 65 to 0000000000018e47
  DW_CFA_def_cfa: r7 (rsp) ofs 8
  DW_CFA_nop
  DW_CFA_nop

000029c0 000000000000001c 000029c4 FDE cie=00000000 pc=0000000000018e48..0000000000018e8d
  DW_CFA_advance_loc: 5 to 0000000000018e4d
  DW_CFA_def_cfa_offset: 16
  DW_CFA_offset: r6 (rbp) at cfa-16
  DW_CFA_advance_loc: 3 to 0000000000018e50
  DW_CFA_def_cfa_register: r6 (rbp)
  DW_CFA_nop
  DW_CFA_nop
  DW_CFA_nop
  DW_CFA_nop
  DW_CFA_nop
  DW_CFA_nop
  DW_CFA_nop

000029e0 000000000000001c 000029e4 FDE cie=00000000 pc=0000000000018e8d..0000000000018f82
  DW_CFA_advance_loc: 5 to 0000000000018e92
  DW_CFA_def_cfa_offset: 16
  DW_CFA_offset: r6 (rbp) at cfa-16
  DW_CFA_advance_loc: 3 to 0000000000018e95
  DW_CFA_def_cfa_register: r6 (rbp)
  DW_CFA_advance_loc1: 236 to 0000000000018f81
  DW_CFA_def_cfa: r7 (rsp) ofs 8
  DW_CFA_nop
  DW_CFA_nop

00002a00 000000000000001c 00002a04 FDE cie=00000000 pc=0000000000018f82..0000000000018fd1
  DW_CFA_advance_loc: 5 to 0000000000018f87
  DW_CFA_def_cfa_offset: 16
  DW_CFA_offset: r6 (rbp) at cfa-16
  DW_CFA_advance_loc: 3 to 0000000000018f8a
  DW_CFA_def_cfa_register: r6 (rbp)
  DW_CFA_advance_loc1: 70 to 0000000000018fd0
  DW_CFA_def_cfa: r7 (rsp) ofs 8
  DW_CFA_nop
  DW_CFA_nop

00002a20 000000000000001c 00002a24 FDE cie=00000000 pc=0000000000018fd1..0000000000018ff5
  DW_CFA_advance_loc: 5 to 0000000000018fd6
  DW_CFA_def_cfa_offset: 16
  DW_CFA_offset: r6 (rbp) at cfa-16
  DW_CFA_advance_loc: 3 to 0000000000018fd9
  DW_CFA_def_cfa_register: r6 (rbp)
  DW_CFA_advance_loc: 27 to 0000000000018ff4
  DW_CFA_def_cfa: r7 (rsp) ofs 8
  DW_CFA_nop
  DW_CFA_nop
  DW_CFA_nop

00002a40 000000000000001c 00002a44 FDE cie=00000000 pc=0000000000018ff5..0000000000019020
  DW_CFA_advance_loc: 5 to 0000000000018ffa
  DW_CFA_def_cfa_offset: 16
  DW_CFA_offset: r6 (rbp) at cfa-16
  DW_CFA_advance_loc: 3 to 0000000000018ffd
  DW_CFA_def_cfa_register: r6 (rbp)
  DW_CFA_advance_loc: 34 to 000000000001901f
  DW_CFA_def_cfa: r7 (rsp) ofs 8
  DW_CFA_nop
  DW_CFA_nop
  DW_CFA_nop

00002a60 000000000000001c 00002a64 FDE cie=00000000 pc=0000000000019020..00000000000190b0
  DW_CFA_advance_loc: 5 to 0000000000019025
  DW_CFA_def_cfa_offset: 16
  DW_CFA_offset: r6 (rbp) at cfa-16
  DW_CFA_advance_loc: 3 to 0000000000019028
  DW_CFA_def_cfa_register: r6 (rbp)
  DW_CFA_advance_loc1: 135 to 00000000000190af
  DW_CFA_def_cfa: r7 (rsp) ofs 8
  DW_CFA_nop
  DW_CFA_nop

00002a80 000000000000001c 00002a84 FDE cie=00000000 pc=00000000000190b0..00000000000190ea
  DW_CFA_advance_loc: 5 to 00000000000190b5
  DW_CFA_def_cfa_offset: 16
  DW_CFA_offset: r6 (rbp) at cfa-16
  DW_CFA_advance_loc: 3 to 00000000000190b8
  DW_CFA_def_cfa_register: r6 (rbp)
  DW_CFA_advance_loc: 49 to 00000000000190e9
  DW_CFA_def_cfa: r7 (rsp) ofs 8
  DW_CFA_nop
  DW_CFA_nop
  DW_CFA_nop

00002aa0 000000000000001c 00002aa4 FDE cie=00000000 pc=00000000000190ea..000000000001914c
  DW_CFA_advance_loc: 5 to 00000000000190ef
  DW_CFA_def_cfa_offset: 16
  DW_CFA_offset: r6 (rbp) at cfa-16
  DW_CFA_advance_loc: 3 to 00000000000190f2
  DW_CFA_def_cfa_register: r6 (rbp)
  DW_CFA_advance_loc1: 89 to 000000000001914b
  DW_CFA_def_cfa: r7 (rsp) ofs 8
  DW_CFA_nop
  DW_CFA_nop

00002ac0 0000000000000020 00002ac4 FDE cie=00000000 pc=000000000001914c..0000000000019211
  DW_CFA_advance_loc: 5 to 0000000000019151
  DW_CFA_def_cfa_offset: 16
  DW_CFA_offset: r6 (rbp) at cfa-16
  DW_CFA_advance_loc: 3 to 0000000000019154
  DW_CFA_def_cfa_register: r6 (rbp)
  DW_CFA_advance_loc: 5 to 0000000000019159
  DW_CFA_offset: r3 (rbx) at cfa-24
  DW_CFA_advance_loc1: 183 to 0000000000019210
  DW_CFA_def_cfa: r7 (rsp) ofs 8
  DW_CFA_nop
  DW_CFA_nop
  DW_CFA_nop

00002ae4 000000000000001c 00002ae8 FDE cie=00000000 pc=0000000000019211..00000000000192d6
  DW_CFA_advance_loc: 5 to 0000000000019216
  DW_CFA_def_cfa_offset: 16
  DW_CFA_offset: r6 (rbp) at cfa-16
  DW_CFA_advance_loc: 3 to 0000000000019219
  DW_CFA_def_cfa_register: r6 (rbp)
  DW_CFA_advance_loc1: 188 to 00000000000192d5
  DW_CFA_def_cfa: r7 (rsp) ofs 8
  DW_CFA_nop
  DW_CFA_nop

00002b04 0000000000000020 00002b08 FDE cie=00000000 pc=00000000000192d6..000000000001a397
  DW_CFA_advance_loc: 5 to 00000000000192db
  DW_CFA_def_cfa_offset: 16
  DW_CFA_offset: r6 (rbp) at cfa-16
  DW_CFA_advance_loc: 3 to 00000000000192de
  DW_CFA_def_cfa_register: r6 (rbp)
  DW_CFA_advance_loc: 8 to 00000000000192e6
  DW_CFA_offset: r3 (rbx) at cfa-24
  DW_CFA_advance_loc2: 4272 to 000000000001a396
  DW_CFA_def_cfa: r7 (rsp) ofs 8
  DW_CFA_nop
  DW_CFA_nop

00002b28 000000000000001c 00002b2c FDE cie=00000000 pc=000000000001a397..000000000001a43f
  DW_CFA_advance_loc: 5 to 000000000001a39c
  DW_CFA_def_cfa_offset: 16
  DW_CFA_offset: r6 (rbp) at cfa-16
  DW_CFA_advance_loc: 3 to 000000000001a39f
  DW_CFA_def_cfa_register: r6 (rbp)
  DW_CFA_advance_loc1: 159 to 000000000001a43e
  DW_CFA_def_cfa: r7 (rsp) ofs 8
  DW_CFA_nop
  DW_CFA_nop

00002b48 000000000000001c 00002b4c FDE cie=00000000 pc=000000000001a43f..000000000001a475
  DW_CFA_advance_loc: 5 to 000000000001a444
  DW_CFA_def_cfa_offset: 16
  DW_CFA_offset: r6 (rbp) at cfa-16
  DW_CFA_advance_loc: 3 to 000000000001a447
  DW_CFA_def_cfa_register: r6 (rbp)
  DW_CFA_advance_loc: 45 to 000000000001a474
  DW_CFA_def_cfa: r7 (rsp) ofs 8
  DW_CFA_nop
  DW_CFA_nop
  DW_CFA_nop

00002b68 000000000000001c 00002b6c FDE cie=00000000 pc=000000000001a475..000000000001a5a1
  DW_CFA_advance_loc: 5 to 000000000001a47a
  DW_CFA_def_cfa_offset: 16
  DW_CFA_offset: r6 (rbp) at cfa-16
  DW_CFA_advance_loc: 3 to 000000000001a47d
  DW_CFA_def_cfa_register: r6 (rbp)
  DW_CFA_advance_loc2: 291 to 000000000001a5a0
  DW_CFA_def_cfa: r7 (rsp) ofs 8
  DW_CFA_nop

00002b88 000000000000001c 00002b8c FDE cie=00000000 pc=000000000001a5a1..000000000001a660
  DW_CFA_advance_loc: 5 to 000000000001a5a6
  DW_CFA_def_cfa_offset: 16
  DW_CFA_offset: r6 (rbp) at cfa-16
  DW_CFA_advance_loc: 3 to 000000000001a5a9
  DW_CFA_def_cfa_register: r6 (rbp)
  DW_CFA_advance_loc1: 182 to 000000000001a65f
  DW_CFA_def_cfa: r7 (rsp) ofs 8
  DW_CFA_nop
  DW_CFA_nop

00002ba8 000000000000001c 00002bac FDE cie=00000000 pc=000000000001a660..000000000001a90f
  DW_CFA_advance_loc: 5 to 000000000001a665
  DW_CFA_def_cfa_offset: 16
  DW_CFA_offset: r6 (rbp) at cfa-16
  DW_CFA_advance_loc: 3 to 000000000001a668
  DW_CFA_def_cfa_register: r6 (rbp)
  DW_CFA_advance_loc2: 678 to 000000000001a90e
  DW_CFA_def_cfa: r7 (rsp) ofs 8
  DW_CFA_nop

00002bc8 000000000000001c 00002bcc FDE cie=00000000 pc=000000000001a90f..000000000001a943
  DW_CFA_advance_loc: 5 to 000000000001a914
  DW_CFA_def_cfa_offset: 16
  DW_CFA_offset: r6 (rbp) at cfa-16
  DW_CFA_advance_loc: 3 to 000000000001a917
  DW_CFA_def_cfa_register: r6 (rbp)
  DW_CFA_advance_loc: 43 to 000000000001a942
  DW_CFA_def_cfa: r7 (rsp) ofs 8
  DW_CFA_nop
  DW_CFA_nop
  DW_CFA_nop

00002be8 000000000000001c 00002bec FDE cie=00000000 pc=000000000001a943..000000000001a975
  DW_CFA_advance_loc: 5 to 000000000001a948
  DW_CFA_def_cfa_offset: 16
  DW_CFA_offset: r6 (rbp) at cfa-16
  DW_CFA_advance_loc: 3 to 000000000001a94b
  DW_CFA_def_cfa_register: r6 (rbp)
  DW_CFA_advance_loc: 41 to 000000000001a974
  DW_CFA_def_cfa: r7 (rsp) ofs 8
  DW_CFA_nop
  DW_CFA_nop
  DW_CFA_nop

00002c08 000000000000001c 00002c0c FDE cie=00000000 pc=000000000001a975..000000000001a998
  DW_CFA_advance_loc: 5 to 000000000001a97a
  DW_CFA_def_cfa_offset: 16
  DW_CFA_offset: r6 (rbp) at cfa-16
  DW_CFA_advance_loc: 3 to 000000000001a97d
  DW_CFA_def_cfa_register: r6 (rbp)
  DW_CFA_advance_loc: 26 to 000000000001a997
  DW_CFA_def_cfa: r7 (rsp) ofs 8
  DW_CFA_nop
  DW_CFA_nop
  DW_CFA_nop

00002c28 000000000000001c 00002c2c FDE cie=00000000 pc=000000000001a998..000000000001a9c3
  DW_CFA_advance_loc: 5 to 000000000001a99d
  DW_CFA_def_cfa_offset: 16
  DW_CFA_offset: r6 (rbp) at cfa-16
  DW_CFA_advance_loc: 3 to 000000000001a9a0
  DW_CFA_def_cfa_register: r6 (rbp)
  DW_CFA_advance_loc: 34 to 000000000001a9c2
  DW_CFA_def_cfa: r7 (rsp) ofs 8
  DW_CFA_nop
  DW_CFA_nop
  DW_CFA_nop

00002c48 000000000000001c 00002c4c FDE cie=00000000 pc=000000000001a9c3..000000000001aa2b
  DW_CFA_advance_loc: 5 to 000000000001a9c8
  DW_CFA_def_cfa_offset: 16
  DW_CFA_offset: r6 (rbp) at cfa-16
  DW_CFA_advance_loc: 3 to 000000000001a9cb
  DW_CFA_def_cfa_register: r6 (rbp)
  DW_CFA_advance_loc1: 95 to 000000000001aa2a
  DW_CFA_def_cfa: r7 (rsp) ofs 8
  DW_CFA_nop
  DW_CFA_nop

00002c68 000000000000001c 00002c6c FDE cie=00000000 pc=000000000001aa2b..000000000001aa91
  DW_CFA_advance_loc: 5 to 000000000001aa30
  DW_CFA_def_cfa_offset: 16
  DW_CFA_offset: r6 (rbp) at cfa-16
  DW_CFA_advance_loc: 3 to 000000000001aa33
  DW_CFA_def_cfa_register: r6 (rbp)
  DW_CFA_advance_loc1: 93 to 000000000001aa90
  DW_CFA_def_cfa: r7 (rsp) ofs 8
  DW_CFA_nop
  DW_CFA_nop

00002c88 000000000000001c 00002c8c FDE cie=00000000 pc=000000000001aa91..000000000001aab9
  DW_CFA_advance_loc: 5 to 000000000001aa96
  DW_CFA_def_cfa_offset: 16
  DW_CFA_offset: r6 (rbp) at cfa-16
  DW_CFA_advance_loc: 3 to 000000000001aa99
  DW_CFA_def_cfa_register: r6 (rbp)
  DW_CFA_advance_loc: 31 to 000000000001aab8
  DW_CFA_def_cfa: r7 (rsp) ofs 8
  DW_CFA_nop
  DW_CFA_nop
  DW_CFA_nop

00002ca8 000000000000001c 00002cac FDE cie=00000000 pc=000000000001aab9..000000000001aae9
  DW_CFA_advance_loc: 5 to 000000000001aabe
  DW_CFA_def_cfa_offset: 16
  DW_CFA_offset: r6 (rbp) at cfa-16
  DW_CFA_advance_loc: 3 to 000000000001aac1
  DW_CFA_def_cfa_register: r6 (rbp)
  DW_CFA_advance_loc: 39 to 000000000001aae8
  DW_CFA_def_cfa: r7 (rsp) ofs 8
  DW_CFA_nop
  DW_CFA_nop
  DW_CFA_nop

00002cc8 000000000000001c 00002ccc FDE cie=00000000 pc=000000000001aae9..000000000001aba4
  DW_CFA_advance_loc: 5 to 000000000001aaee
  DW_CFA_def_cfa_offset: 16
  DW_CFA_offset: r6 (rbp) at cfa-16
  DW_CFA_advance_loc: 3 to 000000000001aaf1
  DW_CFA_def_cfa_register: r6 (rbp)
  DW_CFA_advance_loc1: 178 to 000000000001aba3
  DW_CFA_def_cfa: r7 (rsp) ofs 8
  DW_CFA_nop
  DW_CFA_nop

00002ce8 000000000000001c 00002cec FDE cie=00000000 pc=000000000001aba4..000000000001abd2
  DW_CFA_advance_loc: 5 to 000000000001aba9
  DW_CFA_def_cfa_offset: 16
  DW_CFA_offset: r6 (rbp) at cfa-16
  DW_CFA_advance_loc: 3 to 000000000001abac
  DW_CFA_def_cfa_register: r6 (rbp)
  DW_CFA_advance_loc: 37 to 000000000001abd1
  DW_CFA_def_cfa: r7 (rsp) ofs 8
  DW_CFA_nop
  DW_CFA_nop
  DW_CFA_nop

00002d08 000000000000001c 00002d0c FDE cie=00000000 pc=000000000001abd2..000000000001abf5
  DW_CFA_advance_loc: 5 to 000000000001abd7
  DW_CFA_def_cfa_offset: 16
  DW_CFA_offset: r6 (rbp) at cfa-16
  DW_CFA_advance_loc: 3 to 000000000001abda
  DW_CFA_def_cfa_register: r6 (rbp)
  DW_CFA_advance_loc: 26 to 000000000001abf4
  DW_CFA_def_cfa: r7 (rsp) ofs 8
  DW_CFA_nop
  DW_CFA_nop
  DW_CFA_nop

00002d28 000000000000001c 00002d2c FDE cie=00000000 pc=000000000001abf5..000000000001ac23
  DW_CFA_advance_loc: 5 to 000000000001abfa
  DW_CFA_def_cfa_offset: 16
  DW_CFA_offset: r6 (rbp) at cfa-16
  DW_CFA_advance_loc: 3 to 000000000001abfd
  DW_CFA_def_cfa_register: r6 (rbp)
  DW_CFA_advance_loc: 37 to 000000000001ac22
  DW_CFA_def_cfa: r7 (rsp) ofs 8
  DW_CFA_nop
  DW_CFA_nop
  DW_CFA_nop

00002d48 000000000000001c 00002d4c FDE cie=00000000 pc=000000000001ac23..000000000001ace5
  DW_CFA_advance_loc: 5 to 000000000001ac28
  DW_CFA_def_cfa_offset: 16
  DW_CFA_offset: r6 (rbp) at cfa-16
  DW_CFA_advance_loc: 3 to 000000000001ac2b
  DW_CFA_def_cfa_register: r6 (rbp)
  DW_CFA_advance_loc1: 185 to 000000000001ace4
  DW_CFA_def_cfa: r7 (rsp) ofs 8
  DW_CFA_nop
  DW_CFA_nop

00002d68 000000000000001c 00002d6c FDE cie=00000000 pc=000000000001ace5..000000000001ad1f
  DW_CFA_advance_loc: 5 to 000000000001acea
  DW_CFA_def_cfa_offset: 16
  DW_CFA_offset: r6 (rbp) at cfa-16
  DW_CFA_advance_loc: 3 to 000000000001aced
  DW_CFA_def_cfa_register: r6 (rbp)
  DW_CFA_advance_loc: 49 to 000000000001ad1e
  DW_CFA_def_cfa: r7 (rsp) ofs 8
  DW_CFA_nop
  DW_CFA_nop
  DW_CFA_nop

00002d88 000000000000001c 00002d8c FDE cie=00000000 pc=000000000001ad1f..000000000001addd
  DW_CFA_advance_loc: 5 to 000000000001ad24
  DW_CFA_def_cfa_offset: 16
  DW_CFA_offset: r6 (rbp) at cfa-16
  DW_CFA_advance_loc: 3 to 000000000001ad27
  DW_CFA_def_cfa_register: r6 (rbp)
  DW_CFA_advance_loc1: 181 to 000000000001addc
  DW_CFA_def_cfa: r7 (rsp) ofs 8
  DW_CFA_nop
  DW_CFA_nop

00002da8 000000000000001c 00002dac FDE cie=00000000 pc=000000000001addd..000000000001ae10
  DW_CFA_advance_loc: 5 to 000000000001ade2
  DW_CFA_def_cfa_offset: 16
  DW_CFA_offset: r6 (rbp) at cfa-16
  DW_CFA_advance_loc: 3 to 000000000001ade5
  DW_CFA_def_cfa_register: r6 (rbp)
  DW_CFA_advance_loc: 42 to 000000000001ae0f
  DW_CFA_def_cfa: r7 (rsp) ofs 8
  DW_CFA_nop
  DW_CFA_nop
  DW_CFA_nop

00002dc8 000000000000001c 00002dcc FDE cie=00000000 pc=000000000001ae10..000000000001ae4e
  DW_CFA_advance_loc: 5 to 000000000001ae15
  DW_CFA_def_cfa_offset: 16
  DW_CFA_offset: r6 (rbp) at cfa-16
  DW_CFA_advance_loc: 3 to 000000000001ae18
  DW_CFA_def_cfa_register: r6 (rbp)
  DW_CFA_advance_loc: 53 to 000000000001ae4d
  DW_CFA_def_cfa: r7 (rsp) ofs 8
  DW_CFA_nop
  DW_CFA_nop
  DW_CFA_nop

00002de8 000000000000001c 00002dec FDE cie=00000000 pc=000000000001ae4e..000000000001ae80
  DW_CFA_advance_loc: 5 to 000000000001ae53
  DW_CFA_def_cfa_offset: 16
  DW_CFA_offset: r6 (rbp) at cfa-16
  DW_CFA_advance_loc: 3 to 000000000001ae56
  DW_CFA_def_cfa_register: r6 (rbp)
  DW_CFA_advance_loc: 41 to 000000000001ae7f
  DW_CFA_def_cfa: r7 (rsp) ofs 8
  DW_CFA_nop
  DW_CFA_nop
  DW_CFA_nop

00002e08 000000000000001c 00002e0c FDE cie=00000000 pc=000000000001ae80..000000000001aeab
  DW_CFA_advance_loc: 5 to 000000000001ae85
  DW_CFA_def_cfa_offset: 16
  DW_CFA_offset: r6 (rbp) at cfa-16
  DW_CFA_advance_loc: 3 to 000000000001ae88
  DW_CFA_def_cfa_register: r6 (rbp)
  DW_CFA_advance_loc: 34 to 000000000001aeaa
  DW_CFA_def_cfa: r7 (rsp) ofs 8
  DW_CFA_nop
  DW_CFA_nop
  DW_CFA_nop

00002e28 000000000000001c 00002e2c FDE cie=00000000 pc=000000000001aeab..000000000001aed8
  DW_CFA_advance_loc: 5 to 000000000001aeb0
  DW_CFA_def_cfa_offset: 16
  DW_CFA_offset: r6 (rbp) at cfa-16
  DW_CFA_advance_loc: 3 to 000000000001aeb3
  DW_CFA_def_cfa_register: r6 (rbp)
  DW_CFA_advance_loc: 36 to 000000000001aed7
  DW_CFA_def_cfa: r7 (rsp) ofs 8
  DW_CFA_nop
  DW_CFA_nop
  DW_CFA_nop

00002e48 000000000000001c 00002e4c FDE cie=00000000 pc=000000000001aed8..000000000001aefb
  DW_CFA_advance_loc: 5 to 000000000001aedd
  DW_CFA_def_cfa_offset: 16
  DW_CFA_offset: r6 (rbp) at cfa-16
  DW_CFA_advance_loc: 3 to 000000000001aee0
  DW_CFA_def_cfa_register: r6 (rbp)
  DW_CFA_advance_loc: 26 to 000000000001aefa
  DW_CFA_def_cfa: r7 (rsp) ofs 8
  DW_CFA_nop
  DW_CFA_nop
  DW_CFA_nop

00002e68 000000000000001c 00002e6c FDE cie=00000000 pc=000000000001aefb..000000000001af89
  DW_CFA_advance_loc: 5 to 000000000001af00
  DW_CFA_def_cfa_offset: 16
  DW_CFA_offset: r6 (rbp) at cfa-16
  DW_CFA_advance_loc: 3 to 000000000001af03
  DW_CFA_def_cfa_register: r6 (rbp)
  DW_CFA_advance_loc1: 133 to 000000000001af88
  DW_CFA_def_cfa: r7 (rsp) ofs 8
  DW_CFA_nop
  DW_CFA_nop

00002e88 000000000000001c 00002e8c FDE cie=00000000 pc=000000000001af89..000000000001afaf
  DW_CFA_advance_loc: 1 to 000000000001af8a
  DW_CFA_def_cfa_offset: 16
  DW_CFA_offset: r6 (rbp) at cfa-16
  DW_CFA_advance_loc: 3 to 000000000001af8d
  DW_CFA_def_cfa_register: r6 (rbp)
  DW_CFA_advance_loc: 33 to 000000000001afae
  DW_CFA_def_cfa: r7 (rsp) ofs 8
  DW_CFA_nop
  DW_CFA_nop
  DW_CFA_nop

00002ea8 000000000000001c 00002eac FDE cie=00000000 pc=000000000001afaf..000000000001afe1
  DW_CFA_advance_loc: 1 to 000000000001afb0
  DW_CFA_def_cfa_offset: 16
  DW_CFA_offset: r6 (rbp) at cfa-16
  DW_CFA_advance_loc: 3 to 000000000001afb3
  DW_CFA_def_cfa_register: r6 (rbp)
  DW_CFA_advance_loc: 45 to 000000000001afe0
  DW_CFA_def_cfa: r7 (rsp) ofs 8
  DW_CFA_nop
  DW_CFA_nop
  DW_CFA_nop

00002ec8 000000000000001c 00002ecc FDE cie=00000000 pc=000000000001afe1..000000000001b089
  DW_CFA_advance_loc: 5 to 000000000001afe6
  DW_CFA_def_cfa_offset: 16
  DW_CFA_offset: r6 (rbp) at cfa-16
  DW_CFA_advance_loc: 3 to 000000000001afe9
  DW_CFA_def_cfa_register: r6 (rbp)
  DW_CFA_advance_loc1: 159 to 000000000001b088
  DW_CFA_def_cfa: r7 (rsp) ofs 8
  DW_CFA_nop
  DW_CFA_nop

00002ee8 000000000000001c 00002eec FDE cie=00000000 pc=000000000001b089..000000000001b0af
  DW_CFA_advance_loc: 1 to 000000000001b08a
  DW_CFA_def_cfa_offset: 16
  DW_CFA_offset: r6 (rbp) at cfa-16
  DW_CFA_advance_loc: 3 to 000000000001b08d
  DW_CFA_def_cfa_register: r6 (rbp)
  DW_CFA_advance_loc: 33 to 000000000001b0ae
  DW_CFA_def_cfa: r7 (rsp) ofs 8
  DW_CFA_nop
  DW_CFA_nop
  DW_CFA_nop

00002f08 000000000000001c 00002f0c FDE cie=00000000 pc=000000000001b0af..000000000001b1ba
  DW_CFA_advance_loc: 5 to 000000000001b0b4
  DW_CFA_def_cfa_offset: 16
  DW_CFA_offset: r6 (rbp) at cfa-16
  DW_CFA_advance_loc: 3 to 000000000001b0b7
  DW_CFA_def_cfa_register: r6 (rbp)
  DW_CFA_advance_loc2: 258 to 000000000001b1b9
  DW_CFA_def_cfa: r7 (rsp) ofs 8
  DW_CFA_nop

00002f28 000000000000001c 00002f2c FDE cie=00000000 pc=000000000001b1ba..000000000001b1dc
  DW_CFA_advance_loc: 5 to 000000000001b1bf
  DW_CFA_def_cfa_offset: 16
  DW_CFA_offset: r6 (rbp) at cfa-16
  DW_CFA_advance_loc: 3 to 000000000001b1c2
  DW_CFA_def_cfa_register: r6 (rbp)
  DW_CFA_advance_loc: 25 to 000000000001b1db
  DW_CFA_def_cfa: r7 (rsp) ofs 8
  DW_CFA_nop
  DW_CFA_nop
  DW_CFA_nop

00002f48 000000000000001c 00002f4c FDE cie=00000000 pc=000000000001b1dc..000000000001b1eb
  DW_CFA_advance_loc: 5 to 000000000001b1e1
  DW_CFA_def_cfa_offset: 16
  DW_CFA_offset: r6 (rbp) at cfa-16
  DW_CFA_advance_loc: 3 to 000000000001b1e4
  DW_CFA_def_cfa_register: r6 (rbp)
  DW_CFA_advance_loc: 6 to 000000000001b1ea
  DW_CFA_def_cfa: r7 (rsp) ofs 8
  DW_CFA_nop
  DW_CFA_nop
  DW_CFA_nop

00002f68 000000000000001c 00002f6c FDE cie=00000000 pc=000000000001b1eb..000000000001b20d
  DW_CFA_advance_loc: 5 to 000000000001b1f0
  DW_CFA_def_cfa_offset: 16
  DW_CFA_offset: r6 (rbp) at cfa-16
  DW_CFA_advance_loc: 3 to 000000000001b1f3
  DW_CFA_def_cfa_register: r6 (rbp)
  DW_CFA_advance_loc: 25 to 000000000001b20c
  DW_CFA_def_cfa: r7 (rsp) ofs 8
  DW_CFA_nop
  DW_CFA_nop
  DW_CFA_nop

00002f88 000000000000001c 00002f8c FDE cie=00000000 pc=000000000001b20d..000000000001b22f
  DW_CFA_advance_loc: 5 to 000000000001b212
  DW_CFA_def_cfa_offset: 16
  DW_CFA_offset: r6 (rbp) at cfa-16
  DW_CFA_advance_loc: 3 to 000000000001b215
  DW_CFA_def_cfa_register: r6 (rbp)
  DW_CFA_advance_loc: 25 to 000000000001b22e
  DW_CFA_def_cfa: r7 (rsp) ofs 8
  DW_CFA_nop
  DW_CFA_nop
  DW_CFA_nop

00002fa8 000000000000001c 00002fac FDE cie=00000000 pc=000000000001b22f..000000000001b258
  DW_CFA_advance_loc: 5 to 000000000001b234
  DW_CFA_def_cfa_offset: 16
  DW_CFA_offset: r6 (rbp) at cfa-16
  DW_CFA_advance_loc: 3 to 000000000001b237
  DW_CFA_def_cfa_register: r6 (rbp)
  DW_CFA_advance_loc: 32 to 000000000001b257
  DW_CFA_def_cfa: r7 (rsp) ofs 8
  DW_CFA_nop
  DW_CFA_nop
  DW_CFA_nop

00002fc8 000000000000001c 00002fcc FDE cie=00000000 pc=000000000001b258..000000000001b27e
  DW_CFA_advance_loc: 5 to 000000000001b25d
  DW_CFA_def_cfa_offset: 16
  DW_CFA_offset: r6 (rbp) at cfa-16
  DW_CFA_advance_loc: 3 to 000000000001b260
  DW_CFA_def_cfa_register: r6 (rbp)
  DW_CFA_advance_loc: 29 to 000000000001b27d
  DW_CFA_def_cfa: r7 (rsp) ofs 8
  DW_CFA_nop
  DW_CFA_nop
  DW_CFA_nop

00002fe8 000000000000001c 00002fec FDE cie=00000000 pc=000000000001b27e..000000000001b2a4
  DW_CFA_advance_loc: 5 to 000000000001b283
  DW_CFA_def_cfa_offset: 16
  DW_CFA_offset: r6 (rbp) at cfa-16
  DW_CFA_advance_loc: 3 to 000000000001b286
  DW_CFA_def_cfa_register: r6 (rbp)
  DW_CFA_advance_loc: 29 to 000000000001b2a3
  DW_CFA_def_cfa: r7 (rsp) ofs 8
  DW_CFA_nop
  DW_CFA_nop
  DW_CFA_nop

00003008 000000000000001c 0000300c FDE cie=00000000 pc=000000000001b2a4..000000000001b2c9
  DW_CFA_advance_loc: 5 to 000000000001b2a9
  DW_CFA_def_cfa_offset: 16
  DW_CFA_offset: r6 (rbp) at cfa-16
  DW_CFA_advance_loc: 3 to 000000000001b2ac
  DW_CFA_def_cfa_register: r6 (rbp)
  DW_CFA_advance_loc: 28 to 000000000001b2c8
  DW_CFA_def_cfa: r7 (rsp) ofs 8
  DW_CFA_nop
  DW_CFA_nop
  DW_CFA_nop

00003028 000000000000001c 0000302c FDE cie=00000000 pc=000000000001b2c9..000000000001b2ef
  DW_CFA_advance_loc: 5 to 000000000001b2ce
  DW_CFA_def_cfa_offset: 16
  DW_CFA_offset: r6 (rbp) at cfa-16
  DW_CFA_advance_loc: 3 to 000000000001b2d1
  DW_CFA_def_cfa_register: r6 (rbp)
  DW_CFA_advance_loc: 29 to 000000000001b2ee
  DW_CFA_def_cfa: r7 (rsp) ofs 8
  DW_CFA_nop
  DW_CFA_nop
  DW_CFA_nop

00003048 000000000000001c 0000304c FDE cie=00000000 pc=000000000001b2ef..000000000001b315
  DW_CFA_advance_loc: 5 to 000000000001b2f4
  DW_CFA_def_cfa_offset: 16
  DW_CFA_offset: r6 (rbp) at cfa-16
  DW_CFA_advance_loc: 3 to 000000000001b2f7
  DW_CFA_def_cfa_register: r6 (rbp)
  DW_CFA_advance_loc: 29 to 000000000001b314
  DW_CFA_def_cfa: r7 (rsp) ofs 8
  DW_CFA_nop
  DW_CFA_nop
  DW_CFA_nop

00003068 000000000000001c 0000306c FDE cie=00000000 pc=000000000001b315..000000000001b33a
  DW_CFA_advance_loc: 5 to 000000000001b31a
  DW_CFA_def_cfa_offset: 16
  DW_CFA_offset: r6 (rbp) at cfa-16
  DW_CFA_advance_loc: 3 to 000000000001b31d
  DW_CFA_def_cfa_register: r6 (rbp)
  DW_CFA_advance_loc: 28 to 000000000001b339
  DW_CFA_def_cfa: r7 (rsp) ofs 8
  DW_CFA_nop
  DW_CFA_nop
  DW_CFA_nop

00003088 000000000000001c 0000308c FDE cie=00000000 pc=000000000001b33a..000000000001b35c
  DW_CFA_advance_loc: 5 to 000000000001b33f
  DW_CFA_def_cfa_offset: 16
  DW_CFA_offset: r6 (rbp) at cfa-16
  DW_CFA_advance_loc: 3 to 000000000001b342
  DW_CFA_def_cfa_register: r6 (rbp)
  DW_CFA_advance_loc: 25 to 000000000001b35b
  DW_CFA_def_cfa: r7 (rsp) ofs 8
  DW_CFA_nop
  DW_CFA_nop
  DW_CFA_nop

000030a8 000000000000001c 000030ac FDE cie=00000000 pc=000000000001b35c..000000000001b37e
  DW_CFA_advance_loc: 5 to 000000000001b361
  DW_CFA_def_cfa_offset: 16
  DW_CFA_offset: r6 (rbp) at cfa-16
  DW_CFA_advance_loc: 3 to 000000000001b364
  DW_CFA_def_cfa_register: r6 (rbp)
  DW_CFA_advance_loc: 25 to 000000000001b37d
  DW_CFA_def_cfa: r7 (rsp) ofs 8
  DW_CFA_nop
  DW_CFA_nop
  DW_CFA_nop

000030c8 000000000000001c 000030cc FDE cie=00000000 pc=000000000001b37e..000000000001b3a0
  DW_CFA_advance_loc: 5 to 000000000001b383
  DW_CFA_def_cfa_offset: 16
  DW_CFA_offset: r6 (rbp) at cfa-16
  DW_CFA_advance_loc: 3 to 000000000001b386
  DW_CFA_def_cfa_register: r6 (rbp)
  DW_CFA_advance_loc: 25 to 000000000001b39f
  DW_CFA_def_cfa: r7 (rsp) ofs 8
  DW_CFA_nop
  DW_CFA_nop
  DW_CFA_nop

000030e8 000000000000001c 000030ec FDE cie=00000000 pc=000000000001b3a0..000000000001b3d0
  DW_CFA_advance_loc: 5 to 000000000001b3a5
  DW_CFA_def_cfa_offset: 16
  DW_CFA_offset: r6 (rbp) at cfa-16
  DW_CFA_advance_loc: 3 to 000000000001b3a8
  DW_CFA_def_cfa_register: r6 (rbp)
  DW_CFA_advance_loc: 39 to 000000000001b3cf
  DW_CFA_def_cfa: r7 (rsp) ofs 8
  DW_CFA_nop
  DW_CFA_nop
  DW_CFA_nop

00003108 000000000000001c 0000310c FDE cie=00000000 pc=000000000001b3d0..000000000001b3f2
  DW_CFA_advance_loc: 5 to 000000000001b3d5
  DW_CFA_def_cfa_offset: 16
  DW_CFA_offset: r6 (rbp) at cfa-16
  DW_CFA_advance_loc: 3 to 000000000001b3d8
  DW_CFA_def_cfa_register: r6 (rbp)
  DW_CFA_advance_loc: 25 to 000000000001b3f1
  DW_CFA_def_cfa: r7 (rsp) ofs 8
  DW_CFA_nop
  DW_CFA_nop
  DW_CFA_nop

00003128 000000000000001c 0000312c FDE cie=00000000 pc=000000000001b3f2..000000000001b418
  DW_CFA_advance_loc: 5 to 000000000001b3f7
  DW_CFA_def_cfa_offset: 16
  DW_CFA_offset: r6 (rbp) at cfa-16
  DW_CFA_advance_loc: 3 to 000000000001b3fa
  DW_CFA_def_cfa_register: r6 (rbp)
  DW_CFA_advance_loc: 29 to 000000000001b417
  DW_CFA_def_cfa: r7 (rsp) ofs 8
  DW_CFA_nop
  DW_CFA_nop
  DW_CFA_nop

00003148 000000000000001c 0000314c FDE cie=00000000 pc=000000000001b418..000000000001b440
  DW_CFA_advance_loc: 5 to 000000000001b41d
  DW_CFA_def_cfa_offset: 16
  DW_CFA_offset: r6 (rbp) at cfa-16
  DW_CFA_advance_loc: 3 to 000000000001b420
  DW_CFA_def_cfa_register: r6 (rbp)
  DW_CFA_advance_loc: 31 to 000000000001b43f
  DW_CFA_def_cfa: r7 (rsp) ofs 8
  DW_CFA_nop
  DW_CFA_nop
  DW_CFA_nop

00003168 000000000000001c 0000316c FDE cie=00000000 pc=000000000001b440..000000000001b4f8
  DW_CFA_advance_loc: 5 to 000000000001b445
  DW_CFA_def_cfa_offset: 16
  DW_CFA_offset: r6 (rbp) at cfa-16
  DW_CFA_advance_loc: 3 to 000000000001b448
  DW_CFA_def_cfa_register: r6 (rbp)
  DW_CFA_advance_loc1: 175 to 000000000001b4f7
  DW_CFA_def_cfa: r7 (rsp) ofs 8
  DW_CFA_nop
  DW_CFA_nop

00003188 000000000000001c 0000318c FDE cie=00000000 pc=000000000001b4f8..000000000001b526
  DW_CFA_advance_loc: 5 to 000000000001b4fd
  DW_CFA_def_cfa_offset: 16
  DW_CFA_offset: r6 (rbp) at cfa-16
  DW_CFA_advance_loc: 3 to 000000000001b500
  DW_CFA_def_cfa_register: r6 (rbp)
  DW_CFA_advance_loc: 37 to 000000000001b525
  DW_CFA_def_cfa: r7 (rsp) ofs 8
  DW_CFA_nop
  DW_CFA_nop
  DW_CFA_nop

000031a8 000000000000001c 000031ac FDE cie=00000000 pc=000000000001b526..000000000001b541
  DW_CFA_advance_loc: 5 to 000000000001b52b
  DW_CFA_def_cfa_offset: 16
  DW_CFA_offset: r6 (rbp) at cfa-16
  DW_CFA_advance_loc: 3 to 000000000001b52e
  DW_CFA_def_cfa_register: r6 (rbp)
  DW_CFA_advance_loc: 18 to 000000000001b540
  DW_CFA_def_cfa: r7 (rsp) ofs 8
  DW_CFA_nop
  DW_CFA_nop
  DW_CFA_nop

000031c8 000000000000001c 000031cc FDE cie=00000000 pc=000000000001b541..000000000001b557
  DW_CFA_advance_loc: 5 to 000000000001b546
  DW_CFA_def_cfa_offset: 16
  DW_CFA_offset: r6 (rbp) at cfa-16
  DW_CFA_advance_loc: 3 to 000000000001b549
  DW_CFA_def_cfa_register: r6 (rbp)
  DW_CFA_advance_loc: 13 to 000000000001b556
  DW_CFA_def_cfa: r7 (rsp) ofs 8
  DW_CFA_nop
  DW_CFA_nop
  DW_CFA_nop

000031e8 000000000000001c 000031ec FDE cie=00000000 pc=000000000001b557..000000000001b56d
  DW_CFA_advance_loc: 5 to 000000000001b55c
  DW_CFA_def_cfa_offset: 16
  DW_CFA_offset: r6 (rbp) at cfa-16
  DW_CFA_advance_loc: 3 to 000000000001b55f
  DW_CFA_def_cfa_register: r6 (rbp)
  DW_CFA_advance_loc: 13 to 000000000001b56c
  DW_CFA_def_cfa: r7 (rsp) ofs 8
  DW_CFA_nop
  DW_CFA_nop
  DW_CFA_nop

00003208 000000000000001c 0000320c FDE cie=00000000 pc=000000000001b56d..000000000001b583
  DW_CFA_advance_loc: 5 to 000000000001b572
  DW_CFA_def_cfa_offset: 16
  DW_CFA_offset: r6 (rbp) at cfa-16
  DW_CFA_advance_loc: 3 to 000000000001b575
  DW_CFA_def_cfa_register: r6 (rbp)
  DW_CFA_advance_loc: 13 to 000000000001b582
  DW_CFA_def_cfa: r7 (rsp) ofs 8
  DW_CFA_nop
  DW_CFA_nop
  DW_CFA_nop

00003228 000000000000001c 0000322c FDE cie=00000000 pc=000000000001b583..000000000001b596
  DW_CFA_advance_loc: 5 to 000000000001b588
  DW_CFA_def_cfa_offset: 16
  DW_CFA_offset: r6 (rbp) at cfa-16
  DW_CFA_advance_loc: 3 to 000000000001b58b
  DW_CFA_def_cfa_register: r6 (rbp)
  DW_CFA_advance_loc: 10 to 000000000001b595
  DW_CFA_def_cfa: r7 (rsp) ofs 8
  DW_CFA_nop
  DW_CFA_nop
  DW_CFA_nop

00003248 000000000000001c 0000324c FDE cie=00000000 pc=000000000001b596..000000000001b5b0
  DW_CFA_advance_loc: 5 to 000000000001b59b
  DW_CFA_def_cfa_offset: 16
  DW_CFA_offset: r6 (rbp) at cfa-16
  DW_CFA_advance_loc: 3 to 000000000001b59e
  DW_CFA_def_cfa_register: r6 (rbp)
  DW_CFA_advance_loc: 17 to 000000000001b5af
  DW_CFA_def_cfa: r7 (rsp) ofs 8
  DW_CFA_nop
  DW_CFA_nop
  DW_CFA_nop

00003268 000000000000001c 0000326c FDE cie=00000000 pc=000000000001b5b0..000000000001b5ca
  DW_CFA_advance_loc: 5 to 000000000001b5b5
  DW_CFA_def_cfa_offset: 16
  DW_CFA_offset: r6 (rbp) at cfa-16
  DW_CFA_advance_loc: 3 to 000000000001b5b8
  DW_CFA_def_cfa_register: r6 (rbp)
  DW_CFA_advance_loc: 17 to 000000000001b5c9
  DW_CFA_def_cfa: r7 (rsp) ofs 8
  DW_CFA_nop
  DW_CFA_nop
  DW_CFA_nop

00003288 000000000000001c 0000328c FDE cie=00000000 pc=000000000001b5ca..000000000001b5e4
  DW_CFA_advance_loc: 5 to 000000000001b5cf
  DW_CFA_def_cfa_offset: 16
  DW_CFA_offset: r6 (rbp) at cfa-16
  DW_CFA_advance_loc: 3 to 000000000001b5d2
  DW_CFA_def_cfa_register: r6 (rbp)
  DW_CFA_advance_loc: 17 to 000000000001b5e3
  DW_CFA_def_cfa: r7 (rsp) ofs 8
  DW_CFA_nop
  DW_CFA_nop
  DW_CFA_nop

000032a8 000000000000001c 000032ac FDE cie=00000000 pc=000000000001b5e4..000000000001b60a
  DW_CFA_advance_loc: 5 to 000000000001b5e9
  DW_CFA_def_cfa_offset: 16
  DW_CFA_offset: r6 (rbp) at cfa-16
  DW_CFA_advance_loc: 3 to 000000000001b5ec
  DW_CFA_def_cfa_register: r6 (rbp)
  DW_CFA_advance_loc: 29 to 000000000001b609
  DW_CFA_def_cfa: r7 (rsp) ofs 8
  DW_CFA_nop
  DW_CFA_nop
  DW_CFA_nop

000032c8 000000000000001c 000032cc FDE cie=00000000 pc=000000000001b60a..000000000001b61e
  DW_CFA_advance_loc: 5 to 000000000001b60f
  DW_CFA_def_cfa_offset: 16
  DW_CFA_offset: r6 (rbp) at cfa-16
  DW_CFA_advance_loc: 3 to 000000000001b612
  DW_CFA_def_cfa_register: r6 (rbp)
  DW_CFA_advance_loc: 11 to 000000000001b61d
  DW_CFA_def_cfa: r7 (rsp) ofs 8
  DW_CFA_nop
  DW_CFA_nop
  DW_CFA_nop

000032e8 000000000000001c 000032ec FDE cie=00000000 pc=000000000001b61e..000000000001b65e
  DW_CFA_advance_loc: 5 to 000000000001b623
  DW_CFA_def_cfa_offset: 16
  DW_CFA_offset: r6 (rbp) at cfa-16
  DW_CFA_advance_loc: 3 to 000000000001b626
  DW_CFA_def_cfa_register: r6 (rbp)
  DW_CFA_advance_loc: 55 to 000000000001b65d
  DW_CFA_def_cfa: r7 (rsp) ofs 8
  DW_CFA_nop
  DW_CFA_nop
  DW_CFA_nop

00003308 000000000000001c 0000330c FDE cie=00000000 pc=000000000001b65e..000000000001b713
  DW_CFA_advance_loc: 5 to 000000000001b663
  DW_CFA_def_cfa_offset: 16
  DW_CFA_offset: r6 (rbp) at cfa-16
  DW_CFA_advance_loc: 3 to 000000000001b666
  DW_CFA_def_cfa_register: r6 (rbp)
  DW_CFA_advance_loc1: 172 to 000000000001b712
  DW_CFA_def_cfa: r7 (rsp) ofs 8
  DW_CFA_nop
  DW_CFA_nop

00003328 000000000000001c 0000332c FDE cie=00000000 pc=000000000001b713..000000000001b8b7
  DW_CFA_advance_loc: 5 to 000000000001b718
  DW_CFA_def_cfa_offset: 16
  DW_CFA_offset: r6 (rbp) at cfa-16
  DW_CFA_advance_loc: 3 to 000000000001b71b
  DW_CFA_def_cfa_register: r6 (rbp)
  DW_CFA_advance_loc2: 411 to 000000000001b8b6
  DW_CFA_def_cfa: r7 (rsp) ofs 8
  DW_CFA_nop

00003348 000000000000001c 0000334c FDE cie=00000000 pc=000000000001b8b7..000000000001b8fd
  DW_CFA_advance_loc: 5 to 000000000001b8bc
  DW_CFA_def_cfa_offset: 16
  DW_CFA_offset: r6 (rbp) at cfa-16
  DW_CFA_advance_loc: 3 to 000000000001b8bf
  DW_CFA_def_cfa_register: r6 (rbp)
  DW_CFA_advance_loc: 61 to 000000000001b8fc
  DW_CFA_def_cfa: r7 (rsp) ofs 8
  DW_CFA_nop
  DW_CFA_nop
  DW_CFA_nop

00003368 000000000000001c 0000336c FDE cie=00000000 pc=000000000001b8fd..000000000001b916
  DW_CFA_advance_loc: 5 to 000000000001b902
  DW_CFA_def_cfa_offset: 16
  DW_CFA_offset: r6 (rbp) at cfa-16
  DW_CFA_advance_loc: 3 to 000000000001b905
  DW_CFA_def_cfa_register: r6 (rbp)
  DW_CFA_advance_loc: 16 to 000000000001b915
  DW_CFA_def_cfa: r7 (rsp) ofs 8
  DW_CFA_nop
  DW_CFA_nop
  DW_CFA_nop

00003388 000000000000001c 0000338c FDE cie=00000000 pc=000000000001b916..000000000001b95b
  DW_CFA_advance_loc: 5 to 000000000001b91b
  DW_CFA_def_cfa_offset: 16
  DW_CFA_offset: r6 (rbp) at cfa-16
  DW_CFA_advance_loc: 3 to 000000000001b91e
  DW_CFA_def_cfa_register: r6 (rbp)
  DW_CFA_advance_loc: 60 to 000000000001b95a
  DW_CFA_def_cfa: r7 (rsp) ofs 8
  DW_CFA_nop
  DW_CFA_nop
  DW_CFA_nop

000033a8 000000000000001c 000033ac FDE cie=00000000 pc=000000000001b95b..000000000001b9a5
  DW_CFA_advance_loc: 5 to 000000000001b960
  DW_CFA_def_cfa_offset: 16
  DW_CFA_offset: r6 (rbp) at cfa-16
  DW_CFA_advance_loc: 3 to 000000000001b963
  DW_CFA_def_cfa_register: r6 (rbp)
  DW_CFA_advance_loc1: 65 to 000000000001b9a4
  DW_CFA_def_cfa: r7 (rsp) ofs 8
  DW_CFA_nop
  DW_CFA_nop

000033c8 000000000000001c 000033cc FDE cie=00000000 pc=000000000001b9a5..000000000001ba72
  DW_CFA_advance_loc: 5 to 000000000001b9aa
  DW_CFA_def_cfa_offset: 16
  DW_CFA_offset: r6 (rbp) at cfa-16
  DW_CFA_advance_loc: 3 to 000000000001b9ad
  DW_CFA_def_cfa_register: r6 (rbp)
  DW_CFA_advance_loc1: 196 to 000000000001ba71
  DW_CFA_def_cfa: r7 (rsp) ofs 8
  DW_CFA_nop
  DW_CFA_nop

000033e8 000000000000001c 000033ec FDE cie=00000000 pc=000000000001ba72..000000000001bade
  DW_CFA_advance_loc: 5 to 000000000001ba77
  DW_CFA_def_cfa_offset: 16
  DW_CFA_offset: r6 (rbp) at cfa-16
  DW_CFA_advance_loc: 3 to 000000000001ba7a
  DW_CFA_def_cfa_register: r6 (rbp)
  DW_CFA_advance_loc1: 99 to 000000000001badd
  DW_CFA_def_cfa: r7 (rsp) ofs 8
  DW_CFA_nop
  DW_CFA_nop

00003408 000000000000001c 0000340c FDE cie=00000000 pc=000000000001bade..000000000001bb8e
  DW_CFA_advance_loc: 5 to 000000000001bae3
  DW_CFA_def_cfa_offset: 16
  DW_CFA_offset: r6 (rbp) at cfa-16
  DW_CFA_advance_loc: 3 to 000000000001bae6
  DW_CFA_def_cfa_register: r6 (rbp)
  DW_CFA_advance_loc1: 167 to 000000000001bb8d
  DW_CFA_def_cfa: r7 (rsp) ofs 8
  DW_CFA_nop
  DW_CFA_nop

00003428 0000000000000024 0000342c FDE cie=00000000 pc=000000000001bb8e..000000000001bcf4
  DW_CFA_advance_loc: 5 to 000000000001bb93
  DW_CFA_def_cfa_offset: 16
  DW_CFA_offset: r6 (rbp) at cfa-16
  DW_CFA_advance_loc: 3 to 000000000001bb96
  DW_CFA_def_cfa_register: r6 (rbp)
  DW_CFA_advance_loc: 5 to 000000000001bb9b
  DW_CFA_offset: r3 (rbx) at cfa-24
  DW_CFA_advance_loc2: 344 to 000000000001bcf3
  DW_CFA_def_cfa: r7 (rsp) ofs 8
  DW_CFA_nop
  DW_CFA_nop
  DW_CFA_nop
  DW_CFA_nop
  DW_CFA_nop
  DW_CFA_nop

00003450 000000000000001c 00003454 FDE cie=00000000 pc=000000000001bcf4..000000000001bd2e
  DW_CFA_advance_loc: 5 to 000000000001bcf9
  DW_CFA_def_cfa_offset: 16
  DW_CFA_offset: r6 (rbp) at cfa-16
  DW_CFA_advance_loc: 3 to 000000000001bcfc
  DW_CFA_def_cfa_register: r6 (rbp)
  DW_CFA_advance_loc: 49 to 000000000001bd2d
  DW_CFA_def_cfa: r7 (rsp) ofs 8
  DW_CFA_nop
  DW_CFA_nop
  DW_CFA_nop

00003470 000000000000001c 00003474 FDE cie=00000000 pc=000000000001bd2e..000000000001bd58
  DW_CFA_advance_loc: 5 to 000000000001bd33
  DW_CFA_def_cfa_offset: 16
  DW_CFA_offset: r6 (rbp) at cfa-16
  DW_CFA_advance_loc: 3 to 000000000001bd36
  DW_CFA_def_cfa_register: r6 (rbp)
  DW_CFA_advance_loc: 33 to 000000000001bd57
  DW_CFA_def_cfa: r7 (rsp) ofs 8
  DW_CFA_nop
  DW_CFA_nop
  DW_CFA_nop

00003490 000000000000001c 00003494 FDE cie=00000000 pc=000000000001bd58..000000000001bdce
  DW_CFA_advance_loc: 5 to 000000000001bd5d
  DW_CFA_def_cfa_offset: 16
  DW_CFA_offset: r6 (rbp) at cfa-16
  DW_CFA_advance_loc: 3 to 000000000001bd60
  DW_CFA_def_cfa_register: r6 (rbp)
  DW_CFA_advance_loc1: 109 to 000000000001bdcd
  DW_CFA_def_cfa: r7 (rsp) ofs 8
  DW_CFA_nop
  DW_CFA_nop

000034b0 000000000000001c 000034b4 FDE cie=00000000 pc=000000000001bdce..000000000001be20
  DW_CFA_advance_loc: 5 to 000000000001bdd3
  DW_CFA_def_cfa_offset: 16
  DW_CFA_offset: r6 (rbp) at cfa-16
  DW_CFA_advance_loc: 3 to 000000000001bdd6
  DW_CFA_def_cfa_register: r6 (rbp)
  DW_CFA_advance_loc1: 73 to 000000000001be1f
  DW_CFA_def_cfa: r7 (rsp) ofs 8
  DW_CFA_nop
  DW_CFA_nop

000034d0 000000000000001c 000034d4 FDE cie=00000000 pc=000000000001be20..000000000001be6f
  DW_CFA_advance_loc: 5 to 000000000001be25
  DW_CFA_def_cfa_offset: 16
  DW_CFA_offset: r6 (rbp) at cfa-16
  DW_CFA_advance_loc: 3 to 000000000001be28
  DW_CFA_def_cfa_register: r6 (rbp)
  DW_CFA_advance_loc1: 70 to 000000000001be6e
  DW_CFA_def_cfa: r7 (rsp) ofs 8
  DW_CFA_nop
  DW_CFA_nop

000034f0 0000000000000028 000034f4 FDE cie=00000000 pc=000000000001be6f..000000000001c461
  DW_CFA_advance_loc: 5 to 000000000001be74
  DW_CFA_def_cfa_offset: 16
  DW_CFA_offset: r6 (rbp) at cfa-16
  DW_CFA_advance_loc: 3 to 000000000001be77
  DW_CFA_def_cfa_register: r6 (rbp)
  DW_CFA_advance_loc: 13 to 000000000001be84
  DW_CFA_offset: r15 (r15) at cfa-24
  DW_CFA_offset: r14 (r14) at cfa-32
  DW_CFA_offset: r13 (r13) at cfa-40
  DW_CFA_offset: r12 (r12) at cfa-48
  DW_CFA_offset: r3 (rbx) at cfa-56
  DW_CFA_advance_loc2: 1500 to 000000000001c460
  DW_CFA_def_cfa: r7 (rsp) ofs 8
  DW_CFA_nop
  DW_CFA_nop

0000351c 000000000000001c 00003520 FDE cie=00000000 pc=000000000001c461..000000000001c4d4
  DW_CFA_advance_loc: 5 to 000000000001c466
  DW_CFA_def_cfa_offset: 16
  DW_CFA_offset: r6 (rbp) at cfa-16
  DW_CFA_advance_loc: 3 to 000000000001c469
  DW_CFA_def_cfa_register: r6 (rbp)
  DW_CFA_advance_loc1: 106 to 000000000001c4d3
  DW_CFA_def_cfa: r7 (rsp) ofs 8
  DW_CFA_nop
  DW_CFA_nop

0000353c 000000000000001c 00003540 FDE cie=00000000 pc=000000000001c4d4..000000000001c5da
  DW_CFA_advance_loc: 5 to 000000000001c4d9
  DW_CFA_def_cfa_offset: 16
  DW_CFA_offset: r6 (rbp) at cfa-16
  DW_CFA_advance_loc: 3 to 000000000001c4dc
  DW_CFA_def_cfa_register: r6 (rbp)
  DW_CFA_advance_loc1: 253 to 000000000001c5d9
  DW_CFA_def_cfa: r7 (rsp) ofs 8
  DW_CFA_nop
  DW_CFA_nop

0000355c 000000000000001c 00003560 FDE cie=00000000 pc=000000000001c5da..000000000001c6be
  DW_CFA_advance_loc: 5 to 000000000001c5df
  DW_CFA_def_cfa_offset: 16
  DW_CFA_offset: r6 (rbp) at cfa-16
  DW_CFA_advance_loc: 3 to 000000000001c5e2
  DW_CFA_def_cfa_register: r6 (rbp)
  DW_CFA_advance_loc1: 219 to 000000000001c6bd
  DW_CFA_def_cfa: r7 (rsp) ofs 8
  DW_CFA_nop
  DW_CFA_nop

0000357c 0000000000000020 00003580 FDE cie=00000000 pc=000000000001c6be..000000000001c762
  DW_CFA_advance_loc: 5 to 000000000001c6c3
  DW_CFA_def_cfa_offset: 16
  DW_CFA_offset: r6 (rbp) at cfa-16
  DW_CFA_advance_loc: 3 to 000000000001c6c6
  DW_CFA_def_cfa_register: r6 (rbp)
  DW_CFA_advance_loc1: 155 to 000000000001c761
  DW_CFA_def_cfa: r7 (rsp) ofs 8
  DW_CFA_nop
  DW_CFA_nop
  DW_CFA_nop
  DW_CFA_nop
  DW_CFA_nop
  DW_CFA_nop

000035a0 000000000000001c 000035a4 FDE cie=00000000 pc=000000000001c762..000000000001c793
  DW_CFA_advance_loc: 5 to 000000000001c767
  DW_CFA_def_cfa_offset: 16
  DW_CFA_offset: r6 (rbp) at cfa-16
  DW_CFA_advance_loc: 3 to 000000000001c76a
  DW_CFA_def_cfa_register: r6 (rbp)
  DW_CFA_advance_loc: 40 to 000000000001c792
  DW_CFA_def_cfa: r7 (rsp) ofs 8
  DW_CFA_nop
  DW_CFA_nop
  DW_CFA_nop

000035c0 000000000000001c 000035c4 FDE cie=00000000 pc=000000000001c793..000000000001c7b5
  DW_CFA_advance_loc: 5 to 000000000001c798
  DW_CFA_def_cfa_offset: 16
  DW_CFA_offset: r6 (rbp) at cfa-16
  DW_CFA_advance_loc: 3 to 000000000001c79b
  DW_CFA_def_cfa_register: r6 (rbp)
  DW_CFA_advance_loc: 25 to 000000000001c7b4
  DW_CFA_def_cfa: r7 (rsp) ofs 8
  DW_CFA_nop
  DW_CFA_nop
  DW_CFA_nop

000035e0 000000000000001c 000035e4 FDE cie=00000000 pc=000000000001c7b5..000000000001c7db
  DW_CFA_advance_loc: 5 to 000000000001c7ba
  DW_CFA_def_cfa_offset: 16
  DW_CFA_offset: r6 (rbp) at cfa-16
  DW_CFA_advance_loc: 3 to 000000000001c7bd
  DW_CFA_def_cfa_register: r6 (rbp)
  DW_CFA_advance_loc: 29 to 000000000001c7da
  DW_CFA_def_cfa: r7 (rsp) ofs 8
  DW_CFA_nop
  DW_CFA_nop
  DW_CFA_nop

00003600 000000000000001c 00003604 FDE cie=00000000 pc=000000000001c7db..000000000001c801
  DW_CFA_advance_loc: 5 to 000000000001c7e0
  DW_CFA_def_cfa_offset: 16
  DW_CFA_offset: r6 (rbp) at cfa-16
  DW_CFA_advance_loc: 3 to 000000000001c7e3
  DW_CFA_def_cfa_register: r6 (rbp)
  DW_CFA_advance_loc: 29 to 000000000001c800
  DW_CFA_def_cfa: r7 (rsp) ofs 8
  DW_CFA_nop
  DW_CFA_nop
  DW_CFA_nop

00003620 000000000000001c 00003624 FDE cie=00000000 pc=000000000001c801..000000000001c81f
  DW_CFA_advance_loc: 5 to 000000000001c806
  DW_CFA_def_cfa_offset: 16
  DW_CFA_offset: r6 (rbp) at cfa-16
  DW_CFA_advance_loc: 3 to 000000000001c809
  DW_CFA_def_cfa_register: r6 (rbp)
  DW_CFA_advance_loc: 21 to 000000000001c81e
  DW_CFA_def_cfa: r7 (rsp) ofs 8
  DW_CFA_nop
  DW_CFA_nop
  DW_CFA_nop

00003640 000000000000001c 00003644 FDE cie=00000000 pc=000000000001c81f..000000000001c86a
  DW_CFA_advance_loc: 5 to 000000000001c824
  DW_CFA_def_cfa_offset: 16
  DW_CFA_offset: r6 (rbp) at cfa-16
  DW_CFA_advance_loc: 3 to 000000000001c827
  DW_CFA_def_cfa_register: r6 (rbp)
  DW_CFA_advance_loc1: 66 to 000000000001c869
  DW_CFA_def_cfa: r7 (rsp) ofs 8
  DW_CFA_nop
  DW_CFA_nop

00003660 000000000000001c 00003664 FDE cie=00000000 pc=000000000001c86a..000000000001c89b
  DW_CFA_advance_loc: 5 to 000000000001c86f
  DW_CFA_def_cfa_offset: 16
  DW_CFA_offset: r6 (rbp) at cfa-16
  DW_CFA_advance_loc: 3 to 000000000001c872
  DW_CFA_def_cfa_register: r6 (rbp)
  DW_CFA_advance_loc: 40 to 000000000001c89a
  DW_CFA_def_cfa: r7 (rsp) ofs 8
  DW_CFA_nop
  DW_CFA_nop
  DW_CFA_nop

00003680 000000000000001c 00003684 FDE cie=00000000 pc=000000000001c89b..000000000001c8f5
  DW_CFA_advance_loc: 5 to 000000000001c8a0
  DW_CFA_def_cfa_offset: 16
  DW_CFA_offset: r6 (rbp) at cfa-16
  DW_CFA_advance_loc: 3 to 000000000001c8a3
  DW_CFA_def_cfa_register: r6 (rbp)
  DW_CFA_advance_loc1: 81 to 000000000001c8f4
  DW_CFA_def_cfa: r7 (rsp) ofs 8
  DW_CFA_nop
  DW_CFA_nop

000036a0 000000000000001c 000036a4 FDE cie=00000000 pc=000000000001c8f5..000000000001c92e
  DW_CFA_advance_loc: 5 to 000000000001c8fa
  DW_CFA_def_cfa_offset: 16
  DW_CFA_offset: r6 (rbp) at cfa-16
  DW_CFA_advance_loc: 3 to 000000000001c8fd
  DW_CFA_def_cfa_register: r6 (rbp)
  DW_CFA_advance_loc: 48 to 000000000001c92d
  DW_CFA_def_cfa: r7 (rsp) ofs 8
  DW_CFA_nop
  DW_CFA_nop
  DW_CFA_nop

000036c0 000000000000001c 000036c4 FDE cie=00000000 pc=000000000001c92e..000000000001c959
  DW_CFA_advance_loc: 5 to 000000000001c933
  DW_CFA_def_cfa_offset: 16
  DW_CFA_offset: r6 (rbp) at cfa-16
  DW_CFA_advance_loc: 3 to 000000000001c936
  DW_CFA_def_cfa_register: r6 (rbp)
  DW_CFA_advance_loc: 34 to 000000000001c958
  DW_CFA_def_cfa: r7 (rsp) ofs 8
  DW_CFA_nop
  DW_CFA_nop
  DW_CFA_nop

000036e0 000000000000001c 000036e4 FDE cie=00000000 pc=000000000001c959..000000000001c984
  DW_CFA_advance_loc: 5 to 000000000001c95e
  DW_CFA_def_cfa_offset: 16
  DW_CFA_offset: r6 (rbp) at cfa-16
  DW_CFA_advance_loc: 3 to 000000000001c961
  DW_CFA_def_cfa_register: r6 (rbp)
  DW_CFA_advance_loc: 34 to 000000000001c983
  DW_CFA_def_cfa: r7 (rsp) ofs 8
  DW_CFA_nop
  DW_CFA_nop
  DW_CFA_nop

00003700 000000000000001c 00003704 FDE cie=00000000 pc=000000000001c984..000000000001c9b2
  DW_CFA_advance_loc: 5 to 000000000001c989
  DW_CFA_def_cfa_offset: 16
  DW_CFA_offset: r6 (rbp) at cfa-16
  DW_CFA_advance_loc: 3 to 000000000001c98c
  DW_CFA_def_cfa_register: r6 (rbp)
  DW_CFA_advance_loc: 37 to 000000000001c9b1
  DW_CFA_def_cfa: r7 (rsp) ofs 8
  DW_CFA_nop
  DW_CFA_nop
  DW_CFA_nop

00003720 000000000000001c 00003724 FDE cie=00000000 pc=000000000001c9b2..000000000001ca91
  DW_CFA_advance_loc: 5 to 000000000001c9b7
  DW_CFA_def_cfa_offset: 16
  DW_CFA_offset: r6 (rbp) at cfa-16
  DW_CFA_advance_loc: 3 to 000000000001c9ba
  DW_CFA_def_cfa_register: r6 (rbp)
  DW_CFA_advance_loc1: 214 to 000000000001ca90
  DW_CFA_def_cfa: r7 (rsp) ofs 8
  DW_CFA_nop
  DW_CFA_nop

00003740 000000000000001c 00003744 FDE cie=00000000 pc=000000000001ca91..000000000001cc4d
  DW_CFA_advance_loc: 5 to 000000000001ca96
  DW_CFA_def_cfa_offset: 16
  DW_CFA_offset: r6 (rbp) at cfa-16
  DW_CFA_advance_loc: 3 to 000000000001ca99
  DW_CFA_def_cfa_register: r6 (rbp)
  DW_CFA_advance_loc2: 435 to 000000000001cc4c
  DW_CFA_def_cfa: r7 (rsp) ofs 8
  DW_CFA_nop

00003760 000000000000001c 00003764 FDE cie=00000000 pc=000000000001cc4d..000000000001cc70
  DW_CFA_advance_loc: 5 to 000000000001cc52
  DW_CFA_def_cfa_offset: 16
  DW_CFA_offset: r6 (rbp) at cfa-16
  DW_CFA_advance_loc: 3 to 000000000001cc55
  DW_CFA_def_cfa_register: r6 (rbp)
  DW_CFA_advance_loc: 26 to 000000000001cc6f
  DW_CFA_def_cfa: r7 (rsp) ofs 8
  DW_CFA_nop
  DW_CFA_nop
  DW_CFA_nop

00003780 000000000000001c 00003784 FDE cie=00000000 pc=000000000001cc70..000000000001cc93
  DW_CFA_advance_loc: 5 to 000000000001cc75
  DW_CFA_def_cfa_offset: 16
  DW_CFA_offset: r6 (rbp) at cfa-16
  DW_CFA_advance_loc: 3 to 000000000001cc78
  DW_CFA_def_cfa_register: r6 (rbp)
  DW_CFA_advance_loc: 26 to 000000000001cc92
  DW_CFA_def_cfa: r7 (rsp) ofs 8
  DW_CFA_nop
  DW_CFA_nop
  DW_CFA_nop

000037a0 000000000000001c 000037a4 FDE cie=00000000 pc=000000000001cc93..000000000001ccc4
  DW_CFA_advance_loc: 5 to 000000000001cc98
  DW_CFA_def_cfa_offset: 16
  DW_CFA_offset: r6 (rbp) at cfa-16
  DW_CFA_advance_loc: 3 to 000000000001cc9b
  DW_CFA_def_cfa_register: r6 (rbp)
  DW_CFA_advance_loc: 40 to 000000000001ccc3
  DW_CFA_def_cfa: r7 (rsp) ofs 8
  DW_CFA_nop
  DW_CFA_nop
  DW_CFA_nop

000037c0 000000000000001c 000037c4 FDE cie=00000000 pc=000000000001ccc4..000000000001ccf5
  DW_CFA_advance_loc: 5 to 000000000001ccc9
  DW_CFA_def_cfa_offset: 16
  DW_CFA_offset: r6 (rbp) at cfa-16
  DW_CFA_advance_loc: 3 to 000000000001cccc
  DW_CFA_def_cfa_register: r6 (rbp)
  DW_CFA_advance_loc: 40 to 000000000001ccf4
  DW_CFA_def_cfa: r7 (rsp) ofs 8
  DW_CFA_nop
  DW_CFA_nop
  DW_CFA_nop

000037e0 000000000000001c 000037e4 FDE cie=00000000 pc=000000000001ccf5..000000000001cd2d
  DW_CFA_advance_loc: 5 to 000000000001ccfa
  DW_CFA_def_cfa_offset: 16
  DW_CFA_offset: r6 (rbp) at cfa-16
  DW_CFA_advance_loc: 3 to 000000000001ccfd
  DW_CFA_def_cfa_register: r6 (rbp)
  DW_CFA_advance_loc: 47 to 000000000001cd2c
  DW_CFA_def_cfa: r7 (rsp) ofs 8
  DW_CFA_nop
  DW_CFA_nop
  DW_CFA_nop

00003800 000000000000001c 00003804 FDE cie=00000000 pc=000000000001cd2d..000000000001cd6d
  DW_CFA_advance_loc: 5 to 000000000001cd32
  DW_CFA_def_cfa_offset: 16
  DW_CFA_offset: r6 (rbp) at cfa-16
  DW_CFA_advance_loc: 3 to 000000000001cd35
  DW_CFA_def_cfa_register: r6 (rbp)
  DW_CFA_advance_loc: 5 to 000000000001cd3a
  DW_CFA_offset: r3 (rbx) at cfa-24
  DW_CFA_advance_loc: 50 to 000000000001cd6c
  DW_CFA_def_cfa: r7 (rsp) ofs 8

00003820 000000000000001c 00003824 FDE cie=00000000 pc=000000000001cd6d..000000000001cdbc
  DW_CFA_advance_loc: 5 to 000000000001cd72
  DW_CFA_def_cfa_offset: 16
  DW_CFA_offset: r6 (rbp) at cfa-16
  DW_CFA_advance_loc: 3 to 000000000001cd75
  DW_CFA_def_cfa_register: r6 (rbp)
  DW_CFA_advance_loc1: 70 to 000000000001cdbb
  DW_CFA_def_cfa: r7 (rsp) ofs 8
  DW_CFA_nop
  DW_CFA_nop

00003840 000000000000001c 00003844 FDE cie=00000000 pc=000000000001cdbc..000000000001cded
  DW_CFA_advance_loc: 5 to 000000000001cdc1
  DW_CFA_def_cfa_offset: 16
  DW_CFA_offset: r6 (rbp) at cfa-16
  DW_CFA_advance_loc: 3 to 000000000001cdc4
  DW_CFA_def_cfa_register: r6 (rbp)
  DW_CFA_advance_loc: 40 to 000000000001cdec
  DW_CFA_def_cfa: r7 (rsp) ofs 8
  DW_CFA_nop
  DW_CFA_nop
  DW_CFA_nop

00003860 000000000000001c 00003864 FDE cie=00000000 pc=000000000001cded..000000000001ce2d
  DW_CFA_advance_loc: 5 to 000000000001cdf2
  DW_CFA_def_cfa_offset: 16
  DW_CFA_offset: r6 (rbp) at cfa-16
  DW_CFA_advance_loc: 3 to 000000000001cdf5
  DW_CFA_def_cfa_register: r6 (rbp)
  DW_CFA_nop
  DW_CFA_nop
  DW_CFA_nop
  DW_CFA_nop
  DW_CFA_nop
  DW_CFA_nop
  DW_CFA_nop

00003880 0000000000000020 00003884 FDE cie=00000000 pc=000000000001ce2d..000000000001cf67
  DW_CFA_advance_loc: 5 to 000000000001ce32
  DW_CFA_def_cfa_offset: 16
  DW_CFA_offset: r6 (rbp) at cfa-16
  DW_CFA_advance_loc: 3 to 000000000001ce35
  DW_CFA_def_cfa_register: r6 (rbp)
  DW_CFA_advance_loc: 5 to 000000000001ce3a
  DW_CFA_offset: r3 (rbx) at cfa-24
  DW_CFA_advance_loc2: 300 to 000000000001cf66
  DW_CFA_def_cfa: r7 (rsp) ofs 8
  DW_CFA_nop
  DW_CFA_nop

000038a4 0000000000000020 000038a8 FDE cie=00000000 pc=000000000001cf67..000000000001cfc0
  DW_CFA_advance_loc: 5 to 000000000001cf6c
  DW_CFA_def_cfa_offset: 16
  DW_CFA_offset: r6 (rbp) at cfa-16
  DW_CFA_advance_loc: 3 to 000000000001cf6f
  DW_CFA_def_cfa_register: r6 (rbp)
  DW_CFA_advance_loc1: 80 to 000000000001cfbf
  DW_CFA_def_cfa: r7 (rsp) ofs 8
  DW_CFA_nop
  DW_CFA_nop
  DW_CFA_nop
  DW_CFA_nop
  DW_CFA_nop
  DW_CFA_nop

000038c8 000000000000001c 000038cc FDE cie=00000000 pc=000000000001cfc0..000000000001d13c
  DW_CFA_advance_loc: 5 to 000000000001cfc5
  DW_CFA_def_cfa_offset: 16
  DW_CFA_offset: r6 (rbp) at cfa-16
  DW_CFA_advance_loc: 3 to 000000000001cfc8
  DW_CFA_def_cfa_register: r6 (rbp)
  DW_CFA_advance_loc2: 371 to 000000000001d13b
  DW_CFA_def_cfa: r7 (rsp) ofs 8
  DW_CFA_nop

000038e8 000000000000001c 000038ec FDE cie=00000000 pc=000000000001d13c..000000000001d25a
  DW_CFA_advance_loc: 5 to 000000000001d141
  DW_CFA_def_cfa_offset: 16
  DW_CFA_offset: r6 (rbp) at cfa-16
  DW_CFA_advance_loc: 3 to 000000000001d144
  DW_CFA_def_cfa_register: r6 (rbp)
  DW_CFA_advance_loc2: 277 to 000000000001d259
  DW_CFA_def_cfa: r7 (rsp) ofs 8
  DW_CFA_nop

00003908 000000000000001c 0000390c FDE cie=00000000 pc=000000000001d25a..000000000001d2a4
  DW_CFA_advance_loc: 5 to 000000000001d25f
  DW_CFA_def_cfa_offset: 16
  DW_CFA_offset: r6 (rbp) at cfa-16
  DW_CFA_advance_loc: 3 to 000000000001d262
  DW_CFA_def_cfa_register: r6 (rbp)
  DW_CFA_nop
  DW_CFA_nop
  DW_CFA_nop
  DW_CFA_nop
  DW_CFA_nop
  DW_CFA_nop
  DW_CFA_nop

00003928 000000000000001c 0000392c FDE cie=00000000 pc=000000000001d2a4..000000000001d336
  DW_CFA_advance_loc: 5 to 000000000001d2a9
  DW_CFA_def_cfa_offset: 16
  DW_CFA_offset: r6 (rbp) at cfa-16
  DW_CFA_advance_loc: 3 to 000000000001d2ac
  DW_CFA_def_cfa_register: r6 (rbp)
  DW_CFA_advance_loc1: 137 to 000000000001d335
  DW_CFA_def_cfa: r7 (rsp) ofs 8
  DW_CFA_nop
  DW_CFA_nop

00003948 000000000000001c 0000394c FDE cie=00000000 pc=000000000001d336..000000000001d37b
  DW_CFA_advance_loc: 5 to 000000000001d33b
  DW_CFA_def_cfa_offset: 16
  DW_CFA_offset: r6 (rbp) at cfa-16
  DW_CFA_advance_loc: 3 to 000000000001d33e
  DW_CFA_def_cfa_register: r6 (rbp)
  DW_CFA_advance_loc: 60 to 000000000001d37a
  DW_CFA_def_cfa: r7 (rsp) ofs 8
  DW_CFA_nop
  DW_CFA_nop
  DW_CFA_nop

00003968 000000000000001c 0000396c FDE cie=00000000 pc=000000000001d37b..000000000001d7d9
  DW_CFA_advance_loc: 5 to 000000000001d380
  DW_CFA_def_cfa_offset: 16
  DW_CFA_offset: r6 (rbp) at cfa-16
  DW_CFA_advance_loc: 3 to 000000000001d383
  DW_CFA_def_cfa_register: r6 (rbp)
  DW_CFA_advance_loc2: 1109 to 000000000001d7d8
  DW_CFA_def_cfa: r7 (rsp) ofs 8
  DW_CFA_nop

00003988 000000000000001c 0000398c FDE cie=00000000 pc=000000000001d7d9..000000000001d7e9
  DW_CFA_advance_loc: 5 to 000000000001d7de
  DW_CFA_def_cfa_offset: 16
  DW_CFA_offset: r6 (rbp) at cfa-16
  DW_CFA_advance_loc: 3 to 000000000001d7e1
  DW_CFA_def_cfa_register: r6 (rbp)
  DW_CFA_advance_loc: 7 to 000000000001d7e8
  DW_CFA_def_cfa: r7 (rsp) ofs 8
  DW_CFA_nop
  DW_CFA_nop
  DW_CFA_nop

000039a8 000000000000001c 000039ac FDE cie=00000000 pc=000000000001d7e9..000000000001d860
  DW_CFA_advance_loc: 5 to 000000000001d7ee
  DW_CFA_def_cfa_offset: 16
  DW_CFA_offset: r6 (rbp) at cfa-16
  DW_CFA_advance_loc: 3 to 000000000001d7f1
  DW_CFA_def_cfa_register: r6 (rbp)
  DW_CFA_advance_loc1: 110 to 000000000001d85f
  DW_CFA_def_cfa: r7 (rsp) ofs 8
  DW_CFA_nop
  DW_CFA_nop

000039c8 000000000000001c 000039cc FDE cie=00000000 pc=000000000001d860..000000000001d909
  DW_CFA_advance_loc: 5 to 000000000001d865
  DW_CFA_def_cfa_offset: 16
  DW_CFA_offset: r6 (rbp) at cfa-16
  DW_CFA_advance_loc: 3 to 000000000001d868
  DW_CFA_def_cfa_register: r6 (rbp)
  DW_CFA_advance_loc1: 160 to 000000000001d908
  DW_CFA_def_cfa: r7 (rsp) ofs 8
  DW_CFA_nop
  DW_CFA_nop

000039e8 000000000000001c 000039ec FDE cie=00000000 pc=000000000001d909..000000000001d948
  DW_CFA_advance_loc: 5 to 000000000001d90e
  DW_CFA_def_cfa_offset: 16
  DW_CFA_offset: r6 (rbp) at cfa-16
  DW_CFA_advance_loc: 3 to 000000000001d911
  DW_CFA_def_cfa_register: r6 (rbp)
  DW_CFA_advance_loc: 54 to 000000000001d947
  DW_CFA_def_cfa: r7 (rsp) ofs 8
  DW_CFA_nop
  DW_CFA_nop
  DW_CFA_nop

00003a08 0000000000000020 00003a0c FDE cie=00000000 pc=000000000001d948..000000000001db6b
  DW_CFA_advance_loc: 5 to 000000000001d94d
  DW_CFA_def_cfa_offset: 16
  DW_CFA_offset: r6 (rbp) at cfa-16
  DW_CFA_advance_loc: 3 to 000000000001d950
  DW_CFA_def_cfa_register: r6 (rbp)
  DW_CFA_advance_loc: 5 to 000000000001d955
  DW_CFA_offset: r3 (rbx) at cfa-24
  DW_CFA_advance_loc2: 533 to 000000000001db6a
  DW_CFA_def_cfa: r7 (rsp) ofs 8
  DW_CFA_nop
  DW_CFA_nop

00003a2c 0000000000000020 00003a30 FDE cie=00000000 pc=000000000001db6b..000000000001dbbd
  DW_CFA_advance_loc: 5 to 000000000001db70
  DW_CFA_def_cfa_offset: 16
  DW_CFA_offset: r6 (rbp) at cfa-16
  DW_CFA_advance_loc: 3 to 000000000001db73
  DW_CFA_def_cfa_register: r6 (rbp)
  DW_CFA_advance_loc: 5 to 000000000001db78
  DW_CFA_offset: r3 (rbx) at cfa-24
  DW_CFA_advance_loc1: 68 to 000000000001dbbc
  DW_CFA_def_cfa: r7 (rsp) ofs 8
  DW_CFA_nop
  DW_CFA_nop
  DW_CFA_nop

00003a50 0000000000000020 00003a54 FDE cie=00000000 pc=000000000001dbbd..000000000001dc36
  DW_CFA_advance_loc: 5 to 000000000001dbc2
  DW_CFA_def_cfa_offset: 16
  DW_CFA_offset: r6 (rbp) at cfa-16
  DW_CFA_advance_loc: 3 to 000000000001dbc5
  DW_CFA_def_cfa_register: r6 (rbp)
  DW_CFA_advance_loc: 5 to 000000000001dbca
  DW_CFA_offset: r3 (rbx) at cfa-24
  DW_CFA_advance_loc1: 107 to 000000000001dc35
  DW_CFA_def_cfa: r7 (rsp) ofs 8
  DW_CFA_nop
  DW_CFA_nop
  DW_CFA_nop

00003a74 000000000000001c 00003a78 FDE cie=00000000 pc=000000000001dc36..000000000001dc8f
  DW_CFA_advance_loc: 5 to 000000000001dc3b
  DW_CFA_def_cfa_offset: 16
  DW_CFA_offset: r6 (rbp) at cfa-16
  DW_CFA_advance_loc: 3 to 000000000001dc3e
  DW_CFA_def_cfa_register: r6 (rbp)
  DW_CFA_advance_loc1: 80 to 000000000001dc8e
  DW_CFA_def_cfa: r7 (rsp) ofs 8
  DW_CFA_nop
  DW_CFA_nop

00003a94 0000000000000020 00003a98 FDE cie=00000000 pc=000000000001dc8f..000000000001de8b
  DW_CFA_advance_loc: 5 to 000000000001dc94
  DW_CFA_def_cfa_offset: 16
  DW_CFA_offset: r6 (rbp) at cfa-16
  DW_CFA_advance_loc: 3 to 000000000001dc97
  DW_CFA_def_cfa_register: r6 (rbp)
  DW_CFA_advance_loc: 8 to 000000000001dc9f
  DW_CFA_offset: r3 (rbx) at cfa-24
  DW_CFA_advance_loc2: 491 to 000000000001de8a
  DW_CFA_def_cfa: r7 (rsp) ofs 8
  DW_CFA_nop
  DW_CFA_nop

00003ab8 0000000000000020 00003abc FDE cie=00000000 pc=000000000001de8b..000000000001e6a9
  DW_CFA_advance_loc: 5 to 000000000001de90
  DW_CFA_def_cfa_offset: 16
  DW_CFA_offset: r6 (rbp) at cfa-16
  DW_CFA_advance_loc: 3 to 000000000001de93
  DW_CFA_def_cfa_register: r6 (rbp)
  DW_CFA_advance_loc: 8 to 000000000001de9b
  DW_CFA_offset: r3 (rbx) at cfa-24
  DW_CFA_advance_loc2: 2061 to 000000000001e6a8
  DW_CFA_def_cfa: r7 (rsp) ofs 8
  DW_CFA_nop
  DW_CFA_nop

00003adc 0000000000000020 00003ae0 FDE cie=00000000 pc=000000000001e6a9..000000000001e6dd
  DW_CFA_advance_loc: 5 to 000000000001e6ae
  DW_CFA_def_cfa_offset: 16
  DW_CFA_offset: r6 (rbp) at cfa-16
  DW_CFA_advance_loc: 3 to 000000000001e6b1
  DW_CFA_def_cfa_register: r6 (rbp)
  DW_CFA_advance_loc: 43 to 000000000001e6dc
  DW_CFA_def_cfa: r7 (rsp) ofs 8
  DW_CFA_nop
  DW_CFA_nop
  DW_CFA_nop
  DW_CFA_nop
  DW_CFA_nop
  DW_CFA_nop
  DW_CFA_nop

00003b00 000000000000001c 00003b04 FDE cie=00000000 pc=000000000001e6dd..000000000001e6fd
  DW_CFA_advance_loc: 5 to 000000000001e6e2
  DW_CFA_def_cfa_offset: 16
  DW_CFA_offset: r6 (rbp) at cfa-16
  DW_CFA_advance_loc: 3 to 000000000001e6e5
  DW_CFA_def_cfa_register: r6 (rbp)
  DW_CFA_advance_loc: 23 to 000000000001e6fc
  DW_CFA_def_cfa: r7 (rsp) ofs 8
  DW_CFA_nop
  DW_CFA_nop
  DW_CFA_nop

00003b20 000000000000001c 00003b24 FDE cie=00000000 pc=000000000001e6fd..000000000001e71d
  DW_CFA_advance_loc: 5 to 000000000001e702
  DW_CFA_def_cfa_offset: 16
  DW_CFA_offset: r6 (rbp) at cfa-16
  DW_CFA_advance_loc: 3 to 000000000001e705
  DW_CFA_def_cfa_register: r6 (rbp)
  DW_CFA_advance_loc: 23 to 000000000001e71c
  DW_CFA_def_cfa: r7 (rsp) ofs 8
  DW_CFA_nop
  DW_CFA_nop
  DW_CFA_nop

00003b40 000000000000001c 00003b44 FDE cie=00000000 pc=000000000001e71d..000000000001e739
  DW_CFA_advance_loc: 5 to 000000000001e722
  DW_CFA_def_cfa_offset: 16
  DW_CFA_offset: r6 (rbp) at cfa-16
  DW_CFA_advance_loc: 3 to 000000000001e725
  DW_CFA_def_cfa_register: r6 (rbp)
  DW_CFA_advance_loc: 19 to 000000000001e738
  DW_CFA_def_cfa: r7 (rsp) ofs 8
  DW_CFA_nop
  DW_CFA_nop
  DW_CFA_nop

00003b60 000000000000001c 00003b64 FDE cie=00000000 pc=000000000001e739..000000000001e755
  DW_CFA_advance_loc: 5 to 000000000001e73e
  DW_CFA_def_cfa_offset: 16
  DW_CFA_offset: r6 (rbp) at cfa-16
  DW_CFA_advance_loc: 3 to 000000000001e741
  DW_CFA_def_cfa_register: r6 (rbp)
  DW_CFA_advance_loc: 19 to 000000000001e754
  DW_CFA_def_cfa: r7 (rsp) ofs 8
  DW_CFA_nop
  DW_CFA_nop
  DW_CFA_nop

00003b80 000000000000001c 00003b84 FDE cie=00000000 pc=000000000001e755..000000000001e78e
  DW_CFA_advance_loc: 5 to 000000000001e75a
  DW_CFA_def_cfa_offset: 16
  DW_CFA_offset: r6 (rbp) at cfa-16
  DW_CFA_advance_loc: 3 to 000000000001e75d
  DW_CFA_def_cfa_register: r6 (rbp)
  DW_CFA_advance_loc: 48 to 000000000001e78d
  DW_CFA_def_cfa: r7 (rsp) ofs 8
  DW_CFA_nop
  DW_CFA_nop
  DW_CFA_nop

00003ba0 000000000000001c 00003ba4 FDE cie=00000000 pc=000000000001e78e..000000000001e7c7
  DW_CFA_advance_loc: 5 to 000000000001e793
  DW_CFA_def_cfa_offset: 16
  DW_CFA_offset: r6 (rbp) at cfa-16
  DW_CFA_advance_loc: 3 to 000000000001e796
  DW_CFA_def_cfa_register: r6 (rbp)
  DW_CFA_advance_loc: 48 to 000000000001e7c6
  DW_CFA_def_cfa: r7 (rsp) ofs 8
  DW_CFA_nop
  DW_CFA_nop
  DW_CFA_nop

00003bc0 000000000000001c 00003bc4 FDE cie=00000000 pc=000000000001e7c7..000000000001e7fd
  DW_CFA_advance_loc: 5 to 000000000001e7cc
  DW_CFA_def_cfa_offset: 16
  DW_CFA_offset: r6 (rbp) at cfa-16
  DW_CFA_advance_loc: 3 to 000000000001e7cf
  DW_CFA_def_cfa_register: r6 (rbp)
  DW_CFA_advance_loc: 45 to 000000000001e7fc
  DW_CFA_def_cfa: r7 (rsp) ofs 8
  DW_CFA_nop
  DW_CFA_nop
  DW_CFA_nop

00003be0 000000000000001c 00003be4 FDE cie=00000000 pc=000000000001e7fd..000000000001e833
  DW_CFA_advance_loc: 5 to 000000000001e802
  DW_CFA_def_cfa_offset: 16
  DW_CFA_offset: r6 (rbp) at cfa-16
  DW_CFA_advance_loc: 3 to 000000000001e805
  DW_CFA_def_cfa_register: r6 (rbp)
  DW_CFA_advance_loc: 45 to 000000000001e832
  DW_CFA_def_cfa: r7 (rsp) ofs 8
  DW_CFA_nop
  DW_CFA_nop
  DW_CFA_nop

00003c00 000000000000001c 00003c04 FDE cie=00000000 pc=000000000001e833..000000000001e868
  DW_CFA_advance_loc: 5 to 000000000001e838
  DW_CFA_def_cfa_offset: 16
  DW_CFA_offset: r6 (rbp) at cfa-16
  DW_CFA_advance_loc: 3 to 000000000001e83b
  DW_CFA_def_cfa_register: r6 (rbp)
  DW_CFA_advance_loc: 44 to 000000000001e867
  DW_CFA_def_cfa: r7 (rsp) ofs 8
  DW_CFA_nop
  DW_CFA_nop
  DW_CFA_nop

00003c20 000000000000001c 00003c24 FDE cie=00000000 pc=000000000001e868..000000000001e89d
  DW_CFA_advance_loc: 5 to 000000000001e86d
  DW_CFA_def_cfa_offset: 16
  DW_CFA_offset: r6 (rbp) at cfa-16
  DW_CFA_advance_loc: 3 to 000000000001e870
  DW_CFA_def_cfa_register: r6 (rbp)
  DW_CFA_advance_loc: 44 to 000000000001e89c
  DW_CFA_def_cfa: r7 (rsp) ofs 8
  DW_CFA_nop
  DW_CFA_nop
  DW_CFA_nop

00003c40 0000000000000024 00003c44 FDE cie=00000000 pc=000000000001e89d..000000000001e917
  DW_CFA_advance_loc: 5 to 000000000001e8a2
  DW_CFA_def_cfa_offset: 16
  DW_CFA_offset: r6 (rbp) at cfa-16
  DW_CFA_advance_loc: 3 to 000000000001e8a5
  DW_CFA_def_cfa_register: r6 (rbp)
  DW_CFA_advance_loc: 7 to 000000000001e8ac
  DW_CFA_offset: r12 (r12) at cfa-24
  DW_CFA_offset: r3 (rbx) at cfa-32
  DW_CFA_advance_loc1: 106 to 000000000001e916
  DW_CFA_def_cfa: r7 (rsp) ofs 8
  DW_CFA_nop
  DW_CFA_nop
  DW_CFA_nop
  DW_CFA_nop
  DW_CFA_nop

00003c68 000000000000001c 00003c6c FDE cie=00000000 pc=000000000001e917..000000000001e9a6
  DW_CFA_advance_loc: 5 to 000000000001e91c
  DW_CFA_def_cfa_offset: 16
  DW_CFA_offset: r6 (rbp) at cfa-16
  DW_CFA_advance_loc: 3 to 000000000001e91f
  DW_CFA_def_cfa_register: r6 (rbp)
  DW_CFA_advance_loc1: 134 to 000000000001e9a5
  DW_CFA_def_cfa: r7 (rsp) ofs 8
  DW_CFA_nop
  DW_CFA_nop

00003c88 000000000000001c 00003c8c FDE cie=00000000 pc=000000000001e9a6..000000000001ea5f
  DW_CFA_advance_loc: 5 to 000000000001e9ab
  DW_CFA_def_cfa_offset: 16
  DW_CFA_offset: r6 (rbp) at cfa-16
  DW_CFA_advance_loc: 3 to 000000000001e9ae
  DW_CFA_def_cfa_register: r6 (rbp)
  DW_CFA_advance_loc1: 176 to 000000000001ea5e
  DW_CFA_def_cfa: r7 (rsp) ofs 8
  DW_CFA_nop
  DW_CFA_nop

00003ca8 000000000000001c 00003cac FDE cie=00000000 pc=000000000001ea5f..000000000001ea97
  DW_CFA_advance_loc: 5 to 000000000001ea64
  DW_CFA_def_cfa_offset: 16
  DW_CFA_offset: r6 (rbp) at cfa-16
  DW_CFA_advance_loc: 3 to 000000000001ea67
  DW_CFA_def_cfa_register: r6 (rbp)
  DW_CFA_advance_loc: 47 to 000000000001ea96
  DW_CFA_def_cfa: r7 (rsp) ofs 8
  DW_CFA_nop
  DW_CFA_nop
  DW_CFA_nop

00003cc8 000000000000001c 00003ccc FDE cie=00000000 pc=000000000001ea97..000000000001eae6
  DW_CFA_advance_loc: 5 to 000000000001ea9c
  DW_CFA_def_cfa_offset: 16
  DW_CFA_offset: r6 (rbp) at cfa-16
  DW_CFA_advance_loc: 3 to 000000000001ea9f
  DW_CFA_def_cfa_register: r6 (rbp)
  DW_CFA_advance_loc1: 70 to 000000000001eae5
  DW_CFA_def_cfa: r7 (rsp) ofs 8
  DW_CFA_nop
  DW_CFA_nop

00003ce8 000000000000001c 00003cec FDE cie=00000000 pc=000000000001eae6..000000000001eba4
  DW_CFA_advance_loc: 5 to 000000000001eaeb
  DW_CFA_def_cfa_offset: 16
  DW_CFA_offset: r6 (rbp) at cfa-16
  DW_CFA_advance_loc: 3 to 000000000001eaee
  DW_CFA_def_cfa_register: r6 (rbp)
  DW_CFA_advance_loc1: 181 to 000000000001eba3
  DW_CFA_def_cfa: r7 (rsp) ofs 8
  DW_CFA_nop
  DW_CFA_nop

00003d08 000000000000001c 00003d0c FDE cie=00000000 pc=000000000001eba4..000000000001ec02
  DW_CFA_advance_loc: 5 to 000000000001eba9
  DW_CFA_def_cfa_offset: 16
  DW_CFA_offset: r6 (rbp) at cfa-16
  DW_CFA_advance_loc: 3 to 000000000001ebac
  DW_CFA_def_cfa_register: r6 (rbp)
  DW_CFA_advance_loc1: 85 to 000000000001ec01
  DW_CFA_def_cfa: r7 (rsp) ofs 8
  DW_CFA_nop
  DW_CFA_nop

00003d28 000000000000001c 00003d2c FDE cie=00000000 pc=000000000001ec02..000000000001ec1c
  DW_CFA_advance_loc: 5 to 000000000001ec07
  DW_CFA_def_cfa_offset: 16
  DW_CFA_offset: r6 (rbp) at cfa-16
  DW_CFA_advance_loc: 3 to 000000000001ec0a
  DW_CFA_def_cfa_register: r6 (rbp)
  DW_CFA_advance_loc: 17 to 000000000001ec1b
  DW_CFA_def_cfa: r7 (rsp) ofs 8
  DW_CFA_nop
  DW_CFA_nop
  DW_CFA_nop

00003d48 000000000000001c 00003d4c FDE cie=00000000 pc=000000000001ec1c..000000000001ec3a
  DW_CFA_advance_loc: 5 to 000000000001ec21
  DW_CFA_def_cfa_offset: 16
  DW_CFA_offset: r6 (rbp) at cfa-16
  DW_CFA_advance_loc: 3 to 000000000001ec24
  DW_CFA_def_cfa_register: r6 (rbp)
  DW_CFA_advance_loc: 21 to 000000000001ec39
  DW_CFA_def_cfa: r7 (rsp) ofs 8
  DW_CFA_nop
  DW_CFA_nop
  DW_CFA_nop

00003d68 000000000000001c 00003d6c FDE cie=00000000 pc=000000000001ec3a..000000000001ec71
  DW_CFA_advance_loc: 5 to 000000000001ec3f
  DW_CFA_def_cfa_offset: 16
  DW_CFA_offset: r6 (rbp) at cfa-16
  DW_CFA_advance_loc: 3 to 000000000001ec42
  DW_CFA_def_cfa_register: r6 (rbp)
  DW_CFA_advance_loc: 46 to 000000000001ec70
  DW_CFA_def_cfa: r7 (rsp) ofs 8
  DW_CFA_nop
  DW_CFA_nop
  DW_CFA_nop

00003d88 000000000000001c 00003d8c FDE cie=00000000 pc=000000000001ec71..000000000001ec9a
  DW_CFA_advance_loc: 5 to 000000000001ec76
  DW_CFA_def_cfa_offset: 16
  DW_CFA_offset: r6 (rbp) at cfa-16
  DW_CFA_advance_loc: 3 to 000000000001ec79
  DW_CFA_def_cfa_register: r6 (rbp)
  DW_CFA_advance_loc: 32 to 000000000001ec99
  DW_CFA_def_cfa: r7 (rsp) ofs 8
  DW_CFA_nop
  DW_CFA_nop
  DW_CFA_nop

00003da8 000000000000001c 00003dac FDE cie=00000000 pc=000000000001ec9a..000000000001ece9
  DW_CFA_advance_loc: 5 to 000000000001ec9f
  DW_CFA_def_cfa_offset: 16
  DW_CFA_offset: r6 (rbp) at cfa-16
  DW_CFA_advance_loc: 3 to 000000000001eca2
  DW_CFA_def_cfa_register: r6 (rbp)
  DW_CFA_advance_loc1: 70 to 000000000001ece8
  DW_CFA_def_cfa: r7 (rsp) ofs 8
  DW_CFA_nop
  DW_CFA_nop

00003dc8 000000000000001c 00003dcc FDE cie=00000000 pc=000000000001ece9..000000000001ed31
  DW_CFA_advance_loc: 5 to 000000000001ecee
  DW_CFA_def_cfa_offset: 16
  DW_CFA_offset: r6 (rbp) at cfa-16
  DW_CFA_advance_loc: 3 to 000000000001ecf1
  DW_CFA_def_cfa_register: r6 (rbp)
  DW_CFA_advance_loc: 63 to 000000000001ed30
  DW_CFA_def_cfa: r7 (rsp) ofs 8
  DW_CFA_nop
  DW_CFA_nop
  DW_CFA_nop

00003de8 0000000000000044 00003dec FDE cie=00000000 pc=000000000001ed40..000000000001eda5
  DW_CFA_advance_loc: 6 to 000000000001ed46
  DW_CFA_def_cfa_offset: 16
  DW_CFA_offset: r15 (r15) at cfa-16
  DW_CFA_advance_loc: 9 to 000000000001ed4f
  DW_CFA_def_cfa_offset: 24
  DW_CFA_offset: r14 (r14) at cfa-24
  DW_CFA_advance_loc: 5 to 000000000001ed54
  DW_CFA_def_cfa_offset: 32
  DW_CFA_offset: r13 (r13) at cfa-32
  DW_CFA_advance_loc: 5 to 000000000001ed59
  DW_CFA_def_cfa_offset: 40
  DW_CFA_offset: r12 (r12) at cfa-40
  DW_CFA_advance_loc: 4 to 000000000001ed5d
  DW_CFA_def_cfa_offset: 48
  DW_CFA_offset: r6 (rbp) at cfa-48
  DW_CFA_advance_loc: 8 to 000000000001ed65
  DW_CFA_def_cfa_offset: 56
  DW_CFA_offset: r3 (rbx) at cfa-56
  DW_CFA_advance_loc: 7 to 000000000001ed6c
  DW_CFA_def_cfa_offset: 64
  DW_CFA_advance_loc: 46 to 000000000001ed9a
  DW_CFA_def_cfa_offset: 56
  DW_CFA_advance_loc: 1 to 000000000001ed9b
  DW_CFA_def_cfa_offset: 48
  DW_CFA_advance_loc: 1 to 000000000001ed9c
  DW_CFA_def_cfa_offset: 40
  DW_CFA_advance_loc: 2 to 000000000001ed9e
  DW_CFA_def_cfa_offset: 32
  DW_CFA_advance_loc: 2 to 000000000001eda0
  DW_CFA_def_cfa_offset: 24
  DW_CFA_advance_loc: 2 to 000000000001eda2
  DW_CFA_def_cfa_offset: 16
  DW_CFA_advance_loc: 2 to 000000000001eda4
  DW_CFA_def_cfa_offset: 8
  DW_CFA_nop

00003e30 0000000000000014 00003e34 FDE cie=00000000 pc=000000000001edb0..000000000001edb5
  DW_CFA_nop
  DW_CFA_nop
  DW_CFA_nop
  DW_CFA_nop
  DW_CFA_nop
  DW_CFA_nop
  DW_CFA_nop

00003e48 0000000000000014 00003e4c FDE cie=00000000 pc=000000000001edc0..000000000001edd2
  DW_CFA_nop
  DW_CFA_nop
  DW_CFA_nop
  DW_CFA_nop
  DW_CFA_nop
  DW_CFA_nop
  DW_CFA_nop

00003e60 0000000000000010 00003e64 FDE cie=00000000 pc=000000000001ede0..000000000001edf4
  DW_CFA_nop
  DW_CFA_nop
  DW_CFA_nop

00003e74 ZERO terminator


