
example_O0_debug.bin:     file format elf64-x86-64


Disassembly of section .init:

0000000000001000 <_init>:
    1000:	f3 0f 1e fa          	endbr64 
    1004:	48 83 ec 08          	sub    $0x8,%rsp
    1008:	48 8b 05 d9 2f 00 00 	mov    0x2fd9(%rip),%rax        # 3fe8 <__gmon_start__>
    100f:	48 85 c0             	test   %rax,%rax
    1012:	74 02                	je     1016 <_init+0x16>
    1014:	ff d0                	callq  *%rax
    1016:	48 83 c4 08          	add    $0x8,%rsp
    101a:	c3                   	retq   

Disassembly of section .plt:

0000000000001020 <.plt>:
    1020:	ff 35 8a 2f 00 00    	pushq  0x2f8a(%rip)        # 3fb0 <_GLOBAL_OFFSET_TABLE_+0x8>
    1026:	f2 ff 25 8b 2f 00 00 	bnd jmpq *0x2f8b(%rip)        # 3fb8 <_GLOBAL_OFFSET_TABLE_+0x10>
    102d:	0f 1f 00             	nopl   (%rax)
    1030:	f3 0f 1e fa          	endbr64 
    1034:	68 00 00 00 00       	pushq  $0x0
    1039:	f2 e9 e1 ff ff ff    	bnd jmpq 1020 <.plt>
    103f:	90                   	nop
    1040:	f3 0f 1e fa          	endbr64 
    1044:	68 01 00 00 00       	pushq  $0x1
    1049:	f2 e9 d1 ff ff ff    	bnd jmpq 1020 <.plt>
    104f:	90                   	nop
    1050:	f3 0f 1e fa          	endbr64 
    1054:	68 02 00 00 00       	pushq  $0x2
    1059:	f2 e9 c1 ff ff ff    	bnd jmpq 1020 <.plt>
    105f:	90                   	nop

Disassembly of section .plt.got:

0000000000001060 <__cxa_finalize@plt>:
    1060:	f3 0f 1e fa          	endbr64 
    1064:	f2 ff 25 8d 2f 00 00 	bnd jmpq *0x2f8d(%rip)        # 3ff8 <__cxa_finalize@GLIBC_2.2.5>
    106b:	0f 1f 44 00 00       	nopl   0x0(%rax,%rax,1)

Disassembly of section .plt.sec:

0000000000001070 <free@plt>:
    1070:	f3 0f 1e fa          	endbr64 
    1074:	f2 ff 25 45 2f 00 00 	bnd jmpq *0x2f45(%rip)        # 3fc0 <free@GLIBC_2.2.5>
    107b:	0f 1f 44 00 00       	nopl   0x0(%rax,%rax,1)

0000000000001080 <printf@plt>:
    1080:	f3 0f 1e fa          	endbr64 
    1084:	f2 ff 25 3d 2f 00 00 	bnd jmpq *0x2f3d(%rip)        # 3fc8 <printf@GLIBC_2.2.5>
    108b:	0f 1f 44 00 00       	nopl   0x0(%rax,%rax,1)

0000000000001090 <malloc@plt>:
    1090:	f3 0f 1e fa          	endbr64 
    1094:	f2 ff 25 35 2f 00 00 	bnd jmpq *0x2f35(%rip)        # 3fd0 <malloc@GLIBC_2.2.5>
    109b:	0f 1f 44 00 00       	nopl   0x0(%rax,%rax,1)

Disassembly of section .text:

00000000000010a0 <_start>:
    10a0:	f3 0f 1e fa          	endbr64 
    10a4:	31 ed                	xor    %ebp,%ebp
    10a6:	49 89 d1             	mov    %rdx,%r9
    10a9:	5e                   	pop    %rsi
    10aa:	48 89 e2             	mov    %rsp,%rdx
    10ad:	48 83 e4 f0          	and    $0xfffffffffffffff0,%rsp
    10b1:	50                   	push   %rax
    10b2:	54                   	push   %rsp
    10b3:	4c 8d 05 86 02 00 00 	lea    0x286(%rip),%r8        # 1340 <__libc_csu_fini>
    10ba:	48 8d 0d 0f 02 00 00 	lea    0x20f(%rip),%rcx        # 12d0 <__libc_csu_init>
    10c1:	48 8d 3d 82 01 00 00 	lea    0x182(%rip),%rdi        # 124a <main>
    10c8:	ff 15 12 2f 00 00    	callq  *0x2f12(%rip)        # 3fe0 <__libc_start_main@GLIBC_2.2.5>
    10ce:	f4                   	hlt    
    10cf:	90                   	nop

00000000000010d0 <deregister_tm_clones>:
    10d0:	48 8d 3d 39 2f 00 00 	lea    0x2f39(%rip),%rdi        # 4010 <__TMC_END__>
    10d7:	48 8d 05 32 2f 00 00 	lea    0x2f32(%rip),%rax        # 4010 <__TMC_END__>
    10de:	48 39 f8             	cmp    %rdi,%rax
    10e1:	74 15                	je     10f8 <deregister_tm_clones+0x28>
    10e3:	48 8b 05 ee 2e 00 00 	mov    0x2eee(%rip),%rax        # 3fd8 <_ITM_deregisterTMCloneTable>
    10ea:	48 85 c0             	test   %rax,%rax
    10ed:	74 09                	je     10f8 <deregister_tm_clones+0x28>
    10ef:	ff e0                	jmpq   *%rax
    10f1:	0f 1f 80 00 00 00 00 	nopl   0x0(%rax)
    10f8:	c3                   	retq   
    10f9:	0f 1f 80 00 00 00 00 	nopl   0x0(%rax)

0000000000001100 <register_tm_clones>:
    1100:	48 8d 3d 09 2f 00 00 	lea    0x2f09(%rip),%rdi        # 4010 <__TMC_END__>
    1107:	48 8d 35 02 2f 00 00 	lea    0x2f02(%rip),%rsi        # 4010 <__TMC_END__>
    110e:	48 29 fe             	sub    %rdi,%rsi
    1111:	48 89 f0             	mov    %rsi,%rax
    1114:	48 c1 ee 3f          	shr    $0x3f,%rsi
    1118:	48 c1 f8 03          	sar    $0x3,%rax
    111c:	48 01 c6             	add    %rax,%rsi
    111f:	48 d1 fe             	sar    %rsi
    1122:	74 14                	je     1138 <register_tm_clones+0x38>
    1124:	48 8b 05 c5 2e 00 00 	mov    0x2ec5(%rip),%rax        # 3ff0 <_ITM_registerTMCloneTable>
    112b:	48 85 c0             	test   %rax,%rax
    112e:	74 08                	je     1138 <register_tm_clones+0x38>
    1130:	ff e0                	jmpq   *%rax
    1132:	66 0f 1f 44 00 00    	nopw   0x0(%rax,%rax,1)
    1138:	c3                   	retq   
    1139:	0f 1f 80 00 00 00 00 	nopl   0x0(%rax)

0000000000001140 <__do_global_dtors_aux>:
    1140:	f3 0f 1e fa          	endbr64 
    1144:	80 3d c5 2e 00 00 00 	cmpb   $0x0,0x2ec5(%rip)        # 4010 <__TMC_END__>
    114b:	75 2b                	jne    1178 <__do_global_dtors_aux+0x38>
    114d:	55                   	push   %rbp
    114e:	48 83 3d a2 2e 00 00 	cmpq   $0x0,0x2ea2(%rip)        # 3ff8 <__cxa_finalize@GLIBC_2.2.5>
    1155:	00 
    1156:	48 89 e5             	mov    %rsp,%rbp
    1159:	74 0c                	je     1167 <__do_global_dtors_aux+0x27>
    115b:	48 8b 3d a6 2e 00 00 	mov    0x2ea6(%rip),%rdi        # 4008 <__dso_handle>
    1162:	e8 f9 fe ff ff       	callq  1060 <__cxa_finalize@plt>
    1167:	e8 64 ff ff ff       	callq  10d0 <deregister_tm_clones>
    116c:	c6 05 9d 2e 00 00 01 	movb   $0x1,0x2e9d(%rip)        # 4010 <__TMC_END__>
    1173:	5d                   	pop    %rbp
    1174:	c3                   	retq   
    1175:	0f 1f 00             	nopl   (%rax)
    1178:	c3                   	retq   
    1179:	0f 1f 80 00 00 00 00 	nopl   0x0(%rax)

0000000000001180 <frame_dummy>:
    1180:	f3 0f 1e fa          	endbr64 
    1184:	e9 77 ff ff ff       	jmpq   1100 <register_tm_clones>

0000000000001189 <make_fib_list>:
    1189:	f3 0f 1e fa          	endbr64 
    118d:	55                   	push   %rbp
    118e:	48 89 e5             	mov    %rsp,%rbp
    1191:	48 83 ec 20          	sub    $0x20,%rsp
    1195:	89 7d ec             	mov    %edi,-0x14(%rbp)
    1198:	bf 10 00 00 00       	mov    $0x10,%edi
    119d:	e8 ee fe ff ff       	callq  1090 <malloc@plt>
    11a2:	48 89 45 f0          	mov    %rax,-0x10(%rbp)
    11a6:	83 7d ec 00          	cmpl   $0x0,-0x14(%rbp)
    11aa:	75 18                	jne    11c4 <make_fib_list+0x3b>
    11ac:	48 8b 45 f0          	mov    -0x10(%rbp),%rax
    11b0:	c7 00 00 00 00 00    	movl   $0x0,(%rax)
    11b6:	48 8b 45 f0          	mov    -0x10(%rbp),%rax
    11ba:	48 c7 40 08 00 00 00 	movq   $0x0,0x8(%rax)
    11c1:	00 
    11c2:	eb 4a                	jmp    120e <make_fib_list+0x85>
    11c4:	8b 45 ec             	mov    -0x14(%rbp),%eax
    11c7:	83 e8 01             	sub    $0x1,%eax
    11ca:	89 c7                	mov    %eax,%edi
    11cc:	e8 b8 ff ff ff       	callq  1189 <make_fib_list>
    11d1:	48 89 45 f8          	mov    %rax,-0x8(%rbp)
    11d5:	48 8b 45 f0          	mov    -0x10(%rbp),%rax
    11d9:	48 8b 55 f8          	mov    -0x8(%rbp),%rdx
    11dd:	48 89 50 08          	mov    %rdx,0x8(%rax)
    11e1:	83 7d ec 01          	cmpl   $0x1,-0x14(%rbp)
    11e5:	74 1c                	je     1203 <make_fib_list+0x7a>
    11e7:	48 8b 45 f0          	mov    -0x10(%rbp),%rax
    11eb:	48 8b 40 08          	mov    0x8(%rax),%rax
    11ef:	8b 10                	mov    (%rax),%edx
    11f1:	48 8b 45 f0          	mov    -0x10(%rbp),%rax
    11f5:	48 8b 40 08          	mov    0x8(%rax),%rax
    11f9:	48 8b 40 08          	mov    0x8(%rax),%rax
    11fd:	8b 00                	mov    (%rax),%eax
    11ff:	01 c2                	add    %eax,%edx
    1201:	eb 05                	jmp    1208 <make_fib_list+0x7f>
    1203:	ba 01 00 00 00       	mov    $0x1,%edx
    1208:	48 8b 45 f0          	mov    -0x10(%rbp),%rax
    120c:	89 10                	mov    %edx,(%rax)
    120e:	48 8b 45 f0          	mov    -0x10(%rbp),%rax
    1212:	c9                   	leaveq 
    1213:	c3                   	retq   

0000000000001214 <free_fib_list>:
    1214:	f3 0f 1e fa          	endbr64 
    1218:	55                   	push   %rbp
    1219:	48 89 e5             	mov    %rsp,%rbp
    121c:	48 83 ec 10          	sub    $0x10,%rsp
    1220:	48 89 7d f8          	mov    %rdi,-0x8(%rbp)
    1224:	48 83 7d f8 00       	cmpq   $0x0,-0x8(%rbp)
    1229:	74 1c                	je     1247 <free_fib_list+0x33>
    122b:	48 8b 45 f8          	mov    -0x8(%rbp),%rax
    122f:	48 8b 40 08          	mov    0x8(%rax),%rax
    1233:	48 89 c7             	mov    %rax,%rdi
    1236:	e8 d9 ff ff ff       	callq  1214 <free_fib_list>
    123b:	48 8b 45 f8          	mov    -0x8(%rbp),%rax
    123f:	48 89 c7             	mov    %rax,%rdi
    1242:	e8 29 fe ff ff       	callq  1070 <free@plt>
    1247:	90                   	nop
    1248:	c9                   	leaveq 
    1249:	c3                   	retq   

000000000000124a <main>:
    124a:	f3 0f 1e fa          	endbr64 
    124e:	55                   	push   %rbp
    124f:	48 89 e5             	mov    %rsp,%rbp
    1252:	48 83 ec 20          	sub    $0x20,%rsp
    1256:	c7 05 b4 2d 00 00 05 	movl   $0x5,0x2db4(%rip)        # 4014 <myglobal>
    125d:	00 00 00 
    1260:	8b 05 ae 2d 00 00    	mov    0x2dae(%rip),%eax        # 4014 <myglobal>
    1266:	89 45 ec             	mov    %eax,-0x14(%rbp)
    1269:	8b 45 ec             	mov    -0x14(%rbp),%eax
    126c:	89 c7                	mov    %eax,%edi
    126e:	e8 16 ff ff ff       	callq  1189 <make_fib_list>
    1273:	48 89 45 f8          	mov    %rax,-0x8(%rbp)
    1277:	48 8b 45 f8          	mov    -0x8(%rbp),%rax
    127b:	48 89 45 f0          	mov    %rax,-0x10(%rbp)
    127f:	eb 2f                	jmp    12b0 <main+0x66>
    1281:	48 8b 45 f0          	mov    -0x10(%rbp),%rax
    1285:	8b 10                	mov    (%rax),%edx
    1287:	8b 45 ec             	mov    -0x14(%rbp),%eax
    128a:	89 c6                	mov    %eax,%esi
    128c:	48 8d 05 71 0d 00 00 	lea    0xd71(%rip),%rax        # 2004 <_IO_stdin_used+0x4>
    1293:	48 89 c7             	mov    %rax,%rdi
    1296:	b8 00 00 00 00       	mov    $0x0,%eax
    129b:	e8 e0 fd ff ff       	callq  1080 <printf@plt>
    12a0:	48 8b 45 f0          	mov    -0x10(%rbp),%rax
    12a4:	48 8b 40 08          	mov    0x8(%rax),%rax
    12a8:	48 89 45 f0          	mov    %rax,-0x10(%rbp)
    12ac:	83 6d ec 01          	subl   $0x1,-0x14(%rbp)
    12b0:	48 83 7d f0 00       	cmpq   $0x0,-0x10(%rbp)
    12b5:	75 ca                	jne    1281 <main+0x37>
    12b7:	48 8b 45 f8          	mov    -0x8(%rbp),%rax
    12bb:	48 89 c7             	mov    %rax,%rdi
    12be:	e8 51 ff ff ff       	callq  1214 <free_fib_list>
    12c3:	b8 00 00 00 00       	mov    $0x0,%eax
    12c8:	c9                   	leaveq 
    12c9:	c3                   	retq   
    12ca:	66 0f 1f 44 00 00    	nopw   0x0(%rax,%rax,1)

00000000000012d0 <__libc_csu_init>:
    12d0:	f3 0f 1e fa          	endbr64 
    12d4:	41 57                	push   %r15
    12d6:	4c 8d 3d cb 2a 00 00 	lea    0x2acb(%rip),%r15        # 3da8 <__frame_dummy_init_array_entry>
    12dd:	41 56                	push   %r14
    12df:	49 89 d6             	mov    %rdx,%r14
    12e2:	41 55                	push   %r13
    12e4:	49 89 f5             	mov    %rsi,%r13
    12e7:	41 54                	push   %r12
    12e9:	41 89 fc             	mov    %edi,%r12d
    12ec:	55                   	push   %rbp
    12ed:	48 8d 2d bc 2a 00 00 	lea    0x2abc(%rip),%rbp        # 3db0 <__do_global_dtors_aux_fini_array_entry>
    12f4:	53                   	push   %rbx
    12f5:	4c 29 fd             	sub    %r15,%rbp
    12f8:	48 83 ec 08          	sub    $0x8,%rsp
    12fc:	e8 ff fc ff ff       	callq  1000 <_init>
    1301:	48 c1 fd 03          	sar    $0x3,%rbp
    1305:	74 1f                	je     1326 <__libc_csu_init+0x56>
    1307:	31 db                	xor    %ebx,%ebx
    1309:	0f 1f 80 00 00 00 00 	nopl   0x0(%rax)
    1310:	4c 89 f2             	mov    %r14,%rdx
    1313:	4c 89 ee             	mov    %r13,%rsi
    1316:	44 89 e7             	mov    %r12d,%edi
    1319:	41 ff 14 df          	callq  *(%r15,%rbx,8)
    131d:	48 83 c3 01          	add    $0x1,%rbx
    1321:	48 39 dd             	cmp    %rbx,%rbp
    1324:	75 ea                	jne    1310 <__libc_csu_init+0x40>
    1326:	48 83 c4 08          	add    $0x8,%rsp
    132a:	5b                   	pop    %rbx
    132b:	5d                   	pop    %rbp
    132c:	41 5c                	pop    %r12
    132e:	41 5d                	pop    %r13
    1330:	41 5e                	pop    %r14
    1332:	41 5f                	pop    %r15
    1334:	c3                   	retq   
    1335:	66 66 2e 0f 1f 84 00 	data16 nopw %cs:0x0(%rax,%rax,1)
    133c:	00 00 00 00 

0000000000001340 <__libc_csu_fini>:
    1340:	f3 0f 1e fa          	endbr64 
    1344:	c3                   	retq   

Disassembly of section .fini:

0000000000001348 <_fini>:
    1348:	f3 0f 1e fa          	endbr64 
    134c:	48 83 ec 08          	sub    $0x8,%rsp
    1350:	48 83 c4 08          	add    $0x8,%rsp
    1354:	c3                   	retq   
