
cksum_O0_debug:     file format elf64-x86-64

Contents of the .eh_frame section (loaded from cksum_O0_debug):


00000000 0000000000000014 00000000 CIE
  Version:               1
  Augmentation:          "zR"
  Code alignment factor: 1
  Data alignment factor: -8
  Return address column: 16
  Augmentation data:     1b
  DW_CFA_def_cfa: r7 (rsp) ofs 8
  DW_CFA_offset: r16 (rip) at cfa-8
  DW_CFA_nop
  DW_CFA_nop

00000018 0000000000000014 0000001c FDE cie=00000000 pc=00000000000028c0..00000000000028ef
  DW_CFA_advance_loc: 4 to 00000000000028c4
  DW_CFA_undefined: r16 (rip)
  DW_CFA_nop
  DW_CFA_nop
  DW_CFA_nop
  DW_CFA_nop

00000030 0000000000000024 00000034 FDE cie=00000000 pc=0000000000002020..0000000000002470
  DW_CFA_def_cfa_offset: 16
  DW_CFA_advance_loc: 6 to 0000000000002026
  DW_CFA_def_cfa_offset: 24
  DW_CFA_advance_loc: 10 to 0000000000002030
  DW_CFA_def_cfa_expression (DW_OP_breg7 (rsp): 8; DW_OP_breg16 (rip): 0; DW_OP_lit15; DW_OP_and; DW_OP_lit10; DW_OP_ge; DW_OP_lit3; DW_OP_shl; DW_OP_plus)
  DW_CFA_nop
  DW_CFA_nop
  DW_CFA_nop
  DW_CFA_nop

00000058 0000000000000014 0000005c FDE cie=00000000 pc=0000000000002470..0000000000002480
  DW_CFA_nop
  DW_CFA_nop
  DW_CFA_nop
  DW_CFA_nop
  DW_CFA_nop
  DW_CFA_nop
  DW_CFA_nop

00000070 0000000000000014 00000074 FDE cie=00000000 pc=0000000000002480..00000000000028c0
  DW_CFA_nop
  DW_CFA_nop
  DW_CFA_nop
  DW_CFA_nop
  DW_CFA_nop
  DW_CFA_nop
  DW_CFA_nop

00000088 000000000000001c 0000008c FDE cie=00000000 pc=00000000000029a9..00000000000029b7
  DW_CFA_advance_loc: 1 to 00000000000029aa
  DW_CFA_def_cfa_offset: 16
  DW_CFA_offset: r6 (rbp) at cfa-16
  DW_CFA_advance_loc: 3 to 00000000000029ad
  DW_CFA_def_cfa_register: r6 (rbp)
  DW_CFA_advance_loc: 9 to 00000000000029b6
  DW_CFA_def_cfa: r7 (rsp) ofs 8
  DW_CFA_nop
  DW_CFA_nop
  DW_CFA_nop

000000a8 000000000000001c 000000ac FDE cie=00000000 pc=00000000000029b7..00000000000029fd
  DW_CFA_advance_loc: 1 to 00000000000029b8
  DW_CFA_def_cfa_offset: 16
  DW_CFA_offset: r6 (rbp) at cfa-16
  DW_CFA_advance_loc: 3 to 00000000000029bb
  DW_CFA_def_cfa_register: r6 (rbp)
  DW_CFA_advance_loc1: 65 to 00000000000029fc
  DW_CFA_def_cfa: r7 (rsp) ofs 8
  DW_CFA_nop
  DW_CFA_nop

000000c8 000000000000001c 000000cc FDE cie=00000000 pc=00000000000029fd..0000000000002a2e
  DW_CFA_advance_loc: 1 to 00000000000029fe
  DW_CFA_def_cfa_offset: 16
  DW_CFA_offset: r6 (rbp) at cfa-16
  DW_CFA_advance_loc: 3 to 0000000000002a01
  DW_CFA_def_cfa_register: r6 (rbp)
  DW_CFA_advance_loc: 5 to 0000000000002a06
  DW_CFA_offset: r3 (rbx) at cfa-24
  DW_CFA_advance_loc: 39 to 0000000000002a2d
  DW_CFA_def_cfa: r7 (rsp) ofs 8

000000e8 000000000000001c 000000ec FDE cie=00000000 pc=0000000000002a2e..0000000000002a5f
  DW_CFA_advance_loc: 1 to 0000000000002a2f
  DW_CFA_def_cfa_offset: 16
  DW_CFA_offset: r6 (rbp) at cfa-16
  DW_CFA_advance_loc: 3 to 0000000000002a32
  DW_CFA_def_cfa_register: r6 (rbp)
  DW_CFA_advance_loc: 5 to 0000000000002a37
  DW_CFA_offset: r3 (rbx) at cfa-24
  DW_CFA_advance_loc: 39 to 0000000000002a5e
  DW_CFA_def_cfa: r7 (rsp) ofs 8

00000108 0000000000000020 0000010c FDE cie=00000000 pc=0000000000002a5f..0000000000002cf6
  DW_CFA_advance_loc: 1 to 0000000000002a60
  DW_CFA_def_cfa_offset: 16
  DW_CFA_offset: r6 (rbp) at cfa-16
  DW_CFA_advance_loc: 3 to 0000000000002a63
  DW_CFA_def_cfa_register: r6 (rbp)
  DW_CFA_advance_loc: 8 to 0000000000002a6b
  DW_CFA_offset: r3 (rbx) at cfa-24
  DW_CFA_advance_loc2: 650 to 0000000000002cf5
  DW_CFA_def_cfa: r7 (rsp) ofs 8
  DW_CFA_nop
  DW_CFA_nop

0000012c 000000000000001c 00000130 FDE cie=00000000 pc=0000000000002cf6..0000000000002d04
  DW_CFA_advance_loc: 1 to 0000000000002cf7
  DW_CFA_def_cfa_offset: 16
  DW_CFA_offset: r6 (rbp) at cfa-16
  DW_CFA_advance_loc: 3 to 0000000000002cfa
  DW_CFA_def_cfa_register: r6 (rbp)
  DW_CFA_advance_loc: 9 to 0000000000002d03
  DW_CFA_def_cfa: r7 (rsp) ofs 8
  DW_CFA_nop
  DW_CFA_nop
  DW_CFA_nop

0000014c 000000000000001c 00000150 FDE cie=00000000 pc=0000000000002d04..0000000000002d31
  DW_CFA_advance_loc: 5 to 0000000000002d09
  DW_CFA_def_cfa_offset: 16
  DW_CFA_offset: r6 (rbp) at cfa-16
  DW_CFA_advance_loc: 3 to 0000000000002d0c
  DW_CFA_def_cfa_register: r6 (rbp)
  DW_CFA_advance_loc: 36 to 0000000000002d30
  DW_CFA_def_cfa: r7 (rsp) ofs 8
  DW_CFA_nop
  DW_CFA_nop
  DW_CFA_nop

0000016c 000000000000001c 00000170 FDE cie=00000000 pc=0000000000002d31..0000000000002d5e
  DW_CFA_advance_loc: 5 to 0000000000002d36
  DW_CFA_def_cfa_offset: 16
  DW_CFA_offset: r6 (rbp) at cfa-16
  DW_CFA_advance_loc: 3 to 0000000000002d39
  DW_CFA_def_cfa_register: r6 (rbp)
  DW_CFA_advance_loc: 36 to 0000000000002d5d
  DW_CFA_def_cfa: r7 (rsp) ofs 8
  DW_CFA_nop
  DW_CFA_nop
  DW_CFA_nop

0000018c 000000000000001c 00000190 FDE cie=00000000 pc=0000000000002d5e..0000000000002d8b
  DW_CFA_advance_loc: 5 to 0000000000002d63
  DW_CFA_def_cfa_offset: 16
  DW_CFA_offset: r6 (rbp) at cfa-16
  DW_CFA_advance_loc: 3 to 0000000000002d66
  DW_CFA_def_cfa_register: r6 (rbp)
  DW_CFA_advance_loc: 36 to 0000000000002d8a
  DW_CFA_def_cfa: r7 (rsp) ofs 8
  DW_CFA_nop
  DW_CFA_nop
  DW_CFA_nop

000001ac 000000000000001c 000001b0 FDE cie=00000000 pc=0000000000002d8b..0000000000002db8
  DW_CFA_advance_loc: 5 to 0000000000002d90
  DW_CFA_def_cfa_offset: 16
  DW_CFA_offset: r6 (rbp) at cfa-16
  DW_CFA_advance_loc: 3 to 0000000000002d93
  DW_CFA_def_cfa_register: r6 (rbp)
  DW_CFA_advance_loc: 36 to 0000000000002db7
  DW_CFA_def_cfa: r7 (rsp) ofs 8
  DW_CFA_nop
  DW_CFA_nop
  DW_CFA_nop

000001cc 000000000000001c 000001d0 FDE cie=00000000 pc=0000000000002db8..0000000000002de5
  DW_CFA_advance_loc: 5 to 0000000000002dbd
  DW_CFA_def_cfa_offset: 16
  DW_CFA_offset: r6 (rbp) at cfa-16
  DW_CFA_advance_loc: 3 to 0000000000002dc0
  DW_CFA_def_cfa_register: r6 (rbp)
  DW_CFA_advance_loc: 36 to 0000000000002de4
  DW_CFA_def_cfa: r7 (rsp) ofs 8
  DW_CFA_nop
  DW_CFA_nop
  DW_CFA_nop

000001ec 000000000000001c 000001f0 FDE cie=00000000 pc=0000000000002de5..0000000000002e12
  DW_CFA_advance_loc: 5 to 0000000000002dea
  DW_CFA_def_cfa_offset: 16
  DW_CFA_offset: r6 (rbp) at cfa-16
  DW_CFA_advance_loc: 3 to 0000000000002ded
  DW_CFA_def_cfa_register: r6 (rbp)
  DW_CFA_advance_loc: 36 to 0000000000002e11
  DW_CFA_def_cfa: r7 (rsp) ofs 8
  DW_CFA_nop
  DW_CFA_nop
  DW_CFA_nop

0000020c 000000000000001c 00000210 FDE cie=00000000 pc=0000000000002e12..0000000000002e46
  DW_CFA_advance_loc: 5 to 0000000000002e17
  DW_CFA_def_cfa_offset: 16
  DW_CFA_offset: r6 (rbp) at cfa-16
  DW_CFA_advance_loc: 3 to 0000000000002e1a
  DW_CFA_def_cfa_register: r6 (rbp)
  DW_CFA_advance_loc: 43 to 0000000000002e45
  DW_CFA_def_cfa: r7 (rsp) ofs 8
  DW_CFA_nop
  DW_CFA_nop
  DW_CFA_nop

0000022c 000000000000001c 00000230 FDE cie=00000000 pc=0000000000002e46..0000000000002e73
  DW_CFA_advance_loc: 5 to 0000000000002e4b
  DW_CFA_def_cfa_offset: 16
  DW_CFA_offset: r6 (rbp) at cfa-16
  DW_CFA_advance_loc: 3 to 0000000000002e4e
  DW_CFA_def_cfa_register: r6 (rbp)
  DW_CFA_advance_loc: 36 to 0000000000002e72
  DW_CFA_def_cfa: r7 (rsp) ofs 8
  DW_CFA_nop
  DW_CFA_nop
  DW_CFA_nop

0000024c 0000000000000018 00000250 FDE cie=00000000 pc=0000000000002e73..00000000000030b7
  DW_CFA_advance_loc: 5 to 0000000000002e78
  DW_CFA_def_cfa_offset: 16
  DW_CFA_offset: r6 (rbp) at cfa-16
  DW_CFA_advance_loc: 3 to 0000000000002e7b
  DW_CFA_def_cfa_register: r6 (rbp)
  DW_CFA_advance_loc: 5 to 0000000000002e80
  DW_CFA_offset: r3 (rbx) at cfa-24

00000268 000000000000001c 0000026c FDE cie=00000000 pc=00000000000030b7..00000000000031d2
  DW_CFA_advance_loc: 5 to 00000000000030bc
  DW_CFA_def_cfa_offset: 16
  DW_CFA_offset: r6 (rbp) at cfa-16
  DW_CFA_advance_loc: 3 to 00000000000030bf
  DW_CFA_def_cfa_register: r6 (rbp)
  DW_CFA_advance_loc2: 274 to 00000000000031d1
  DW_CFA_def_cfa: r7 (rsp) ofs 8
  DW_CFA_nop

00000288 000000000000001c 0000028c FDE cie=00000000 pc=00000000000031d2..000000000000323f
  DW_CFA_advance_loc: 5 to 00000000000031d7
  DW_CFA_def_cfa_offset: 16
  DW_CFA_offset: r6 (rbp) at cfa-16
  DW_CFA_advance_loc: 3 to 00000000000031da
  DW_CFA_def_cfa_register: r6 (rbp)
  DW_CFA_advance_loc1: 100 to 000000000000323e
  DW_CFA_def_cfa: r7 (rsp) ofs 8
  DW_CFA_nop
  DW_CFA_nop

000002a8 000000000000001c 000002ac FDE cie=00000000 pc=000000000000323f..000000000000339a
  DW_CFA_advance_loc: 5 to 0000000000003244
  DW_CFA_def_cfa_offset: 16
  DW_CFA_offset: r6 (rbp) at cfa-16
  DW_CFA_advance_loc: 3 to 0000000000003247
  DW_CFA_def_cfa_register: r6 (rbp)
  DW_CFA_advance_loc2: 338 to 0000000000003399
  DW_CFA_def_cfa: r7 (rsp) ofs 8
  DW_CFA_nop

000002c8 000000000000001c 000002cc FDE cie=00000000 pc=000000000000339a..00000000000034df
  DW_CFA_advance_loc: 5 to 000000000000339f
  DW_CFA_def_cfa_offset: 16
  DW_CFA_offset: r6 (rbp) at cfa-16
  DW_CFA_advance_loc: 3 to 00000000000033a2
  DW_CFA_def_cfa_register: r6 (rbp)
  DW_CFA_advance_loc2: 316 to 00000000000034de
  DW_CFA_def_cfa: r7 (rsp) ofs 8
  DW_CFA_nop

000002e8 000000000000001c 000002ec FDE cie=00000000 pc=00000000000034df..0000000000003a35
  DW_CFA_advance_loc: 5 to 00000000000034e4
  DW_CFA_def_cfa_offset: 16
  DW_CFA_offset: r6 (rbp) at cfa-16
  DW_CFA_advance_loc: 3 to 00000000000034e7
  DW_CFA_def_cfa_register: r6 (rbp)
  DW_CFA_advance_loc2: 1357 to 0000000000003a34
  DW_CFA_def_cfa: r7 (rsp) ofs 8
  DW_CFA_nop

00000308 000000000000001c 0000030c FDE cie=00000000 pc=0000000000003a35..0000000000003b2b
  DW_CFA_advance_loc: 5 to 0000000000003a3a
  DW_CFA_def_cfa_offset: 16
  DW_CFA_offset: r6 (rbp) at cfa-16
  DW_CFA_advance_loc: 3 to 0000000000003a3d
  DW_CFA_def_cfa_register: r6 (rbp)
  DW_CFA_advance_loc1: 237 to 0000000000003b2a
  DW_CFA_def_cfa: r7 (rsp) ofs 8
  DW_CFA_nop
  DW_CFA_nop

00000328 0000000000000020 0000032c FDE cie=00000000 pc=0000000000003b2b..0000000000003d1a
  DW_CFA_advance_loc: 5 to 0000000000003b30
  DW_CFA_def_cfa_offset: 16
  DW_CFA_offset: r6 (rbp) at cfa-16
  DW_CFA_advance_loc: 3 to 0000000000003b33
  DW_CFA_def_cfa_register: r6 (rbp)
  DW_CFA_advance_loc: 5 to 0000000000003b38
  DW_CFA_offset: r3 (rbx) at cfa-24
  DW_CFA_advance_loc2: 481 to 0000000000003d19
  DW_CFA_def_cfa: r7 (rsp) ofs 8
  DW_CFA_nop
  DW_CFA_nop

0000034c 000000000000001c 00000350 FDE cie=00000000 pc=0000000000003d1a..0000000000003f05
  DW_CFA_advance_loc: 5 to 0000000000003d1f
  DW_CFA_def_cfa_offset: 16
  DW_CFA_offset: r6 (rbp) at cfa-16
  DW_CFA_advance_loc: 3 to 0000000000003d22
  DW_CFA_def_cfa_register: r6 (rbp)
  DW_CFA_advance_loc2: 482 to 0000000000003f04
  DW_CFA_def_cfa: r7 (rsp) ofs 8
  DW_CFA_nop

0000036c 0000000000000020 00000370 FDE cie=00000000 pc=0000000000003f05..0000000000004848
  DW_CFA_advance_loc: 5 to 0000000000003f0a
  DW_CFA_def_cfa_offset: 16
  DW_CFA_offset: r6 (rbp) at cfa-16
  DW_CFA_advance_loc: 3 to 0000000000003f0d
  DW_CFA_def_cfa_register: r6 (rbp)
  DW_CFA_advance_loc: 10 to 0000000000003f17
  DW_CFA_offset: r12 (r12) at cfa-24
  DW_CFA_offset: r3 (rbx) at cfa-32
  DW_CFA_advance_loc2: 2352 to 0000000000004847
  DW_CFA_def_cfa: r7 (rsp) ofs 8

00000390 0000000000000024 00000394 FDE cie=00000000 pc=0000000000004848..0000000000005184
  DW_CFA_advance_loc: 5 to 000000000000484d
  DW_CFA_def_cfa_offset: 16
  DW_CFA_offset: r6 (rbp) at cfa-16
  DW_CFA_advance_loc: 3 to 0000000000004850
  DW_CFA_def_cfa_register: r6 (rbp)
  DW_CFA_advance_loc: 8 to 0000000000004858
  DW_CFA_offset: r3 (rbx) at cfa-24
  DW_CFA_advance_loc2: 2347 to 0000000000005183
  DW_CFA_def_cfa: r7 (rsp) ofs 8
  DW_CFA_nop
  DW_CFA_nop
  DW_CFA_nop
  DW_CFA_nop
  DW_CFA_nop
  DW_CFA_nop

000003b8 000000000000001c 000003bc FDE cie=00000000 pc=0000000000005184..00000000000051c4
  DW_CFA_advance_loc: 1 to 0000000000005185
  DW_CFA_def_cfa_offset: 16
  DW_CFA_offset: r6 (rbp) at cfa-16
  DW_CFA_advance_loc: 3 to 0000000000005188
  DW_CFA_def_cfa_register: r6 (rbp)
  DW_CFA_advance_loc: 59 to 00000000000051c3
  DW_CFA_def_cfa: r7 (rsp) ofs 8
  DW_CFA_nop
  DW_CFA_nop
  DW_CFA_nop

000003d8 000000000000001c 000003dc FDE cie=00000000 pc=00000000000051c4..00000000000051db
  DW_CFA_advance_loc: 1 to 00000000000051c5
  DW_CFA_def_cfa_offset: 16
  DW_CFA_offset: r6 (rbp) at cfa-16
  DW_CFA_advance_loc: 3 to 00000000000051c8
  DW_CFA_def_cfa_register: r6 (rbp)
  DW_CFA_advance_loc: 18 to 00000000000051da
  DW_CFA_def_cfa: r7 (rsp) ofs 8
  DW_CFA_nop
  DW_CFA_nop
  DW_CFA_nop

000003f8 000000000000001c 000003fc FDE cie=00000000 pc=00000000000051db..00000000000051f5
  DW_CFA_advance_loc: 1 to 00000000000051dc
  DW_CFA_def_cfa_offset: 16
  DW_CFA_offset: r6 (rbp) at cfa-16
  DW_CFA_advance_loc: 3 to 00000000000051df
  DW_CFA_def_cfa_register: r6 (rbp)
  DW_CFA_advance_loc: 21 to 00000000000051f4
  DW_CFA_def_cfa: r7 (rsp) ofs 8
  DW_CFA_nop
  DW_CFA_nop
  DW_CFA_nop

00000418 000000000000001c 0000041c FDE cie=00000000 pc=00000000000051f5..0000000000005211
  DW_CFA_advance_loc: 1 to 00000000000051f6
  DW_CFA_def_cfa_offset: 16
  DW_CFA_offset: r6 (rbp) at cfa-16
  DW_CFA_advance_loc: 3 to 00000000000051f9
  DW_CFA_def_cfa_register: r6 (rbp)
  DW_CFA_advance_loc: 23 to 0000000000005210
  DW_CFA_def_cfa: r7 (rsp) ofs 8
  DW_CFA_nop
  DW_CFA_nop
  DW_CFA_nop

00000438 000000000000001c 0000043c FDE cie=00000000 pc=0000000000005211..000000000000523d
  DW_CFA_advance_loc: 1 to 0000000000005212
  DW_CFA_def_cfa_offset: 16
  DW_CFA_offset: r6 (rbp) at cfa-16
  DW_CFA_advance_loc: 3 to 0000000000005215
  DW_CFA_def_cfa_register: r6 (rbp)
  DW_CFA_advance_loc: 39 to 000000000000523c
  DW_CFA_def_cfa: r7 (rsp) ofs 8
  DW_CFA_nop
  DW_CFA_nop
  DW_CFA_nop

00000458 000000000000001c 0000045c FDE cie=00000000 pc=000000000000523d..0000000000005258
  DW_CFA_advance_loc: 5 to 0000000000005242
  DW_CFA_def_cfa_offset: 16
  DW_CFA_offset: r6 (rbp) at cfa-16
  DW_CFA_advance_loc: 3 to 0000000000005245
  DW_CFA_def_cfa_register: r6 (rbp)
  DW_CFA_advance_loc: 18 to 0000000000005257
  DW_CFA_def_cfa: r7 (rsp) ofs 8
  DW_CFA_nop
  DW_CFA_nop
  DW_CFA_nop

00000478 000000000000001c 0000047c FDE cie=00000000 pc=0000000000005258..0000000000005277
  DW_CFA_advance_loc: 5 to 000000000000525d
  DW_CFA_def_cfa_offset: 16
  DW_CFA_offset: r6 (rbp) at cfa-16
  DW_CFA_advance_loc: 3 to 0000000000005260
  DW_CFA_def_cfa_register: r6 (rbp)
  DW_CFA_advance_loc: 22 to 0000000000005276
  DW_CFA_def_cfa: r7 (rsp) ofs 8
  DW_CFA_nop
  DW_CFA_nop
  DW_CFA_nop

00000498 000000000000001c 0000049c FDE cie=00000000 pc=0000000000005277..00000000000052b1
  DW_CFA_advance_loc: 5 to 000000000000527c
  DW_CFA_def_cfa_offset: 16
  DW_CFA_offset: r6 (rbp) at cfa-16
  DW_CFA_advance_loc: 3 to 000000000000527f
  DW_CFA_def_cfa_register: r6 (rbp)
  DW_CFA_advance_loc: 49 to 00000000000052b0
  DW_CFA_def_cfa: r7 (rsp) ofs 8
  DW_CFA_nop
  DW_CFA_nop
  DW_CFA_nop

000004b8 000000000000001c 000004bc FDE cie=00000000 pc=00000000000052b1..0000000000005300
  DW_CFA_advance_loc: 5 to 00000000000052b6
  DW_CFA_def_cfa_offset: 16
  DW_CFA_offset: r6 (rbp) at cfa-16
  DW_CFA_advance_loc: 3 to 00000000000052b9
  DW_CFA_def_cfa_register: r6 (rbp)
  DW_CFA_advance_loc1: 70 to 00000000000052ff
  DW_CFA_def_cfa: r7 (rsp) ofs 8
  DW_CFA_nop
  DW_CFA_nop

000004d8 000000000000001c 000004dc FDE cie=00000000 pc=0000000000005300..0000000000005363
  DW_CFA_advance_loc: 5 to 0000000000005305
  DW_CFA_def_cfa_offset: 16
  DW_CFA_offset: r6 (rbp) at cfa-16
  DW_CFA_advance_loc: 3 to 0000000000005308
  DW_CFA_def_cfa_register: r6 (rbp)
  DW_CFA_advance_loc1: 90 to 0000000000005362
  DW_CFA_def_cfa: r7 (rsp) ofs 8
  DW_CFA_nop
  DW_CFA_nop

000004f8 000000000000001c 000004fc FDE cie=00000000 pc=0000000000005363..00000000000053f6
  DW_CFA_advance_loc: 5 to 0000000000005368
  DW_CFA_def_cfa_offset: 16
  DW_CFA_offset: r6 (rbp) at cfa-16
  DW_CFA_advance_loc: 3 to 000000000000536b
  DW_CFA_def_cfa_register: r6 (rbp)
  DW_CFA_advance_loc1: 138 to 00000000000053f5
  DW_CFA_def_cfa: r7 (rsp) ofs 8
  DW_CFA_nop
  DW_CFA_nop

00000518 000000000000001c 0000051c FDE cie=00000000 pc=00000000000053f6..0000000000005502
  DW_CFA_advance_loc: 5 to 00000000000053fb
  DW_CFA_def_cfa_offset: 16
  DW_CFA_offset: r6 (rbp) at cfa-16
  DW_CFA_advance_loc: 3 to 00000000000053fe
  DW_CFA_def_cfa_register: r6 (rbp)
  DW_CFA_advance_loc2: 259 to 0000000000005501
  DW_CFA_def_cfa: r7 (rsp) ofs 8
  DW_CFA_nop

00000538 000000000000001c 0000053c FDE cie=00000000 pc=0000000000005502..0000000000005701
  DW_CFA_advance_loc: 5 to 0000000000005507
  DW_CFA_def_cfa_offset: 16
  DW_CFA_offset: r6 (rbp) at cfa-16
  DW_CFA_advance_loc: 3 to 000000000000550a
  DW_CFA_def_cfa_register: r6 (rbp)
  DW_CFA_advance_loc2: 502 to 0000000000005700
  DW_CFA_def_cfa: r7 (rsp) ofs 8
  DW_CFA_nop

00000558 000000000000001c 0000055c FDE cie=00000000 pc=0000000000005701..000000000000ac89
  DW_CFA_advance_loc: 5 to 0000000000005706
  DW_CFA_def_cfa_offset: 16
  DW_CFA_offset: r6 (rbp) at cfa-16
  DW_CFA_advance_loc: 3 to 0000000000005709
  DW_CFA_def_cfa_register: r6 (rbp)
  DW_CFA_advance_loc2: 21887 to 000000000000ac88
  DW_CFA_def_cfa: r7 (rsp) ofs 8
  DW_CFA_nop

00000578 000000000000001c 0000057c FDE cie=00000000 pc=000000000000ac89..000000000000add0
  DW_CFA_advance_loc: 5 to 000000000000ac8e
  DW_CFA_def_cfa_offset: 16
  DW_CFA_offset: r6 (rbp) at cfa-16
  DW_CFA_advance_loc: 3 to 000000000000ac91
  DW_CFA_def_cfa_register: r6 (rbp)
  DW_CFA_advance_loc2: 318 to 000000000000adcf
  DW_CFA_def_cfa: r7 (rsp) ofs 8
  DW_CFA_nop

00000598 000000000000001c 0000059c FDE cie=00000000 pc=000000000000add0..000000000000af70
  DW_CFA_advance_loc: 5 to 000000000000add5
  DW_CFA_def_cfa_offset: 16
  DW_CFA_offset: r6 (rbp) at cfa-16
  DW_CFA_advance_loc: 3 to 000000000000add8
  DW_CFA_def_cfa_register: r6 (rbp)
  DW_CFA_advance_loc2: 407 to 000000000000af6f
  DW_CFA_def_cfa: r7 (rsp) ofs 8
  DW_CFA_nop

000005b8 000000000000001c 000005bc FDE cie=00000000 pc=000000000000af70..000000000000b0f2
  DW_CFA_advance_loc: 5 to 000000000000af75
  DW_CFA_def_cfa_offset: 16
  DW_CFA_offset: r6 (rbp) at cfa-16
  DW_CFA_advance_loc: 3 to 000000000000af78
  DW_CFA_def_cfa_register: r6 (rbp)
  DW_CFA_advance_loc2: 377 to 000000000000b0f1
  DW_CFA_def_cfa: r7 (rsp) ofs 8
  DW_CFA_nop

000005d8 000000000000001c 000005dc FDE cie=00000000 pc=000000000000b0f2..000000000000b13e
  DW_CFA_advance_loc: 5 to 000000000000b0f7
  DW_CFA_def_cfa_offset: 16
  DW_CFA_offset: r6 (rbp) at cfa-16
  DW_CFA_advance_loc: 3 to 000000000000b0fa
  DW_CFA_def_cfa_register: r6 (rbp)
  DW_CFA_advance_loc1: 67 to 000000000000b13d
  DW_CFA_def_cfa: r7 (rsp) ofs 8
  DW_CFA_nop
  DW_CFA_nop

000005f8 000000000000001c 000005fc FDE cie=00000000 pc=000000000000b13e..000000000000b308
  DW_CFA_advance_loc: 5 to 000000000000b143
  DW_CFA_def_cfa_offset: 16
  DW_CFA_offset: r6 (rbp) at cfa-16
  DW_CFA_advance_loc: 3 to 000000000000b146
  DW_CFA_def_cfa_register: r6 (rbp)
  DW_CFA_advance_loc2: 449 to 000000000000b307
  DW_CFA_def_cfa: r7 (rsp) ofs 8
  DW_CFA_nop

00000618 000000000000001c 0000061c FDE cie=00000000 pc=000000000000b308..000000000000b524
  DW_CFA_advance_loc: 5 to 000000000000b30d
  DW_CFA_def_cfa_offset: 16
  DW_CFA_offset: r6 (rbp) at cfa-16
  DW_CFA_advance_loc: 3 to 000000000000b310
  DW_CFA_def_cfa_register: r6 (rbp)
  DW_CFA_advance_loc2: 531 to 000000000000b523
  DW_CFA_def_cfa: r7 (rsp) ofs 8
  DW_CFA_nop

00000638 000000000000001c 0000063c FDE cie=00000000 pc=000000000000b524..000000000000b714
  DW_CFA_advance_loc: 5 to 000000000000b529
  DW_CFA_def_cfa_offset: 16
  DW_CFA_offset: r6 (rbp) at cfa-16
  DW_CFA_advance_loc: 3 to 000000000000b52c
  DW_CFA_def_cfa_register: r6 (rbp)
  DW_CFA_advance_loc2: 487 to 000000000000b713
  DW_CFA_def_cfa: r7 (rsp) ofs 8
  DW_CFA_nop

00000658 000000000000001c 0000065c FDE cie=00000000 pc=000000000000b714..000000000000b7f5
  DW_CFA_advance_loc: 5 to 000000000000b719
  DW_CFA_def_cfa_offset: 16
  DW_CFA_offset: r6 (rbp) at cfa-16
  DW_CFA_advance_loc: 3 to 000000000000b71c
  DW_CFA_def_cfa_register: r6 (rbp)
  DW_CFA_advance_loc1: 216 to 000000000000b7f4
  DW_CFA_def_cfa: r7 (rsp) ofs 8
  DW_CFA_nop
  DW_CFA_nop

00000678 000000000000001c 0000067c FDE cie=00000000 pc=000000000000b7f5..000000000000b8d6
  DW_CFA_advance_loc: 5 to 000000000000b7fa
  DW_CFA_def_cfa_offset: 16
  DW_CFA_offset: r6 (rbp) at cfa-16
  DW_CFA_advance_loc: 3 to 000000000000b7fd
  DW_CFA_def_cfa_register: r6 (rbp)
  DW_CFA_advance_loc1: 216 to 000000000000b8d5
  DW_CFA_def_cfa: r7 (rsp) ofs 8
  DW_CFA_nop
  DW_CFA_nop

00000698 000000000000001c 0000069c FDE cie=00000000 pc=000000000000b8d6..000000000000b8e4
  DW_CFA_advance_loc: 1 to 000000000000b8d7
  DW_CFA_def_cfa_offset: 16
  DW_CFA_offset: r6 (rbp) at cfa-16
  DW_CFA_advance_loc: 3 to 000000000000b8da
  DW_CFA_def_cfa_register: r6 (rbp)
  DW_CFA_advance_loc: 9 to 000000000000b8e3
  DW_CFA_def_cfa: r7 (rsp) ofs 8
  DW_CFA_nop
  DW_CFA_nop
  DW_CFA_nop

000006b8 000000000000001c 000006bc FDE cie=00000000 pc=000000000000b8e4..000000000000b91c
  DW_CFA_advance_loc: 1 to 000000000000b8e5
  DW_CFA_def_cfa_offset: 16
  DW_CFA_offset: r6 (rbp) at cfa-16
  DW_CFA_advance_loc: 3 to 000000000000b8e8
  DW_CFA_def_cfa_register: r6 (rbp)
  DW_CFA_advance_loc: 1 to 000000000000b8e9
  DW_CFA_offset: r3 (rbx) at cfa-24
  DW_CFA_advance_loc: 50 to 000000000000b91b
  DW_CFA_def_cfa: r7 (rsp) ofs 8

000006d8 0000000000000020 000006dc FDE cie=00000000 pc=000000000000b91c..000000000000b994
  DW_CFA_advance_loc: 1 to 000000000000b91d
  DW_CFA_def_cfa_offset: 16
  DW_CFA_offset: r6 (rbp) at cfa-16
  DW_CFA_advance_loc: 3 to 000000000000b920
  DW_CFA_def_cfa_register: r6 (rbp)
  DW_CFA_advance_loc: 5 to 000000000000b925
  DW_CFA_offset: r3 (rbx) at cfa-24
  DW_CFA_advance_loc1: 110 to 000000000000b993
  DW_CFA_def_cfa: r7 (rsp) ofs 8
  DW_CFA_nop
  DW_CFA_nop
  DW_CFA_nop

000006fc 000000000000001c 00000700 FDE cie=00000000 pc=000000000000b994..000000000000bae2
  DW_CFA_advance_loc: 5 to 000000000000b999
  DW_CFA_def_cfa_offset: 16
  DW_CFA_offset: r6 (rbp) at cfa-16
  DW_CFA_advance_loc: 3 to 000000000000b99c
  DW_CFA_def_cfa_register: r6 (rbp)
  DW_CFA_advance_loc2: 325 to 000000000000bae1
  DW_CFA_def_cfa: r7 (rsp) ofs 8
  DW_CFA_nop

0000071c 000000000000001c 00000720 FDE cie=00000000 pc=000000000000bae2..000000000000bea4
  DW_CFA_advance_loc: 5 to 000000000000bae7
  DW_CFA_def_cfa_offset: 16
  DW_CFA_offset: r6 (rbp) at cfa-16
  DW_CFA_advance_loc: 3 to 000000000000baea
  DW_CFA_def_cfa_register: r6 (rbp)
  DW_CFA_advance_loc2: 953 to 000000000000bea3
  DW_CFA_def_cfa: r7 (rsp) ofs 8
  DW_CFA_nop

0000073c 000000000000001c 00000740 FDE cie=00000000 pc=000000000000bea4..000000000000bfcc
  DW_CFA_advance_loc: 5 to 000000000000bea9
  DW_CFA_def_cfa_offset: 16
  DW_CFA_offset: r6 (rbp) at cfa-16
  DW_CFA_advance_loc: 3 to 000000000000beac
  DW_CFA_def_cfa_register: r6 (rbp)
  DW_CFA_advance_loc2: 287 to 000000000000bfcb
  DW_CFA_def_cfa: r7 (rsp) ofs 8
  DW_CFA_nop

0000075c 0000000000000020 00000760 FDE cie=00000000 pc=000000000000bfcc..000000000000c079
  DW_CFA_advance_loc: 5 to 000000000000bfd1
  DW_CFA_def_cfa_offset: 16
  DW_CFA_offset: r6 (rbp) at cfa-16
  DW_CFA_advance_loc: 3 to 000000000000bfd4
  DW_CFA_def_cfa_register: r6 (rbp)
  DW_CFA_advance_loc1: 164 to 000000000000c078
  DW_CFA_def_cfa: r7 (rsp) ofs 8
  DW_CFA_nop
  DW_CFA_nop
  DW_CFA_nop
  DW_CFA_nop
  DW_CFA_nop
  DW_CFA_nop

00000780 000000000000001c 00000784 FDE cie=00000000 pc=000000000000c079..000000000000c08e
  DW_CFA_advance_loc: 5 to 000000000000c07e
  DW_CFA_def_cfa_offset: 16
  DW_CFA_offset: r6 (rbp) at cfa-16
  DW_CFA_advance_loc: 3 to 000000000000c081
  DW_CFA_def_cfa_register: r6 (rbp)
  DW_CFA_advance_loc: 12 to 000000000000c08d
  DW_CFA_def_cfa: r7 (rsp) ofs 8
  DW_CFA_nop
  DW_CFA_nop
  DW_CFA_nop

000007a0 000000000000001c 000007a4 FDE cie=00000000 pc=000000000000c08e..000000000000c1c1
  DW_CFA_advance_loc: 5 to 000000000000c093
  DW_CFA_def_cfa_offset: 16
  DW_CFA_offset: r6 (rbp) at cfa-16
  DW_CFA_advance_loc: 3 to 000000000000c096
  DW_CFA_def_cfa_register: r6 (rbp)
  DW_CFA_advance_loc2: 298 to 000000000000c1c0
  DW_CFA_def_cfa: r7 (rsp) ofs 8
  DW_CFA_nop

000007c0 000000000000001c 000007c4 FDE cie=00000000 pc=000000000000c1c1..000000000000c237
  DW_CFA_advance_loc: 5 to 000000000000c1c6
  DW_CFA_def_cfa_offset: 16
  DW_CFA_offset: r6 (rbp) at cfa-16
  DW_CFA_advance_loc: 3 to 000000000000c1c9
  DW_CFA_def_cfa_register: r6 (rbp)
  DW_CFA_advance_loc1: 109 to 000000000000c236
  DW_CFA_def_cfa: r7 (rsp) ofs 8
  DW_CFA_nop
  DW_CFA_nop

000007e0 0000000000000020 000007e4 FDE cie=00000000 pc=000000000000c237..000000000000c2d0
  DW_CFA_advance_loc: 5 to 000000000000c23c
  DW_CFA_def_cfa_offset: 16
  DW_CFA_offset: r6 (rbp) at cfa-16
  DW_CFA_advance_loc: 3 to 000000000000c23f
  DW_CFA_def_cfa_register: r6 (rbp)
  DW_CFA_advance_loc: 5 to 000000000000c244
  DW_CFA_offset: r3 (rbx) at cfa-24
  DW_CFA_advance_loc1: 139 to 000000000000c2cf
  DW_CFA_def_cfa: r7 (rsp) ofs 8
  DW_CFA_nop
  DW_CFA_nop
  DW_CFA_nop

00000804 0000000000000020 00000808 FDE cie=00000000 pc=000000000000c2d0..000000000000c427
  DW_CFA_advance_loc: 5 to 000000000000c2d5
  DW_CFA_def_cfa_offset: 16
  DW_CFA_offset: r6 (rbp) at cfa-16
  DW_CFA_advance_loc: 3 to 000000000000c2d8
  DW_CFA_def_cfa_register: r6 (rbp)
  DW_CFA_advance_loc: 5 to 000000000000c2dd
  DW_CFA_offset: r3 (rbx) at cfa-24
  DW_CFA_advance_loc2: 329 to 000000000000c426
  DW_CFA_def_cfa: r7 (rsp) ofs 8
  DW_CFA_nop
  DW_CFA_nop

00000828 000000000000001c 0000082c FDE cie=00000000 pc=000000000000c427..000000000000c4d6
  DW_CFA_advance_loc: 5 to 000000000000c42c
  DW_CFA_def_cfa_offset: 16
  DW_CFA_offset: r6 (rbp) at cfa-16
  DW_CFA_advance_loc: 3 to 000000000000c42f
  DW_CFA_def_cfa_register: r6 (rbp)
  DW_CFA_advance_loc1: 166 to 000000000000c4d5
  DW_CFA_def_cfa: r7 (rsp) ofs 8
  DW_CFA_nop
  DW_CFA_nop

00000848 000000000000001c 0000084c FDE cie=00000000 pc=000000000000c4d6..000000000000c566
  DW_CFA_advance_loc: 5 to 000000000000c4db
  DW_CFA_def_cfa_offset: 16
  DW_CFA_offset: r6 (rbp) at cfa-16
  DW_CFA_advance_loc: 3 to 000000000000c4de
  DW_CFA_def_cfa_register: r6 (rbp)
  DW_CFA_advance_loc1: 135 to 000000000000c565
  DW_CFA_def_cfa: r7 (rsp) ofs 8
  DW_CFA_nop
  DW_CFA_nop

00000868 000000000000001c 0000086c FDE cie=00000000 pc=000000000000c566..000000000000c580
  DW_CFA_advance_loc: 5 to 000000000000c56b
  DW_CFA_def_cfa_offset: 16
  DW_CFA_offset: r6 (rbp) at cfa-16
  DW_CFA_advance_loc: 3 to 000000000000c56e
  DW_CFA_def_cfa_register: r6 (rbp)
  DW_CFA_advance_loc: 17 to 000000000000c57f
  DW_CFA_def_cfa: r7 (rsp) ofs 8
  DW_CFA_nop
  DW_CFA_nop
  DW_CFA_nop

00000888 000000000000001c 0000088c FDE cie=00000000 pc=000000000000c580..000000000000c59a
  DW_CFA_advance_loc: 5 to 000000000000c585
  DW_CFA_def_cfa_offset: 16
  DW_CFA_offset: r6 (rbp) at cfa-16
  DW_CFA_advance_loc: 3 to 000000000000c588
  DW_CFA_def_cfa_register: r6 (rbp)
  DW_CFA_advance_loc: 17 to 000000000000c599
  DW_CFA_def_cfa: r7 (rsp) ofs 8
  DW_CFA_nop
  DW_CFA_nop
  DW_CFA_nop

000008a8 0000000000000024 000008ac FDE cie=00000000 pc=000000000000c59a..000000000000c692
  DW_CFA_advance_loc: 5 to 000000000000c59f
  DW_CFA_def_cfa_offset: 16
  DW_CFA_offset: r6 (rbp) at cfa-16
  DW_CFA_advance_loc: 3 to 000000000000c5a2
  DW_CFA_def_cfa_register: r6 (rbp)
  DW_CFA_advance_loc: 5 to 000000000000c5a7
  DW_CFA_offset: r3 (rbx) at cfa-24
  DW_CFA_advance_loc1: 234 to 000000000000c691
  DW_CFA_def_cfa: r7 (rsp) ofs 8
  DW_CFA_nop
  DW_CFA_nop
  DW_CFA_nop
  DW_CFA_nop
  DW_CFA_nop
  DW_CFA_nop
  DW_CFA_nop

000008d0 000000000000001c 000008d4 FDE cie=00000000 pc=000000000000c692..000000000000c6ad
  DW_CFA_advance_loc: 1 to 000000000000c693
  DW_CFA_def_cfa_offset: 16
  DW_CFA_offset: r6 (rbp) at cfa-16
  DW_CFA_advance_loc: 3 to 000000000000c696
  DW_CFA_def_cfa_register: r6 (rbp)
  DW_CFA_advance_loc: 22 to 000000000000c6ac
  DW_CFA_def_cfa: r7 (rsp) ofs 8
  DW_CFA_nop
  DW_CFA_nop
  DW_CFA_nop

000008f0 000000000000001c 000008f4 FDE cie=00000000 pc=000000000000c6ad..000000000000c88a
  DW_CFA_advance_loc: 5 to 000000000000c6b2
  DW_CFA_def_cfa_offset: 16
  DW_CFA_offset: r6 (rbp) at cfa-16
  DW_CFA_advance_loc: 3 to 000000000000c6b5
  DW_CFA_def_cfa_register: r6 (rbp)
  DW_CFA_advance_loc2: 468 to 000000000000c889
  DW_CFA_def_cfa: r7 (rsp) ofs 8
  DW_CFA_nop

00000910 000000000000001c 00000914 FDE cie=00000000 pc=000000000000c88a..000000000000c8e8
  DW_CFA_advance_loc: 5 to 000000000000c88f
  DW_CFA_def_cfa_offset: 16
  DW_CFA_offset: r6 (rbp) at cfa-16
  DW_CFA_advance_loc: 3 to 000000000000c892
  DW_CFA_def_cfa_register: r6 (rbp)
  DW_CFA_advance_loc1: 85 to 000000000000c8e7
  DW_CFA_def_cfa: r7 (rsp) ofs 8
  DW_CFA_nop
  DW_CFA_nop

00000930 000000000000001c 00000934 FDE cie=00000000 pc=000000000000c8e8..000000000000c903
  DW_CFA_advance_loc: 5 to 000000000000c8ed
  DW_CFA_def_cfa_offset: 16
  DW_CFA_offset: r6 (rbp) at cfa-16
  DW_CFA_advance_loc: 3 to 000000000000c8f0
  DW_CFA_def_cfa_register: r6 (rbp)
  DW_CFA_advance_loc: 18 to 000000000000c902
  DW_CFA_def_cfa: r7 (rsp) ofs 8
  DW_CFA_nop
  DW_CFA_nop
  DW_CFA_nop

00000950 000000000000001c 00000954 FDE cie=00000000 pc=000000000000c903..000000000000c984
  DW_CFA_advance_loc: 5 to 000000000000c908
  DW_CFA_def_cfa_offset: 16
  DW_CFA_offset: r6 (rbp) at cfa-16
  DW_CFA_advance_loc: 3 to 000000000000c90b
  DW_CFA_def_cfa_register: r6 (rbp)
  DW_CFA_advance_loc1: 120 to 000000000000c983
  DW_CFA_def_cfa: r7 (rsp) ofs 8
  DW_CFA_nop
  DW_CFA_nop

00000970 000000000000001c 00000974 FDE cie=00000000 pc=000000000000c984..000000000000caa7
  DW_CFA_advance_loc: 5 to 000000000000c989
  DW_CFA_def_cfa_offset: 16
  DW_CFA_offset: r6 (rbp) at cfa-16
  DW_CFA_advance_loc: 3 to 000000000000c98c
  DW_CFA_def_cfa_register: r6 (rbp)
  DW_CFA_advance_loc2: 282 to 000000000000caa6
  DW_CFA_def_cfa: r7 (rsp) ofs 8
  DW_CFA_nop

00000990 000000000000001c 00000994 FDE cie=00000000 pc=000000000000caa7..000000000000cb38
  DW_CFA_advance_loc: 5 to 000000000000caac
  DW_CFA_def_cfa_offset: 16
  DW_CFA_offset: r6 (rbp) at cfa-16
  DW_CFA_advance_loc: 3 to 000000000000caaf
  DW_CFA_def_cfa_register: r6 (rbp)
  DW_CFA_advance_loc1: 136 to 000000000000cb37
  DW_CFA_def_cfa: r7 (rsp) ofs 8
  DW_CFA_nop
  DW_CFA_nop

000009b0 000000000000001c 000009b4 FDE cie=00000000 pc=000000000000cb38..000000000000cd6c
  DW_CFA_advance_loc: 5 to 000000000000cb3d
  DW_CFA_def_cfa_offset: 16
  DW_CFA_offset: r6 (rbp) at cfa-16
  DW_CFA_advance_loc: 3 to 000000000000cb40
  DW_CFA_def_cfa_register: r6 (rbp)
  DW_CFA_advance_loc2: 555 to 000000000000cd6b
  DW_CFA_def_cfa: r7 (rsp) ofs 8
  DW_CFA_nop

000009d0 000000000000001c 000009d4 FDE cie=00000000 pc=000000000000cd6c..000000000000e0cc
  DW_CFA_advance_loc: 5 to 000000000000cd71
  DW_CFA_def_cfa_offset: 16
  DW_CFA_offset: r6 (rbp) at cfa-16
  DW_CFA_advance_loc: 3 to 000000000000cd74
  DW_CFA_def_cfa_register: r6 (rbp)
  DW_CFA_advance_loc2: 4951 to 000000000000e0cb
  DW_CFA_def_cfa: r7 (rsp) ofs 8
  DW_CFA_nop

000009f0 000000000000001c 000009f4 FDE cie=00000000 pc=000000000000e0cc..000000000000e0e7
  DW_CFA_advance_loc: 1 to 000000000000e0cd
  DW_CFA_def_cfa_offset: 16
  DW_CFA_offset: r6 (rbp) at cfa-16
  DW_CFA_advance_loc: 3 to 000000000000e0d0
  DW_CFA_def_cfa_register: r6 (rbp)
  DW_CFA_advance_loc: 22 to 000000000000e0e6
  DW_CFA_def_cfa: r7 (rsp) ofs 8
  DW_CFA_nop
  DW_CFA_nop
  DW_CFA_nop

00000a10 000000000000001c 00000a14 FDE cie=00000000 pc=000000000000e0e7..000000000000e2c4
  DW_CFA_advance_loc: 5 to 000000000000e0ec
  DW_CFA_def_cfa_offset: 16
  DW_CFA_offset: r6 (rbp) at cfa-16
  DW_CFA_advance_loc: 3 to 000000000000e0ef
  DW_CFA_def_cfa_register: r6 (rbp)
  DW_CFA_advance_loc2: 468 to 000000000000e2c3
  DW_CFA_def_cfa: r7 (rsp) ofs 8
  DW_CFA_nop

00000a30 000000000000001c 00000a34 FDE cie=00000000 pc=000000000000e2c4..000000000000e2d2
  DW_CFA_advance_loc: 1 to 000000000000e2c5
  DW_CFA_def_cfa_offset: 16
  DW_CFA_offset: r6 (rbp) at cfa-16
  DW_CFA_advance_loc: 3 to 000000000000e2c8
  DW_CFA_def_cfa_register: r6 (rbp)
  DW_CFA_advance_loc: 9 to 000000000000e2d1
  DW_CFA_def_cfa: r7 (rsp) ofs 8
  DW_CFA_nop
  DW_CFA_nop
  DW_CFA_nop

00000a50 000000000000001c 00000a54 FDE cie=00000000 pc=000000000000e2d2..000000000000e33b
  DW_CFA_advance_loc: 5 to 000000000000e2d7
  DW_CFA_def_cfa_offset: 16
  DW_CFA_offset: r6 (rbp) at cfa-16
  DW_CFA_advance_loc: 3 to 000000000000e2da
  DW_CFA_def_cfa_register: r6 (rbp)
  DW_CFA_advance_loc1: 96 to 000000000000e33a
  DW_CFA_def_cfa: r7 (rsp) ofs 8
  DW_CFA_nop
  DW_CFA_nop

00000a70 000000000000001c 00000a74 FDE cie=00000000 pc=000000000000e33b..000000000000e356
  DW_CFA_advance_loc: 5 to 000000000000e340
  DW_CFA_def_cfa_offset: 16
  DW_CFA_offset: r6 (rbp) at cfa-16
  DW_CFA_advance_loc: 3 to 000000000000e343
  DW_CFA_def_cfa_register: r6 (rbp)
  DW_CFA_advance_loc: 18 to 000000000000e355
  DW_CFA_def_cfa: r7 (rsp) ofs 8
  DW_CFA_nop
  DW_CFA_nop
  DW_CFA_nop

00000a90 000000000000001c 00000a94 FDE cie=00000000 pc=000000000000e356..000000000000e41d
  DW_CFA_advance_loc: 5 to 000000000000e35b
  DW_CFA_def_cfa_offset: 16
  DW_CFA_offset: r6 (rbp) at cfa-16
  DW_CFA_advance_loc: 3 to 000000000000e35e
  DW_CFA_def_cfa_register: r6 (rbp)
  DW_CFA_advance_loc1: 190 to 000000000000e41c
  DW_CFA_def_cfa: r7 (rsp) ofs 8
  DW_CFA_nop
  DW_CFA_nop

00000ab0 0000000000000020 00000ab4 FDE cie=00000000 pc=000000000000e41d..000000000000e54b
  DW_CFA_advance_loc: 5 to 000000000000e422
  DW_CFA_def_cfa_offset: 16
  DW_CFA_offset: r6 (rbp) at cfa-16
  DW_CFA_advance_loc: 3 to 000000000000e425
  DW_CFA_def_cfa_register: r6 (rbp)
  DW_CFA_advance_loc: 5 to 000000000000e42a
  DW_CFA_offset: r3 (rbx) at cfa-24
  DW_CFA_advance_loc2: 288 to 000000000000e54a
  DW_CFA_def_cfa: r7 (rsp) ofs 8
  DW_CFA_nop
  DW_CFA_nop

00000ad4 000000000000001c 00000ad8 FDE cie=00000000 pc=000000000000e54b..000000000000e5dc
  DW_CFA_advance_loc: 5 to 000000000000e550
  DW_CFA_def_cfa_offset: 16
  DW_CFA_offset: r6 (rbp) at cfa-16
  DW_CFA_advance_loc: 3 to 000000000000e553
  DW_CFA_def_cfa_register: r6 (rbp)
  DW_CFA_advance_loc1: 136 to 000000000000e5db
  DW_CFA_def_cfa: r7 (rsp) ofs 8
  DW_CFA_nop
  DW_CFA_nop

00000af4 000000000000001c 00000af8 FDE cie=00000000 pc=000000000000e5dc..000000000000e810
  DW_CFA_advance_loc: 5 to 000000000000e5e1
  DW_CFA_def_cfa_offset: 16
  DW_CFA_offset: r6 (rbp) at cfa-16
  DW_CFA_advance_loc: 3 to 000000000000e5e4
  DW_CFA_def_cfa_register: r6 (rbp)
  DW_CFA_advance_loc2: 555 to 000000000000e80f
  DW_CFA_def_cfa: r7 (rsp) ofs 8
  DW_CFA_nop

00000b14 0000000000000020 00000b18 FDE cie=00000000 pc=000000000000e810..00000000000100b7
  DW_CFA_advance_loc: 5 to 000000000000e815
  DW_CFA_def_cfa_offset: 16
  DW_CFA_offset: r6 (rbp) at cfa-16
  DW_CFA_advance_loc: 3 to 000000000000e818
  DW_CFA_def_cfa_register: r6 (rbp)
  DW_CFA_advance_loc2: 6302 to 00000000000100b6
  DW_CFA_def_cfa: r7 (rsp) ofs 8
  DW_CFA_nop
  DW_CFA_nop
  DW_CFA_nop
  DW_CFA_nop
  DW_CFA_nop

00000b38 000000000000001c 00000b3c FDE cie=00000000 pc=00000000000100b7..00000000000100d2
  DW_CFA_advance_loc: 1 to 00000000000100b8
  DW_CFA_def_cfa_offset: 16
  DW_CFA_offset: r6 (rbp) at cfa-16
  DW_CFA_advance_loc: 3 to 00000000000100bb
  DW_CFA_def_cfa_register: r6 (rbp)
  DW_CFA_advance_loc: 22 to 00000000000100d1
  DW_CFA_def_cfa: r7 (rsp) ofs 8
  DW_CFA_nop
  DW_CFA_nop
  DW_CFA_nop

00000b58 000000000000001c 00000b5c FDE cie=00000000 pc=00000000000100d2..00000000000102d8
  DW_CFA_advance_loc: 5 to 00000000000100d7
  DW_CFA_def_cfa_offset: 16
  DW_CFA_offset: r6 (rbp) at cfa-16
  DW_CFA_advance_loc: 3 to 00000000000100da
  DW_CFA_def_cfa_register: r6 (rbp)
  DW_CFA_advance_loc2: 509 to 00000000000102d7
  DW_CFA_def_cfa: r7 (rsp) ofs 8
  DW_CFA_nop

00000b78 000000000000001c 00000b7c FDE cie=00000000 pc=00000000000102d8..000000000001031e
  DW_CFA_advance_loc: 5 to 00000000000102dd
  DW_CFA_def_cfa_offset: 16
  DW_CFA_offset: r6 (rbp) at cfa-16
  DW_CFA_advance_loc: 3 to 00000000000102e0
  DW_CFA_def_cfa_register: r6 (rbp)
  DW_CFA_advance_loc: 61 to 000000000001031d
  DW_CFA_def_cfa: r7 (rsp) ofs 8
  DW_CFA_nop
  DW_CFA_nop
  DW_CFA_nop

00000b98 000000000000001c 00000b9c FDE cie=00000000 pc=000000000001031e..0000000000010364
  DW_CFA_advance_loc: 5 to 0000000000010323
  DW_CFA_def_cfa_offset: 16
  DW_CFA_offset: r6 (rbp) at cfa-16
  DW_CFA_advance_loc: 3 to 0000000000010326
  DW_CFA_def_cfa_register: r6 (rbp)
  DW_CFA_advance_loc: 61 to 0000000000010363
  DW_CFA_def_cfa: r7 (rsp) ofs 8
  DW_CFA_nop
  DW_CFA_nop
  DW_CFA_nop

00000bb8 000000000000001c 00000bbc FDE cie=00000000 pc=0000000000010364..0000000000010372
  DW_CFA_advance_loc: 1 to 0000000000010365
  DW_CFA_def_cfa_offset: 16
  DW_CFA_offset: r6 (rbp) at cfa-16
  DW_CFA_advance_loc: 3 to 0000000000010368
  DW_CFA_def_cfa_register: r6 (rbp)
  DW_CFA_advance_loc: 9 to 0000000000010371
  DW_CFA_def_cfa: r7 (rsp) ofs 8
  DW_CFA_nop
  DW_CFA_nop
  DW_CFA_nop

00000bd8 000000000000001c 00000bdc FDE cie=00000000 pc=0000000000010372..00000000000103fd
  DW_CFA_advance_loc: 5 to 0000000000010377
  DW_CFA_def_cfa_offset: 16
  DW_CFA_offset: r6 (rbp) at cfa-16
  DW_CFA_advance_loc: 3 to 000000000001037a
  DW_CFA_def_cfa_register: r6 (rbp)
  DW_CFA_advance_loc1: 130 to 00000000000103fc
  DW_CFA_def_cfa: r7 (rsp) ofs 8
  DW_CFA_nop
  DW_CFA_nop

00000bf8 000000000000001c 00000bfc FDE cie=00000000 pc=00000000000103fd..0000000000010488
  DW_CFA_advance_loc: 5 to 0000000000010402
  DW_CFA_def_cfa_offset: 16
  DW_CFA_offset: r6 (rbp) at cfa-16
  DW_CFA_advance_loc: 3 to 0000000000010405
  DW_CFA_def_cfa_register: r6 (rbp)
  DW_CFA_advance_loc1: 130 to 0000000000010487
  DW_CFA_def_cfa: r7 (rsp) ofs 8
  DW_CFA_nop
  DW_CFA_nop

00000c18 000000000000001c 00000c1c FDE cie=00000000 pc=0000000000010488..00000000000104a3
  DW_CFA_advance_loc: 5 to 000000000001048d
  DW_CFA_def_cfa_offset: 16
  DW_CFA_offset: r6 (rbp) at cfa-16
  DW_CFA_advance_loc: 3 to 0000000000010490
  DW_CFA_def_cfa_register: r6 (rbp)
  DW_CFA_advance_loc: 18 to 00000000000104a2
  DW_CFA_def_cfa: r7 (rsp) ofs 8
  DW_CFA_nop
  DW_CFA_nop
  DW_CFA_nop

00000c38 000000000000001c 00000c3c FDE cie=00000000 pc=00000000000104a3..000000000001050c
  DW_CFA_advance_loc: 5 to 00000000000104a8
  DW_CFA_def_cfa_offset: 16
  DW_CFA_offset: r6 (rbp) at cfa-16
  DW_CFA_advance_loc: 3 to 00000000000104ab
  DW_CFA_def_cfa_register: r6 (rbp)
  DW_CFA_advance_loc1: 96 to 000000000001050b
  DW_CFA_def_cfa: r7 (rsp) ofs 8
  DW_CFA_nop
  DW_CFA_nop

00000c58 000000000000001c 00000c5c FDE cie=00000000 pc=000000000001050c..0000000000010575
  DW_CFA_advance_loc: 5 to 0000000000010511
  DW_CFA_def_cfa_offset: 16
  DW_CFA_offset: r6 (rbp) at cfa-16
  DW_CFA_advance_loc: 3 to 0000000000010514
  DW_CFA_def_cfa_register: r6 (rbp)
  DW_CFA_advance_loc1: 96 to 0000000000010574
  DW_CFA_def_cfa: r7 (rsp) ofs 8
  DW_CFA_nop
  DW_CFA_nop

00000c78 000000000000001c 00000c7c FDE cie=00000000 pc=0000000000010575..00000000000106b6
  DW_CFA_advance_loc: 5 to 000000000001057a
  DW_CFA_def_cfa_offset: 16
  DW_CFA_offset: r6 (rbp) at cfa-16
  DW_CFA_advance_loc: 3 to 000000000001057d
  DW_CFA_def_cfa_register: r6 (rbp)
  DW_CFA_advance_loc2: 312 to 00000000000106b5
  DW_CFA_def_cfa: r7 (rsp) ofs 8
  DW_CFA_nop

00000c98 000000000000001c 00000c9c FDE cie=00000000 pc=00000000000106b6..00000000000106eb
  DW_CFA_advance_loc: 5 to 00000000000106bb
  DW_CFA_def_cfa_offset: 16
  DW_CFA_offset: r6 (rbp) at cfa-16
  DW_CFA_advance_loc: 3 to 00000000000106be
  DW_CFA_def_cfa_register: r6 (rbp)
  DW_CFA_advance_loc: 44 to 00000000000106ea
  DW_CFA_def_cfa: r7 (rsp) ofs 8
  DW_CFA_nop
  DW_CFA_nop
  DW_CFA_nop

00000cb8 000000000000001c 00000cbc FDE cie=00000000 pc=00000000000106eb..0000000000010720
  DW_CFA_advance_loc: 5 to 00000000000106f0
  DW_CFA_def_cfa_offset: 16
  DW_CFA_offset: r6 (rbp) at cfa-16
  DW_CFA_advance_loc: 3 to 00000000000106f3
  DW_CFA_def_cfa_register: r6 (rbp)
  DW_CFA_advance_loc: 44 to 000000000001071f
  DW_CFA_def_cfa: r7 (rsp) ofs 8
  DW_CFA_nop
  DW_CFA_nop
  DW_CFA_nop

00000cd8 000000000000001c 00000cdc FDE cie=00000000 pc=0000000000010720..00000000000107b1
  DW_CFA_advance_loc: 5 to 0000000000010725
  DW_CFA_def_cfa_offset: 16
  DW_CFA_offset: r6 (rbp) at cfa-16
  DW_CFA_advance_loc: 3 to 0000000000010728
  DW_CFA_def_cfa_register: r6 (rbp)
  DW_CFA_advance_loc1: 136 to 00000000000107b0
  DW_CFA_def_cfa: r7 (rsp) ofs 8
  DW_CFA_nop
  DW_CFA_nop

00000cf8 000000000000001c 00000cfc FDE cie=00000000 pc=00000000000107b1..0000000000010842
  DW_CFA_advance_loc: 5 to 00000000000107b6
  DW_CFA_def_cfa_offset: 16
  DW_CFA_offset: r6 (rbp) at cfa-16
  DW_CFA_advance_loc: 3 to 00000000000107b9
  DW_CFA_def_cfa_register: r6 (rbp)
  DW_CFA_advance_loc1: 136 to 0000000000010841
  DW_CFA_def_cfa: r7 (rsp) ofs 8
  DW_CFA_nop
  DW_CFA_nop

00000d18 000000000000001c 00000d1c FDE cie=00000000 pc=0000000000010842..0000000000010a7e
  DW_CFA_advance_loc: 5 to 0000000000010847
  DW_CFA_def_cfa_offset: 16
  DW_CFA_offset: r6 (rbp) at cfa-16
  DW_CFA_advance_loc: 3 to 000000000001084a
  DW_CFA_def_cfa_register: r6 (rbp)
  DW_CFA_advance_loc2: 563 to 0000000000010a7d
  DW_CFA_def_cfa: r7 (rsp) ofs 8
  DW_CFA_nop

00000d38 000000000000001c 00000d3c FDE cie=00000000 pc=0000000000010a7e..0000000000014569
  DW_CFA_advance_loc: 5 to 0000000000010a83
  DW_CFA_def_cfa_offset: 16
  DW_CFA_offset: r6 (rbp) at cfa-16
  DW_CFA_advance_loc: 3 to 0000000000010a86
  DW_CFA_def_cfa_register: r6 (rbp)
  DW_CFA_advance_loc2: 15074 to 0000000000014568
  DW_CFA_def_cfa: r7 (rsp) ofs 8
  DW_CFA_nop

00000d58 000000000000001c 00000d5c FDE cie=00000000 pc=0000000000014569..0000000000014584
  DW_CFA_advance_loc: 1 to 000000000001456a
  DW_CFA_def_cfa_offset: 16
  DW_CFA_offset: r6 (rbp) at cfa-16
  DW_CFA_advance_loc: 3 to 000000000001456d
  DW_CFA_def_cfa_register: r6 (rbp)
  DW_CFA_advance_loc: 22 to 0000000000014583
  DW_CFA_def_cfa: r7 (rsp) ofs 8
  DW_CFA_nop
  DW_CFA_nop
  DW_CFA_nop

00000d78 000000000000001c 00000d7c FDE cie=00000000 pc=0000000000014584..000000000001478a
  DW_CFA_advance_loc: 5 to 0000000000014589
  DW_CFA_def_cfa_offset: 16
  DW_CFA_offset: r6 (rbp) at cfa-16
  DW_CFA_advance_loc: 3 to 000000000001458c
  DW_CFA_def_cfa_register: r6 (rbp)
  DW_CFA_advance_loc2: 509 to 0000000000014789
  DW_CFA_def_cfa: r7 (rsp) ofs 8
  DW_CFA_nop

00000d98 000000000000001c 00000d9c FDE cie=00000000 pc=000000000001478a..00000000000147d0
  DW_CFA_advance_loc: 5 to 000000000001478f
  DW_CFA_def_cfa_offset: 16
  DW_CFA_offset: r6 (rbp) at cfa-16
  DW_CFA_advance_loc: 3 to 0000000000014792
  DW_CFA_def_cfa_register: r6 (rbp)
  DW_CFA_advance_loc: 61 to 00000000000147cf
  DW_CFA_def_cfa: r7 (rsp) ofs 8
  DW_CFA_nop
  DW_CFA_nop
  DW_CFA_nop

00000db8 000000000000001c 00000dbc FDE cie=00000000 pc=00000000000147d0..0000000000014816
  DW_CFA_advance_loc: 5 to 00000000000147d5
  DW_CFA_def_cfa_offset: 16
  DW_CFA_offset: r6 (rbp) at cfa-16
  DW_CFA_advance_loc: 3 to 00000000000147d8
  DW_CFA_def_cfa_register: r6 (rbp)
  DW_CFA_advance_loc: 61 to 0000000000014815
  DW_CFA_def_cfa: r7 (rsp) ofs 8
  DW_CFA_nop
  DW_CFA_nop
  DW_CFA_nop

00000dd8 000000000000001c 00000ddc FDE cie=00000000 pc=0000000000014816..0000000000014827
  DW_CFA_advance_loc: 1 to 0000000000014817
  DW_CFA_def_cfa_offset: 16
  DW_CFA_offset: r6 (rbp) at cfa-16
  DW_CFA_advance_loc: 3 to 000000000001481a
  DW_CFA_def_cfa_register: r6 (rbp)
  DW_CFA_advance_loc: 12 to 0000000000014826
  DW_CFA_def_cfa: r7 (rsp) ofs 8
  DW_CFA_nop
  DW_CFA_nop
  DW_CFA_nop

00000df8 000000000000001c 00000dfc FDE cie=00000000 pc=0000000000014827..00000000000148ed
  DW_CFA_advance_loc: 5 to 000000000001482c
  DW_CFA_def_cfa_offset: 16
  DW_CFA_offset: r6 (rbp) at cfa-16
  DW_CFA_advance_loc: 3 to 000000000001482f
  DW_CFA_def_cfa_register: r6 (rbp)
  DW_CFA_advance_loc1: 189 to 00000000000148ec
  DW_CFA_def_cfa: r7 (rsp) ofs 8
  DW_CFA_nop
  DW_CFA_nop

00000e18 000000000000001c 00000e1c FDE cie=00000000 pc=00000000000148ed..00000000000149b3
  DW_CFA_advance_loc: 5 to 00000000000148f2
  DW_CFA_def_cfa_offset: 16
  DW_CFA_offset: r6 (rbp) at cfa-16
  DW_CFA_advance_loc: 3 to 00000000000148f5
  DW_CFA_def_cfa_register: r6 (rbp)
  DW_CFA_advance_loc1: 189 to 00000000000149b2
  DW_CFA_def_cfa: r7 (rsp) ofs 8
  DW_CFA_nop
  DW_CFA_nop

00000e38 000000000000001c 00000e3c FDE cie=00000000 pc=00000000000149b3..00000000000149d1
  DW_CFA_advance_loc: 5 to 00000000000149b8
  DW_CFA_def_cfa_offset: 16
  DW_CFA_offset: r6 (rbp) at cfa-16
  DW_CFA_advance_loc: 3 to 00000000000149bb
  DW_CFA_def_cfa_register: r6 (rbp)
  DW_CFA_advance_loc: 21 to 00000000000149d0
  DW_CFA_def_cfa: r7 (rsp) ofs 8
  DW_CFA_nop
  DW_CFA_nop
  DW_CFA_nop

00000e58 000000000000001c 00000e5c FDE cie=00000000 pc=00000000000149d1..0000000000014a3e
  DW_CFA_advance_loc: 5 to 00000000000149d6
  DW_CFA_def_cfa_offset: 16
  DW_CFA_offset: r6 (rbp) at cfa-16
  DW_CFA_advance_loc: 3 to 00000000000149d9
  DW_CFA_def_cfa_register: r6 (rbp)
  DW_CFA_advance_loc1: 100 to 0000000000014a3d
  DW_CFA_def_cfa: r7 (rsp) ofs 8
  DW_CFA_nop
  DW_CFA_nop

00000e78 000000000000001c 00000e7c FDE cie=00000000 pc=0000000000014a3e..0000000000014aab
  DW_CFA_advance_loc: 5 to 0000000000014a43
  DW_CFA_def_cfa_offset: 16
  DW_CFA_offset: r6 (rbp) at cfa-16
  DW_CFA_advance_loc: 3 to 0000000000014a46
  DW_CFA_def_cfa_register: r6 (rbp)
  DW_CFA_advance_loc1: 100 to 0000000000014aaa
  DW_CFA_def_cfa: r7 (rsp) ofs 8
  DW_CFA_nop
  DW_CFA_nop

00000e98 000000000000001c 00000e9c FDE cie=00000000 pc=0000000000014aab..0000000000014c06
  DW_CFA_advance_loc: 5 to 0000000000014ab0
  DW_CFA_def_cfa_offset: 16
  DW_CFA_offset: r6 (rbp) at cfa-16
  DW_CFA_advance_loc: 3 to 0000000000014ab3
  DW_CFA_def_cfa_register: r6 (rbp)
  DW_CFA_advance_loc2: 338 to 0000000000014c05
  DW_CFA_def_cfa: r7 (rsp) ofs 8
  DW_CFA_nop

00000eb8 000000000000001c 00000ebc FDE cie=00000000 pc=0000000000014c06..0000000000014c3b
  DW_CFA_advance_loc: 5 to 0000000000014c0b
  DW_CFA_def_cfa_offset: 16
  DW_CFA_offset: r6 (rbp) at cfa-16
  DW_CFA_advance_loc: 3 to 0000000000014c0e
  DW_CFA_def_cfa_register: r6 (rbp)
  DW_CFA_advance_loc: 44 to 0000000000014c3a
  DW_CFA_def_cfa: r7 (rsp) ofs 8
  DW_CFA_nop
  DW_CFA_nop
  DW_CFA_nop

00000ed8 000000000000001c 00000edc FDE cie=00000000 pc=0000000000014c3b..0000000000014c70
  DW_CFA_advance_loc: 5 to 0000000000014c40
  DW_CFA_def_cfa_offset: 16
  DW_CFA_offset: r6 (rbp) at cfa-16
  DW_CFA_advance_loc: 3 to 0000000000014c43
  DW_CFA_def_cfa_register: r6 (rbp)
  DW_CFA_advance_loc: 44 to 0000000000014c6f
  DW_CFA_def_cfa: r7 (rsp) ofs 8
  DW_CFA_nop
  DW_CFA_nop
  DW_CFA_nop

00000ef8 000000000000001c 00000efc FDE cie=00000000 pc=0000000000014c70..0000000000014d01
  DW_CFA_advance_loc: 5 to 0000000000014c75
  DW_CFA_def_cfa_offset: 16
  DW_CFA_offset: r6 (rbp) at cfa-16
  DW_CFA_advance_loc: 3 to 0000000000014c78
  DW_CFA_def_cfa_register: r6 (rbp)
  DW_CFA_advance_loc1: 136 to 0000000000014d00
  DW_CFA_def_cfa: r7 (rsp) ofs 8
  DW_CFA_nop
  DW_CFA_nop

00000f18 000000000000001c 00000f1c FDE cie=00000000 pc=0000000000014d01..0000000000014d92
  DW_CFA_advance_loc: 5 to 0000000000014d06
  DW_CFA_def_cfa_offset: 16
  DW_CFA_offset: r6 (rbp) at cfa-16
  DW_CFA_advance_loc: 3 to 0000000000014d09
  DW_CFA_def_cfa_register: r6 (rbp)
  DW_CFA_advance_loc1: 136 to 0000000000014d91
  DW_CFA_def_cfa: r7 (rsp) ofs 8
  DW_CFA_nop
  DW_CFA_nop

00000f38 000000000000001c 00000f3c FDE cie=00000000 pc=0000000000014d92..0000000000014fd6
  DW_CFA_advance_loc: 5 to 0000000000014d97
  DW_CFA_def_cfa_offset: 16
  DW_CFA_offset: r6 (rbp) at cfa-16
  DW_CFA_advance_loc: 3 to 0000000000014d9a
  DW_CFA_def_cfa_register: r6 (rbp)
  DW_CFA_advance_loc2: 571 to 0000000000014fd5
  DW_CFA_def_cfa: r7 (rsp) ofs 8
  DW_CFA_nop

00000f58 000000000000001c 00000f5c FDE cie=00000000 pc=0000000000014fd6..000000000001bbfe
  DW_CFA_advance_loc: 5 to 0000000000014fdb
  DW_CFA_def_cfa_offset: 16
  DW_CFA_offset: r6 (rbp) at cfa-16
  DW_CFA_advance_loc: 3 to 0000000000014fde
  DW_CFA_def_cfa_register: r6 (rbp)
  DW_CFA_advance_loc2: 27679 to 000000000001bbfd
  DW_CFA_def_cfa: r7 (rsp) ofs 8
  DW_CFA_nop

00000f78 000000000000001c 00000f7c FDE cie=00000000 pc=000000000001bbfe..000000000001bda0
  DW_CFA_advance_loc: 5 to 000000000001bc03
  DW_CFA_def_cfa_offset: 16
  DW_CFA_offset: r6 (rbp) at cfa-16
  DW_CFA_advance_loc: 3 to 000000000001bc06
  DW_CFA_def_cfa_register: r6 (rbp)
  DW_CFA_advance_loc2: 409 to 000000000001bd9f
  DW_CFA_def_cfa: r7 (rsp) ofs 8
  DW_CFA_nop

00000f98 000000000000001c 00000f9c FDE cie=00000000 pc=000000000001bda0..000000000001bdae
  DW_CFA_advance_loc: 1 to 000000000001bda1
  DW_CFA_def_cfa_offset: 16
  DW_CFA_offset: r6 (rbp) at cfa-16
  DW_CFA_advance_loc: 3 to 000000000001bda4
  DW_CFA_def_cfa_register: r6 (rbp)
  DW_CFA_advance_loc: 9 to 000000000001bdad
  DW_CFA_def_cfa: r7 (rsp) ofs 8
  DW_CFA_nop
  DW_CFA_nop
  DW_CFA_nop

00000fb8 000000000000001c 00000fbc FDE cie=00000000 pc=000000000001bdae..000000000001be39
  DW_CFA_advance_loc: 5 to 000000000001bdb3
  DW_CFA_def_cfa_offset: 16
  DW_CFA_offset: r6 (rbp) at cfa-16
  DW_CFA_advance_loc: 3 to 000000000001bdb6
  DW_CFA_def_cfa_register: r6 (rbp)
  DW_CFA_advance_loc1: 130 to 000000000001be38
  DW_CFA_def_cfa: r7 (rsp) ofs 8
  DW_CFA_nop
  DW_CFA_nop

00000fd8 000000000000001c 00000fdc FDE cie=00000000 pc=000000000001be39..000000000001be54
  DW_CFA_advance_loc: 5 to 000000000001be3e
  DW_CFA_def_cfa_offset: 16
  DW_CFA_offset: r6 (rbp) at cfa-16
  DW_CFA_advance_loc: 3 to 000000000001be41
  DW_CFA_def_cfa_register: r6 (rbp)
  DW_CFA_advance_loc: 18 to 000000000001be53
  DW_CFA_def_cfa: r7 (rsp) ofs 8
  DW_CFA_nop
  DW_CFA_nop
  DW_CFA_nop

00000ff8 000000000000001c 00000ffc FDE cie=00000000 pc=000000000001be54..000000000001bebd
  DW_CFA_advance_loc: 5 to 000000000001be59
  DW_CFA_def_cfa_offset: 16
  DW_CFA_offset: r6 (rbp) at cfa-16
  DW_CFA_advance_loc: 3 to 000000000001be5c
  DW_CFA_def_cfa_register: r6 (rbp)
  DW_CFA_advance_loc1: 96 to 000000000001bebc
  DW_CFA_def_cfa: r7 (rsp) ofs 8
  DW_CFA_nop
  DW_CFA_nop

00001018 000000000000001c 0000101c FDE cie=00000000 pc=000000000001bebd..000000000001bffe
  DW_CFA_advance_loc: 5 to 000000000001bec2
  DW_CFA_def_cfa_offset: 16
  DW_CFA_offset: r6 (rbp) at cfa-16
  DW_CFA_advance_loc: 3 to 000000000001bec5
  DW_CFA_def_cfa_register: r6 (rbp)
  DW_CFA_advance_loc2: 312 to 000000000001bffd
  DW_CFA_def_cfa: r7 (rsp) ofs 8
  DW_CFA_nop

00001038 000000000000001c 0000103c FDE cie=00000000 pc=000000000001bffe..000000000001c033
  DW_CFA_advance_loc: 5 to 000000000001c003
  DW_CFA_def_cfa_offset: 16
  DW_CFA_offset: r6 (rbp) at cfa-16
  DW_CFA_advance_loc: 3 to 000000000001c006
  DW_CFA_def_cfa_register: r6 (rbp)
  DW_CFA_advance_loc: 44 to 000000000001c032
  DW_CFA_def_cfa: r7 (rsp) ofs 8
  DW_CFA_nop
  DW_CFA_nop
  DW_CFA_nop

00001058 000000000000001c 0000105c FDE cie=00000000 pc=000000000001c033..000000000001c0c4
  DW_CFA_advance_loc: 5 to 000000000001c038
  DW_CFA_def_cfa_offset: 16
  DW_CFA_offset: r6 (rbp) at cfa-16
  DW_CFA_advance_loc: 3 to 000000000001c03b
  DW_CFA_def_cfa_register: r6 (rbp)
  DW_CFA_advance_loc1: 136 to 000000000001c0c3
  DW_CFA_def_cfa: r7 (rsp) ofs 8
  DW_CFA_nop
  DW_CFA_nop

00001078 000000000000001c 0000107c FDE cie=00000000 pc=000000000001c0c4..000000000001c300
  DW_CFA_advance_loc: 5 to 000000000001c0c9
  DW_CFA_def_cfa_offset: 16
  DW_CFA_offset: r6 (rbp) at cfa-16
  DW_CFA_advance_loc: 3 to 000000000001c0cc
  DW_CFA_def_cfa_register: r6 (rbp)
  DW_CFA_advance_loc2: 563 to 000000000001c2ff
  DW_CFA_def_cfa: r7 (rsp) ofs 8
  DW_CFA_nop

00001098 000000000000001c 0000109c FDE cie=00000000 pc=000000000001c300..00000000000205be
  DW_CFA_advance_loc: 5 to 000000000001c305
  DW_CFA_def_cfa_offset: 16
  DW_CFA_offset: r6 (rbp) at cfa-16
  DW_CFA_advance_loc: 3 to 000000000001c308
  DW_CFA_def_cfa_register: r6 (rbp)
  DW_CFA_advance_loc2: 17077 to 00000000000205bd
  DW_CFA_def_cfa: r7 (rsp) ofs 8
  DW_CFA_nop

000010b8 000000000000001c 000010bc FDE cie=00000000 pc=00000000000205be..00000000000205f3
  DW_CFA_advance_loc: 5 to 00000000000205c3
  DW_CFA_def_cfa_offset: 16
  DW_CFA_offset: r6 (rbp) at cfa-16
  DW_CFA_advance_loc: 3 to 00000000000205c6
  DW_CFA_def_cfa_register: r6 (rbp)
  DW_CFA_advance_loc: 44 to 00000000000205f2
  DW_CFA_def_cfa: r7 (rsp) ofs 8
  DW_CFA_nop
  DW_CFA_nop
  DW_CFA_nop

000010d8 000000000000001c 000010dc FDE cie=00000000 pc=00000000000205f3..0000000000020632
  DW_CFA_advance_loc: 5 to 00000000000205f8
  DW_CFA_def_cfa_offset: 16
  DW_CFA_offset: r6 (rbp) at cfa-16
  DW_CFA_advance_loc: 3 to 00000000000205fb
  DW_CFA_def_cfa_register: r6 (rbp)
  DW_CFA_advance_loc: 54 to 0000000000020631
  DW_CFA_def_cfa: r7 (rsp) ofs 8
  DW_CFA_nop
  DW_CFA_nop
  DW_CFA_nop

000010f8 000000000000001c 000010fc FDE cie=00000000 pc=0000000000020632..00000000000206eb
  DW_CFA_advance_loc: 5 to 0000000000020637
  DW_CFA_def_cfa_offset: 16
  DW_CFA_offset: r6 (rbp) at cfa-16
  DW_CFA_advance_loc: 3 to 000000000002063a
  DW_CFA_def_cfa_register: r6 (rbp)
  DW_CFA_advance_loc1: 176 to 00000000000206ea
  DW_CFA_def_cfa: r7 (rsp) ofs 8
  DW_CFA_nop
  DW_CFA_nop

00001118 000000000000001c 0000111c FDE cie=00000000 pc=00000000000206eb..0000000000020723
  DW_CFA_advance_loc: 5 to 00000000000206f0
  DW_CFA_def_cfa_offset: 16
  DW_CFA_offset: r6 (rbp) at cfa-16
  DW_CFA_advance_loc: 3 to 00000000000206f3
  DW_CFA_def_cfa_register: r6 (rbp)
  DW_CFA_advance_loc: 47 to 0000000000020722
  DW_CFA_def_cfa: r7 (rsp) ofs 8
  DW_CFA_nop
  DW_CFA_nop
  DW_CFA_nop

00001138 000000000000001c 0000113c FDE cie=00000000 pc=0000000000020723..0000000000020772
  DW_CFA_advance_loc: 5 to 0000000000020728
  DW_CFA_def_cfa_offset: 16
  DW_CFA_offset: r6 (rbp) at cfa-16
  DW_CFA_advance_loc: 3 to 000000000002072b
  DW_CFA_def_cfa_register: r6 (rbp)
  DW_CFA_advance_loc1: 70 to 0000000000020771
  DW_CFA_def_cfa: r7 (rsp) ofs 8
  DW_CFA_nop
  DW_CFA_nop

00001158 000000000000001c 0000115c FDE cie=00000000 pc=0000000000020772..000000000002085c
  DW_CFA_advance_loc: 5 to 0000000000020777
  DW_CFA_def_cfa_offset: 16
  DW_CFA_offset: r6 (rbp) at cfa-16
  DW_CFA_advance_loc: 3 to 000000000002077a
  DW_CFA_def_cfa_register: r6 (rbp)
  DW_CFA_advance_loc1: 225 to 000000000002085b
  DW_CFA_def_cfa: r7 (rsp) ofs 8
  DW_CFA_nop
  DW_CFA_nop

00001178 0000000000000024 0000117c FDE cie=00000000 pc=000000000002085c..00000000000208df
  DW_CFA_advance_loc: 5 to 0000000000020861
  DW_CFA_def_cfa_offset: 16
  DW_CFA_offset: r6 (rbp) at cfa-16
  DW_CFA_advance_loc: 3 to 0000000000020864
  DW_CFA_def_cfa_register: r6 (rbp)
  DW_CFA_advance_loc: 5 to 0000000000020869
  DW_CFA_offset: r3 (rbx) at cfa-24
  DW_CFA_advance_loc1: 117 to 00000000000208de
  DW_CFA_def_cfa: r7 (rsp) ofs 8
  DW_CFA_nop
  DW_CFA_nop
  DW_CFA_nop
  DW_CFA_nop
  DW_CFA_nop
  DW_CFA_nop
  DW_CFA_nop

000011a0 000000000000001c 000011a4 FDE cie=00000000 pc=00000000000208df..000000000002099d
  DW_CFA_advance_loc: 5 to 00000000000208e4
  DW_CFA_def_cfa_offset: 16
  DW_CFA_offset: r6 (rbp) at cfa-16
  DW_CFA_advance_loc: 3 to 00000000000208e7
  DW_CFA_def_cfa_register: r6 (rbp)
  DW_CFA_advance_loc1: 181 to 000000000002099c
  DW_CFA_def_cfa: r7 (rsp) ofs 8
  DW_CFA_nop
  DW_CFA_nop

000011c0 000000000000001c 000011c4 FDE cie=00000000 pc=000000000002099d..0000000000020a86
  DW_CFA_advance_loc: 5 to 00000000000209a2
  DW_CFA_def_cfa_offset: 16
  DW_CFA_offset: r6 (rbp) at cfa-16
  DW_CFA_advance_loc: 3 to 00000000000209a5
  DW_CFA_def_cfa_register: r6 (rbp)
  DW_CFA_advance_loc1: 224 to 0000000000020a85
  DW_CFA_def_cfa: r7 (rsp) ofs 8
  DW_CFA_nop
  DW_CFA_nop

000011e0 0000000000000020 000011e4 FDE cie=00000000 pc=0000000000020a86..0000000000020bbd
  DW_CFA_advance_loc: 5 to 0000000000020a8b
  DW_CFA_def_cfa_offset: 16
  DW_CFA_offset: r6 (rbp) at cfa-16
  DW_CFA_advance_loc: 3 to 0000000000020a8e
  DW_CFA_def_cfa_register: r6 (rbp)
  DW_CFA_advance_loc: 8 to 0000000000020a96
  DW_CFA_offset: r3 (rbx) at cfa-24
  DW_CFA_advance_loc2: 294 to 0000000000020bbc
  DW_CFA_def_cfa: r7 (rsp) ofs 8
  DW_CFA_nop
  DW_CFA_nop

00001204 000000000000001c 00001208 FDE cie=00000000 pc=0000000000020bbd..0000000000021657
  DW_CFA_advance_loc: 5 to 0000000000020bc2
  DW_CFA_def_cfa_offset: 16
  DW_CFA_offset: r6 (rbp) at cfa-16
  DW_CFA_advance_loc: 3 to 0000000000020bc5
  DW_CFA_def_cfa_register: r6 (rbp)
  DW_CFA_advance_loc2: 2705 to 0000000000021656
  DW_CFA_def_cfa: r7 (rsp) ofs 8
  DW_CFA_nop

00001224 000000000000001c 00001228 FDE cie=00000000 pc=0000000000021657..0000000000021681
  DW_CFA_advance_loc: 5 to 000000000002165c
  DW_CFA_def_cfa_offset: 16
  DW_CFA_offset: r6 (rbp) at cfa-16
  DW_CFA_advance_loc: 3 to 000000000002165f
  DW_CFA_def_cfa_register: r6 (rbp)
  DW_CFA_advance_loc: 33 to 0000000000021680
  DW_CFA_def_cfa: r7 (rsp) ofs 8
  DW_CFA_nop
  DW_CFA_nop
  DW_CFA_nop

00001244 000000000000001c 00001248 FDE cie=00000000 pc=0000000000021681..0000000000021829
  DW_CFA_advance_loc: 5 to 0000000000021686
  DW_CFA_def_cfa_offset: 16
  DW_CFA_offset: r6 (rbp) at cfa-16
  DW_CFA_advance_loc: 3 to 0000000000021689
  DW_CFA_def_cfa_register: r6 (rbp)
  DW_CFA_advance_loc2: 415 to 0000000000021828
  DW_CFA_def_cfa: r7 (rsp) ofs 8
  DW_CFA_nop

00001264 0000000000000020 00001268 FDE cie=00000000 pc=0000000000021829..000000000002187f
  DW_CFA_advance_loc: 5 to 000000000002182e
  DW_CFA_def_cfa_offset: 16
  DW_CFA_offset: r6 (rbp) at cfa-16
  DW_CFA_advance_loc: 3 to 0000000000021831
  DW_CFA_def_cfa_register: r6 (rbp)
  DW_CFA_advance_loc1: 77 to 000000000002187e
  DW_CFA_def_cfa: r7 (rsp) ofs 8
  DW_CFA_nop
  DW_CFA_nop
  DW_CFA_nop
  DW_CFA_nop
  DW_CFA_nop
  DW_CFA_nop

00001288 000000000000001c 0000128c FDE cie=00000000 pc=000000000002187f..0000000000021908
  DW_CFA_advance_loc: 5 to 0000000000021884
  DW_CFA_def_cfa_offset: 16
  DW_CFA_offset: r6 (rbp) at cfa-16
  DW_CFA_advance_loc: 3 to 0000000000021887
  DW_CFA_def_cfa_register: r6 (rbp)
  DW_CFA_advance_loc1: 128 to 0000000000021907
  DW_CFA_def_cfa: r7 (rsp) ofs 8
  DW_CFA_nop
  DW_CFA_nop

000012a8 000000000000001c 000012ac FDE cie=00000000 pc=0000000000021908..00000000000219fd
  DW_CFA_advance_loc: 5 to 000000000002190d
  DW_CFA_def_cfa_offset: 16
  DW_CFA_offset: r6 (rbp) at cfa-16
  DW_CFA_advance_loc: 3 to 0000000000021910
  DW_CFA_def_cfa_register: r6 (rbp)
  DW_CFA_advance_loc1: 236 to 00000000000219fc
  DW_CFA_def_cfa: r7 (rsp) ofs 8
  DW_CFA_nop
  DW_CFA_nop

000012c8 000000000000001c 000012cc FDE cie=00000000 pc=00000000000219fd..0000000000021a4c
  DW_CFA_advance_loc: 5 to 0000000000021a02
  DW_CFA_def_cfa_offset: 16
  DW_CFA_offset: r6 (rbp) at cfa-16
  DW_CFA_advance_loc: 3 to 0000000000021a05
  DW_CFA_def_cfa_register: r6 (rbp)
  DW_CFA_advance_loc1: 70 to 0000000000021a4b
  DW_CFA_def_cfa: r7 (rsp) ofs 8
  DW_CFA_nop
  DW_CFA_nop

000012e8 000000000000001c 000012ec FDE cie=00000000 pc=0000000000021a4c..0000000000021a70
  DW_CFA_advance_loc: 5 to 0000000000021a51
  DW_CFA_def_cfa_offset: 16
  DW_CFA_offset: r6 (rbp) at cfa-16
  DW_CFA_advance_loc: 3 to 0000000000021a54
  DW_CFA_def_cfa_register: r6 (rbp)
  DW_CFA_advance_loc: 27 to 0000000000021a6f
  DW_CFA_def_cfa: r7 (rsp) ofs 8
  DW_CFA_nop
  DW_CFA_nop
  DW_CFA_nop

00001308 000000000000001c 0000130c FDE cie=00000000 pc=0000000000021a70..0000000000021a9b
  DW_CFA_advance_loc: 5 to 0000000000021a75
  DW_CFA_def_cfa_offset: 16
  DW_CFA_offset: r6 (rbp) at cfa-16
  DW_CFA_advance_loc: 3 to 0000000000021a78
  DW_CFA_def_cfa_register: r6 (rbp)
  DW_CFA_advance_loc: 34 to 0000000000021a9a
  DW_CFA_def_cfa: r7 (rsp) ofs 8
  DW_CFA_nop
  DW_CFA_nop
  DW_CFA_nop

00001328 000000000000001c 0000132c FDE cie=00000000 pc=0000000000021a9b..0000000000021b2b
  DW_CFA_advance_loc: 5 to 0000000000021aa0
  DW_CFA_def_cfa_offset: 16
  DW_CFA_offset: r6 (rbp) at cfa-16
  DW_CFA_advance_loc: 3 to 0000000000021aa3
  DW_CFA_def_cfa_register: r6 (rbp)
  DW_CFA_advance_loc1: 135 to 0000000000021b2a
  DW_CFA_def_cfa: r7 (rsp) ofs 8
  DW_CFA_nop
  DW_CFA_nop

00001348 000000000000001c 0000134c FDE cie=00000000 pc=0000000000021b2b..0000000000021b65
  DW_CFA_advance_loc: 5 to 0000000000021b30
  DW_CFA_def_cfa_offset: 16
  DW_CFA_offset: r6 (rbp) at cfa-16
  DW_CFA_advance_loc: 3 to 0000000000021b33
  DW_CFA_def_cfa_register: r6 (rbp)
  DW_CFA_advance_loc: 49 to 0000000000021b64
  DW_CFA_def_cfa: r7 (rsp) ofs 8
  DW_CFA_nop
  DW_CFA_nop
  DW_CFA_nop

00001368 000000000000001c 0000136c FDE cie=00000000 pc=0000000000021b65..0000000000021bc7
  DW_CFA_advance_loc: 5 to 0000000000021b6a
  DW_CFA_def_cfa_offset: 16
  DW_CFA_offset: r6 (rbp) at cfa-16
  DW_CFA_advance_loc: 3 to 0000000000021b6d
  DW_CFA_def_cfa_register: r6 (rbp)
  DW_CFA_advance_loc1: 89 to 0000000000021bc6
  DW_CFA_def_cfa: r7 (rsp) ofs 8
  DW_CFA_nop
  DW_CFA_nop

00001388 0000000000000020 0000138c FDE cie=00000000 pc=0000000000021bc7..0000000000021c8c
  DW_CFA_advance_loc: 5 to 0000000000021bcc
  DW_CFA_def_cfa_offset: 16
  DW_CFA_offset: r6 (rbp) at cfa-16
  DW_CFA_advance_loc: 3 to 0000000000021bcf
  DW_CFA_def_cfa_register: r6 (rbp)
  DW_CFA_advance_loc: 5 to 0000000000021bd4
  DW_CFA_offset: r3 (rbx) at cfa-24
  DW_CFA_advance_loc1: 183 to 0000000000021c8b
  DW_CFA_def_cfa: r7 (rsp) ofs 8
  DW_CFA_nop
  DW_CFA_nop
  DW_CFA_nop

000013ac 000000000000001c 000013b0 FDE cie=00000000 pc=0000000000021c8c..0000000000021d51
  DW_CFA_advance_loc: 5 to 0000000000021c91
  DW_CFA_def_cfa_offset: 16
  DW_CFA_offset: r6 (rbp) at cfa-16
  DW_CFA_advance_loc: 3 to 0000000000021c94
  DW_CFA_def_cfa_register: r6 (rbp)
  DW_CFA_advance_loc1: 188 to 0000000000021d50
  DW_CFA_def_cfa: r7 (rsp) ofs 8
  DW_CFA_nop
  DW_CFA_nop

000013cc 0000000000000020 000013d0 FDE cie=00000000 pc=0000000000021d51..0000000000022e12
  DW_CFA_advance_loc: 5 to 0000000000021d56
  DW_CFA_def_cfa_offset: 16
  DW_CFA_offset: r6 (rbp) at cfa-16
  DW_CFA_advance_loc: 3 to 0000000000021d59
  DW_CFA_def_cfa_register: r6 (rbp)
  DW_CFA_advance_loc: 8 to 0000000000021d61
  DW_CFA_offset: r3 (rbx) at cfa-24
  DW_CFA_advance_loc2: 4272 to 0000000000022e11
  DW_CFA_def_cfa: r7 (rsp) ofs 8
  DW_CFA_nop
  DW_CFA_nop

000013f0 000000000000001c 000013f4 FDE cie=00000000 pc=0000000000022e12..0000000000022eba
  DW_CFA_advance_loc: 5 to 0000000000022e17
  DW_CFA_def_cfa_offset: 16
  DW_CFA_offset: r6 (rbp) at cfa-16
  DW_CFA_advance_loc: 3 to 0000000000022e1a
  DW_CFA_def_cfa_register: r6 (rbp)
  DW_CFA_advance_loc1: 159 to 0000000000022eb9
  DW_CFA_def_cfa: r7 (rsp) ofs 8
  DW_CFA_nop
  DW_CFA_nop

00001410 000000000000001c 00001414 FDE cie=00000000 pc=0000000000022eba..0000000000022ef0
  DW_CFA_advance_loc: 5 to 0000000000022ebf
  DW_CFA_def_cfa_offset: 16
  DW_CFA_offset: r6 (rbp) at cfa-16
  DW_CFA_advance_loc: 3 to 0000000000022ec2
  DW_CFA_def_cfa_register: r6 (rbp)
  DW_CFA_advance_loc: 45 to 0000000000022eef
  DW_CFA_def_cfa: r7 (rsp) ofs 8
  DW_CFA_nop
  DW_CFA_nop
  DW_CFA_nop

00001430 000000000000001c 00001434 FDE cie=00000000 pc=0000000000022ef0..000000000002301c
  DW_CFA_advance_loc: 5 to 0000000000022ef5
  DW_CFA_def_cfa_offset: 16
  DW_CFA_offset: r6 (rbp) at cfa-16
  DW_CFA_advance_loc: 3 to 0000000000022ef8
  DW_CFA_def_cfa_register: r6 (rbp)
  DW_CFA_advance_loc2: 291 to 000000000002301b
  DW_CFA_def_cfa: r7 (rsp) ofs 8
  DW_CFA_nop

00001450 000000000000001c 00001454 FDE cie=00000000 pc=000000000002301c..00000000000230db
  DW_CFA_advance_loc: 5 to 0000000000023021
  DW_CFA_def_cfa_offset: 16
  DW_CFA_offset: r6 (rbp) at cfa-16
  DW_CFA_advance_loc: 3 to 0000000000023024
  DW_CFA_def_cfa_register: r6 (rbp)
  DW_CFA_advance_loc1: 182 to 00000000000230da
  DW_CFA_def_cfa: r7 (rsp) ofs 8
  DW_CFA_nop
  DW_CFA_nop

00001470 000000000000001c 00001474 FDE cie=00000000 pc=00000000000230db..000000000002338a
  DW_CFA_advance_loc: 5 to 00000000000230e0
  DW_CFA_def_cfa_offset: 16
  DW_CFA_offset: r6 (rbp) at cfa-16
  DW_CFA_advance_loc: 3 to 00000000000230e3
  DW_CFA_def_cfa_register: r6 (rbp)
  DW_CFA_advance_loc2: 678 to 0000000000023389
  DW_CFA_def_cfa: r7 (rsp) ofs 8
  DW_CFA_nop

00001490 000000000000001c 00001494 FDE cie=00000000 pc=000000000002338a..00000000000233be
  DW_CFA_advance_loc: 5 to 000000000002338f
  DW_CFA_def_cfa_offset: 16
  DW_CFA_offset: r6 (rbp) at cfa-16
  DW_CFA_advance_loc: 3 to 0000000000023392
  DW_CFA_def_cfa_register: r6 (rbp)
  DW_CFA_advance_loc: 43 to 00000000000233bd
  DW_CFA_def_cfa: r7 (rsp) ofs 8
  DW_CFA_nop
  DW_CFA_nop
  DW_CFA_nop

000014b0 000000000000001c 000014b4 FDE cie=00000000 pc=00000000000233be..00000000000233f0
  DW_CFA_advance_loc: 5 to 00000000000233c3
  DW_CFA_def_cfa_offset: 16
  DW_CFA_offset: r6 (rbp) at cfa-16
  DW_CFA_advance_loc: 3 to 00000000000233c6
  DW_CFA_def_cfa_register: r6 (rbp)
  DW_CFA_advance_loc: 41 to 00000000000233ef
  DW_CFA_def_cfa: r7 (rsp) ofs 8
  DW_CFA_nop
  DW_CFA_nop
  DW_CFA_nop

000014d0 000000000000001c 000014d4 FDE cie=00000000 pc=00000000000233f0..0000000000023413
  DW_CFA_advance_loc: 5 to 00000000000233f5
  DW_CFA_def_cfa_offset: 16
  DW_CFA_offset: r6 (rbp) at cfa-16
  DW_CFA_advance_loc: 3 to 00000000000233f8
  DW_CFA_def_cfa_register: r6 (rbp)
  DW_CFA_advance_loc: 26 to 0000000000023412
  DW_CFA_def_cfa: r7 (rsp) ofs 8
  DW_CFA_nop
  DW_CFA_nop
  DW_CFA_nop

000014f0 000000000000001c 000014f4 FDE cie=00000000 pc=0000000000023413..000000000002343e
  DW_CFA_advance_loc: 5 to 0000000000023418
  DW_CFA_def_cfa_offset: 16
  DW_CFA_offset: r6 (rbp) at cfa-16
  DW_CFA_advance_loc: 3 to 000000000002341b
  DW_CFA_def_cfa_register: r6 (rbp)
  DW_CFA_advance_loc: 34 to 000000000002343d
  DW_CFA_def_cfa: r7 (rsp) ofs 8
  DW_CFA_nop
  DW_CFA_nop
  DW_CFA_nop

00001510 000000000000001c 00001514 FDE cie=00000000 pc=000000000002343e..00000000000234a6
  DW_CFA_advance_loc: 5 to 0000000000023443
  DW_CFA_def_cfa_offset: 16
  DW_CFA_offset: r6 (rbp) at cfa-16
  DW_CFA_advance_loc: 3 to 0000000000023446
  DW_CFA_def_cfa_register: r6 (rbp)
  DW_CFA_advance_loc1: 95 to 00000000000234a5
  DW_CFA_def_cfa: r7 (rsp) ofs 8
  DW_CFA_nop
  DW_CFA_nop

00001530 000000000000001c 00001534 FDE cie=00000000 pc=00000000000234a6..000000000002350c
  DW_CFA_advance_loc: 5 to 00000000000234ab
  DW_CFA_def_cfa_offset: 16
  DW_CFA_offset: r6 (rbp) at cfa-16
  DW_CFA_advance_loc: 3 to 00000000000234ae
  DW_CFA_def_cfa_register: r6 (rbp)
  DW_CFA_advance_loc1: 93 to 000000000002350b
  DW_CFA_def_cfa: r7 (rsp) ofs 8
  DW_CFA_nop
  DW_CFA_nop

00001550 000000000000001c 00001554 FDE cie=00000000 pc=000000000002350c..0000000000023534
  DW_CFA_advance_loc: 5 to 0000000000023511
  DW_CFA_def_cfa_offset: 16
  DW_CFA_offset: r6 (rbp) at cfa-16
  DW_CFA_advance_loc: 3 to 0000000000023514
  DW_CFA_def_cfa_register: r6 (rbp)
  DW_CFA_advance_loc: 31 to 0000000000023533
  DW_CFA_def_cfa: r7 (rsp) ofs 8
  DW_CFA_nop
  DW_CFA_nop
  DW_CFA_nop

00001570 000000000000001c 00001574 FDE cie=00000000 pc=0000000000023534..0000000000023564
  DW_CFA_advance_loc: 5 to 0000000000023539
  DW_CFA_def_cfa_offset: 16
  DW_CFA_offset: r6 (rbp) at cfa-16
  DW_CFA_advance_loc: 3 to 000000000002353c
  DW_CFA_def_cfa_register: r6 (rbp)
  DW_CFA_advance_loc: 39 to 0000000000023563
  DW_CFA_def_cfa: r7 (rsp) ofs 8
  DW_CFA_nop
  DW_CFA_nop
  DW_CFA_nop

00001590 000000000000001c 00001594 FDE cie=00000000 pc=0000000000023564..000000000002361f
  DW_CFA_advance_loc: 5 to 0000000000023569
  DW_CFA_def_cfa_offset: 16
  DW_CFA_offset: r6 (rbp) at cfa-16
  DW_CFA_advance_loc: 3 to 000000000002356c
  DW_CFA_def_cfa_register: r6 (rbp)
  DW_CFA_advance_loc1: 178 to 000000000002361e
  DW_CFA_def_cfa: r7 (rsp) ofs 8
  DW_CFA_nop
  DW_CFA_nop

000015b0 000000000000001c 000015b4 FDE cie=00000000 pc=000000000002361f..000000000002364d
  DW_CFA_advance_loc: 5 to 0000000000023624
  DW_CFA_def_cfa_offset: 16
  DW_CFA_offset: r6 (rbp) at cfa-16
  DW_CFA_advance_loc: 3 to 0000000000023627
  DW_CFA_def_cfa_register: r6 (rbp)
  DW_CFA_advance_loc: 37 to 000000000002364c
  DW_CFA_def_cfa: r7 (rsp) ofs 8
  DW_CFA_nop
  DW_CFA_nop
  DW_CFA_nop

000015d0 000000000000001c 000015d4 FDE cie=00000000 pc=000000000002364d..0000000000023670
  DW_CFA_advance_loc: 5 to 0000000000023652
  DW_CFA_def_cfa_offset: 16
  DW_CFA_offset: r6 (rbp) at cfa-16
  DW_CFA_advance_loc: 3 to 0000000000023655
  DW_CFA_def_cfa_register: r6 (rbp)
  DW_CFA_advance_loc: 26 to 000000000002366f
  DW_CFA_def_cfa: r7 (rsp) ofs 8
  DW_CFA_nop
  DW_CFA_nop
  DW_CFA_nop

000015f0 000000000000001c 000015f4 FDE cie=00000000 pc=0000000000023670..000000000002369e
  DW_CFA_advance_loc: 5 to 0000000000023675
  DW_CFA_def_cfa_offset: 16
  DW_CFA_offset: r6 (rbp) at cfa-16
  DW_CFA_advance_loc: 3 to 0000000000023678
  DW_CFA_def_cfa_register: r6 (rbp)
  DW_CFA_advance_loc: 37 to 000000000002369d
  DW_CFA_def_cfa: r7 (rsp) ofs 8
  DW_CFA_nop
  DW_CFA_nop
  DW_CFA_nop

00001610 000000000000001c 00001614 FDE cie=00000000 pc=000000000002369e..0000000000023760
  DW_CFA_advance_loc: 5 to 00000000000236a3
  DW_CFA_def_cfa_offset: 16
  DW_CFA_offset: r6 (rbp) at cfa-16
  DW_CFA_advance_loc: 3 to 00000000000236a6
  DW_CFA_def_cfa_register: r6 (rbp)
  DW_CFA_advance_loc1: 185 to 000000000002375f
  DW_CFA_def_cfa: r7 (rsp) ofs 8
  DW_CFA_nop
  DW_CFA_nop

00001630 000000000000001c 00001634 FDE cie=00000000 pc=0000000000023760..000000000002379a
  DW_CFA_advance_loc: 5 to 0000000000023765
  DW_CFA_def_cfa_offset: 16
  DW_CFA_offset: r6 (rbp) at cfa-16
  DW_CFA_advance_loc: 3 to 0000000000023768
  DW_CFA_def_cfa_register: r6 (rbp)
  DW_CFA_advance_loc: 49 to 0000000000023799
  DW_CFA_def_cfa: r7 (rsp) ofs 8
  DW_CFA_nop
  DW_CFA_nop
  DW_CFA_nop

00001650 000000000000001c 00001654 FDE cie=00000000 pc=000000000002379a..0000000000023858
  DW_CFA_advance_loc: 5 to 000000000002379f
  DW_CFA_def_cfa_offset: 16
  DW_CFA_offset: r6 (rbp) at cfa-16
  DW_CFA_advance_loc: 3 to 00000000000237a2
  DW_CFA_def_cfa_register: r6 (rbp)
  DW_CFA_advance_loc1: 181 to 0000000000023857
  DW_CFA_def_cfa: r7 (rsp) ofs 8
  DW_CFA_nop
  DW_CFA_nop

00001670 000000000000001c 00001674 FDE cie=00000000 pc=0000000000023858..000000000002388b
  DW_CFA_advance_loc: 5 to 000000000002385d
  DW_CFA_def_cfa_offset: 16
  DW_CFA_offset: r6 (rbp) at cfa-16
  DW_CFA_advance_loc: 3 to 0000000000023860
  DW_CFA_def_cfa_register: r6 (rbp)
  DW_CFA_advance_loc: 42 to 000000000002388a
  DW_CFA_def_cfa: r7 (rsp) ofs 8
  DW_CFA_nop
  DW_CFA_nop
  DW_CFA_nop

00001690 000000000000001c 00001694 FDE cie=00000000 pc=000000000002388b..00000000000238c9
  DW_CFA_advance_loc: 5 to 0000000000023890
  DW_CFA_def_cfa_offset: 16
  DW_CFA_offset: r6 (rbp) at cfa-16
  DW_CFA_advance_loc: 3 to 0000000000023893
  DW_CFA_def_cfa_register: r6 (rbp)
  DW_CFA_advance_loc: 53 to 00000000000238c8
  DW_CFA_def_cfa: r7 (rsp) ofs 8
  DW_CFA_nop
  DW_CFA_nop
  DW_CFA_nop

000016b0 000000000000001c 000016b4 FDE cie=00000000 pc=00000000000238c9..00000000000238fb
  DW_CFA_advance_loc: 5 to 00000000000238ce
  DW_CFA_def_cfa_offset: 16
  DW_CFA_offset: r6 (rbp) at cfa-16
  DW_CFA_advance_loc: 3 to 00000000000238d1
  DW_CFA_def_cfa_register: r6 (rbp)
  DW_CFA_advance_loc: 41 to 00000000000238fa
  DW_CFA_def_cfa: r7 (rsp) ofs 8
  DW_CFA_nop
  DW_CFA_nop
  DW_CFA_nop

000016d0 000000000000001c 000016d4 FDE cie=00000000 pc=00000000000238fb..0000000000023926
  DW_CFA_advance_loc: 5 to 0000000000023900
  DW_CFA_def_cfa_offset: 16
  DW_CFA_offset: r6 (rbp) at cfa-16
  DW_CFA_advance_loc: 3 to 0000000000023903
  DW_CFA_def_cfa_register: r6 (rbp)
  DW_CFA_advance_loc: 34 to 0000000000023925
  DW_CFA_def_cfa: r7 (rsp) ofs 8
  DW_CFA_nop
  DW_CFA_nop
  DW_CFA_nop

000016f0 000000000000001c 000016f4 FDE cie=00000000 pc=0000000000023926..0000000000023953
  DW_CFA_advance_loc: 5 to 000000000002392b
  DW_CFA_def_cfa_offset: 16
  DW_CFA_offset: r6 (rbp) at cfa-16
  DW_CFA_advance_loc: 3 to 000000000002392e
  DW_CFA_def_cfa_register: r6 (rbp)
  DW_CFA_advance_loc: 36 to 0000000000023952
  DW_CFA_def_cfa: r7 (rsp) ofs 8
  DW_CFA_nop
  DW_CFA_nop
  DW_CFA_nop

00001710 000000000000001c 00001714 FDE cie=00000000 pc=0000000000023953..0000000000023976
  DW_CFA_advance_loc: 5 to 0000000000023958
  DW_CFA_def_cfa_offset: 16
  DW_CFA_offset: r6 (rbp) at cfa-16
  DW_CFA_advance_loc: 3 to 000000000002395b
  DW_CFA_def_cfa_register: r6 (rbp)
  DW_CFA_advance_loc: 26 to 0000000000023975
  DW_CFA_def_cfa: r7 (rsp) ofs 8
  DW_CFA_nop
  DW_CFA_nop
  DW_CFA_nop

00001730 000000000000001c 00001734 FDE cie=00000000 pc=0000000000023976..00000000000239a0
  DW_CFA_advance_loc: 5 to 000000000002397b
  DW_CFA_def_cfa_offset: 16
  DW_CFA_offset: r6 (rbp) at cfa-16
  DW_CFA_advance_loc: 3 to 000000000002397e
  DW_CFA_def_cfa_register: r6 (rbp)
  DW_CFA_advance_loc: 33 to 000000000002399f
  DW_CFA_def_cfa: r7 (rsp) ofs 8
  DW_CFA_nop
  DW_CFA_nop
  DW_CFA_nop

00001750 0000000000000028 00001754 FDE cie=00000000 pc=00000000000239a0..0000000000023f92
  DW_CFA_advance_loc: 5 to 00000000000239a5
  DW_CFA_def_cfa_offset: 16
  DW_CFA_offset: r6 (rbp) at cfa-16
  DW_CFA_advance_loc: 3 to 00000000000239a8
  DW_CFA_def_cfa_register: r6 (rbp)
  DW_CFA_advance_loc: 13 to 00000000000239b5
  DW_CFA_offset: r15 (r15) at cfa-24
  DW_CFA_offset: r14 (r14) at cfa-32
  DW_CFA_offset: r13 (r13) at cfa-40
  DW_CFA_offset: r12 (r12) at cfa-48
  DW_CFA_offset: r3 (rbx) at cfa-56
  DW_CFA_advance_loc2: 1500 to 0000000000023f91
  DW_CFA_def_cfa: r7 (rsp) ofs 8
  DW_CFA_nop
  DW_CFA_nop

0000177c 000000000000001c 00001780 FDE cie=00000000 pc=0000000000023f92..0000000000024005
  DW_CFA_advance_loc: 5 to 0000000000023f97
  DW_CFA_def_cfa_offset: 16
  DW_CFA_offset: r6 (rbp) at cfa-16
  DW_CFA_advance_loc: 3 to 0000000000023f9a
  DW_CFA_def_cfa_register: r6 (rbp)
  DW_CFA_advance_loc1: 106 to 0000000000024004
  DW_CFA_def_cfa: r7 (rsp) ofs 8
  DW_CFA_nop
  DW_CFA_nop

0000179c 000000000000001c 000017a0 FDE cie=00000000 pc=0000000000024005..000000000002410b
  DW_CFA_advance_loc: 5 to 000000000002400a
  DW_CFA_def_cfa_offset: 16
  DW_CFA_offset: r6 (rbp) at cfa-16
  DW_CFA_advance_loc: 3 to 000000000002400d
  DW_CFA_def_cfa_register: r6 (rbp)
  DW_CFA_advance_loc1: 253 to 000000000002410a
  DW_CFA_def_cfa: r7 (rsp) ofs 8
  DW_CFA_nop
  DW_CFA_nop

000017bc 000000000000001c 000017c0 FDE cie=00000000 pc=000000000002410b..00000000000241ef
  DW_CFA_advance_loc: 5 to 0000000000024110
  DW_CFA_def_cfa_offset: 16
  DW_CFA_offset: r6 (rbp) at cfa-16
  DW_CFA_advance_loc: 3 to 0000000000024113
  DW_CFA_def_cfa_register: r6 (rbp)
  DW_CFA_advance_loc1: 219 to 00000000000241ee
  DW_CFA_def_cfa: r7 (rsp) ofs 8
  DW_CFA_nop
  DW_CFA_nop

000017dc 0000000000000020 000017e0 FDE cie=00000000 pc=00000000000241ef..0000000000024293
  DW_CFA_advance_loc: 5 to 00000000000241f4
  DW_CFA_def_cfa_offset: 16
  DW_CFA_offset: r6 (rbp) at cfa-16
  DW_CFA_advance_loc: 3 to 00000000000241f7
  DW_CFA_def_cfa_register: r6 (rbp)
  DW_CFA_advance_loc1: 155 to 0000000000024292
  DW_CFA_def_cfa: r7 (rsp) ofs 8
  DW_CFA_nop
  DW_CFA_nop
  DW_CFA_nop
  DW_CFA_nop
  DW_CFA_nop
  DW_CFA_nop

00001800 000000000000001c 00001804 FDE cie=00000000 pc=0000000000024293..00000000000242c4
  DW_CFA_advance_loc: 5 to 0000000000024298
  DW_CFA_def_cfa_offset: 16
  DW_CFA_offset: r6 (rbp) at cfa-16
  DW_CFA_advance_loc: 3 to 000000000002429b
  DW_CFA_def_cfa_register: r6 (rbp)
  DW_CFA_advance_loc: 40 to 00000000000242c3
  DW_CFA_def_cfa: r7 (rsp) ofs 8
  DW_CFA_nop
  DW_CFA_nop
  DW_CFA_nop

00001820 000000000000001c 00001824 FDE cie=00000000 pc=00000000000242c4..00000000000242e6
  DW_CFA_advance_loc: 5 to 00000000000242c9
  DW_CFA_def_cfa_offset: 16
  DW_CFA_offset: r6 (rbp) at cfa-16
  DW_CFA_advance_loc: 3 to 00000000000242cc
  DW_CFA_def_cfa_register: r6 (rbp)
  DW_CFA_advance_loc: 25 to 00000000000242e5
  DW_CFA_def_cfa: r7 (rsp) ofs 8
  DW_CFA_nop
  DW_CFA_nop
  DW_CFA_nop

00001840 000000000000001c 00001844 FDE cie=00000000 pc=00000000000242e6..000000000002430c
  DW_CFA_advance_loc: 5 to 00000000000242eb
  DW_CFA_def_cfa_offset: 16
  DW_CFA_offset: r6 (rbp) at cfa-16
  DW_CFA_advance_loc: 3 to 00000000000242ee
  DW_CFA_def_cfa_register: r6 (rbp)
  DW_CFA_advance_loc: 29 to 000000000002430b
  DW_CFA_def_cfa: r7 (rsp) ofs 8
  DW_CFA_nop
  DW_CFA_nop
  DW_CFA_nop

00001860 000000000000001c 00001864 FDE cie=00000000 pc=000000000002430c..0000000000024332
  DW_CFA_advance_loc: 5 to 0000000000024311
  DW_CFA_def_cfa_offset: 16
  DW_CFA_offset: r6 (rbp) at cfa-16
  DW_CFA_advance_loc: 3 to 0000000000024314
  DW_CFA_def_cfa_register: r6 (rbp)
  DW_CFA_advance_loc: 29 to 0000000000024331
  DW_CFA_def_cfa: r7 (rsp) ofs 8
  DW_CFA_nop
  DW_CFA_nop
  DW_CFA_nop

00001880 000000000000001c 00001884 FDE cie=00000000 pc=0000000000024332..0000000000024350
  DW_CFA_advance_loc: 5 to 0000000000024337
  DW_CFA_def_cfa_offset: 16
  DW_CFA_offset: r6 (rbp) at cfa-16
  DW_CFA_advance_loc: 3 to 000000000002433a
  DW_CFA_def_cfa_register: r6 (rbp)
  DW_CFA_advance_loc: 21 to 000000000002434f
  DW_CFA_def_cfa: r7 (rsp) ofs 8
  DW_CFA_nop
  DW_CFA_nop
  DW_CFA_nop

000018a0 000000000000001c 000018a4 FDE cie=00000000 pc=0000000000024350..000000000002439b
  DW_CFA_advance_loc: 5 to 0000000000024355
  DW_CFA_def_cfa_offset: 16
  DW_CFA_offset: r6 (rbp) at cfa-16
  DW_CFA_advance_loc: 3 to 0000000000024358
  DW_CFA_def_cfa_register: r6 (rbp)
  DW_CFA_advance_loc1: 66 to 000000000002439a
  DW_CFA_def_cfa: r7 (rsp) ofs 8
  DW_CFA_nop
  DW_CFA_nop

000018c0 000000000000001c 000018c4 FDE cie=00000000 pc=000000000002439b..00000000000243cc
  DW_CFA_advance_loc: 5 to 00000000000243a0
  DW_CFA_def_cfa_offset: 16
  DW_CFA_offset: r6 (rbp) at cfa-16
  DW_CFA_advance_loc: 3 to 00000000000243a3
  DW_CFA_def_cfa_register: r6 (rbp)
  DW_CFA_advance_loc: 40 to 00000000000243cb
  DW_CFA_def_cfa: r7 (rsp) ofs 8
  DW_CFA_nop
  DW_CFA_nop
  DW_CFA_nop

000018e0 000000000000001c 000018e4 FDE cie=00000000 pc=00000000000243cc..0000000000024426
  DW_CFA_advance_loc: 5 to 00000000000243d1
  DW_CFA_def_cfa_offset: 16
  DW_CFA_offset: r6 (rbp) at cfa-16
  DW_CFA_advance_loc: 3 to 00000000000243d4
  DW_CFA_def_cfa_register: r6 (rbp)
  DW_CFA_advance_loc1: 81 to 0000000000024425
  DW_CFA_def_cfa: r7 (rsp) ofs 8
  DW_CFA_nop
  DW_CFA_nop

00001900 000000000000001c 00001904 FDE cie=00000000 pc=0000000000024426..000000000002445f
  DW_CFA_advance_loc: 5 to 000000000002442b
  DW_CFA_def_cfa_offset: 16
  DW_CFA_offset: r6 (rbp) at cfa-16
  DW_CFA_advance_loc: 3 to 000000000002442e
  DW_CFA_def_cfa_register: r6 (rbp)
  DW_CFA_advance_loc: 48 to 000000000002445e
  DW_CFA_def_cfa: r7 (rsp) ofs 8
  DW_CFA_nop
  DW_CFA_nop
  DW_CFA_nop

00001920 000000000000001c 00001924 FDE cie=00000000 pc=000000000002445f..000000000002448a
  DW_CFA_advance_loc: 5 to 0000000000024464
  DW_CFA_def_cfa_offset: 16
  DW_CFA_offset: r6 (rbp) at cfa-16
  DW_CFA_advance_loc: 3 to 0000000000024467
  DW_CFA_def_cfa_register: r6 (rbp)
  DW_CFA_advance_loc: 34 to 0000000000024489
  DW_CFA_def_cfa: r7 (rsp) ofs 8
  DW_CFA_nop
  DW_CFA_nop
  DW_CFA_nop

00001940 000000000000001c 00001944 FDE cie=00000000 pc=000000000002448a..00000000000244b5
  DW_CFA_advance_loc: 5 to 000000000002448f
  DW_CFA_def_cfa_offset: 16
  DW_CFA_offset: r6 (rbp) at cfa-16
  DW_CFA_advance_loc: 3 to 0000000000024492
  DW_CFA_def_cfa_register: r6 (rbp)
  DW_CFA_advance_loc: 34 to 00000000000244b4
  DW_CFA_def_cfa: r7 (rsp) ofs 8
  DW_CFA_nop
  DW_CFA_nop
  DW_CFA_nop

00001960 000000000000001c 00001964 FDE cie=00000000 pc=00000000000244b5..00000000000244e3
  DW_CFA_advance_loc: 5 to 00000000000244ba
  DW_CFA_def_cfa_offset: 16
  DW_CFA_offset: r6 (rbp) at cfa-16
  DW_CFA_advance_loc: 3 to 00000000000244bd
  DW_CFA_def_cfa_register: r6 (rbp)
  DW_CFA_advance_loc: 37 to 00000000000244e2
  DW_CFA_def_cfa: r7 (rsp) ofs 8
  DW_CFA_nop
  DW_CFA_nop
  DW_CFA_nop

00001980 000000000000001c 00001984 FDE cie=00000000 pc=00000000000244e3..00000000000245c2
  DW_CFA_advance_loc: 5 to 00000000000244e8
  DW_CFA_def_cfa_offset: 16
  DW_CFA_offset: r6 (rbp) at cfa-16
  DW_CFA_advance_loc: 3 to 00000000000244eb
  DW_CFA_def_cfa_register: r6 (rbp)
  DW_CFA_advance_loc1: 214 to 00000000000245c1
  DW_CFA_def_cfa: r7 (rsp) ofs 8
  DW_CFA_nop
  DW_CFA_nop

000019a0 000000000000001c 000019a4 FDE cie=00000000 pc=00000000000245c2..000000000002477e
  DW_CFA_advance_loc: 5 to 00000000000245c7
  DW_CFA_def_cfa_offset: 16
  DW_CFA_offset: r6 (rbp) at cfa-16
  DW_CFA_advance_loc: 3 to 00000000000245ca
  DW_CFA_def_cfa_register: r6 (rbp)
  DW_CFA_advance_loc2: 435 to 000000000002477d
  DW_CFA_def_cfa: r7 (rsp) ofs 8
  DW_CFA_nop

000019c0 000000000000001c 000019c4 FDE cie=00000000 pc=000000000002477e..00000000000247a1
  DW_CFA_advance_loc: 5 to 0000000000024783
  DW_CFA_def_cfa_offset: 16
  DW_CFA_offset: r6 (rbp) at cfa-16
  DW_CFA_advance_loc: 3 to 0000000000024786
  DW_CFA_def_cfa_register: r6 (rbp)
  DW_CFA_advance_loc: 26 to 00000000000247a0
  DW_CFA_def_cfa: r7 (rsp) ofs 8
  DW_CFA_nop
  DW_CFA_nop
  DW_CFA_nop

000019e0 000000000000001c 000019e4 FDE cie=00000000 pc=00000000000247a1..00000000000247c4
  DW_CFA_advance_loc: 5 to 00000000000247a6
  DW_CFA_def_cfa_offset: 16
  DW_CFA_offset: r6 (rbp) at cfa-16
  DW_CFA_advance_loc: 3 to 00000000000247a9
  DW_CFA_def_cfa_register: r6 (rbp)
  DW_CFA_advance_loc: 26 to 00000000000247c3
  DW_CFA_def_cfa: r7 (rsp) ofs 8
  DW_CFA_nop
  DW_CFA_nop
  DW_CFA_nop

00001a00 000000000000001c 00001a04 FDE cie=00000000 pc=00000000000247c4..00000000000247f5
  DW_CFA_advance_loc: 5 to 00000000000247c9
  DW_CFA_def_cfa_offset: 16
  DW_CFA_offset: r6 (rbp) at cfa-16
  DW_CFA_advance_loc: 3 to 00000000000247cc
  DW_CFA_def_cfa_register: r6 (rbp)
  DW_CFA_advance_loc: 40 to 00000000000247f4
  DW_CFA_def_cfa: r7 (rsp) ofs 8
  DW_CFA_nop
  DW_CFA_nop
  DW_CFA_nop

00001a20 000000000000001c 00001a24 FDE cie=00000000 pc=00000000000247f5..0000000000024826
  DW_CFA_advance_loc: 5 to 00000000000247fa
  DW_CFA_def_cfa_offset: 16
  DW_CFA_offset: r6 (rbp) at cfa-16
  DW_CFA_advance_loc: 3 to 00000000000247fd
  DW_CFA_def_cfa_register: r6 (rbp)
  DW_CFA_advance_loc: 40 to 0000000000024825
  DW_CFA_def_cfa: r7 (rsp) ofs 8
  DW_CFA_nop
  DW_CFA_nop
  DW_CFA_nop

00001a40 000000000000001c 00001a44 FDE cie=00000000 pc=0000000000024826..000000000002485e
  DW_CFA_advance_loc: 5 to 000000000002482b
  DW_CFA_def_cfa_offset: 16
  DW_CFA_offset: r6 (rbp) at cfa-16
  DW_CFA_advance_loc: 3 to 000000000002482e
  DW_CFA_def_cfa_register: r6 (rbp)
  DW_CFA_advance_loc: 47 to 000000000002485d
  DW_CFA_def_cfa: r7 (rsp) ofs 8
  DW_CFA_nop
  DW_CFA_nop
  DW_CFA_nop

00001a60 000000000000001c 00001a64 FDE cie=00000000 pc=000000000002485e..000000000002489e
  DW_CFA_advance_loc: 5 to 0000000000024863
  DW_CFA_def_cfa_offset: 16
  DW_CFA_offset: r6 (rbp) at cfa-16
  DW_CFA_advance_loc: 3 to 0000000000024866
  DW_CFA_def_cfa_register: r6 (rbp)
  DW_CFA_advance_loc: 5 to 000000000002486b
  DW_CFA_offset: r3 (rbx) at cfa-24
  DW_CFA_advance_loc: 50 to 000000000002489d
  DW_CFA_def_cfa: r7 (rsp) ofs 8

00001a80 000000000000001c 00001a84 FDE cie=00000000 pc=000000000002489e..00000000000248ed
  DW_CFA_advance_loc: 5 to 00000000000248a3
  DW_CFA_def_cfa_offset: 16
  DW_CFA_offset: r6 (rbp) at cfa-16
  DW_CFA_advance_loc: 3 to 00000000000248a6
  DW_CFA_def_cfa_register: r6 (rbp)
  DW_CFA_advance_loc1: 70 to 00000000000248ec
  DW_CFA_def_cfa: r7 (rsp) ofs 8
  DW_CFA_nop
  DW_CFA_nop

00001aa0 000000000000001c 00001aa4 FDE cie=00000000 pc=00000000000248ed..000000000002491e
  DW_CFA_advance_loc: 5 to 00000000000248f2
  DW_CFA_def_cfa_offset: 16
  DW_CFA_offset: r6 (rbp) at cfa-16
  DW_CFA_advance_loc: 3 to 00000000000248f5
  DW_CFA_def_cfa_register: r6 (rbp)
  DW_CFA_advance_loc: 40 to 000000000002491d
  DW_CFA_def_cfa: r7 (rsp) ofs 8
  DW_CFA_nop
  DW_CFA_nop
  DW_CFA_nop

00001ac0 000000000000001c 00001ac4 FDE cie=00000000 pc=000000000002491e..000000000002495e
  DW_CFA_advance_loc: 5 to 0000000000024923
  DW_CFA_def_cfa_offset: 16
  DW_CFA_offset: r6 (rbp) at cfa-16
  DW_CFA_advance_loc: 3 to 0000000000024926
  DW_CFA_def_cfa_register: r6 (rbp)
  DW_CFA_nop
  DW_CFA_nop
  DW_CFA_nop
  DW_CFA_nop
  DW_CFA_nop
  DW_CFA_nop
  DW_CFA_nop

00001ae0 0000000000000020 00001ae4 FDE cie=00000000 pc=000000000002495e..0000000000024a98
  DW_CFA_advance_loc: 5 to 0000000000024963
  DW_CFA_def_cfa_offset: 16
  DW_CFA_offset: r6 (rbp) at cfa-16
  DW_CFA_advance_loc: 3 to 0000000000024966
  DW_CFA_def_cfa_register: r6 (rbp)
  DW_CFA_advance_loc: 5 to 000000000002496b
  DW_CFA_offset: r3 (rbx) at cfa-24
  DW_CFA_advance_loc2: 300 to 0000000000024a97
  DW_CFA_def_cfa: r7 (rsp) ofs 8
  DW_CFA_nop
  DW_CFA_nop

00001b04 0000000000000020 00001b08 FDE cie=00000000 pc=0000000000024a98..0000000000024af1
  DW_CFA_advance_loc: 5 to 0000000000024a9d
  DW_CFA_def_cfa_offset: 16
  DW_CFA_offset: r6 (rbp) at cfa-16
  DW_CFA_advance_loc: 3 to 0000000000024aa0
  DW_CFA_def_cfa_register: r6 (rbp)
  DW_CFA_advance_loc1: 80 to 0000000000024af0
  DW_CFA_def_cfa: r7 (rsp) ofs 8
  DW_CFA_nop
  DW_CFA_nop
  DW_CFA_nop
  DW_CFA_nop
  DW_CFA_nop
  DW_CFA_nop

00001b28 000000000000001c 00001b2c FDE cie=00000000 pc=0000000000024af1..0000000000024b83
  DW_CFA_advance_loc: 5 to 0000000000024af6
  DW_CFA_def_cfa_offset: 16
  DW_CFA_offset: r6 (rbp) at cfa-16
  DW_CFA_advance_loc: 3 to 0000000000024af9
  DW_CFA_def_cfa_register: r6 (rbp)
  DW_CFA_advance_loc1: 137 to 0000000000024b82
  DW_CFA_def_cfa: r7 (rsp) ofs 8
  DW_CFA_nop
  DW_CFA_nop

00001b48 000000000000001c 00001b4c FDE cie=00000000 pc=0000000000024b83..0000000000024bc8
  DW_CFA_advance_loc: 5 to 0000000000024b88
  DW_CFA_def_cfa_offset: 16
  DW_CFA_offset: r6 (rbp) at cfa-16
  DW_CFA_advance_loc: 3 to 0000000000024b8b
  DW_CFA_def_cfa_register: r6 (rbp)
  DW_CFA_advance_loc: 60 to 0000000000024bc7
  DW_CFA_def_cfa: r7 (rsp) ofs 8
  DW_CFA_nop
  DW_CFA_nop
  DW_CFA_nop

00001b68 000000000000001c 00001b6c FDE cie=00000000 pc=0000000000024bc8..0000000000025026
  DW_CFA_advance_loc: 5 to 0000000000024bcd
  DW_CFA_def_cfa_offset: 16
  DW_CFA_offset: r6 (rbp) at cfa-16
  DW_CFA_advance_loc: 3 to 0000000000024bd0
  DW_CFA_def_cfa_register: r6 (rbp)
  DW_CFA_advance_loc2: 1109 to 0000000000025025
  DW_CFA_def_cfa: r7 (rsp) ofs 8
  DW_CFA_nop

00001b88 0000000000000024 00001b8c FDE cie=00000000 pc=0000000000025026..00000000000250a0
  DW_CFA_advance_loc: 5 to 000000000002502b
  DW_CFA_def_cfa_offset: 16
  DW_CFA_offset: r6 (rbp) at cfa-16
  DW_CFA_advance_loc: 3 to 000000000002502e
  DW_CFA_def_cfa_register: r6 (rbp)
  DW_CFA_advance_loc: 7 to 0000000000025035
  DW_CFA_offset: r12 (r12) at cfa-24
  DW_CFA_offset: r3 (rbx) at cfa-32
  DW_CFA_advance_loc1: 106 to 000000000002509f
  DW_CFA_def_cfa: r7 (rsp) ofs 8
  DW_CFA_nop
  DW_CFA_nop
  DW_CFA_nop
  DW_CFA_nop
  DW_CFA_nop

00001bb0 000000000000001c 00001bb4 FDE cie=00000000 pc=00000000000250a0..000000000002512f
  DW_CFA_advance_loc: 5 to 00000000000250a5
  DW_CFA_def_cfa_offset: 16
  DW_CFA_offset: r6 (rbp) at cfa-16
  DW_CFA_advance_loc: 3 to 00000000000250a8
  DW_CFA_def_cfa_register: r6 (rbp)
  DW_CFA_advance_loc1: 134 to 000000000002512e
  DW_CFA_def_cfa: r7 (rsp) ofs 8
  DW_CFA_nop
  DW_CFA_nop

00001bd0 000000000000001c 00001bd4 FDE cie=00000000 pc=000000000002512f..00000000000254a1
  DW_CFA_advance_loc: 5 to 0000000000025134
  DW_CFA_def_cfa_offset: 16
  DW_CFA_offset: r6 (rbp) at cfa-16
  DW_CFA_advance_loc: 3 to 0000000000025137
  DW_CFA_def_cfa_register: r6 (rbp)
  DW_CFA_advance_loc2: 873 to 00000000000254a0
  DW_CFA_def_cfa: r7 (rsp) ofs 8
  DW_CFA_nop

00001bf0 000000000000001c 00001bf4 FDE cie=00000000 pc=00000000000254a1..00000000000254d2
  DW_CFA_advance_loc: 5 to 00000000000254a6
  DW_CFA_def_cfa_offset: 16
  DW_CFA_offset: r6 (rbp) at cfa-16
  DW_CFA_advance_loc: 3 to 00000000000254a9
  DW_CFA_def_cfa_register: r6 (rbp)
  DW_CFA_advance_loc: 40 to 00000000000254d1
  DW_CFA_def_cfa: r7 (rsp) ofs 8
  DW_CFA_nop
  DW_CFA_nop
  DW_CFA_nop

00001c10 000000000000001c 00001c14 FDE cie=00000000 pc=00000000000254d2..00000000000255d5
  DW_CFA_advance_loc: 5 to 00000000000254d7
  DW_CFA_def_cfa_offset: 16
  DW_CFA_offset: r6 (rbp) at cfa-16
  DW_CFA_advance_loc: 3 to 00000000000254da
  DW_CFA_def_cfa_register: r6 (rbp)
  DW_CFA_advance_loc1: 250 to 00000000000255d4
  DW_CFA_def_cfa: r7 (rsp) ofs 8
  DW_CFA_nop
  DW_CFA_nop

00001c30 000000000000001c 00001c34 FDE cie=00000000 pc=00000000000255d5..00000000000255ef
  DW_CFA_advance_loc: 5 to 00000000000255da
  DW_CFA_def_cfa_offset: 16
  DW_CFA_offset: r6 (rbp) at cfa-16
  DW_CFA_advance_loc: 3 to 00000000000255dd
  DW_CFA_def_cfa_register: r6 (rbp)
  DW_CFA_advance_loc: 17 to 00000000000255ee
  DW_CFA_def_cfa: r7 (rsp) ofs 8
  DW_CFA_nop
  DW_CFA_nop
  DW_CFA_nop

00001c50 000000000000001c 00001c54 FDE cie=00000000 pc=00000000000255ef..000000000002560d
  DW_CFA_advance_loc: 5 to 00000000000255f4
  DW_CFA_def_cfa_offset: 16
  DW_CFA_offset: r6 (rbp) at cfa-16
  DW_CFA_advance_loc: 3 to 00000000000255f7
  DW_CFA_def_cfa_register: r6 (rbp)
  DW_CFA_advance_loc: 21 to 000000000002560c
  DW_CFA_def_cfa: r7 (rsp) ofs 8
  DW_CFA_nop
  DW_CFA_nop
  DW_CFA_nop

00001c70 000000000000001c 00001c74 FDE cie=00000000 pc=000000000002560d..0000000000025644
  DW_CFA_advance_loc: 5 to 0000000000025612
  DW_CFA_def_cfa_offset: 16
  DW_CFA_offset: r6 (rbp) at cfa-16
  DW_CFA_advance_loc: 3 to 0000000000025615
  DW_CFA_def_cfa_register: r6 (rbp)
  DW_CFA_advance_loc: 46 to 0000000000025643
  DW_CFA_def_cfa: r7 (rsp) ofs 8
  DW_CFA_nop
  DW_CFA_nop
  DW_CFA_nop

00001c90 000000000000001c 00001c94 FDE cie=00000000 pc=0000000000025644..000000000002566d
  DW_CFA_advance_loc: 5 to 0000000000025649
  DW_CFA_def_cfa_offset: 16
  DW_CFA_offset: r6 (rbp) at cfa-16
  DW_CFA_advance_loc: 3 to 000000000002564c
  DW_CFA_def_cfa_register: r6 (rbp)
  DW_CFA_advance_loc: 32 to 000000000002566c
  DW_CFA_def_cfa: r7 (rsp) ofs 8
  DW_CFA_nop
  DW_CFA_nop
  DW_CFA_nop

00001cb0 000000000000001c 00001cb4 FDE cie=00000000 pc=000000000002566d..00000000000256bc
  DW_CFA_advance_loc: 5 to 0000000000025672
  DW_CFA_def_cfa_offset: 16
  DW_CFA_offset: r6 (rbp) at cfa-16
  DW_CFA_advance_loc: 3 to 0000000000025675
  DW_CFA_def_cfa_register: r6 (rbp)
  DW_CFA_advance_loc1: 70 to 00000000000256bb
  DW_CFA_def_cfa: r7 (rsp) ofs 8
  DW_CFA_nop
  DW_CFA_nop

00001cd0 000000000000001c 00001cd4 FDE cie=00000000 pc=00000000000256bc..0000000000025704
  DW_CFA_advance_loc: 5 to 00000000000256c1
  DW_CFA_def_cfa_offset: 16
  DW_CFA_offset: r6 (rbp) at cfa-16
  DW_CFA_advance_loc: 3 to 00000000000256c4
  DW_CFA_def_cfa_register: r6 (rbp)
  DW_CFA_advance_loc: 63 to 0000000000025703
  DW_CFA_def_cfa: r7 (rsp) ofs 8
  DW_CFA_nop
  DW_CFA_nop
  DW_CFA_nop

00001cf0 000000000000001c 00001cf4 FDE cie=00000000 pc=0000000000025704..00000000000257ae
  DW_CFA_advance_loc: 5 to 0000000000025709
  DW_CFA_def_cfa_offset: 16
  DW_CFA_offset: r6 (rbp) at cfa-16
  DW_CFA_advance_loc: 3 to 000000000002570c
  DW_CFA_def_cfa_register: r6 (rbp)
  DW_CFA_advance_loc1: 161 to 00000000000257ad
  DW_CFA_def_cfa: r7 (rsp) ofs 8
  DW_CFA_nop
  DW_CFA_nop

00001d10 000000000000001c 00001d14 FDE cie=00000000 pc=00000000000257ae..00000000000257ec
  DW_CFA_advance_loc: 5 to 00000000000257b3
  DW_CFA_def_cfa_offset: 16
  DW_CFA_offset: r6 (rbp) at cfa-16
  DW_CFA_advance_loc: 3 to 00000000000257b6
  DW_CFA_def_cfa_register: r6 (rbp)
  DW_CFA_advance_loc: 53 to 00000000000257eb
  DW_CFA_def_cfa: r7 (rsp) ofs 8
  DW_CFA_nop
  DW_CFA_nop
  DW_CFA_nop

00001d30 000000000000001c 00001d34 FDE cie=00000000 pc=00000000000257ec..000000000002581e
  DW_CFA_advance_loc: 5 to 00000000000257f1
  DW_CFA_def_cfa_offset: 16
  DW_CFA_offset: r6 (rbp) at cfa-16
  DW_CFA_advance_loc: 3 to 00000000000257f4
  DW_CFA_def_cfa_register: r6 (rbp)
  DW_CFA_advance_loc: 41 to 000000000002581d
  DW_CFA_def_cfa: r7 (rsp) ofs 8
  DW_CFA_nop
  DW_CFA_nop
  DW_CFA_nop

00001d50 000000000000001c 00001d54 FDE cie=00000000 pc=000000000002581e..000000000002583f
  DW_CFA_advance_loc: 5 to 0000000000025823
  DW_CFA_def_cfa_offset: 16
  DW_CFA_offset: r6 (rbp) at cfa-16
  DW_CFA_advance_loc: 3 to 0000000000025826
  DW_CFA_def_cfa_register: r6 (rbp)
  DW_CFA_advance_loc: 24 to 000000000002583e
  DW_CFA_def_cfa: r7 (rsp) ofs 8
  DW_CFA_nop
  DW_CFA_nop
  DW_CFA_nop

00001d70 000000000000001c 00001d74 FDE cie=00000000 pc=000000000002583f..0000000000025867
  DW_CFA_advance_loc: 5 to 0000000000025844
  DW_CFA_def_cfa_offset: 16
  DW_CFA_offset: r6 (rbp) at cfa-16
  DW_CFA_advance_loc: 3 to 0000000000025847
  DW_CFA_def_cfa_register: r6 (rbp)
  DW_CFA_advance_loc: 31 to 0000000000025866
  DW_CFA_def_cfa: r7 (rsp) ofs 8
  DW_CFA_nop
  DW_CFA_nop
  DW_CFA_nop

00001d90 000000000000001c 00001d94 FDE cie=00000000 pc=0000000000025867..0000000000025894
  DW_CFA_advance_loc: 5 to 000000000002586c
  DW_CFA_def_cfa_offset: 16
  DW_CFA_offset: r6 (rbp) at cfa-16
  DW_CFA_advance_loc: 3 to 000000000002586f
  DW_CFA_def_cfa_register: r6 (rbp)
  DW_CFA_advance_loc: 36 to 0000000000025893
  DW_CFA_def_cfa: r7 (rsp) ofs 8
  DW_CFA_nop
  DW_CFA_nop
  DW_CFA_nop

00001db0 000000000000001c 00001db4 FDE cie=00000000 pc=0000000000025894..00000000000258b8
  DW_CFA_advance_loc: 5 to 0000000000025899
  DW_CFA_def_cfa_offset: 16
  DW_CFA_offset: r6 (rbp) at cfa-16
  DW_CFA_advance_loc: 3 to 000000000002589c
  DW_CFA_def_cfa_register: r6 (rbp)
  DW_CFA_advance_loc: 27 to 00000000000258b7
  DW_CFA_def_cfa: r7 (rsp) ofs 8
  DW_CFA_nop
  DW_CFA_nop
  DW_CFA_nop

00001dd0 000000000000001c 00001dd4 FDE cie=00000000 pc=00000000000258b8..00000000000258dc
  DW_CFA_advance_loc: 5 to 00000000000258bd
  DW_CFA_def_cfa_offset: 16
  DW_CFA_offset: r6 (rbp) at cfa-16
  DW_CFA_advance_loc: 3 to 00000000000258c0
  DW_CFA_def_cfa_register: r6 (rbp)
  DW_CFA_advance_loc: 27 to 00000000000258db
  DW_CFA_def_cfa: r7 (rsp) ofs 8
  DW_CFA_nop
  DW_CFA_nop
  DW_CFA_nop

00001df0 000000000000001c 00001df4 FDE cie=00000000 pc=00000000000258dc..0000000000025900
  DW_CFA_advance_loc: 5 to 00000000000258e1
  DW_CFA_def_cfa_offset: 16
  DW_CFA_offset: r6 (rbp) at cfa-16
  DW_CFA_advance_loc: 3 to 00000000000258e4
  DW_CFA_def_cfa_register: r6 (rbp)
  DW_CFA_advance_loc: 27 to 00000000000258ff
  DW_CFA_def_cfa: r7 (rsp) ofs 8
  DW_CFA_nop
  DW_CFA_nop
  DW_CFA_nop

00001e10 000000000000001c 00001e14 FDE cie=00000000 pc=0000000000025900..0000000000025924
  DW_CFA_advance_loc: 5 to 0000000000025905
  DW_CFA_def_cfa_offset: 16
  DW_CFA_offset: r6 (rbp) at cfa-16
  DW_CFA_advance_loc: 3 to 0000000000025908
  DW_CFA_def_cfa_register: r6 (rbp)
  DW_CFA_advance_loc: 27 to 0000000000025923
  DW_CFA_def_cfa: r7 (rsp) ofs 8
  DW_CFA_nop
  DW_CFA_nop
  DW_CFA_nop

00001e30 000000000000001c 00001e34 FDE cie=00000000 pc=0000000000025924..000000000002596e
  DW_CFA_advance_loc: 5 to 0000000000025929
  DW_CFA_def_cfa_offset: 16
  DW_CFA_offset: r6 (rbp) at cfa-16
  DW_CFA_advance_loc: 3 to 000000000002592c
  DW_CFA_def_cfa_register: r6 (rbp)
  DW_CFA_advance_loc1: 65 to 000000000002596d
  DW_CFA_def_cfa: r7 (rsp) ofs 8
  DW_CFA_nop
  DW_CFA_nop

00001e50 000000000000001c 00001e54 FDE cie=00000000 pc=000000000002596e..000000000002599b
  DW_CFA_advance_loc: 5 to 0000000000025973
  DW_CFA_def_cfa_offset: 16
  DW_CFA_offset: r6 (rbp) at cfa-16
  DW_CFA_advance_loc: 3 to 0000000000025976
  DW_CFA_def_cfa_register: r6 (rbp)
  DW_CFA_advance_loc: 36 to 000000000002599a
  DW_CFA_def_cfa: r7 (rsp) ofs 8
  DW_CFA_nop
  DW_CFA_nop
  DW_CFA_nop

00001e70 000000000000001c 00001e74 FDE cie=00000000 pc=000000000002599b..00000000000259bf
  DW_CFA_advance_loc: 5 to 00000000000259a0
  DW_CFA_def_cfa_offset: 16
  DW_CFA_offset: r6 (rbp) at cfa-16
  DW_CFA_advance_loc: 3 to 00000000000259a3
  DW_CFA_def_cfa_register: r6 (rbp)
  DW_CFA_advance_loc: 27 to 00000000000259be
  DW_CFA_def_cfa: r7 (rsp) ofs 8
  DW_CFA_nop
  DW_CFA_nop
  DW_CFA_nop

00001e90 000000000000001c 00001e94 FDE cie=00000000 pc=00000000000259bf..0000000000025a07
  DW_CFA_advance_loc: 5 to 00000000000259c4
  DW_CFA_def_cfa_offset: 16
  DW_CFA_offset: r6 (rbp) at cfa-16
  DW_CFA_advance_loc: 3 to 00000000000259c7
  DW_CFA_def_cfa_register: r6 (rbp)
  DW_CFA_advance_loc: 63 to 0000000000025a06
  DW_CFA_def_cfa: r7 (rsp) ofs 8
  DW_CFA_nop
  DW_CFA_nop
  DW_CFA_nop

00001eb0 000000000000001c 00001eb4 FDE cie=00000000 pc=0000000000025a07..0000000000025a2a
  DW_CFA_advance_loc: 5 to 0000000000025a0c
  DW_CFA_def_cfa_offset: 16
  DW_CFA_offset: r6 (rbp) at cfa-16
  DW_CFA_advance_loc: 3 to 0000000000025a0f
  DW_CFA_def_cfa_register: r6 (rbp)
  DW_CFA_advance_loc: 26 to 0000000000025a29
  DW_CFA_def_cfa: r7 (rsp) ofs 8
  DW_CFA_nop
  DW_CFA_nop
  DW_CFA_nop

00001ed0 000000000000001c 00001ed4 FDE cie=00000000 pc=0000000000025a2a..0000000000025a4d
  DW_CFA_advance_loc: 5 to 0000000000025a2f
  DW_CFA_def_cfa_offset: 16
  DW_CFA_offset: r6 (rbp) at cfa-16
  DW_CFA_advance_loc: 3 to 0000000000025a32
  DW_CFA_def_cfa_register: r6 (rbp)
  DW_CFA_advance_loc: 26 to 0000000000025a4c
  DW_CFA_def_cfa: r7 (rsp) ofs 8
  DW_CFA_nop
  DW_CFA_nop
  DW_CFA_nop

00001ef0 000000000000001c 00001ef4 FDE cie=00000000 pc=0000000000025a4d..0000000000025af7
  DW_CFA_advance_loc: 5 to 0000000000025a52
  DW_CFA_def_cfa_offset: 16
  DW_CFA_offset: r6 (rbp) at cfa-16
  DW_CFA_advance_loc: 3 to 0000000000025a55
  DW_CFA_def_cfa_register: r6 (rbp)
  DW_CFA_advance_loc1: 161 to 0000000000025af6
  DW_CFA_def_cfa: r7 (rsp) ofs 8
  DW_CFA_nop
  DW_CFA_nop

00001f10 000000000000001c 00001f14 FDE cie=00000000 pc=0000000000025af7..0000000000025b1f
  DW_CFA_advance_loc: 5 to 0000000000025afc
  DW_CFA_def_cfa_offset: 16
  DW_CFA_offset: r6 (rbp) at cfa-16
  DW_CFA_advance_loc: 3 to 0000000000025aff
  DW_CFA_def_cfa_register: r6 (rbp)
  DW_CFA_advance_loc: 31 to 0000000000025b1e
  DW_CFA_def_cfa: r7 (rsp) ofs 8
  DW_CFA_nop
  DW_CFA_nop
  DW_CFA_nop

00001f30 000000000000001c 00001f34 FDE cie=00000000 pc=0000000000025b1f..0000000000025bd7
  DW_CFA_advance_loc: 5 to 0000000000025b24
  DW_CFA_def_cfa_offset: 16
  DW_CFA_offset: r6 (rbp) at cfa-16
  DW_CFA_advance_loc: 3 to 0000000000025b27
  DW_CFA_def_cfa_register: r6 (rbp)
  DW_CFA_advance_loc1: 175 to 0000000000025bd6
  DW_CFA_def_cfa: r7 (rsp) ofs 8
  DW_CFA_nop
  DW_CFA_nop

00001f50 000000000000001c 00001f54 FDE cie=00000000 pc=0000000000025bd7..0000000000025c05
  DW_CFA_advance_loc: 5 to 0000000000025bdc
  DW_CFA_def_cfa_offset: 16
  DW_CFA_offset: r6 (rbp) at cfa-16
  DW_CFA_advance_loc: 3 to 0000000000025bdf
  DW_CFA_def_cfa_register: r6 (rbp)
  DW_CFA_advance_loc: 37 to 0000000000025c04
  DW_CFA_def_cfa: r7 (rsp) ofs 8
  DW_CFA_nop
  DW_CFA_nop
  DW_CFA_nop

00001f70 000000000000001c 00001f74 FDE cie=00000000 pc=0000000000025c05..0000000000025c20
  DW_CFA_advance_loc: 5 to 0000000000025c0a
  DW_CFA_def_cfa_offset: 16
  DW_CFA_offset: r6 (rbp) at cfa-16
  DW_CFA_advance_loc: 3 to 0000000000025c0d
  DW_CFA_def_cfa_register: r6 (rbp)
  DW_CFA_advance_loc: 18 to 0000000000025c1f
  DW_CFA_def_cfa: r7 (rsp) ofs 8
  DW_CFA_nop
  DW_CFA_nop
  DW_CFA_nop

00001f90 000000000000001c 00001f94 FDE cie=00000000 pc=0000000000025c20..0000000000026b5c
  DW_CFA_advance_loc: 5 to 0000000000025c25
  DW_CFA_def_cfa_offset: 16
  DW_CFA_offset: r6 (rbp) at cfa-16
  DW_CFA_advance_loc: 3 to 0000000000025c28
  DW_CFA_def_cfa_register: r6 (rbp)
  DW_CFA_advance_loc2: 3891 to 0000000000026b5b
  DW_CFA_def_cfa: r7 (rsp) ofs 8
  DW_CFA_nop

00001fb0 0000000000000044 00001fb4 FDE cie=00000000 pc=0000000000026b60..0000000000026bc5
  DW_CFA_advance_loc: 6 to 0000000000026b66
  DW_CFA_def_cfa_offset: 16
  DW_CFA_offset: r15 (r15) at cfa-16
  DW_CFA_advance_loc: 9 to 0000000000026b6f
  DW_CFA_def_cfa_offset: 24
  DW_CFA_offset: r14 (r14) at cfa-24
  DW_CFA_advance_loc: 5 to 0000000000026b74
  DW_CFA_def_cfa_offset: 32
  DW_CFA_offset: r13 (r13) at cfa-32
  DW_CFA_advance_loc: 5 to 0000000000026b79
  DW_CFA_def_cfa_offset: 40
  DW_CFA_offset: r12 (r12) at cfa-40
  DW_CFA_advance_loc: 4 to 0000000000026b7d
  DW_CFA_def_cfa_offset: 48
  DW_CFA_offset: r6 (rbp) at cfa-48
  DW_CFA_advance_loc: 8 to 0000000000026b85
  DW_CFA_def_cfa_offset: 56
  DW_CFA_offset: r3 (rbx) at cfa-56
  DW_CFA_advance_loc: 7 to 0000000000026b8c
  DW_CFA_def_cfa_offset: 64
  DW_CFA_advance_loc: 46 to 0000000000026bba
  DW_CFA_def_cfa_offset: 56
  DW_CFA_advance_loc: 1 to 0000000000026bbb
  DW_CFA_def_cfa_offset: 48
  DW_CFA_advance_loc: 1 to 0000000000026bbc
  DW_CFA_def_cfa_offset: 40
  DW_CFA_advance_loc: 2 to 0000000000026bbe
  DW_CFA_def_cfa_offset: 32
  DW_CFA_advance_loc: 2 to 0000000000026bc0
  DW_CFA_def_cfa_offset: 24
  DW_CFA_advance_loc: 2 to 0000000000026bc2
  DW_CFA_def_cfa_offset: 16
  DW_CFA_advance_loc: 2 to 0000000000026bc4
  DW_CFA_def_cfa_offset: 8
  DW_CFA_nop

00001ff8 0000000000000014 00001ffc FDE cie=00000000 pc=0000000000026bd0..0000000000026bd5
  DW_CFA_nop
  DW_CFA_nop
  DW_CFA_nop
  DW_CFA_nop
  DW_CFA_nop
  DW_CFA_nop
  DW_CFA_nop

00002010 0000000000000010 00002014 FDE cie=00000000 pc=0000000000026be0..0000000000026bf2
  DW_CFA_nop
  DW_CFA_nop
  DW_CFA_nop

00002024 ZERO terminator


Contents of the .debug_aranges section (loaded from cksum_O0_debug):

  Length:                   44
  Version:                  2
  Offset into .debug_info:  0x0
  Pointer Size:             8
  Segment Size:             0

    Address            Length
    00000000000029a9 00000000000027db 
    0000000000000000 0000000000000000 
  Length:                   44
  Version:                  2
  Offset into .debug_info:  0x1ca3
  Pointer Size:             8
  Segment Size:             0

    Address            Length
    0000000000005184 0000000000005fba 
    0000000000000000 0000000000000000 
  Length:                   44
  Version:                  2
  Offset into .debug_info:  0x2688
  Pointer Size:             8
  Segment Size:             0

    Address            Length
    000000000000b13e 00000000000001ca 
    0000000000000000 0000000000000000 
  Length:                   44
  Version:                  2
  Offset into .debug_info:  0x2bd3
  Pointer Size:             8
  Segment Size:             0

    Address            Length
    000000000000b308 00000000000005ce 
    0000000000000000 0000000000000000 
  Length:                   44
  Version:                  2
  Offset into .debug_info:  0x33b9
  Pointer Size:             8
  Segment Size:             0

    Address            Length
    000000000000b8d6 00000000000007a3 
    0000000000000000 0000000000000000 
  Length:                   28
  Version:                  2
  Offset into .debug_info:  0x3c64
  Pointer Size:             8
  Segment Size:             0

    Address            Length
    0000000000000000 0000000000000000 
  Length:                   28
  Version:                  2
  Offset into .debug_info:  0x3d03
  Pointer Size:             8
  Segment Size:             0

    Address            Length
    0000000000000000 0000000000000000 
  Length:                   44
  Version:                  2
  Offset into .debug_info:  0x3d49
  Pointer Size:             8
  Segment Size:             0

    Address            Length
    000000000000c079 00000000000004ed 
    0000000000000000 0000000000000000 
  Length:                   44
  Version:                  2
  Offset into .debug_info:  0x44e1
  Pointer Size:             8
  Segment Size:             0

    Address            Length
    000000000000c566 000000000000012c 
    0000000000000000 0000000000000000 
  Length:                   44
  Version:                  2
  Offset into .debug_info:  0x4916
  Pointer Size:             8
  Segment Size:             0

    Address            Length
    000000000000c692 00000000000001f8 
    0000000000000000 0000000000000000 
  Length:                   44
  Version:                  2
  Offset into .debug_info:  0x4e5a
  Pointer Size:             8
  Segment Size:             0

    Address            Length
    000000000000c88a 0000000000001842 
    0000000000000000 0000000000000000 
  Length:                   44
  Version:                  2
  Offset into .debug_info:  0x5379
  Pointer Size:             8
  Segment Size:             0

    Address            Length
    000000000000e0cc 00000000000001f8 
    0000000000000000 0000000000000000 
  Length:                   44
  Version:                  2
  Offset into .debug_info:  0x58c8
  Pointer Size:             8
  Segment Size:             0

    Address            Length
    000000000000e2c4 0000000000001df3 
    0000000000000000 0000000000000000 
  Length:                   44
  Version:                  2
  Offset into .debug_info:  0x5df8
  Pointer Size:             8
  Segment Size:             0

    Address            Length
    00000000000100b7 00000000000002ad 
    0000000000000000 0000000000000000 
  Length:                   44
  Version:                  2
  Offset into .debug_info:  0x6471
  Pointer Size:             8
  Segment Size:             0

    Address            Length
    0000000000010364 0000000000004205 
    0000000000000000 0000000000000000 
  Length:                   44
  Version:                  2
  Offset into .debug_info:  0x6b76
  Pointer Size:             8
  Segment Size:             0

    Address            Length
    0000000000014569 00000000000002ad 
    0000000000000000 0000000000000000 
  Length:                   44
  Version:                  2
  Offset into .debug_info:  0x71fc
  Pointer Size:             8
  Segment Size:             0

    Address            Length
    0000000000014816 00000000000073e8 
    0000000000000000 0000000000000000 
  Length:                   44
  Version:                  2
  Offset into .debug_info:  0x89a9
  Pointer Size:             8
  Segment Size:             0

    Address            Length
    000000000001bbfe 00000000000001a2 
    0000000000000000 0000000000000000 
  Length:                   44
  Version:                  2
  Offset into .debug_info:  0x8e5c
  Pointer Size:             8
  Segment Size:             0

    Address            Length
    000000000001bda0 000000000000481e 
    0000000000000000 0000000000000000 
  Length:                   28
  Version:                  2
  Offset into .debug_info:  0x9435
  Pointer Size:             8
  Segment Size:             0

    Address            Length
    0000000000000000 0000000000000000 
  Length:                   44
  Version:                  2
  Offset into .debug_info:  0x94ca
  Pointer Size:             8
  Segment Size:             0

    Address            Length
    00000000000205be 0000000000000074 
    0000000000000000 0000000000000000 
  Length:                   44
  Version:                  2
  Offset into .debug_info:  0x98a1
  Pointer Size:             8
  Segment Size:             0

    Address            Length
    0000000000020632 00000000000000b9 
    0000000000000000 0000000000000000 
  Length:                   44
  Version:                  2
  Offset into .debug_info:  0x9c24
  Pointer Size:             8
  Segment Size:             0

    Address            Length
    00000000000206eb 0000000000000087 
    0000000000000000 0000000000000000 
  Length:                   44
  Version:                  2
  Offset into .debug_info:  0x9f75
  Pointer Size:             8
  Segment Size:             0

    Address            Length
    0000000000020772 00000000000000ea 
    0000000000000000 0000000000000000 
  Length:                   44
  Version:                  2
  Offset into .debug_info:  0xa392
  Pointer Size:             8
  Segment Size:             0

    Address            Length
    000000000002085c 0000000000000083 
    0000000000000000 0000000000000000 
  Length:                   44
  Version:                  2
  Offset into .debug_info:  0xa483
  Pointer Size:             8
  Segment Size:             0

    Address            Length
    00000000000208df 00000000000000be 
    0000000000000000 0000000000000000 
  Length:                   44
  Version:                  2
  Offset into .debug_info:  0xa7f0
  Pointer Size:             8
  Segment Size:             0

    Address            Length
    000000000002099d 0000000000000ee2 
    0000000000000000 0000000000000000 
  Length:                   44
  Version:                  2
  Offset into .debug_info:  0xb166
  Pointer Size:             8
  Segment Size:             0

    Address            Length
    000000000002187f 0000000000000089 
    0000000000000000 0000000000000000 
  Length:                   44
  Version:                  2
  Offset into .debug_info:  0xb247
  Pointer Size:             8
  Segment Size:             0

    Address            Length
    0000000000021908 00000000000000f5 
    0000000000000000 0000000000000000 
  Length:                   44
  Version:                  2
  Offset into .debug_info:  0xb5bc
  Pointer Size:             8
  Segment Size:             0

    Address            Length
    00000000000219fd 0000000000001f79 
    0000000000000000 0000000000000000 
  Length:                   44
  Version:                  2
  Offset into .debug_info:  0xca74
  Pointer Size:             8
  Segment Size:             0

    Address            Length
    0000000000023976 000000000000002a 
    0000000000000000 0000000000000000 
  Length:                   44
  Version:                  2
  Offset into .debug_info:  0xcb39
  Pointer Size:             8
  Segment Size:             0

    Address            Length
    00000000000239a0 00000000000008f3 
    0000000000000000 0000000000000000 
  Length:                   28
  Version:                  2
  Offset into .debug_info:  0xd110
  Pointer Size:             8
  Segment Size:             0

    Address            Length
    0000000000000000 0000000000000000 
  Length:                   44
  Version:                  2
  Offset into .debug_info:  0xd1ce
  Pointer Size:             8
  Segment Size:             0

    Address            Length
    0000000000024293 000000000000068b 
    0000000000000000 0000000000000000 
  Length:                   44
  Version:                  2
  Offset into .debug_info:  0xd9e3
  Pointer Size:             8
  Segment Size:             0

    Address            Length
    000000000002491e 0000000000000040 
    0000000000000000 0000000000000000 
  Length:                   44
  Version:                  2
  Offset into .debug_info:  0xdadd
  Pointer Size:             8
  Segment Size:             0

    Address            Length
    000000000002495e 0000000000000193 
    0000000000000000 0000000000000000 
  Length:                   44
  Version:                  2
  Offset into .debug_info:  0xdd69
  Pointer Size:             8
  Segment Size:             0

    Address            Length
    0000000000024af1 0000000000000535 
    0000000000000000 0000000000000000 
  Length:                   44
  Version:                  2
  Offset into .debug_info:  0xe13f
  Pointer Size:             8
  Segment Size:             0

    Address            Length
    0000000000025026 000000000000007a 
    0000000000000000 0000000000000000 
  Length:                   44
  Version:                  2
  Offset into .debug_info:  0xe242
  Pointer Size:             8
  Segment Size:             0

    Address            Length
    00000000000250a0 000000000000008f 
    0000000000000000 0000000000000000 
  Length:                   44
  Version:                  2
  Offset into .debug_info:  0xe59f
  Pointer Size:             8
  Segment Size:             0

    Address            Length
    000000000002512f 00000000000004a6 
    0000000000000000 0000000000000000 
  Length:                   44
  Version:                  2
  Offset into .debug_info:  0xe8c8
  Pointer Size:             8
  Segment Size:             0

    Address            Length
    00000000000255d5 00000000000000e7 
    0000000000000000 0000000000000000 
  Length:                   44
  Version:                  2
  Offset into .debug_info:  0xeb04
  Pointer Size:             8
  Segment Size:             0

    Address            Length
    00000000000256bc 0000000000000048 
    0000000000000000 0000000000000000 
  Length:                   44
  Version:                  2
  Offset into .debug_info:  0xf868
  Pointer Size:             8
  Segment Size:             0

    Address            Length
    0000000000025704 00000000000000aa 
    0000000000000000 0000000000000000 
  Length:                   44
  Version:                  2
  Offset into .debug_info:  0xfa5f
  Pointer Size:             8
  Segment Size:             0

    Address            Length
    00000000000257ae 000000000000029f 
    0000000000000000 0000000000000000 
  Length:                   44
  Version:                  2
  Offset into .debug_info:  0xfd77
  Pointer Size:             8
  Segment Size:             0

    Address            Length
    0000000000025a4d 00000000000000aa 
    0000000000000000 0000000000000000 
  Length:                   44
  Version:                  2
  Offset into .debug_info:  0xfe85
  Pointer Size:             8
  Segment Size:             0

    Address            Length
    0000000000025af7 0000000000000129 
    0000000000000000 0000000000000000 
  Length:                   44
  Version:                  2
  Offset into .debug_info:  0x100c4
  Pointer Size:             8
  Segment Size:             0

    Address            Length
    0000000000025c20 0000000000000f3c 
    0000000000000000 0000000000000000 

Contents of the .debug_info section (loaded from cksum_O0_debug):

  Compilation Unit @ offset 0x0:
   Length:        0x1c9f (32-bit)
   Version:       4
   Abbrev Offset: 0x0
   Pointer Size:  8
 <0><b>: Abbrev Number: 1 (DW_TAG_compile_unit)
    <c>   DW_AT_producer    : (indirect string, offset: 0x2c7): GNU C17 11.1.0 -mtune=generic -march=x86-64 -g -O0 -fasynchronous-unwind-tables -fstack-protector-strong -fstack-clash-protection -fcf-protection
    <10>   DW_AT_language    : 12	(ANSI C99)
    <11>   DW_AT_name        : (indirect string, offset: 0x7f1): src/digest.c
    <15>   DW_AT_comp_dir    : (indirect string, offset: 0xa27): /home/jacekline/dev/research/programs/coreutils-9.1
    <19>   DW_AT_low_pc      : 0x29a9
    <21>   DW_AT_high_pc     : 0x27db
    <29>   DW_AT_stmt_list   : 0x0
 <1><2d>: Abbrev Number: 2 (DW_TAG_variable)
    <2e>   DW_AT_name        : (indirect string, offset: 0xbb8): optarg
    <32>   DW_AT_decl_file   : 3
    <33>   DW_AT_decl_line   : 36
    <34>   DW_AT_decl_column : 14
    <35>   DW_AT_type        : <0x39>
    <39>   DW_AT_external    : 1
    <39>   DW_AT_declaration : 1
 <1><39>: Abbrev Number: 3 (DW_TAG_pointer_type)
    <3a>   DW_AT_byte_size   : 8
    <3b>   DW_AT_type        : <0x49>
 <1><3f>: Abbrev Number: 4 (DW_TAG_const_type)
    <40>   DW_AT_type        : <0x39>
 <1><44>: Abbrev Number: 5 (DW_TAG_restrict_type)
    <45>   DW_AT_type        : <0x39>
 <1><49>: Abbrev Number: 6 (DW_TAG_base_type)
    <4a>   DW_AT_byte_size   : 1
    <4b>   DW_AT_encoding    : 6	(signed char)
    <4c>   DW_AT_name        : (indirect string, offset: 0x25a): char
 <1><50>: Abbrev Number: 4 (DW_TAG_const_type)
    <51>   DW_AT_type        : <0x49>
 <1><55>: Abbrev Number: 2 (DW_TAG_variable)
    <56>   DW_AT_name        : (indirect string, offset: 0x5aa): optind
    <5a>   DW_AT_decl_file   : 3
    <5b>   DW_AT_decl_line   : 50
    <5c>   DW_AT_decl_column : 12
    <5d>   DW_AT_type        : <0x61>
    <61>   DW_AT_external    : 1
    <61>   DW_AT_declaration : 1
 <1><61>: Abbrev Number: 7 (DW_TAG_base_type)
    <62>   DW_AT_byte_size   : 4
    <63>   DW_AT_encoding    : 5	(signed)
    <64>   DW_AT_name        : int
 <1><68>: Abbrev Number: 4 (DW_TAG_const_type)
    <69>   DW_AT_type        : <0x61>
 <1><6d>: Abbrev Number: 8 (DW_TAG_structure_type)
    <6e>   DW_AT_name        : (indirect string, offset: 0x607): option
    <72>   DW_AT_byte_size   : 32
    <73>   DW_AT_decl_file   : 4
    <74>   DW_AT_decl_line   : 50
    <75>   DW_AT_decl_column : 8
    <76>   DW_AT_sibling     : <0xaf>
 <2><7a>: Abbrev Number: 9 (DW_TAG_member)
    <7b>   DW_AT_name        : (indirect string, offset: 0x2210): name
    <7f>   DW_AT_decl_file   : 4
    <80>   DW_AT_decl_line   : 52
    <81>   DW_AT_decl_column : 15
    <82>   DW_AT_type        : <0xb4>
    <86>   DW_AT_data_member_location: 0
 <2><87>: Abbrev Number: 9 (DW_TAG_member)
    <88>   DW_AT_name        : (indirect string, offset: 0x1dd): has_arg
    <8c>   DW_AT_decl_file   : 4
    <8d>   DW_AT_decl_line   : 55
    <8e>   DW_AT_decl_column : 7
    <8f>   DW_AT_type        : <0x61>
    <93>   DW_AT_data_member_location: 8
 <2><94>: Abbrev Number: 9 (DW_TAG_member)
    <95>   DW_AT_name        : (indirect string, offset: 0x7d5): flag
    <99>   DW_AT_decl_file   : 4
    <9a>   DW_AT_decl_line   : 56
    <9b>   DW_AT_decl_column : 8
    <9c>   DW_AT_type        : <0xc4>
    <a0>   DW_AT_data_member_location: 16
 <2><a1>: Abbrev Number: 10 (DW_TAG_member)
    <a2>   DW_AT_name        : val
    <a6>   DW_AT_decl_file   : 4
    <a7>   DW_AT_decl_line   : 57
    <a8>   DW_AT_decl_column : 7
    <a9>   DW_AT_type        : <0x61>
    <ad>   DW_AT_data_member_location: 24
 <2><ae>: Abbrev Number: 0
 <1><af>: Abbrev Number: 4 (DW_TAG_const_type)
    <b0>   DW_AT_type        : <0x6d>
 <1><b4>: Abbrev Number: 3 (DW_TAG_pointer_type)
    <b5>   DW_AT_byte_size   : 8
    <b6>   DW_AT_type        : <0x50>
 <1><ba>: Abbrev Number: 4 (DW_TAG_const_type)
    <bb>   DW_AT_type        : <0xb4>
 <1><bf>: Abbrev Number: 5 (DW_TAG_restrict_type)
    <c0>   DW_AT_type        : <0xb4>
 <1><c4>: Abbrev Number: 3 (DW_TAG_pointer_type)
    <c5>   DW_AT_byte_size   : 8
    <c6>   DW_AT_type        : <0x61>
 <1><ca>: Abbrev Number: 6 (DW_TAG_base_type)
    <cb>   DW_AT_byte_size   : 1
    <cc>   DW_AT_encoding    : 8	(unsigned char)
    <cd>   DW_AT_name        : (indirect string, offset: 0x251): unsigned char
 <1><d1>: Abbrev Number: 4 (DW_TAG_const_type)
    <d2>   DW_AT_type        : <0xca>
 <1><d6>: Abbrev Number: 6 (DW_TAG_base_type)
    <d7>   DW_AT_byte_size   : 2
    <d8>   DW_AT_encoding    : 7	(unsigned)
    <d9>   DW_AT_name        : (indirect string, offset: 0xbd5): short unsigned int
 <1><dd>: Abbrev Number: 4 (DW_TAG_const_type)
    <de>   DW_AT_type        : <0xd6>
 <1><e2>: Abbrev Number: 6 (DW_TAG_base_type)
    <e3>   DW_AT_byte_size   : 4
    <e4>   DW_AT_encoding    : 7	(unsigned)
    <e5>   DW_AT_name        : (indirect string, offset: 0x8d6): unsigned int
 <1><e9>: Abbrev Number: 6 (DW_TAG_base_type)
    <ea>   DW_AT_byte_size   : 8
    <eb>   DW_AT_encoding    : 7	(unsigned)
    <ec>   DW_AT_name        : (indirect string, offset: 0x8d1): long unsigned int
 <1><f0>: Abbrev Number: 6 (DW_TAG_base_type)
    <f1>   DW_AT_byte_size   : 1
    <f2>   DW_AT_encoding    : 6	(signed char)
    <f3>   DW_AT_name        : (indirect string, offset: 0x253): signed char
 <1><f7>: Abbrev Number: 6 (DW_TAG_base_type)
    <f8>   DW_AT_byte_size   : 2
    <f9>   DW_AT_encoding    : 5	(signed)
    <fa>   DW_AT_name        : (indirect string, offset: 0xa6c): short int
 <1><fe>: Abbrev Number: 6 (DW_TAG_base_type)
    <ff>   DW_AT_byte_size   : 8
    <100>   DW_AT_encoding    : 5	(signed)
    <101>   DW_AT_name        : (indirect string, offset: 0x6bd): long int
 <1><105>: Abbrev Number: 11 (DW_TAG_typedef)
    <106>   DW_AT_name        : (indirect string, offset: 0xb13): __uintmax_t
    <10a>   DW_AT_decl_file   : 5
    <10b>   DW_AT_decl_line   : 73
    <10c>   DW_AT_decl_column : 27
    <10d>   DW_AT_type        : <0xe9>
 <1><111>: Abbrev Number: 11 (DW_TAG_typedef)
    <112>   DW_AT_name        : (indirect string, offset: 0x904): __off_t
    <116>   DW_AT_decl_file   : 5
    <117>   DW_AT_decl_line   : 152
    <118>   DW_AT_decl_column : 25
    <119>   DW_AT_type        : <0xfe>
 <1><11d>: Abbrev Number: 11 (DW_TAG_typedef)
    <11e>   DW_AT_name        : (indirect string, offset: 0x9e8): __off64_t
    <122>   DW_AT_decl_file   : 5
    <123>   DW_AT_decl_line   : 153
    <124>   DW_AT_decl_column : 27
    <125>   DW_AT_type        : <0xfe>
 <1><129>: Abbrev Number: 11 (DW_TAG_typedef)
    <12a>   DW_AT_name        : (indirect string, offset: 0x97f): __time_t
    <12e>   DW_AT_decl_file   : 5
    <12f>   DW_AT_decl_line   : 160
    <130>   DW_AT_decl_column : 26
    <131>   DW_AT_type        : <0xfe>
 <1><135>: Abbrev Number: 12 (DW_TAG_pointer_type)
    <136>   DW_AT_byte_size   : 8
 <1><137>: Abbrev Number: 11 (DW_TAG_typedef)
    <138>   DW_AT_name        : (indirect string, offset: 0x6d): __ssize_t
    <13c>   DW_AT_decl_file   : 5
    <13d>   DW_AT_decl_line   : 193
    <13e>   DW_AT_decl_column : 27
    <13f>   DW_AT_type        : <0xfe>
 <1><143>: Abbrev Number: 11 (DW_TAG_typedef)
    <144>   DW_AT_name        : (indirect string, offset: 0x6f): ssize_t
    <148>   DW_AT_decl_file   : 6
    <149>   DW_AT_decl_line   : 108
    <14a>   DW_AT_decl_column : 19
    <14b>   DW_AT_type        : <0x137>
 <1><14f>: Abbrev Number: 11 (DW_TAG_typedef)
    <150>   DW_AT_name        : (indirect string, offset: 0x981): time_t
    <154>   DW_AT_decl_file   : 7
    <155>   DW_AT_decl_line   : 7
    <156>   DW_AT_decl_column : 18
    <157>   DW_AT_type        : <0x129>
 <1><15b>: Abbrev Number: 11 (DW_TAG_typedef)
    <15c>   DW_AT_name        : (indirect string, offset: 0x70): size_t
    <160>   DW_AT_decl_file   : 8
    <161>   DW_AT_decl_line   : 209
    <162>   DW_AT_decl_column : 23
    <163>   DW_AT_type        : <0xe9>
 <1><167>: Abbrev Number: 6 (DW_TAG_base_type)
    <168>   DW_AT_byte_size   : 8
    <169>   DW_AT_encoding    : 7	(unsigned)
    <16a>   DW_AT_name        : (indirect string, offset: 0x8cc): long long unsigned int
 <1><16e>: Abbrev Number: 6 (DW_TAG_base_type)
    <16f>   DW_AT_byte_size   : 8
    <170>   DW_AT_encoding    : 5	(signed)
    <171>   DW_AT_name        : (indirect string, offset: 0x6b8): long long int
 <1><175>: Abbrev Number: 3 (DW_TAG_pointer_type)
    <176>   DW_AT_byte_size   : 8
    <177>   DW_AT_type        : <0xdd>
 <1><17b>: Abbrev Number: 11 (DW_TAG_typedef)
    <17c>   DW_AT_name        : (indirect string, offset: 0x47c): ptrdiff_t
    <180>   DW_AT_decl_file   : 8
    <181>   DW_AT_decl_line   : 143
    <182>   DW_AT_decl_column : 26
    <183>   DW_AT_type        : <0xfe>
 <1><187>: Abbrev Number: 6 (DW_TAG_base_type)
    <188>   DW_AT_byte_size   : 16
    <189>   DW_AT_encoding    : 4	(float)
    <18a>   DW_AT_name        : (indirect string, offset: 0x86f): long double
 <1><18e>: Abbrev Number: 13 (DW_TAG_subroutine_type)
    <18f>   DW_AT_prototyped  : 1
 <1><18f>: Abbrev Number: 3 (DW_TAG_pointer_type)
    <190>   DW_AT_byte_size   : 8
    <191>   DW_AT_type        : <0x18e>
 <1><195>: Abbrev Number: 3 (DW_TAG_pointer_type)
    <196>   DW_AT_byte_size   : 8
    <197>   DW_AT_type        : <0x39>
 <1><19b>: Abbrev Number: 5 (DW_TAG_restrict_type)
    <19c>   DW_AT_type        : <0x195>
 <1><1a0>: Abbrev Number: 3 (DW_TAG_pointer_type)
    <1a1>   DW_AT_byte_size   : 8
    <1a2>   DW_AT_type        : <0x1a6>
 <1><1a6>: Abbrev Number: 14 (DW_TAG_const_type)
 <1><1a7>: Abbrev Number: 2 (DW_TAG_variable)
    <1a8>   DW_AT_name        : (indirect string, offset: 0x6c6): Version
    <1ac>   DW_AT_decl_file   : 9
    <1ad>   DW_AT_decl_line   : 1
    <1ae>   DW_AT_decl_column : 20
    <1af>   DW_AT_type        : <0xb4>
    <1b3>   DW_AT_external    : 1
    <1b3>   DW_AT_declaration : 1
 <1><1b3>: Abbrev Number: 11 (DW_TAG_typedef)
    <1b4>   DW_AT_name        : (indirect string, offset: 0xb15): uintmax_t
    <1b8>   DW_AT_decl_file   : 10
    <1b9>   DW_AT_decl_line   : 102
    <1ba>   DW_AT_decl_column : 22
    <1bb>   DW_AT_type        : <0x105>
 <1><1bf>: Abbrev Number: 15 (DW_TAG_enumeration_type)
    <1c0>   DW_AT_encoding    : 7	(unsigned)
    <1c1>   DW_AT_byte_size   : 4
    <1c2>   DW_AT_type        : <0xe2>
    <1c6>   DW_AT_decl_file   : 11
    <1c7>   DW_AT_decl_line   : 41
    <1c8>   DW_AT_decl_column : 6
    <1c9>   DW_AT_sibling     : <0x1d7>
 <2><1cd>: Abbrev Number: 16 (DW_TAG_enumerator)
    <1ce>   DW_AT_name        : (indirect string, offset: 0x833): TIMESPEC_HZ
    <1d2>   DW_AT_const_value : 0x3b9aca00
 <2><1d6>: Abbrev Number: 0
 <1><1d7>: Abbrev Number: 15 (DW_TAG_enumeration_type)
    <1d8>   DW_AT_encoding    : 7	(unsigned)
    <1d9>   DW_AT_byte_size   : 4
    <1da>   DW_AT_type        : <0xe2>
    <1de>   DW_AT_decl_file   : 11
    <1df>   DW_AT_decl_line   : 42
    <1e0>   DW_AT_decl_column : 6
    <1e1>   DW_AT_sibling     : <0x1ec>
 <2><1e5>: Abbrev Number: 17 (DW_TAG_enumerator)
    <1e6>   DW_AT_name        : (indirect string, offset: 0x82d): LOG10_TIMESPEC_HZ
    <1ea>   DW_AT_const_value : 9
 <2><1eb>: Abbrev Number: 0
 <1><1ec>: Abbrev Number: 15 (DW_TAG_enumeration_type)
    <1ed>   DW_AT_encoding    : 7	(unsigned)
    <1ee>   DW_AT_byte_size   : 4
    <1ef>   DW_AT_type        : <0xe2>
    <1f3>   DW_AT_decl_file   : 12
    <1f4>   DW_AT_decl_line   : 47
    <1f5>   DW_AT_decl_column : 1
    <1f6>   DW_AT_sibling     : <0x24b>
 <2><1fa>: Abbrev Number: 18 (DW_TAG_enumerator)
    <1fb>   DW_AT_name        : (indirect string, offset: 0x6ce): _ISupper
    <1ff>   DW_AT_const_value : 256
 <2><201>: Abbrev Number: 18 (DW_TAG_enumerator)
    <202>   DW_AT_name        : (indirect string, offset: 0xa15): _ISlower
    <206>   DW_AT_const_value : 512
 <2><208>: Abbrev Number: 18 (DW_TAG_enumerator)
    <209>   DW_AT_name        : (indirect string, offset: 0x895): _ISalpha
    <20d>   DW_AT_const_value : 1024
 <2><20f>: Abbrev Number: 18 (DW_TAG_enumerator)
    <210>   DW_AT_name        : (indirect string, offset: 0xbbf): _ISdigit
    <214>   DW_AT_const_value : 2048
 <2><216>: Abbrev Number: 18 (DW_TAG_enumerator)
    <217>   DW_AT_name        : (indirect string, offset: 0x632): _ISxdigit
    <21b>   DW_AT_const_value : 4096
 <2><21d>: Abbrev Number: 18 (DW_TAG_enumerator)
    <21e>   DW_AT_name        : (indirect string, offset: 0x951): _ISspace
    <222>   DW_AT_const_value : 8192
 <2><224>: Abbrev Number: 18 (DW_TAG_enumerator)
    <225>   DW_AT_name        : (indirect string, offset: 0x1f0): _ISprint
    <229>   DW_AT_const_value : 16384
 <2><22b>: Abbrev Number: 18 (DW_TAG_enumerator)
    <22c>   DW_AT_name        : (indirect string, offset: 0x64): _ISgraph
    <230>   DW_AT_const_value : 32768
 <2><232>: Abbrev Number: 17 (DW_TAG_enumerator)
    <233>   DW_AT_name        : (indirect string, offset: 0x8fb): _ISblank
    <237>   DW_AT_const_value : 1
 <2><238>: Abbrev Number: 17 (DW_TAG_enumerator)
    <239>   DW_AT_name        : (indirect string, offset: 0x711): _IScntrl
    <23d>   DW_AT_const_value : 2
 <2><23e>: Abbrev Number: 17 (DW_TAG_enumerator)
    <23f>   DW_AT_name        : (indirect string, offset: 0x4c4): _ISpunct
    <243>   DW_AT_const_value : 4
 <2><244>: Abbrev Number: 17 (DW_TAG_enumerator)
    <245>   DW_AT_name        : (indirect string, offset: 0x923): _ISalnum
    <249>   DW_AT_const_value : 8
 <2><24a>: Abbrev Number: 0
 <1><24b>: Abbrev Number: 8 (DW_TAG_structure_type)
    <24c>   DW_AT_name        : (indirect string, offset: 0x225): _IO_FILE
    <250>   DW_AT_byte_size   : 216
    <251>   DW_AT_decl_file   : 13
    <252>   DW_AT_decl_line   : 49
    <253>   DW_AT_decl_column : 8
    <254>   DW_AT_sibling     : <0x3d2>
 <2><258>: Abbrev Number: 9 (DW_TAG_member)
    <259>   DW_AT_name        : (indirect string, offset: 0x1e86): _flags
    <25d>   DW_AT_decl_file   : 13
    <25e>   DW_AT_decl_line   : 51
    <25f>   DW_AT_decl_column : 7
    <260>   DW_AT_type        : <0x61>
    <264>   DW_AT_data_member_location: 0
 <2><265>: Abbrev Number: 9 (DW_TAG_member)
    <266>   DW_AT_name        : (indirect string, offset: 0x462): _IO_read_ptr
    <26a>   DW_AT_decl_file   : 13
    <26b>   DW_AT_decl_line   : 54
    <26c>   DW_AT_decl_column : 9
    <26d>   DW_AT_type        : <0x39>
    <271>   DW_AT_data_member_location: 8
 <2><272>: Abbrev Number: 9 (DW_TAG_member)
    <273>   DW_AT_name        : (indirect string, offset: 0xb53): _IO_read_end
    <277>   DW_AT_decl_file   : 13
    <278>   DW_AT_decl_line   : 55
    <279>   DW_AT_decl_column : 9
    <27a>   DW_AT_type        : <0x39>
    <27e>   DW_AT_data_member_location: 16
 <2><27f>: Abbrev Number: 9 (DW_TAG_member)
    <280>   DW_AT_name        : (indirect string, offset: 0x5f9): _IO_read_base
    <284>   DW_AT_decl_file   : 13
    <285>   DW_AT_decl_line   : 56
    <286>   DW_AT_decl_column : 9
    <287>   DW_AT_type        : <0x39>
    <28b>   DW_AT_data_member_location: 24
 <2><28c>: Abbrev Number: 9 (DW_TAG_member)
    <28d>   DW_AT_name        : (indirect string, offset: 0xe4): _IO_write_base
    <291>   DW_AT_decl_file   : 13
    <292>   DW_AT_decl_line   : 57
    <293>   DW_AT_decl_column : 9
    <294>   DW_AT_type        : <0x39>
    <298>   DW_AT_data_member_location: 32
 <2><299>: Abbrev Number: 9 (DW_TAG_member)
    <29a>   DW_AT_name        : (indirect string, offset: 0xc0a): _IO_write_ptr
    <29e>   DW_AT_decl_file   : 13
    <29f>   DW_AT_decl_line   : 58
    <2a0>   DW_AT_decl_column : 9
    <2a1>   DW_AT_type        : <0x39>
    <2a5>   DW_AT_data_member_location: 40
 <2><2a6>: Abbrev Number: 9 (DW_TAG_member)
    <2a7>   DW_AT_name        : (indirect string, offset: 0x71a): _IO_write_end
    <2ab>   DW_AT_decl_file   : 13
    <2ac>   DW_AT_decl_line   : 59
    <2ad>   DW_AT_decl_column : 9
    <2ae>   DW_AT_type        : <0x39>
    <2b2>   DW_AT_data_member_location: 48
 <2><2b3>: Abbrev Number: 9 (DW_TAG_member)
    <2b4>   DW_AT_name        : (indirect string, offset: 0x76e): _IO_buf_base
    <2b8>   DW_AT_decl_file   : 13
    <2b9>   DW_AT_decl_line   : 60
    <2ba>   DW_AT_decl_column : 9
    <2bb>   DW_AT_type        : <0x39>
    <2bf>   DW_AT_data_member_location: 56
 <2><2c0>: Abbrev Number: 9 (DW_TAG_member)
    <2c1>   DW_AT_name        : (indirect string, offset: 0xa01): _IO_buf_end
    <2c5>   DW_AT_decl_file   : 13
    <2c6>   DW_AT_decl_line   : 61
    <2c7>   DW_AT_decl_column : 9
    <2c8>   DW_AT_type        : <0x39>
    <2cc>   DW_AT_data_member_location: 64
 <2><2cd>: Abbrev Number: 9 (DW_TAG_member)
    <2ce>   DW_AT_name        : (indirect string, offset: 0x143): _IO_save_base
    <2d2>   DW_AT_decl_file   : 13
    <2d3>   DW_AT_decl_line   : 64
    <2d4>   DW_AT_decl_column : 9
    <2d5>   DW_AT_type        : <0x39>
    <2d9>   DW_AT_data_member_location: 72
 <2><2da>: Abbrev Number: 9 (DW_TAG_member)
    <2db>   DW_AT_name        : (indirect string, offset: 0x98f): _IO_backup_base
    <2df>   DW_AT_decl_file   : 13
    <2e0>   DW_AT_decl_line   : 65
    <2e1>   DW_AT_decl_column : 9
    <2e2>   DW_AT_type        : <0x39>
    <2e6>   DW_AT_data_member_location: 80
 <2><2e7>: Abbrev Number: 9 (DW_TAG_member)
    <2e8>   DW_AT_name        : (indirect string, offset: 0xba): _IO_save_end
    <2ec>   DW_AT_decl_file   : 13
    <2ed>   DW_AT_decl_line   : 66
    <2ee>   DW_AT_decl_column : 9
    <2ef>   DW_AT_type        : <0x39>
    <2f3>   DW_AT_data_member_location: 88
 <2><2f4>: Abbrev Number: 9 (DW_TAG_member)
    <2f5>   DW_AT_name        : (indirect string, offset: 0x4bb): _markers
    <2f9>   DW_AT_decl_file   : 13
    <2fa>   DW_AT_decl_line   : 68
    <2fb>   DW_AT_decl_column : 22
    <2fc>   DW_AT_type        : <0x3eb>
    <300>   DW_AT_data_member_location: 96
 <2><301>: Abbrev Number: 9 (DW_TAG_member)
    <302>   DW_AT_name        : (indirect string, offset: 0x189): _chain
    <306>   DW_AT_decl_file   : 13
    <307>   DW_AT_decl_line   : 70
    <308>   DW_AT_decl_column : 20
    <309>   DW_AT_type        : <0x3f1>
    <30d>   DW_AT_data_member_location: 104
 <2><30e>: Abbrev Number: 9 (DW_TAG_member)
    <30f>   DW_AT_name        : (indirect string, offset: 0xbb0): _fileno
    <313>   DW_AT_decl_file   : 13
    <314>   DW_AT_decl_line   : 72
    <315>   DW_AT_decl_column : 7
    <316>   DW_AT_type        : <0x61>
    <31a>   DW_AT_data_member_location: 112
 <2><31b>: Abbrev Number: 9 (DW_TAG_member)
    <31c>   DW_AT_name        : (indirect string, offset: 0x5df): _flags2
    <320>   DW_AT_decl_file   : 13
    <321>   DW_AT_decl_line   : 73
    <322>   DW_AT_decl_column : 7
    <323>   DW_AT_type        : <0x61>
    <327>   DW_AT_data_member_location: 116
 <2><328>: Abbrev Number: 9 (DW_TAG_member)
    <329>   DW_AT_name        : (indirect string, offset: 0x64e): _old_offset
    <32d>   DW_AT_decl_file   : 13
    <32e>   DW_AT_decl_line   : 74
    <32f>   DW_AT_decl_column : 11
    <330>   DW_AT_type        : <0x111>
    <334>   DW_AT_data_member_location: 120
 <2><335>: Abbrev Number: 9 (DW_TAG_member)
    <336>   DW_AT_name        : (indirect string, offset: 0x190): _cur_column
    <33a>   DW_AT_decl_file   : 13
    <33b>   DW_AT_decl_line   : 77
    <33c>   DW_AT_decl_column : 18
    <33d>   DW_AT_type        : <0xd6>
    <341>   DW_AT_data_member_location: 128
 <2><342>: Abbrev Number: 9 (DW_TAG_member)
    <343>   DW_AT_name        : (indirect string, offset: 0xaea): _vtable_offset
    <347>   DW_AT_decl_file   : 13
    <348>   DW_AT_decl_line   : 78
    <349>   DW_AT_decl_column : 15
    <34a>   DW_AT_type        : <0xf0>
    <34e>   DW_AT_data_member_location: 130
 <2><34f>: Abbrev Number: 9 (DW_TAG_member)
    <350>   DW_AT_name        : (indirect string, offset: 0x9a9): _shortbuf
    <354>   DW_AT_decl_file   : 13
    <355>   DW_AT_decl_line   : 79
    <356>   DW_AT_decl_column : 8
    <357>   DW_AT_type        : <0x3f7>
    <35b>   DW_AT_data_member_location: 131
 <2><35c>: Abbrev Number: 9 (DW_TAG_member)
    <35d>   DW_AT_name        : (indirect string, offset: 0xfb): _lock
    <361>   DW_AT_decl_file   : 13
    <362>   DW_AT_decl_line   : 81
    <363>   DW_AT_decl_column : 15
    <364>   DW_AT_type        : <0x407>
    <368>   DW_AT_data_member_location: 136
 <2><369>: Abbrev Number: 9 (DW_TAG_member)
    <36a>   DW_AT_name        : (indirect string, offset: 0x652): _offset
    <36e>   DW_AT_decl_file   : 13
    <36f>   DW_AT_decl_line   : 89
    <370>   DW_AT_decl_column : 13
    <371>   DW_AT_type        : <0x11d>
    <375>   DW_AT_data_member_location: 144
 <2><376>: Abbrev Number: 9 (DW_TAG_member)
    <377>   DW_AT_name        : (indirect string, offset: 0x7a): _codecvt
    <37b>   DW_AT_decl_file   : 13
    <37c>   DW_AT_decl_line   : 91
    <37d>   DW_AT_decl_column : 23
    <37e>   DW_AT_type        : <0x412>
    <382>   DW_AT_data_member_location: 152
 <2><383>: Abbrev Number: 9 (DW_TAG_member)
    <384>   DW_AT_name        : (indirect string, offset: 0x231): _wide_data
    <388>   DW_AT_decl_file   : 13
    <389>   DW_AT_decl_line   : 92
    <38a>   DW_AT_decl_column : 25
    <38b>   DW_AT_type        : <0x41d>
    <38f>   DW_AT_data_member_location: 160
 <2><390>: Abbrev Number: 9 (DW_TAG_member)
    <391>   DW_AT_name        : (indirect string, offset: 0x25f): _freeres_list
    <395>   DW_AT_decl_file   : 13
    <396>   DW_AT_decl_line   : 93
    <397>   DW_AT_decl_column : 20
    <398>   DW_AT_type        : <0x3f1>
    <39c>   DW_AT_data_member_location: 168
 <2><39d>: Abbrev Number: 9 (DW_TAG_member)
    <39e>   DW_AT_name        : (indirect string, offset: 0x944): _freeres_buf
    <3a2>   DW_AT_decl_file   : 13
    <3a3>   DW_AT_decl_line   : 94
    <3a4>   DW_AT_decl_column : 9
    <3a5>   DW_AT_type        : <0x135>
    <3a9>   DW_AT_data_member_location: 176
 <2><3aa>: Abbrev Number: 9 (DW_TAG_member)
    <3ab>   DW_AT_name        : (indirect string, offset: 0x7c6): __pad5
    <3af>   DW_AT_decl_file   : 13
    <3b0>   DW_AT_decl_line   : 95
    <3b1>   DW_AT_decl_column : 10
    <3b2>   DW_AT_type        : <0x15b>
    <3b6>   DW_AT_data_member_location: 184
 <2><3b7>: Abbrev Number: 9 (DW_TAG_member)
    <3b8>   DW_AT_name        : (indirect string, offset: 0x818): _mode
    <3bc>   DW_AT_decl_file   : 13
    <3bd>   DW_AT_decl_line   : 96
    <3be>   DW_AT_decl_column : 7
    <3bf>   DW_AT_type        : <0x61>
    <3c3>   DW_AT_data_member_location: 192
 <2><3c4>: Abbrev Number: 9 (DW_TAG_member)
    <3c5>   DW_AT_name        : (indirect string, offset: 0x60e): _unused2
    <3c9>   DW_AT_decl_file   : 13
    <3ca>   DW_AT_decl_line   : 98
    <3cb>   DW_AT_decl_column : 8
    <3cc>   DW_AT_type        : <0x423>
    <3d0>   DW_AT_data_member_location: 196
 <2><3d1>: Abbrev Number: 0
 <1><3d2>: Abbrev Number: 11 (DW_TAG_typedef)
    <3d3>   DW_AT_name        : (indirect string, offset: 0x229): FILE
    <3d7>   DW_AT_decl_file   : 14
    <3d8>   DW_AT_decl_line   : 7
    <3d9>   DW_AT_decl_column : 25
    <3da>   DW_AT_type        : <0x24b>
 <1><3de>: Abbrev Number: 19 (DW_TAG_typedef)
    <3df>   DW_AT_name        : (indirect string, offset: 0x3ed): _IO_lock_t
    <3e3>   DW_AT_decl_file   : 13
    <3e4>   DW_AT_decl_line   : 43
    <3e5>   DW_AT_decl_column : 14
 <1><3e6>: Abbrev Number: 20 (DW_TAG_structure_type)
    <3e7>   DW_AT_name        : (indirect string, offset: 0x1e5): _IO_marker
    <3eb>   DW_AT_declaration : 1
 <1><3eb>: Abbrev Number: 3 (DW_TAG_pointer_type)
    <3ec>   DW_AT_byte_size   : 8
    <3ed>   DW_AT_type        : <0x3e6>
 <1><3f1>: Abbrev Number: 3 (DW_TAG_pointer_type)
    <3f2>   DW_AT_byte_size   : 8
    <3f3>   DW_AT_type        : <0x24b>
 <1><3f7>: Abbrev Number: 21 (DW_TAG_array_type)
    <3f8>   DW_AT_type        : <0x49>
    <3fc>   DW_AT_sibling     : <0x407>
 <2><400>: Abbrev Number: 22 (DW_TAG_subrange_type)
    <401>   DW_AT_type        : <0xe9>
    <405>   DW_AT_upper_bound : 0
 <2><406>: Abbrev Number: 0
 <1><407>: Abbrev Number: 3 (DW_TAG_pointer_type)
    <408>   DW_AT_byte_size   : 8
    <409>   DW_AT_type        : <0x3de>
 <1><40d>: Abbrev Number: 20 (DW_TAG_structure_type)
    <40e>   DW_AT_name        : (indirect string, offset: 0x77): _IO_codecvt
    <412>   DW_AT_declaration : 1
 <1><412>: Abbrev Number: 3 (DW_TAG_pointer_type)
    <413>   DW_AT_byte_size   : 8
    <414>   DW_AT_type        : <0x40d>
 <1><418>: Abbrev Number: 20 (DW_TAG_structure_type)
    <419>   DW_AT_name        : (indirect string, offset: 0x22e): _IO_wide_data
    <41d>   DW_AT_declaration : 1
 <1><41d>: Abbrev Number: 3 (DW_TAG_pointer_type)
    <41e>   DW_AT_byte_size   : 8
    <41f>   DW_AT_type        : <0x418>
 <1><423>: Abbrev Number: 21 (DW_TAG_array_type)
    <424>   DW_AT_type        : <0x49>
    <428>   DW_AT_sibling     : <0x433>
 <2><42c>: Abbrev Number: 22 (DW_TAG_subrange_type)
    <42d>   DW_AT_type        : <0xe9>
    <431>   DW_AT_upper_bound : 19
 <2><432>: Abbrev Number: 0
 <1><433>: Abbrev Number: 2 (DW_TAG_variable)
    <434>   DW_AT_name        : (indirect string, offset: 0x286): stdin
    <438>   DW_AT_decl_file   : 15
    <439>   DW_AT_decl_line   : 137
    <43a>   DW_AT_decl_column : 14
    <43b>   DW_AT_type        : <0x43f>
    <43f>   DW_AT_external    : 1
    <43f>   DW_AT_declaration : 1
 <1><43f>: Abbrev Number: 3 (DW_TAG_pointer_type)
    <440>   DW_AT_byte_size   : 8
    <441>   DW_AT_type        : <0x3d2>
 <1><445>: Abbrev Number: 5 (DW_TAG_restrict_type)
    <446>   DW_AT_type        : <0x43f>
 <1><44a>: Abbrev Number: 2 (DW_TAG_variable)
    <44b>   DW_AT_name        : (indirect string, offset: 0xbce): stdout
    <44f>   DW_AT_decl_file   : 15
    <450>   DW_AT_decl_line   : 138
    <451>   DW_AT_decl_column : 14
    <452>   DW_AT_type        : <0x43f>
    <456>   DW_AT_external    : 1
    <456>   DW_AT_declaration : 1
 <1><456>: Abbrev Number: 2 (DW_TAG_variable)
    <457>   DW_AT_name        : (indirect string, offset: 0xa65): stderr
    <45b>   DW_AT_decl_file   : 15
    <45c>   DW_AT_decl_line   : 139
    <45d>   DW_AT_decl_column : 14
    <45e>   DW_AT_type        : <0x43f>
    <462>   DW_AT_external    : 1
    <462>   DW_AT_declaration : 1
 <1><462>: Abbrev Number: 23 (DW_TAG_enumeration_type)
    <463>   DW_AT_encoding    : 5	(signed)
    <464>   DW_AT_byte_size   : 4
    <465>   DW_AT_type        : <0x61>
    <469>   DW_AT_decl_file   : 1
    <46a>   DW_AT_decl_line   : 330
    <46c>   DW_AT_decl_column : 1
    <46d>   DW_AT_sibling     : <0x480>
 <2><471>: Abbrev Number: 24 (DW_TAG_enumerator)
    <472>   DW_AT_name        : (indirect string, offset: 0x53): GETOPT_HELP_CHAR
    <476>   DW_AT_const_value : -130
 <2><478>: Abbrev Number: 24 (DW_TAG_enumerator)
    <479>   DW_AT_name        : (indirect string, offset: 0x75a): GETOPT_VERSION_CHAR
    <47d>   DW_AT_const_value : -131
 <2><47f>: Abbrev Number: 0
 <1><480>: Abbrev Number: 2 (DW_TAG_variable)
    <481>   DW_AT_name        : (indirect string, offset: 0x1a6): program_name
    <485>   DW_AT_decl_file   : 16
    <486>   DW_AT_decl_line   : 32
    <487>   DW_AT_decl_column : 20
    <488>   DW_AT_type        : <0xb4>
    <48c>   DW_AT_external    : 1
    <48c>   DW_AT_declaration : 1
 <1><48c>: Abbrev Number: 25 (DW_TAG_enumeration_type)
    <48d>   DW_AT_name        : (indirect string, offset: 0x6e4): quoting_style
    <491>   DW_AT_encoding    : 7	(unsigned)
    <492>   DW_AT_byte_size   : 4
    <493>   DW_AT_type        : <0xe2>
    <497>   DW_AT_decl_file   : 18
    <498>   DW_AT_decl_line   : 32
    <499>   DW_AT_decl_column : 6
    <49a>   DW_AT_sibling     : <0x4e1>
 <2><49e>: Abbrev Number: 17 (DW_TAG_enumerator)
    <49f>   DW_AT_name        : (indirect string, offset: 0x7b0): literal_quoting_style
    <4a3>   DW_AT_const_value : 0
 <2><4a4>: Abbrev Number: 17 (DW_TAG_enumerator)
    <4a5>   DW_AT_name        : (indirect string, offset: 0x66f): shell_quoting_style
    <4a9>   DW_AT_const_value : 1
 <2><4aa>: Abbrev Number: 17 (DW_TAG_enumerator)
    <4ab>   DW_AT_name        : (indirect string, offset: 0x9cd): shell_always_quoting_style
    <4af>   DW_AT_const_value : 2
 <2><4b0>: Abbrev Number: 17 (DW_TAG_enumerator)
    <4b1>   DW_AT_name        : (indirect string, offset: 0xaac): shell_escape_quoting_style
    <4b5>   DW_AT_const_value : 3
 <2><4b6>: Abbrev Number: 17 (DW_TAG_enumerator)
    <4b7>   DW_AT_name        : (indirect string, offset: 0x42b): shell_escape_always_quoting_style
    <4bb>   DW_AT_const_value : 4
 <2><4bc>: Abbrev Number: 17 (DW_TAG_enumerator)
    <4bd>   DW_AT_name        : (indirect string, offset: 0x6e2): c_quoting_style
    <4c1>   DW_AT_const_value : 5
 <2><4c2>: Abbrev Number: 17 (DW_TAG_enumerator)
    <4c3>   DW_AT_name        : (indirect string, offset: 0x514): c_maybe_quoting_style
    <4c7>   DW_AT_const_value : 6
 <2><4c8>: Abbrev Number: 17 (DW_TAG_enumerator)
    <4c9>   DW_AT_name        : (indirect string, offset: 0xab2): escape_quoting_style
    <4cd>   DW_AT_const_value : 7
 <2><4ce>: Abbrev Number: 17 (DW_TAG_enumerator)
    <4cf>   DW_AT_name        : (indirect string, offset: 0x5c1): locale_quoting_style
    <4d3>   DW_AT_const_value : 8
 <2><4d4>: Abbrev Number: 17 (DW_TAG_enumerator)
    <4d5>   DW_AT_name        : (indirect string, offset: 0x5c0): clocale_quoting_style
    <4d9>   DW_AT_const_value : 9
 <2><4da>: Abbrev Number: 17 (DW_TAG_enumerator)
    <4db>   DW_AT_name        : (indirect string, offset: 0xcd5): custom_quoting_style
    <4df>   DW_AT_const_value : 10
 <2><4e0>: Abbrev Number: 0
 <1><4e1>: Abbrev Number: 11 (DW_TAG_typedef)
    <4e2>   DW_AT_name        : (indirect string, offset: 0xcc4): argmatch_exit_fn
    <4e6>   DW_AT_decl_file   : 17
    <4e7>   DW_AT_decl_line   : 67
    <4e8>   DW_AT_decl_column : 16
    <4e9>   DW_AT_type        : <0x18f>
 <1><4ed>: Abbrev Number: 2 (DW_TAG_variable)
    <4ee>   DW_AT_name        : (indirect string, offset: 0x12dc): argmatch_die
    <4f2>   DW_AT_decl_file   : 17
    <4f3>   DW_AT_decl_line   : 68
    <4f4>   DW_AT_decl_column : 25
    <4f5>   DW_AT_type        : <0x4e1>
    <4f9>   DW_AT_external    : 1
    <4f9>   DW_AT_declaration : 1
 <1><4f9>: Abbrev Number: 25 (DW_TAG_enumeration_type)
    <4fa>   DW_AT_name        : (indirect string, offset: 0x2a6): strtol_error
    <4fe>   DW_AT_encoding    : 7	(unsigned)
    <4ff>   DW_AT_byte_size   : 4
    <500>   DW_AT_type        : <0xe2>
    <504>   DW_AT_decl_file   : 19
    <505>   DW_AT_decl_line   : 26
    <506>   DW_AT_decl_column : 6
    <507>   DW_AT_sibling     : <0x52a>
 <2><50b>: Abbrev Number: 17 (DW_TAG_enumerator)
    <50c>   DW_AT_name        : (indirect string, offset: 0x88a): LONGINT_OK
    <510>   DW_AT_const_value : 0
 <2><511>: Abbrev Number: 17 (DW_TAG_enumerator)
    <512>   DW_AT_name        : (indirect string, offset: 0x599): LONGINT_OVERFLOW
    <516>   DW_AT_const_value : 1
 <2><517>: Abbrev Number: 17 (DW_TAG_enumerator)
    <518>   DW_AT_name        : (indirect string, offset: 0x118): LONGINT_INVALID_SUFFIX_CHAR
    <51c>   DW_AT_const_value : 2
 <2><51d>: Abbrev Number: 17 (DW_TAG_enumerator)
    <51e>   DW_AT_name        : (indirect string, offset: 0x52a): LONGINT_INVALID_SUFFIX_CHAR_WITH_OVERFLOW
    <522>   DW_AT_const_value : 3
 <2><523>: Abbrev Number: 17 (DW_TAG_enumerator)
    <524>   DW_AT_name        : (indirect string, offset: 0x728): LONGINT_INVALID
    <528>   DW_AT_const_value : 4
 <2><529>: Abbrev Number: 0
 <1><52a>: Abbrev Number: 11 (DW_TAG_typedef)
    <52b>   DW_AT_name        : (indirect string, offset: 0x2a6): strtol_error
    <52f>   DW_AT_decl_file   : 19
    <530>   DW_AT_decl_line   : 39
    <531>   DW_AT_decl_column : 27
    <532>   DW_AT_type        : <0x4f9>
 <1><536>: Abbrev Number: 11 (DW_TAG_typedef)
    <537>   DW_AT_name        : (indirect string, offset: 0x754): sumfn
    <53b>   DW_AT_decl_file   : 20
    <53c>   DW_AT_decl_line   : 7
    <53d>   DW_AT_decl_column : 15
    <53e>   DW_AT_type        : <0x542>
 <1><542>: Abbrev Number: 3 (DW_TAG_pointer_type)
    <543>   DW_AT_byte_size   : 8
    <544>   DW_AT_type        : <0x548>
 <1><548>: Abbrev Number: 26 (DW_TAG_subroutine_type)
    <549>   DW_AT_prototyped  : 1
    <549>   DW_AT_type        : <0x61>
    <54d>   DW_AT_sibling     : <0x561>
 <2><551>: Abbrev Number: 27 (DW_TAG_formal_parameter)
    <552>   DW_AT_type        : <0x43f>
 <2><556>: Abbrev Number: 27 (DW_TAG_formal_parameter)
    <557>   DW_AT_type        : <0x135>
 <2><55b>: Abbrev Number: 27 (DW_TAG_formal_parameter)
    <55c>   DW_AT_type        : <0x561>
 <2><560>: Abbrev Number: 0
 <1><561>: Abbrev Number: 3 (DW_TAG_pointer_type)
    <562>   DW_AT_byte_size   : 8
    <563>   DW_AT_type        : <0x1b3>
 <1><567>: Abbrev Number: 2 (DW_TAG_variable)
    <568>   DW_AT_name        : (indirect string, offset: 0xb67): cksum_debug
    <56c>   DW_AT_decl_file   : 21
    <56d>   DW_AT_decl_line   : 4
    <56e>   DW_AT_decl_column : 13
    <56f>   DW_AT_type        : <0x573>
    <573>   DW_AT_external    : 1
    <573>   DW_AT_declaration : 1
 <1><573>: Abbrev Number: 6 (DW_TAG_base_type)
    <574>   DW_AT_byte_size   : 1
    <575>   DW_AT_encoding    : 2	(boolean)
    <576>   DW_AT_name        : (indirect string, offset: 0x36e): _Bool
 <1><57a>: Abbrev Number: 15 (DW_TAG_enumeration_type)
    <57b>   DW_AT_encoding    : 7	(unsigned)
    <57c>   DW_AT_byte_size   : 4
    <57d>   DW_AT_type        : <0xe2>
    <581>   DW_AT_decl_file   : 22
    <582>   DW_AT_decl_line   : 45
    <583>   DW_AT_decl_column : 14
    <584>   DW_AT_sibling     : <0x5ad>
 <2><588>: Abbrev Number: 17 (DW_TAG_enumerator)
    <589>   DW_AT_name        : (indirect string, offset: 0x81e): FADVISE_NORMAL
    <58d>   DW_AT_const_value : 0
 <2><58e>: Abbrev Number: 17 (DW_TAG_enumerator)
    <58f>   DW_AT_name        : (indirect string, offset: 0x3a5): FADVISE_SEQUENTIAL
    <593>   DW_AT_const_value : 2
 <2><594>: Abbrev Number: 17 (DW_TAG_enumerator)
    <595>   DW_AT_name        : (indirect string, offset: 0x57c): FADVISE_NOREUSE
    <599>   DW_AT_const_value : 5
 <2><59a>: Abbrev Number: 17 (DW_TAG_enumerator)
    <59b>   DW_AT_name        : (indirect string, offset: 0x6f2): FADVISE_DONTNEED
    <59f>   DW_AT_const_value : 4
 <2><5a0>: Abbrev Number: 17 (DW_TAG_enumerator)
    <5a1>   DW_AT_name        : (indirect string, offset: 0x859): FADVISE_WILLNEED
    <5a5>   DW_AT_const_value : 3
 <2><5a6>: Abbrev Number: 17 (DW_TAG_enumerator)
    <5a7>   DW_AT_name        : (indirect string, offset: 0x1ff): FADVISE_RANDOM
    <5ab>   DW_AT_const_value : 1
 <2><5ac>: Abbrev Number: 0
 <1><5ad>: Abbrev Number: 11 (DW_TAG_typedef)
    <5ae>   DW_AT_name        : (indirect string, offset: 0x494): fadvice_t
    <5b2>   DW_AT_decl_file   : 22
    <5b3>   DW_AT_decl_line   : 52
    <5b4>   DW_AT_decl_column : 3
    <5b5>   DW_AT_type        : <0x57a>
 <1><5b9>: Abbrev Number: 28 (DW_TAG_variable)
    <5ba>   DW_AT_name        : (indirect string, offset: 0x27c): have_read_stdin
    <5be>   DW_AT_decl_file   : 2
    <5bf>   DW_AT_decl_line   : 175
    <5c0>   DW_AT_decl_column : 13
    <5c1>   DW_AT_type        : <0x573>
    <5c5>   DW_AT_location    : 9 byte block: 3 d1 21 3 0 0 0 0 0 	(DW_OP_addr: 321d1)
 <1><5cf>: Abbrev Number: 28 (DW_TAG_variable)
    <5d0>   DW_AT_name        : (indirect string, offset: 0x90c): min_digest_line_length
    <5d4>   DW_AT_decl_file   : 2
    <5d5>   DW_AT_decl_line   : 178
    <5d6>   DW_AT_decl_column : 15
    <5d7>   DW_AT_type        : <0x15b>
    <5db>   DW_AT_location    : 9 byte block: 3 d8 21 3 0 0 0 0 0 	(DW_OP_addr: 321d8)
 <1><5e5>: Abbrev Number: 28 (DW_TAG_variable)
    <5e6>   DW_AT_name        : (indirect string, offset: 0x93): digest_hex_bytes
    <5ea>   DW_AT_decl_file   : 2
    <5eb>   DW_AT_decl_line   : 181
    <5ec>   DW_AT_decl_column : 15
    <5ed>   DW_AT_type        : <0x15b>
    <5f1>   DW_AT_location    : 9 byte block: 3 e0 21 3 0 0 0 0 0 	(DW_OP_addr: 321e0)
 <1><5fb>: Abbrev Number: 28 (DW_TAG_variable)
    <5fc>   DW_AT_name        : (indirect string, offset: 0x77b): status_only
    <600>   DW_AT_decl_file   : 2
    <601>   DW_AT_decl_line   : 185
    <602>   DW_AT_decl_column : 13
    <603>   DW_AT_type        : <0x573>
    <607>   DW_AT_location    : 9 byte block: 3 e8 21 3 0 0 0 0 0 	(DW_OP_addr: 321e8)
 <1><611>: Abbrev Number: 28 (DW_TAG_variable)
    <612>   DW_AT_name        : (indirect string, offset: 0xad7): warn
    <616>   DW_AT_decl_file   : 2
    <617>   DW_AT_decl_line   : 189
    <618>   DW_AT_decl_column : 13
    <619>   DW_AT_type        : <0x573>
    <61d>   DW_AT_location    : 9 byte block: 3 e9 21 3 0 0 0 0 0 	(DW_OP_addr: 321e9)
 <1><627>: Abbrev Number: 28 (DW_TAG_variable)
    <628>   DW_AT_name        : (indirect string, offset: 0x8e3): ignore_missing
    <62c>   DW_AT_decl_file   : 2
    <62d>   DW_AT_decl_line   : 192
    <62e>   DW_AT_decl_column : 13
    <62f>   DW_AT_type        : <0x573>
    <633>   DW_AT_location    : 9 byte block: 3 ea 21 3 0 0 0 0 0 	(DW_OP_addr: 321ea)
 <1><63d>: Abbrev Number: 28 (DW_TAG_variable)
    <63e>   DW_AT_name        : (indirect string, offset: 0x3b): quiet
    <642>   DW_AT_decl_file   : 2
    <643>   DW_AT_decl_line   : 195
    <644>   DW_AT_decl_column : 13
    <645>   DW_AT_type        : <0x573>
    <649>   DW_AT_location    : 9 byte block: 3 eb 21 3 0 0 0 0 0 	(DW_OP_addr: 321eb)
 <1><653>: Abbrev Number: 28 (DW_TAG_variable)
    <654>   DW_AT_name        : (indirect string, offset: 0x20e): strict
    <658>   DW_AT_decl_file   : 2
    <659>   DW_AT_decl_line   : 199
    <65a>   DW_AT_decl_column : 13
    <65b>   DW_AT_type        : <0x573>
    <65f>   DW_AT_location    : 9 byte block: 3 ec 21 3 0 0 0 0 0 	(DW_OP_addr: 321ec)
 <1><669>: Abbrev Number: 28 (DW_TAG_variable)
    <66a>   DW_AT_name        : (indirect string, offset: 0xc2d): bsd_reversed
    <66e>   DW_AT_decl_file   : 2
    <66f>   DW_AT_decl_line   : 202
    <670>   DW_AT_decl_column : 12
    <671>   DW_AT_type        : <0x61>
    <675>   DW_AT_location    : 9 byte block: 3 10 20 3 0 0 0 0 0 	(DW_OP_addr: 32010)
 <1><67f>: Abbrev Number: 28 (DW_TAG_variable)
    <680>   DW_AT_name        : (indirect string, offset: 0x151): digest_delim
    <684>   DW_AT_decl_file   : 2
    <685>   DW_AT_decl_line   : 205
    <686>   DW_AT_decl_column : 22
    <687>   DW_AT_type        : <0xca>
    <68b>   DW_AT_location    : 9 byte block: 3 14 20 3 0 0 0 0 0 	(DW_OP_addr: 32014)
 <1><695>: Abbrev Number: 28 (DW_TAG_variable)
    <696>   DW_AT_name        : (indirect string, offset: 0x8b4): digest_length
    <69a>   DW_AT_decl_file   : 2
    <69b>   DW_AT_decl_line   : 209
    <69c>   DW_AT_decl_column : 18
    <69d>   DW_AT_type        : <0x1b3>
    <6a1>   DW_AT_location    : 9 byte block: 3 f0 21 3 0 0 0 0 0 	(DW_OP_addr: 321f0)
 <1><6ab>: Abbrev Number: 11 (DW_TAG_typedef)
    <6ac>   DW_AT_name        : (indirect string, offset: 0x794): digest_output_fn
    <6b0>   DW_AT_decl_file   : 2
    <6b1>   DW_AT_decl_line   : 212
    <6b2>   DW_AT_decl_column : 16
    <6b3>   DW_AT_type        : <0x6b7>
 <1><6b7>: Abbrev Number: 3 (DW_TAG_pointer_type)
    <6b8>   DW_AT_byte_size   : 8
    <6b9>   DW_AT_type        : <0x6bd>
 <1><6bd>: Abbrev Number: 29 (DW_TAG_subroutine_type)
    <6be>   DW_AT_prototyped  : 1
    <6be>   DW_AT_sibling     : <0x6e6>
 <2><6c2>: Abbrev Number: 27 (DW_TAG_formal_parameter)
    <6c3>   DW_AT_type        : <0xb4>
 <2><6c7>: Abbrev Number: 27 (DW_TAG_formal_parameter)
    <6c8>   DW_AT_type        : <0x61>
 <2><6cc>: Abbrev Number: 27 (DW_TAG_formal_parameter)
    <6cd>   DW_AT_type        : <0x1a0>
 <2><6d1>: Abbrev Number: 27 (DW_TAG_formal_parameter)
    <6d2>   DW_AT_type        : <0x573>
 <2><6d6>: Abbrev Number: 27 (DW_TAG_formal_parameter)
    <6d7>   DW_AT_type        : <0xca>
 <2><6db>: Abbrev Number: 27 (DW_TAG_formal_parameter)
    <6dc>   DW_AT_type        : <0x573>
 <2><6e0>: Abbrev Number: 27 (DW_TAG_formal_parameter)
    <6e1>   DW_AT_type        : <0x1b3>
 <2><6e5>: Abbrev Number: 0
 <1><6e6>: Abbrev Number: 30 (DW_TAG_enumeration_type)
    <6e7>   DW_AT_name        : (indirect string, offset: 0xbf4): Algorithm
    <6eb>   DW_AT_encoding    : 7	(unsigned)
    <6ec>   DW_AT_byte_size   : 4
    <6ed>   DW_AT_type        : <0xe2>
    <6f1>   DW_AT_decl_file   : 2
    <6f2>   DW_AT_decl_line   : 276
    <6f4>   DW_AT_decl_column : 6
    <6f5>   DW_AT_sibling     : <0x73c>
 <2><6f9>: Abbrev Number: 31 (DW_TAG_enumerator)
    <6fa>   DW_AT_name        : bsd
    <6fe>   DW_AT_const_value : 0
 <2><6ff>: Abbrev Number: 17 (DW_TAG_enumerator)
    <700>   DW_AT_name        : (indirect string, offset: 0xb3b): sysv
    <704>   DW_AT_const_value : 1
 <2><705>: Abbrev Number: 31 (DW_TAG_enumerator)
    <706>   DW_AT_name        : crc
    <70a>   DW_AT_const_value : 2
 <2><70b>: Abbrev Number: 31 (DW_TAG_enumerator)
    <70c>   DW_AT_name        : md5
    <710>   DW_AT_const_value : 3
 <2><711>: Abbrev Number: 17 (DW_TAG_enumerator)
    <712>   DW_AT_name        : (indirect string, offset: 0x86a): sha1
    <716>   DW_AT_const_value : 4
 <2><717>: Abbrev Number: 17 (DW_TAG_enumerator)
    <718>   DW_AT_name        : (indirect string, offset: 0x988): sha224
    <71c>   DW_AT_const_value : 5
 <2><71d>: Abbrev Number: 17 (DW_TAG_enumerator)
    <71e>   DW_AT_name        : (indirect string, offset: 0xb1f): sha256
    <722>   DW_AT_const_value : 6
 <2><723>: Abbrev Number: 17 (DW_TAG_enumerator)
    <724>   DW_AT_name        : (indirect string, offset: 0x1b3): sha384
    <728>   DW_AT_const_value : 7
 <2><729>: Abbrev Number: 17 (DW_TAG_enumerator)
    <72a>   DW_AT_name        : (indirect string, offset: 0x486): sha512
    <72e>   DW_AT_const_value : 8
 <2><72f>: Abbrev Number: 17 (DW_TAG_enumerator)
    <730>   DW_AT_name        : (indirect string, offset: 0x1d5): blake2b
    <734>   DW_AT_const_value : 9
 <2><735>: Abbrev Number: 31 (DW_TAG_enumerator)
    <736>   DW_AT_name        : sm3
    <73a>   DW_AT_const_value : 10
 <2><73b>: Abbrev Number: 0
 <1><73c>: Abbrev Number: 4 (DW_TAG_const_type)
    <73d>   DW_AT_type        : <0x6e6>
 <1><741>: Abbrev Number: 21 (DW_TAG_array_type)
    <742>   DW_AT_type        : <0xba>
    <746>   DW_AT_sibling     : <0x751>
 <2><74a>: Abbrev Number: 22 (DW_TAG_subrange_type)
    <74b>   DW_AT_type        : <0xe9>
    <74f>   DW_AT_upper_bound : 11
 <2><750>: Abbrev Number: 0
 <1><751>: Abbrev Number: 4 (DW_TAG_const_type)
    <752>   DW_AT_type        : <0x741>
 <1><756>: Abbrev Number: 32 (DW_TAG_variable)
    <757>   DW_AT_name        : (indirect string, offset: 0x26d): algorithm_args
    <75b>   DW_AT_decl_file   : 2
    <75c>   DW_AT_decl_line   : 291
    <75e>   DW_AT_decl_column : 26
    <75f>   DW_AT_type        : <0x751>
    <763>   DW_AT_location    : 9 byte block: 3 80 18 3 0 0 0 0 0 	(DW_OP_addr: 31880)
 <1><76d>: Abbrev Number: 21 (DW_TAG_array_type)
    <76e>   DW_AT_type        : <0x73c>
    <772>   DW_AT_sibling     : <0x77d>
 <2><776>: Abbrev Number: 22 (DW_TAG_subrange_type)
    <777>   DW_AT_type        : <0xe9>
    <77b>   DW_AT_upper_bound : 10
 <2><77c>: Abbrev Number: 0
 <1><77d>: Abbrev Number: 4 (DW_TAG_const_type)
    <77e>   DW_AT_type        : <0x76d>
 <1><782>: Abbrev Number: 32 (DW_TAG_variable)
    <783>   DW_AT_name        : (indirect string, offset: 0x3b8): algorithm_types
    <787>   DW_AT_decl_file   : 2
    <788>   DW_AT_decl_line   : 296
    <78a>   DW_AT_decl_column : 29
    <78b>   DW_AT_type        : <0x77d>
    <78f>   DW_AT_location    : 9 byte block: 3 60 72 2 0 0 0 0 0 	(DW_OP_addr: 27260)
 <1><799>: Abbrev Number: 32 (DW_TAG_variable)
    <79a>   DW_AT_name        : (indirect string, offset: 0x5b1): algorithm_tags
    <79e>   DW_AT_decl_file   : 2
    <79f>   DW_AT_decl_line   : 303
    <7a1>   DW_AT_decl_column : 26
    <7a2>   DW_AT_type        : <0x751>
    <7a6>   DW_AT_location    : 9 byte block: 3 e0 18 3 0 0 0 0 0 	(DW_OP_addr: 318e0)
 <1><7b0>: Abbrev Number: 21 (DW_TAG_array_type)
    <7b1>   DW_AT_type        : <0x68>
    <7b5>   DW_AT_sibling     : <0x7c0>
 <2><7b9>: Abbrev Number: 22 (DW_TAG_subrange_type)
    <7ba>   DW_AT_type        : <0xe9>
    <7be>   DW_AT_upper_bound : 11
 <2><7bf>: Abbrev Number: 0
 <1><7c0>: Abbrev Number: 4 (DW_TAG_const_type)
    <7c1>   DW_AT_type        : <0x7b0>
 <1><7c5>: Abbrev Number: 32 (DW_TAG_variable)
    <7c6>   DW_AT_name        : (indirect string, offset: 0x4cd): algorithm_bits
    <7ca>   DW_AT_decl_file   : 2
    <7cb>   DW_AT_decl_line   : 308
    <7cd>   DW_AT_decl_column : 18
    <7ce>   DW_AT_type        : <0x7c0>
    <7d2>   DW_AT_location    : 9 byte block: 3 e0 72 2 0 0 0 0 0 	(DW_OP_addr: 272e0)
 <1><7dc>: Abbrev Number: 32 (DW_TAG_variable)
    <7dd>   DW_AT_name        : (indirect string, offset: 0x3c8): algorithm_specified
    <7e1>   DW_AT_decl_file   : 2
    <7e2>   DW_AT_decl_line   : 317
    <7e4>   DW_AT_decl_column : 13
    <7e5>   DW_AT_type        : <0x573>
    <7e9>   DW_AT_location    : 9 byte block: 3 f8 21 3 0 0 0 0 0 	(DW_OP_addr: 321f8)
 <1><7f3>: Abbrev Number: 32 (DW_TAG_variable)
    <7f4>   DW_AT_name        : (indirect string, offset: 0x0): cksum_algorithm
    <7f8>   DW_AT_decl_file   : 2
    <7f9>   DW_AT_decl_line   : 318
    <7fb>   DW_AT_decl_column : 23
    <7fc>   DW_AT_type        : <0x6e6>
    <800>   DW_AT_location    : 9 byte block: 3 18 20 3 0 0 0 0 0 	(DW_OP_addr: 32018)
 <1><80a>: Abbrev Number: 21 (DW_TAG_array_type)
    <80b>   DW_AT_type        : <0x536>
    <80f>   DW_AT_sibling     : <0x81a>
 <2><813>: Abbrev Number: 22 (DW_TAG_subrange_type)
    <814>   DW_AT_type        : <0xe9>
    <818>   DW_AT_upper_bound : 10
 <2><819>: Abbrev Number: 0
 <1><81a>: Abbrev Number: 32 (DW_TAG_variable)
    <81b>   DW_AT_name        : (indirect string, offset: 0x5d6): cksumfns
    <81f>   DW_AT_decl_file   : 2
    <820>   DW_AT_decl_line   : 319
    <822>   DW_AT_decl_column : 14
    <823>   DW_AT_type        : <0x80a>
    <827>   DW_AT_location    : 9 byte block: 3 20 20 3 0 0 0 0 0 	(DW_OP_addr: 32020)
 <1><831>: Abbrev Number: 21 (DW_TAG_array_type)
    <832>   DW_AT_type        : <0x6ab>
    <836>   DW_AT_sibling     : <0x841>
 <2><83a>: Abbrev Number: 22 (DW_TAG_subrange_type)
    <83b>   DW_AT_type        : <0xe9>
    <83f>   DW_AT_upper_bound : 10
 <2><840>: Abbrev Number: 0
 <1><841>: Abbrev Number: 32 (DW_TAG_variable)
    <842>   DW_AT_name        : (indirect string, offset: 0xc55): cksum_output_fns
    <846>   DW_AT_decl_file   : 2
    <847>   DW_AT_decl_line   : 333
    <849>   DW_AT_decl_column : 25
    <84a>   DW_AT_type        : <0x831>
    <84e>   DW_AT_location    : 9 byte block: 3 80 20 3 0 0 0 0 0 	(DW_OP_addr: 32080)
 <1><858>: Abbrev Number: 33 (DW_TAG_variable)
    <859>   DW_AT_specification: <0x567>
    <85d>   DW_AT_decl_file   : 2
    <85e>   DW_AT_decl_line   : 347
    <860>   DW_AT_decl_column : 6
    <861>   DW_AT_location    : 9 byte block: 3 d0 21 3 0 0 0 0 0 	(DW_OP_addr: 321d0)
 <1><86b>: Abbrev Number: 23 (DW_TAG_enumeration_type)
    <86c>   DW_AT_encoding    : 7	(unsigned)
    <86d>   DW_AT_byte_size   : 4
    <86e>   DW_AT_type        : <0xe2>
    <872>   DW_AT_decl_file   : 2
    <873>   DW_AT_decl_line   : 354
    <875>   DW_AT_decl_column : 1
    <876>   DW_AT_sibling     : <0x8a5>
 <2><87a>: Abbrev Number: 17 (DW_TAG_enumerator)
    <87b>   DW_AT_name        : (indirect string, offset: 0x415): IGNORE_MISSING_OPTION
    <87f>   DW_AT_const_value : 128
 <2><880>: Abbrev Number: 17 (DW_TAG_enumerator)
    <881>   DW_AT_name        : (indirect string, offset: 0x80a): STATUS_OPTION
    <885>   DW_AT_const_value : 129
 <2><886>: Abbrev Number: 17 (DW_TAG_enumerator)
    <887>   DW_AT_name        : (indirect string, offset: 0x4f4): QUIET_OPTION
    <88b>   DW_AT_const_value : 130
 <2><88c>: Abbrev Number: 17 (DW_TAG_enumerator)
    <88d>   DW_AT_name        : (indirect string, offset: 0xb05): STRICT_OPTION
    <891>   DW_AT_const_value : 131
 <2><892>: Abbrev Number: 17 (DW_TAG_enumerator)
    <893>   DW_AT_name        : (indirect string, offset: 0x643): TAG_OPTION
    <897>   DW_AT_const_value : 132
 <2><898>: Abbrev Number: 17 (DW_TAG_enumerator)
    <899>   DW_AT_name        : (indirect string, offset: 0x641): UNTAG_OPTION
    <89d>   DW_AT_const_value : 133
 <2><89e>: Abbrev Number: 17 (DW_TAG_enumerator)
    <89f>   DW_AT_name        : (indirect string, offset: 0x359): DEBUG_PROGRAM_OPTION
    <8a3>   DW_AT_const_value : 134
 <2><8a4>: Abbrev Number: 0
 <1><8a5>: Abbrev Number: 21 (DW_TAG_array_type)
    <8a6>   DW_AT_type        : <0xaf>
    <8aa>   DW_AT_sibling     : <0x8b5>
 <2><8ae>: Abbrev Number: 22 (DW_TAG_subrange_type)
    <8af>   DW_AT_type        : <0xe9>
    <8b3>   DW_AT_upper_bound : 14
 <2><8b4>: Abbrev Number: 0
 <1><8b5>: Abbrev Number: 4 (DW_TAG_const_type)
    <8b6>   DW_AT_type        : <0x8a5>
 <1><8ba>: Abbrev Number: 32 (DW_TAG_variable)
    <8bb>   DW_AT_name        : (indirect string, offset: 0x58c): long_options
    <8bf>   DW_AT_decl_file   : 2
    <8c0>   DW_AT_decl_line   : 364
    <8c2>   DW_AT_decl_column : 28
    <8c3>   DW_AT_type        : <0x8b5>
    <8c7>   DW_AT_location    : 9 byte block: 3 40 19 3 0 0 0 0 0 	(DW_OP_addr: 31940)
 <1><8d1>: Abbrev Number: 34 (DW_TAG_subprogram)
    <8d2>   DW_AT_external    : 1
    <8d2>   DW_AT_name        : (indirect string, offset: 0xb87): getopt_long
    <8d6>   DW_AT_decl_file   : 4
    <8d7>   DW_AT_decl_line   : 66
    <8d8>   DW_AT_decl_column : 12
    <8d9>   DW_AT_prototyped  : 1
    <8d9>   DW_AT_type        : <0x61>
    <8dd>   DW_AT_declaration : 1
    <8dd>   DW_AT_sibling     : <0x8fb>
 <2><8e1>: Abbrev Number: 27 (DW_TAG_formal_parameter)
    <8e2>   DW_AT_type        : <0x61>
 <2><8e6>: Abbrev Number: 27 (DW_TAG_formal_parameter)
    <8e7>   DW_AT_type        : <0x8fb>
 <2><8eb>: Abbrev Number: 27 (DW_TAG_formal_parameter)
    <8ec>   DW_AT_type        : <0xb4>
 <2><8f0>: Abbrev Number: 27 (DW_TAG_formal_parameter)
    <8f1>   DW_AT_type        : <0x901>
 <2><8f5>: Abbrev Number: 27 (DW_TAG_formal_parameter)
    <8f6>   DW_AT_type        : <0xc4>
 <2><8fa>: Abbrev Number: 0
 <1><8fb>: Abbrev Number: 3 (DW_TAG_pointer_type)
    <8fc>   DW_AT_byte_size   : 8
    <8fd>   DW_AT_type        : <0x3f>
 <1><901>: Abbrev Number: 3 (DW_TAG_pointer_type)
    <902>   DW_AT_byte_size   : 8
    <903>   DW_AT_type        : <0xaf>
 <1><907>: Abbrev Number: 35 (DW_TAG_subprogram)
    <908>   DW_AT_external    : 1
    <908>   DW_AT_name        : (indirect string, offset: 0x409): version_etc
    <90c>   DW_AT_decl_file   : 27
    <90d>   DW_AT_decl_line   : 65
    <90e>   DW_AT_decl_column : 13
    <90f>   DW_AT_prototyped  : 1
    <90f>   DW_AT_declaration : 1
    <90f>   DW_AT_sibling     : <0x929>
 <2><913>: Abbrev Number: 27 (DW_TAG_formal_parameter)
    <914>   DW_AT_type        : <0x43f>
 <2><918>: Abbrev Number: 27 (DW_TAG_formal_parameter)
    <919>   DW_AT_type        : <0xb4>
 <2><91d>: Abbrev Number: 27 (DW_TAG_formal_parameter)
    <91e>   DW_AT_type        : <0xb4>
 <2><922>: Abbrev Number: 27 (DW_TAG_formal_parameter)
    <923>   DW_AT_type        : <0xb4>
 <2><927>: Abbrev Number: 36 (DW_TAG_unspecified_parameters)
 <2><928>: Abbrev Number: 0
 <1><929>: Abbrev Number: 34 (DW_TAG_subprogram)
    <92a>   DW_AT_external    : 1
    <92a>   DW_AT_name        : (indirect string, offset: 0x1ce0): quote
    <92e>   DW_AT_decl_file   : 23
    <92f>   DW_AT_decl_line   : 44
    <930>   DW_AT_decl_column : 13
    <931>   DW_AT_prototyped  : 1
    <931>   DW_AT_type        : <0xb4>
    <935>   DW_AT_declaration : 1
    <935>   DW_AT_sibling     : <0x93f>
 <2><939>: Abbrev Number: 27 (DW_TAG_formal_parameter)
    <93a>   DW_AT_type        : <0xb4>
 <2><93e>: Abbrev Number: 0
 <1><93f>: Abbrev Number: 34 (DW_TAG_subprogram)
    <940>   DW_AT_external    : 1
    <940>   DW_AT_name        : (indirect string, offset: 0x964): xdectoumax
    <944>   DW_AT_decl_file   : 24
    <945>   DW_AT_decl_line   : 33
    <946>   DW_AT_decl_column : 1
    <947>   DW_AT_prototyped  : 1
    <947>   DW_AT_type        : <0x1b3>
    <94b>   DW_AT_declaration : 1
    <94b>   DW_AT_sibling     : <0x96e>
 <2><94f>: Abbrev Number: 27 (DW_TAG_formal_parameter)
    <950>   DW_AT_type        : <0xb4>
 <2><954>: Abbrev Number: 27 (DW_TAG_formal_parameter)
    <955>   DW_AT_type        : <0x1b3>
 <2><959>: Abbrev Number: 27 (DW_TAG_formal_parameter)
    <95a>   DW_AT_type        : <0x1b3>
 <2><95e>: Abbrev Number: 27 (DW_TAG_formal_parameter)
    <95f>   DW_AT_type        : <0xb4>
 <2><963>: Abbrev Number: 27 (DW_TAG_formal_parameter)
    <964>   DW_AT_type        : <0xb4>
 <2><968>: Abbrev Number: 27 (DW_TAG_formal_parameter)
    <969>   DW_AT_type        : <0x61>
 <2><96d>: Abbrev Number: 0
 <1><96e>: Abbrev Number: 34 (DW_TAG_subprogram)
    <96f>   DW_AT_external    : 1
    <96f>   DW_AT_name        : (indirect string, offset: 0x698): __xargmatch_internal
    <973>   DW_AT_decl_file   : 17
    <974>   DW_AT_decl_line   : 95
    <975>   DW_AT_decl_column : 11
    <976>   DW_AT_prototyped  : 1
    <976>   DW_AT_type        : <0x17b>
    <97a>   DW_AT_declaration : 1
    <97a>   DW_AT_sibling     : <0x9a2>
 <2><97e>: Abbrev Number: 27 (DW_TAG_formal_parameter)
    <97f>   DW_AT_type        : <0xb4>
 <2><983>: Abbrev Number: 27 (DW_TAG_formal_parameter)
    <984>   DW_AT_type        : <0xb4>
 <2><988>: Abbrev Number: 27 (DW_TAG_formal_parameter)
    <989>   DW_AT_type        : <0x9a2>
 <2><98d>: Abbrev Number: 27 (DW_TAG_formal_parameter)
    <98e>   DW_AT_type        : <0x1a0>
 <2><992>: Abbrev Number: 27 (DW_TAG_formal_parameter)
    <993>   DW_AT_type        : <0x15b>
 <2><997>: Abbrev Number: 27 (DW_TAG_formal_parameter)
    <998>   DW_AT_type        : <0x4e1>
 <2><99c>: Abbrev Number: 27 (DW_TAG_formal_parameter)
    <99d>   DW_AT_type        : <0x573>
 <2><9a1>: Abbrev Number: 0
 <1><9a2>: Abbrev Number: 3 (DW_TAG_pointer_type)
    <9a3>   DW_AT_byte_size   : 8
    <9a4>   DW_AT_type        : <0xba>
 <1><9a8>: Abbrev Number: 37 (DW_TAG_subprogram)
    <9a9>   DW_AT_external    : 1
    <9a9>   DW_AT_name        : (indirect string, offset: 0x7cd): setvbuf
    <9ad>   DW_AT_decl_file   : 15
    <9ae>   DW_AT_decl_line   : 308
    <9b0>   DW_AT_decl_column : 12
    <9b1>   DW_AT_prototyped  : 1
    <9b1>   DW_AT_type        : <0x61>
    <9b5>   DW_AT_declaration : 1
    <9b5>   DW_AT_sibling     : <0x9ce>
 <2><9b9>: Abbrev Number: 27 (DW_TAG_formal_parameter)
    <9ba>   DW_AT_type        : <0x445>
 <2><9be>: Abbrev Number: 27 (DW_TAG_formal_parameter)
    <9bf>   DW_AT_type        : <0x44>
 <2><9c3>: Abbrev Number: 27 (DW_TAG_formal_parameter)
    <9c4>   DW_AT_type        : <0x61>
 <2><9c8>: Abbrev Number: 27 (DW_TAG_formal_parameter)
    <9c9>   DW_AT_type        : <0x15b>
 <2><9cd>: Abbrev Number: 0
 <1><9ce>: Abbrev Number: 38 (DW_TAG_subprogram)
    <9cf>   DW_AT_external    : 1
    <9cf>   DW_AT_name        : (indirect string, offset: 0xbc8): close_stdout
    <9d3>   DW_AT_decl_file   : 41
    <9d4>   DW_AT_decl_line   : 30
    <9d5>   DW_AT_decl_column : 6
    <9d6>   DW_AT_prototyped  : 1
    <9d6>   DW_AT_declaration : 1
 <1><9d6>: Abbrev Number: 37 (DW_TAG_subprogram)
    <9d7>   DW_AT_external    : 1
    <9d7>   DW_AT_name        : (indirect string, offset: 0xaa5): atexit
    <9db>   DW_AT_decl_file   : 25
    <9dc>   DW_AT_decl_line   : 595
    <9de>   DW_AT_decl_column : 12
    <9df>   DW_AT_prototyped  : 1
    <9df>   DW_AT_type        : <0x61>
    <9e3>   DW_AT_declaration : 1
    <9e3>   DW_AT_sibling     : <0x9ed>
 <2><9e7>: Abbrev Number: 27 (DW_TAG_formal_parameter)
    <9e8>   DW_AT_type        : <0x18f>
 <2><9ec>: Abbrev Number: 0
 <1><9ed>: Abbrev Number: 34 (DW_TAG_subprogram)
    <9ee>   DW_AT_external    : 1
    <9ee>   DW_AT_name        : (indirect string, offset: 0xcb9): textdomain
    <9f2>   DW_AT_decl_file   : 26
    <9f3>   DW_AT_decl_line   : 82
    <9f4>   DW_AT_decl_column : 14
    <9f5>   DW_AT_prototyped  : 1
    <9f5>   DW_AT_type        : <0x39>
    <9f9>   DW_AT_declaration : 1
    <9f9>   DW_AT_sibling     : <0xa03>
 <2><9fd>: Abbrev Number: 27 (DW_TAG_formal_parameter)
    <9fe>   DW_AT_type        : <0xb4>
 <2><a02>: Abbrev Number: 0
 <1><a03>: Abbrev Number: 34 (DW_TAG_subprogram)
    <a04>   DW_AT_external    : 1
    <a04>   DW_AT_name        : (indirect string, offset: 0xcb5): bindtextdomain
    <a08>   DW_AT_decl_file   : 26
    <a09>   DW_AT_decl_line   : 86
    <a0a>   DW_AT_decl_column : 14
    <a0b>   DW_AT_prototyped  : 1
    <a0b>   DW_AT_type        : <0x39>
    <a0f>   DW_AT_declaration : 1
    <a0f>   DW_AT_sibling     : <0xa1e>
 <2><a13>: Abbrev Number: 27 (DW_TAG_formal_parameter)
    <a14>   DW_AT_type        : <0xb4>
 <2><a18>: Abbrev Number: 27 (DW_TAG_formal_parameter)
    <a19>   DW_AT_type        : <0xb4>
 <2><a1d>: Abbrev Number: 0
 <1><a1e>: Abbrev Number: 35 (DW_TAG_subprogram)
    <a1f>   DW_AT_external    : 1
    <a1f>   DW_AT_name        : (indirect string, offset: 0x1a2): set_program_name
    <a23>   DW_AT_decl_file   : 16
    <a24>   DW_AT_decl_line   : 37
    <a25>   DW_AT_decl_column : 13
    <a26>   DW_AT_prototyped  : 1
    <a26>   DW_AT_declaration : 1
    <a26>   DW_AT_sibling     : <0xa30>
 <2><a2a>: Abbrev Number: 27 (DW_TAG_formal_parameter)
    <a2b>   DW_AT_type        : <0xb4>
 <2><a2f>: Abbrev Number: 0
 <1><a30>: Abbrev Number: 34 (DW_TAG_subprogram)
    <a31>   DW_AT_external    : 1
    <a31>   DW_AT_name        : (indirect string, offset: 0x617): ngettext
    <a35>   DW_AT_decl_file   : 26
    <a36>   DW_AT_decl_line   : 61
    <a37>   DW_AT_decl_column : 14
    <a38>   DW_AT_prototyped  : 1
    <a38>   DW_AT_type        : <0x39>
    <a3c>   DW_AT_declaration : 1
    <a3c>   DW_AT_sibling     : <0xa50>
 <2><a40>: Abbrev Number: 27 (DW_TAG_formal_parameter)
    <a41>   DW_AT_type        : <0xb4>
 <2><a45>: Abbrev Number: 27 (DW_TAG_formal_parameter)
    <a46>   DW_AT_type        : <0xb4>
 <2><a4a>: Abbrev Number: 27 (DW_TAG_formal_parameter)
    <a4b>   DW_AT_type        : <0xe9>
 <2><a4f>: Abbrev Number: 0
 <1><a50>: Abbrev Number: 39 (DW_TAG_subprogram)
    <a51>   DW_AT_external    : 1
    <a51>   DW_AT_name        : (indirect string, offset: 0xb73): rpl_free
    <a55>   DW_AT_decl_file   : 28
    <a56>   DW_AT_decl_line   : 739
    <a58>   DW_AT_decl_column : 1
    <a59>   DW_AT_prototyped  : 1
    <a59>   DW_AT_declaration : 1
    <a59>   DW_AT_sibling     : <0xa63>
 <2><a5d>: Abbrev Number: 27 (DW_TAG_formal_parameter)
    <a5e>   DW_AT_type        : <0x135>
 <2><a62>: Abbrev Number: 0
 <1><a63>: Abbrev Number: 37 (DW_TAG_subprogram)
    <a64>   DW_AT_external    : 1
    <a64>   DW_AT_name        : (indirect string, offset: 0x83): ferror_unlocked
    <a68>   DW_AT_decl_file   : 15
    <a69>   DW_AT_decl_line   : 767
    <a6b>   DW_AT_decl_column : 12
    <a6c>   DW_AT_prototyped  : 1
    <a6c>   DW_AT_type        : <0x61>
    <a70>   DW_AT_declaration : 1
    <a70>   DW_AT_sibling     : <0xa7a>
 <2><a74>: Abbrev Number: 27 (DW_TAG_formal_parameter)
    <a75>   DW_AT_type        : <0x43f>
 <2><a79>: Abbrev Number: 0
 <1><a7a>: Abbrev Number: 37 (DW_TAG_subprogram)
    <a7b>   DW_AT_external    : 1
    <a7b>   DW_AT_name        : (indirect string, offset: 0x28c): feof_unlocked
    <a7f>   DW_AT_decl_file   : 15
    <a80>   DW_AT_decl_line   : 766
    <a82>   DW_AT_decl_column : 12
    <a83>   DW_AT_prototyped  : 1
    <a83>   DW_AT_type        : <0x61>
    <a87>   DW_AT_declaration : 1
    <a87>   DW_AT_sibling     : <0xa91>
 <2><a8b>: Abbrev Number: 27 (DW_TAG_formal_parameter)
    <a8c>   DW_AT_type        : <0x43f>
 <2><a90>: Abbrev Number: 0
 <1><a91>: Abbrev Number: 34 (DW_TAG_subprogram)
    <a92>   DW_AT_external    : 1
    <a92>   DW_AT_name        : (indirect string, offset: 0x249d): tolower
    <a96>   DW_AT_decl_file   : 12
    <a97>   DW_AT_decl_line   : 122
    <a98>   DW_AT_decl_column : 12
    <a99>   DW_AT_prototyped  : 1
    <a99>   DW_AT_type        : <0x61>
    <a9d>   DW_AT_declaration : 1
    <a9d>   DW_AT_sibling     : <0xaa7>
 <2><aa1>: Abbrev Number: 27 (DW_TAG_formal_parameter)
    <aa2>   DW_AT_type        : <0x61>
 <2><aa6>: Abbrev Number: 0
 <1><aa7>: Abbrev Number: 37 (DW_TAG_subprogram)
    <aa8>   DW_AT_external    : 1
    <aa8>   DW_AT_name        : (indirect string, offset: 0x9f9): getline
    <aac>   DW_AT_decl_file   : 15
    <aad>   DW_AT_decl_line   : 616
    <aaf>   DW_AT_decl_column : 18
    <ab0>   DW_AT_prototyped  : 1
    <ab0>   DW_AT_type        : <0x137>
    <ab4>   DW_AT_declaration : 1
    <ab4>   DW_AT_sibling     : <0xac8>
 <2><ab8>: Abbrev Number: 27 (DW_TAG_formal_parameter)
    <ab9>   DW_AT_type        : <0x19b>
 <2><abd>: Abbrev Number: 27 (DW_TAG_formal_parameter)
    <abe>   DW_AT_type        : <0xace>
 <2><ac2>: Abbrev Number: 27 (DW_TAG_formal_parameter)
    <ac3>   DW_AT_type        : <0x445>
 <2><ac7>: Abbrev Number: 0
 <1><ac8>: Abbrev Number: 3 (DW_TAG_pointer_type)
    <ac9>   DW_AT_byte_size   : 8
    <aca>   DW_AT_type        : <0x15b>
 <1><ace>: Abbrev Number: 5 (DW_TAG_restrict_type)
    <acf>   DW_AT_type        : <0xac8>
 <1><ad3>: Abbrev Number: 34 (DW_TAG_subprogram)
    <ad4>   DW_AT_external    : 1
    <ad4>   DW_AT_name        : (indirect string, offset: 0x9f2): strchr
    <ad8>   DW_AT_decl_file   : 29
    <ad9>   DW_AT_decl_line   : 226
    <ada>   DW_AT_decl_column : 14
    <adb>   DW_AT_prototyped  : 1
    <adb>   DW_AT_type        : <0x39>
    <adf>   DW_AT_declaration : 1
    <adf>   DW_AT_sibling     : <0xaee>
 <2><ae3>: Abbrev Number: 27 (DW_TAG_formal_parameter)
    <ae4>   DW_AT_type        : <0xb4>
 <2><ae8>: Abbrev Number: 27 (DW_TAG_formal_parameter)
    <ae9>   DW_AT_type        : <0x61>
 <2><aed>: Abbrev Number: 0
 <1><aee>: Abbrev Number: 37 (DW_TAG_subprogram)
    <aef>   DW_AT_external    : 1
    <aef>   DW_AT_name        : (indirect string, offset: 0x16d): rpl_fclose
    <af3>   DW_AT_decl_file   : 30
    <af4>   DW_AT_decl_line   : 735
    <af6>   DW_AT_decl_column : 1
    <af7>   DW_AT_prototyped  : 1
    <af7>   DW_AT_type        : <0x61>
    <afb>   DW_AT_declaration : 1
    <afb>   DW_AT_sibling     : <0xb05>
 <2><aff>: Abbrev Number: 27 (DW_TAG_formal_parameter)
    <b00>   DW_AT_type        : <0x43f>
 <2><b04>: Abbrev Number: 0
 <1><b05>: Abbrev Number: 39 (DW_TAG_subprogram)
    <b06>   DW_AT_external    : 1
    <b06>   DW_AT_name        : (indirect string, offset: 0x384): clearerr_unlocked
    <b0a>   DW_AT_decl_file   : 15
    <b0b>   DW_AT_decl_line   : 765
    <b0d>   DW_AT_decl_column : 13
    <b0e>   DW_AT_prototyped  : 1
    <b0e>   DW_AT_declaration : 1
    <b0e>   DW_AT_sibling     : <0xb18>
 <2><b12>: Abbrev Number: 27 (DW_TAG_formal_parameter)
    <b13>   DW_AT_type        : <0x43f>
 <2><b17>: Abbrev Number: 0
 <1><b18>: Abbrev Number: 35 (DW_TAG_subprogram)
    <b19>   DW_AT_external    : 1
    <b19>   DW_AT_name        : (indirect string, offset: 0x18ba): fadvise
    <b1d>   DW_AT_decl_file   : 22
    <b1e>   DW_AT_decl_line   : 72
    <b1f>   DW_AT_decl_column : 6
    <b20>   DW_AT_prototyped  : 1
    <b20>   DW_AT_declaration : 1
    <b20>   DW_AT_sibling     : <0xb2f>
 <2><b24>: Abbrev Number: 27 (DW_TAG_formal_parameter)
    <b25>   DW_AT_type        : <0x43f>
 <2><b29>: Abbrev Number: 27 (DW_TAG_formal_parameter)
    <b2a>   DW_AT_type        : <0x5ad>
 <2><b2e>: Abbrev Number: 0
 <1><b2f>: Abbrev Number: 35 (DW_TAG_subprogram)
    <b30>   DW_AT_external    : 1
    <b30>   DW_AT_name        : (indirect string, offset: 0x136c): error
    <b34>   DW_AT_decl_file   : 31
    <b35>   DW_AT_decl_line   : 33
    <b36>   DW_AT_decl_column : 13
    <b37>   DW_AT_prototyped  : 1
    <b37>   DW_AT_declaration : 1
    <b37>   DW_AT_sibling     : <0xb4c>
 <2><b3b>: Abbrev Number: 27 (DW_TAG_formal_parameter)
    <b3c>   DW_AT_type        : <0x61>
 <2><b40>: Abbrev Number: 27 (DW_TAG_formal_parameter)
    <b41>   DW_AT_type        : <0x61>
 <2><b45>: Abbrev Number: 27 (DW_TAG_formal_parameter)
    <b46>   DW_AT_type        : <0xb4>
 <2><b4a>: Abbrev Number: 36 (DW_TAG_unspecified_parameters)
 <2><b4b>: Abbrev Number: 0
 <1><b4c>: Abbrev Number: 37 (DW_TAG_subprogram)
    <b4d>   DW_AT_external    : 1
    <b4d>   DW_AT_name        : (indirect string, offset: 0x101): quotearg_n_style_colon
    <b51>   DW_AT_decl_file   : 18
    <b52>   DW_AT_decl_line   : 403
    <b54>   DW_AT_decl_column : 7
    <b55>   DW_AT_prototyped  : 1
    <b55>   DW_AT_type        : <0x39>
    <b59>   DW_AT_declaration : 1
    <b59>   DW_AT_sibling     : <0xb6d>
 <2><b5d>: Abbrev Number: 27 (DW_TAG_formal_parameter)
    <b5e>   DW_AT_type        : <0x61>
 <2><b62>: Abbrev Number: 27 (DW_TAG_formal_parameter)
    <b63>   DW_AT_type        : <0x48c>
 <2><b67>: Abbrev Number: 27 (DW_TAG_formal_parameter)
    <b68>   DW_AT_type        : <0xb4>
 <2><b6c>: Abbrev Number: 0
 <1><b6d>: Abbrev Number: 40 (DW_TAG_subprogram)
    <b6e>   DW_AT_external    : 1
    <b6e>   DW_AT_name        : (indirect string, offset: 0x3f8): __errno_location
    <b72>   DW_AT_decl_file   : 33
    <b73>   DW_AT_decl_line   : 37
    <b74>   DW_AT_decl_column : 13
    <b75>   DW_AT_prototyped  : 1
    <b75>   DW_AT_type        : <0xc4>
    <b79>   DW_AT_declaration : 1
 <1><b79>: Abbrev Number: 34 (DW_TAG_subprogram)
    <b7a>   DW_AT_external    : 1
    <b7a>   DW_AT_name        : (indirect string, offset: 0xbe8): fopen_safer
    <b7e>   DW_AT_decl_file   : 32
    <b7f>   DW_AT_decl_line   : 23
    <b80>   DW_AT_decl_column : 7
    <b81>   DW_AT_prototyped  : 1
    <b81>   DW_AT_type        : <0x43f>
    <b85>   DW_AT_declaration : 1
    <b85>   DW_AT_sibling     : <0xb94>
 <2><b89>: Abbrev Number: 27 (DW_TAG_formal_parameter)
    <b8a>   DW_AT_type        : <0xb4>
 <2><b8e>: Abbrev Number: 27 (DW_TAG_formal_parameter)
    <b8f>   DW_AT_type        : <0xb4>
 <2><b93>: Abbrev Number: 0
 <1><b94>: Abbrev Number: 37 (DW_TAG_subprogram)
    <b95>   DW_AT_external    : 1
    <b95>   DW_AT_name        : (indirect string, offset: 0x178): putchar_unlocked
    <b99>   DW_AT_decl_file   : 15
    <b9a>   DW_AT_decl_line   : 546
    <b9c>   DW_AT_decl_column : 12
    <b9d>   DW_AT_prototyped  : 1
    <b9d>   DW_AT_type        : <0x61>
    <ba1>   DW_AT_declaration : 1
    <ba1>   DW_AT_sibling     : <0xbab>
 <2><ba5>: Abbrev Number: 27 (DW_TAG_formal_parameter)
    <ba6>   DW_AT_type        : <0x61>
 <2><baa>: Abbrev Number: 0
 <1><bab>: Abbrev Number: 34 (DW_TAG_subprogram)
    <bac>   DW_AT_external    : 1
    <bac>   DW_AT_name        : (indirect string, offset: 0xcea): xstrtoumax
    <bb0>   DW_AT_decl_file   : 19
    <bb1>   DW_AT_decl_line   : 49
    <bb2>   DW_AT_decl_column : 1
    <bb3>   DW_AT_prototyped  : 1
    <bb3>   DW_AT_type        : <0x52a>
    <bb7>   DW_AT_declaration : 1
    <bb7>   DW_AT_sibling     : <0xbd5>
 <2><bbb>: Abbrev Number: 27 (DW_TAG_formal_parameter)
    <bbc>   DW_AT_type        : <0xb4>
 <2><bc0>: Abbrev Number: 27 (DW_TAG_formal_parameter)
    <bc1>   DW_AT_type        : <0x195>
 <2><bc5>: Abbrev Number: 27 (DW_TAG_formal_parameter)
    <bc6>   DW_AT_type        : <0x61>
 <2><bca>: Abbrev Number: 27 (DW_TAG_formal_parameter)
    <bcb>   DW_AT_type        : <0x561>
 <2><bcf>: Abbrev Number: 27 (DW_TAG_formal_parameter)
    <bd0>   DW_AT_type        : <0xb4>
 <2><bd4>: Abbrev Number: 0
 <1><bd5>: Abbrev Number: 34 (DW_TAG_subprogram)
    <bd6>   DW_AT_external    : 1
    <bd6>   DW_AT_name        : (indirect string, offset: 0x89e): argmatch_exact
    <bda>   DW_AT_decl_file   : 17
    <bdb>   DW_AT_decl_line   : 55
    <bdc>   DW_AT_decl_column : 11
    <bdd>   DW_AT_prototyped  : 1
    <bdd>   DW_AT_type        : <0x17b>
    <be1>   DW_AT_declaration : 1
    <be1>   DW_AT_sibling     : <0xbf0>
 <2><be5>: Abbrev Number: 27 (DW_TAG_formal_parameter)
    <be6>   DW_AT_type        : <0xb4>
 <2><bea>: Abbrev Number: 27 (DW_TAG_formal_parameter)
    <beb>   DW_AT_type        : <0x9a2>
 <2><bef>: Abbrev Number: 0
 <1><bf0>: Abbrev Number: 37 (DW_TAG_subprogram)
    <bf1>   DW_AT_external    : 1
    <bf1>   DW_AT_name        : (indirect string, offset: 0xb2d): strlen
    <bf5>   DW_AT_decl_file   : 29
    <bf6>   DW_AT_decl_line   : 385
    <bf8>   DW_AT_decl_column : 15
    <bf9>   DW_AT_prototyped  : 1
    <bf9>   DW_AT_type        : <0x15b>
    <bfd>   DW_AT_declaration : 1
    <bfd>   DW_AT_sibling     : <0xc07>
 <2><c01>: Abbrev Number: 27 (DW_TAG_formal_parameter)
    <c02>   DW_AT_type        : <0xb4>
 <2><c06>: Abbrev Number: 0
 <1><c07>: Abbrev Number: 40 (DW_TAG_subprogram)
    <c08>   DW_AT_external    : 1
    <c08>   DW_AT_name        : (indirect string, offset: 0x703): __ctype_b_loc
    <c0c>   DW_AT_decl_file   : 12
    <c0d>   DW_AT_decl_line   : 79
    <c0e>   DW_AT_decl_column : 35
    <c0f>   DW_AT_prototyped  : 1
    <c0f>   DW_AT_type        : <0xc13>
    <c13>   DW_AT_declaration : 1
 <1><c13>: Abbrev Number: 3 (DW_TAG_pointer_type)
    <c14>   DW_AT_byte_size   : 8
    <c15>   DW_AT_type        : <0x175>
 <1><c19>: Abbrev Number: 34 (DW_TAG_subprogram)
    <c1a>   DW_AT_external    : 1
    <c1a>   DW_AT_name        : (indirect string, offset: 0xf3): strncmp
    <c1e>   DW_AT_decl_file   : 29
    <c1f>   DW_AT_decl_line   : 140
    <c20>   DW_AT_decl_column : 12
    <c21>   DW_AT_prototyped  : 1
    <c21>   DW_AT_type        : <0x61>
    <c25>   DW_AT_declaration : 1
    <c25>   DW_AT_sibling     : <0xc39>
 <2><c29>: Abbrev Number: 27 (DW_TAG_formal_parameter)
    <c2a>   DW_AT_type        : <0xb4>
 <2><c2e>: Abbrev Number: 27 (DW_TAG_formal_parameter)
    <c2f>   DW_AT_type        : <0xb4>
 <2><c33>: Abbrev Number: 27 (DW_TAG_formal_parameter)
    <c34>   DW_AT_type        : <0x15b>
 <2><c38>: Abbrev Number: 0
 <1><c39>: Abbrev Number: 34 (DW_TAG_subprogram)
    <c3a>   DW_AT_external    : 1
    <c3a>   DW_AT_name        : (indirect string, offset: 0x99f): setlocale
    <c3e>   DW_AT_decl_file   : 34
    <c3f>   DW_AT_decl_line   : 122
    <c40>   DW_AT_decl_column : 14
    <c41>   DW_AT_prototyped  : 1
    <c41>   DW_AT_type        : <0x39>
    <c45>   DW_AT_declaration : 1
    <c45>   DW_AT_sibling     : <0xc54>
 <2><c49>: Abbrev Number: 27 (DW_TAG_formal_parameter)
    <c4a>   DW_AT_type        : <0x61>
 <2><c4e>: Abbrev Number: 27 (DW_TAG_formal_parameter)
    <c4f>   DW_AT_type        : <0xb4>
 <2><c53>: Abbrev Number: 0
 <1><c54>: Abbrev Number: 34 (DW_TAG_subprogram)
    <c55>   DW_AT_external    : 1
    <c55>   DW_AT_name        : (indirect string, offset: 0x48d): strcmp
    <c59>   DW_AT_decl_file   : 29
    <c5a>   DW_AT_decl_line   : 137
    <c5b>   DW_AT_decl_column : 12
    <c5c>   DW_AT_prototyped  : 1
    <c5c>   DW_AT_type        : <0x61>
    <c60>   DW_AT_declaration : 1
    <c60>   DW_AT_sibling     : <0xc6f>
 <2><c64>: Abbrev Number: 27 (DW_TAG_formal_parameter)
    <c65>   DW_AT_type        : <0xb4>
 <2><c69>: Abbrev Number: 27 (DW_TAG_formal_parameter)
    <c6a>   DW_AT_type        : <0xb4>
 <2><c6e>: Abbrev Number: 0
 <1><c6f>: Abbrev Number: 41 (DW_TAG_subprogram)
    <c70>   DW_AT_external    : 1
    <c70>   DW_AT_name        : (indirect string, offset: 0x23e1): exit
    <c74>   DW_AT_decl_file   : 25
    <c75>   DW_AT_decl_line   : 617
    <c77>   DW_AT_decl_column : 13
    <c78>   DW_AT_prototyped  : 1
    <c78>   DW_AT_noreturn    : 1
    <c78>   DW_AT_declaration : 1
    <c78>   DW_AT_sibling     : <0xc82>
 <2><c7c>: Abbrev Number: 27 (DW_TAG_formal_parameter)
    <c7d>   DW_AT_type        : <0x61>
 <2><c81>: Abbrev Number: 0
 <1><c82>: Abbrev Number: 37 (DW_TAG_subprogram)
    <c83>   DW_AT_external    : 1
    <c83>   DW_AT_name        : (indirect string, offset: 0x554): fputs_unlocked
    <c87>   DW_AT_decl_file   : 15
    <c88>   DW_AT_decl_line   : 662
    <c8a>   DW_AT_decl_column : 12
    <c8b>   DW_AT_prototyped  : 1
    <c8b>   DW_AT_type        : <0x61>
    <c8f>   DW_AT_declaration : 1
    <c8f>   DW_AT_sibling     : <0xc9e>
 <2><c93>: Abbrev Number: 27 (DW_TAG_formal_parameter)
    <c94>   DW_AT_type        : <0xbf>
 <2><c98>: Abbrev Number: 27 (DW_TAG_formal_parameter)
    <c99>   DW_AT_type        : <0x445>
 <2><c9d>: Abbrev Number: 0
 <1><c9e>: Abbrev Number: 37 (DW_TAG_subprogram)
    <c9f>   DW_AT_external    : 1
    <c9f>   DW_AT_name        : (indirect string, offset: 0xa0e): printf
    <ca3>   DW_AT_decl_file   : 15
    <ca4>   DW_AT_decl_line   : 332
    <ca6>   DW_AT_decl_column : 12
    <ca7>   DW_AT_prototyped  : 1
    <ca7>   DW_AT_type        : <0x61>
    <cab>   DW_AT_declaration : 1
    <cab>   DW_AT_sibling     : <0xcb6>
 <2><caf>: Abbrev Number: 27 (DW_TAG_formal_parameter)
    <cb0>   DW_AT_type        : <0xb4>
 <2><cb4>: Abbrev Number: 36 (DW_TAG_unspecified_parameters)
 <2><cb5>: Abbrev Number: 0
 <1><cb6>: Abbrev Number: 37 (DW_TAG_subprogram)
    <cb7>   DW_AT_external    : 1
    <cb7>   DW_AT_name        : (indirect string, offset: 0xa0d): fprintf
    <cbb>   DW_AT_decl_file   : 15
    <cbc>   DW_AT_decl_line   : 326
    <cbe>   DW_AT_decl_column : 12
    <cbf>   DW_AT_prototyped  : 1
    <cbf>   DW_AT_type        : <0x61>
    <cc3>   DW_AT_declaration : 1
    <cc3>   DW_AT_sibling     : <0xcd3>
 <2><cc7>: Abbrev Number: 27 (DW_TAG_formal_parameter)
    <cc8>   DW_AT_type        : <0x445>
 <2><ccc>: Abbrev Number: 27 (DW_TAG_formal_parameter)
    <ccd>   DW_AT_type        : <0xbf>
 <2><cd1>: Abbrev Number: 36 (DW_TAG_unspecified_parameters)
 <2><cd2>: Abbrev Number: 0
 <1><cd3>: Abbrev Number: 34 (DW_TAG_subprogram)
    <cd4>   DW_AT_external    : 1
    <cd4>   DW_AT_name        : (indirect string, offset: 0x618): gettext
    <cd8>   DW_AT_decl_file   : 26
    <cd9>   DW_AT_decl_line   : 39
    <cda>   DW_AT_decl_column : 14
    <cdb>   DW_AT_prototyped  : 1
    <cdb>   DW_AT_type        : <0x39>
    <cdf>   DW_AT_declaration : 1
    <cdf>   DW_AT_sibling     : <0xce9>
 <2><ce3>: Abbrev Number: 27 (DW_TAG_formal_parameter)
    <ce4>   DW_AT_type        : <0xb4>
 <2><ce8>: Abbrev Number: 0
 <1><ce9>: Abbrev Number: 35 (DW_TAG_subprogram)
    <cea>   DW_AT_external    : 1
    <cea>   DW_AT_name        : (indirect string, offset: 0x749): output_crc
    <cee>   DW_AT_decl_file   : 21
    <cef>   DW_AT_decl_line   : 10
    <cf0>   DW_AT_decl_column : 1
    <cf1>   DW_AT_prototyped  : 1
    <cf1>   DW_AT_declaration : 1
    <cf1>   DW_AT_sibling     : <0xd19>
 <2><cf5>: Abbrev Number: 27 (DW_TAG_formal_parameter)
    <cf6>   DW_AT_type        : <0xb4>
 <2><cfa>: Abbrev Number: 27 (DW_TAG_formal_parameter)
    <cfb>   DW_AT_type        : <0x61>
 <2><cff>: Abbrev Number: 27 (DW_TAG_formal_parameter)
    <d00>   DW_AT_type        : <0x1a0>
 <2><d04>: Abbrev Number: 27 (DW_TAG_formal_parameter)
    <d05>   DW_AT_type        : <0x573>
 <2><d09>: Abbrev Number: 27 (DW_TAG_formal_parameter)
    <d0a>   DW_AT_type        : <0xca>
 <2><d0e>: Abbrev Number: 27 (DW_TAG_formal_parameter)
    <d0f>   DW_AT_type        : <0x573>
 <2><d13>: Abbrev Number: 27 (DW_TAG_formal_parameter)
    <d14>   DW_AT_type        : <0x1b3>
 <2><d18>: Abbrev Number: 0
 <1><d19>: Abbrev Number: 35 (DW_TAG_subprogram)
    <d1a>   DW_AT_external    : 1
    <d1a>   DW_AT_name        : (indirect string, offset: 0xb34): output_sysv
    <d1e>   DW_AT_decl_file   : 20
    <d1f>   DW_AT_decl_line   : 16
    <d20>   DW_AT_decl_column : 1
    <d21>   DW_AT_prototyped  : 1
    <d21>   DW_AT_declaration : 1
    <d21>   DW_AT_sibling     : <0xd49>
 <2><d25>: Abbrev Number: 27 (DW_TAG_formal_parameter)
    <d26>   DW_AT_type        : <0xb4>
 <2><d2a>: Abbrev Number: 27 (DW_TAG_formal_parameter)
    <d2b>   DW_AT_type        : <0x61>
 <2><d2f>: Abbrev Number: 27 (DW_TAG_formal_parameter)
    <d30>   DW_AT_type        : <0x1a0>
 <2><d34>: Abbrev Number: 27 (DW_TAG_formal_parameter)
    <d35>   DW_AT_type        : <0x573>
 <2><d39>: Abbrev Number: 27 (DW_TAG_formal_parameter)
    <d3a>   DW_AT_type        : <0xca>
 <2><d3e>: Abbrev Number: 27 (DW_TAG_formal_parameter)
    <d3f>   DW_AT_type        : <0x573>
 <2><d43>: Abbrev Number: 27 (DW_TAG_formal_parameter)
    <d44>   DW_AT_type        : <0x1b3>
 <2><d48>: Abbrev Number: 0
 <1><d49>: Abbrev Number: 35 (DW_TAG_subprogram)
    <d4a>   DW_AT_external    : 1
    <d4a>   DW_AT_name        : (indirect string, offset: 0x571): output_bsd
    <d4e>   DW_AT_decl_file   : 20
    <d4f>   DW_AT_decl_line   : 11
    <d50>   DW_AT_decl_column : 1
    <d51>   DW_AT_prototyped  : 1
    <d51>   DW_AT_declaration : 1
    <d51>   DW_AT_sibling     : <0xd79>
 <2><d55>: Abbrev Number: 27 (DW_TAG_formal_parameter)
    <d56>   DW_AT_type        : <0xb4>
 <2><d5a>: Abbrev Number: 27 (DW_TAG_formal_parameter)
    <d5b>   DW_AT_type        : <0x61>
 <2><d5f>: Abbrev Number: 27 (DW_TAG_formal_parameter)
    <d60>   DW_AT_type        : <0x1a0>
 <2><d64>: Abbrev Number: 27 (DW_TAG_formal_parameter)
    <d65>   DW_AT_type        : <0x573>
 <2><d69>: Abbrev Number: 27 (DW_TAG_formal_parameter)
    <d6a>   DW_AT_type        : <0xca>
 <2><d6e>: Abbrev Number: 27 (DW_TAG_formal_parameter)
    <d6f>   DW_AT_type        : <0x573>
 <2><d73>: Abbrev Number: 27 (DW_TAG_formal_parameter)
    <d74>   DW_AT_type        : <0x1b3>
 <2><d78>: Abbrev Number: 0
 <1><d79>: Abbrev Number: 34 (DW_TAG_subprogram)
    <d7a>   DW_AT_external    : 1
    <d7a>   DW_AT_name        : (indirect string, offset: 0x1e): crc_sum_stream
    <d7e>   DW_AT_decl_file   : 21
    <d7f>   DW_AT_decl_line   : 7
    <d80>   DW_AT_decl_column : 1
    <d81>   DW_AT_prototyped  : 1
    <d81>   DW_AT_type        : <0x61>
    <d85>   DW_AT_declaration : 1
    <d85>   DW_AT_sibling     : <0xd99>
 <2><d89>: Abbrev Number: 27 (DW_TAG_formal_parameter)
    <d8a>   DW_AT_type        : <0x43f>
 <2><d8e>: Abbrev Number: 27 (DW_TAG_formal_parameter)
    <d8f>   DW_AT_type        : <0x135>
 <2><d93>: Abbrev Number: 27 (DW_TAG_formal_parameter)
    <d94>   DW_AT_type        : <0x561>
 <2><d98>: Abbrev Number: 0
 <1><d99>: Abbrev Number: 34 (DW_TAG_subprogram)
    <d9a>   DW_AT_external    : 1
    <d9a>   DW_AT_name        : (indirect string, offset: 0x96f): sysv_sum_stream
    <d9e>   DW_AT_decl_file   : 20
    <d9f>   DW_AT_decl_line   : 5
    <da0>   DW_AT_decl_column : 1
    <da1>   DW_AT_prototyped  : 1
    <da1>   DW_AT_type        : <0x61>
    <da5>   DW_AT_declaration : 1
    <da5>   DW_AT_sibling     : <0xdb9>
 <2><da9>: Abbrev Number: 27 (DW_TAG_formal_parameter)
    <daa>   DW_AT_type        : <0x43f>
 <2><dae>: Abbrev Number: 27 (DW_TAG_formal_parameter)
    <daf>   DW_AT_type        : <0x135>
 <2><db3>: Abbrev Number: 27 (DW_TAG_formal_parameter)
    <db4>   DW_AT_type        : <0x561>
 <2><db8>: Abbrev Number: 0
 <1><db9>: Abbrev Number: 34 (DW_TAG_subprogram)
    <dba>   DW_AT_external    : 1
    <dba>   DW_AT_name        : (indirect string, offset: 0x134): bsd_sum_stream
    <dbe>   DW_AT_decl_file   : 20
    <dbf>   DW_AT_decl_line   : 2
    <dc0>   DW_AT_decl_column : 1
    <dc1>   DW_AT_prototyped  : 1
    <dc1>   DW_AT_type        : <0x61>
    <dc5>   DW_AT_declaration : 1
    <dc5>   DW_AT_sibling     : <0xdd9>
 <2><dc9>: Abbrev Number: 27 (DW_TAG_formal_parameter)
    <dca>   DW_AT_type        : <0x43f>
 <2><dce>: Abbrev Number: 27 (DW_TAG_formal_parameter)
    <dcf>   DW_AT_type        : <0x135>
 <2><dd3>: Abbrev Number: 27 (DW_TAG_formal_parameter)
    <dd4>   DW_AT_type        : <0x561>
 <2><dd8>: Abbrev Number: 0
 <1><dd9>: Abbrev Number: 34 (DW_TAG_subprogram)
    <dda>   DW_AT_external    : 1
    <dda>   DW_AT_name        : (indirect string, offset: 0xa76): sm3_stream
    <dde>   DW_AT_decl_file   : 35
    <ddf>   DW_AT_decl_line   : 97
    <de0>   DW_AT_decl_column : 12
    <de1>   DW_AT_prototyped  : 1
    <de1>   DW_AT_type        : <0x61>
    <de5>   DW_AT_declaration : 1
    <de5>   DW_AT_sibling     : <0xdf4>
 <2><de9>: Abbrev Number: 27 (DW_TAG_formal_parameter)
    <dea>   DW_AT_type        : <0x43f>
 <2><dee>: Abbrev Number: 27 (DW_TAG_formal_parameter)
    <def>   DW_AT_type        : <0x135>
 <2><df3>: Abbrev Number: 0
 <1><df4>: Abbrev Number: 34 (DW_TAG_subprogram)
    <df5>   DW_AT_external    : 1
    <df5>   DW_AT_name        : (indirect string, offset: 0xc8e): blake2b_stream
    <df9>   DW_AT_decl_file   : 36
    <dfa>   DW_AT_decl_line   : 16
    <dfb>   DW_AT_decl_column : 5
    <dfc>   DW_AT_prototyped  : 1
    <dfc>   DW_AT_type        : <0x61>
    <e00>   DW_AT_declaration : 1
    <e00>   DW_AT_sibling     : <0xe14>
 <2><e04>: Abbrev Number: 27 (DW_TAG_formal_parameter)
    <e05>   DW_AT_type        : <0x43f>
 <2><e09>: Abbrev Number: 27 (DW_TAG_formal_parameter)
    <e0a>   DW_AT_type        : <0x135>
 <2><e0e>: Abbrev Number: 27 (DW_TAG_formal_parameter)
    <e0f>   DW_AT_type        : <0x15b>
 <2><e13>: Abbrev Number: 0
 <1><e14>: Abbrev Number: 34 (DW_TAG_subprogram)
    <e15>   DW_AT_external    : 1
    <e15>   DW_AT_name        : (indirect string, offset: 0x49e): sha512_stream
    <e19>   DW_AT_decl_file   : 37
    <e1a>   DW_AT_decl_line   : 106
    <e1b>   DW_AT_decl_column : 12
    <e1c>   DW_AT_prototyped  : 1
    <e1c>   DW_AT_type        : <0x61>
    <e20>   DW_AT_declaration : 1
    <e20>   DW_AT_sibling     : <0xe2f>
 <2><e24>: Abbrev Number: 27 (DW_TAG_formal_parameter)
    <e25>   DW_AT_type        : <0x43f>
 <2><e29>: Abbrev Number: 27 (DW_TAG_formal_parameter)
    <e2a>   DW_AT_type        : <0x135>
 <2><e2e>: Abbrev Number: 0
 <1><e2f>: Abbrev Number: 34 (DW_TAG_subprogram)
    <e30>   DW_AT_external    : 1
    <e30>   DW_AT_name        : (indirect string, offset: 0xadc): sha384_stream
    <e34>   DW_AT_decl_file   : 37
    <e35>   DW_AT_decl_line   : 107
    <e36>   DW_AT_decl_column : 12
    <e37>   DW_AT_prototyped  : 1
    <e37>   DW_AT_type        : <0x61>
    <e3b>   DW_AT_declaration : 1
    <e3b>   DW_AT_sibling     : <0xe4a>
 <2><e3f>: Abbrev Number: 27 (DW_TAG_formal_parameter)
    <e40>   DW_AT_type        : <0x43f>
 <2><e44>: Abbrev Number: 27 (DW_TAG_formal_parameter)
    <e45>   DW_AT_type        : <0x135>
 <2><e49>: Abbrev Number: 0
 <1><e4a>: Abbrev Number: 34 (DW_TAG_subprogram)
    <e4b>   DW_AT_external    : 1
    <e4b>   DW_AT_name        : (indirect string, offset: 0x83f): sha256_stream
    <e4f>   DW_AT_decl_file   : 38
    <e50>   DW_AT_decl_line   : 103
    <e51>   DW_AT_decl_column : 12
    <e52>   DW_AT_prototyped  : 1
    <e52>   DW_AT_type        : <0x61>
    <e56>   DW_AT_declaration : 1
    <e56>   DW_AT_sibling     : <0xe65>
 <2><e5a>: Abbrev Number: 27 (DW_TAG_formal_parameter)
    <e5b>   DW_AT_type        : <0x43f>
 <2><e5f>: Abbrev Number: 27 (DW_TAG_formal_parameter)
    <e60>   DW_AT_type        : <0x135>
 <2><e64>: Abbrev Number: 0
 <1><e65>: Abbrev Number: 34 (DW_TAG_subprogram)
    <e66>   DW_AT_external    : 1
    <e66>   DW_AT_name        : (indirect string, offset: 0x2d): sha224_stream
    <e6a>   DW_AT_decl_file   : 38
    <e6b>   DW_AT_decl_line   : 104
    <e6c>   DW_AT_decl_column : 12
    <e6d>   DW_AT_prototyped  : 1
    <e6d>   DW_AT_type        : <0x61>
    <e71>   DW_AT_declaration : 1
    <e71>   DW_AT_sibling     : <0xe80>
 <2><e75>: Abbrev Number: 27 (DW_TAG_formal_parameter)
    <e76>   DW_AT_type        : <0x43f>
 <2><e7a>: Abbrev Number: 27 (DW_TAG_formal_parameter)
    <e7b>   DW_AT_type        : <0x135>
 <2><e7f>: Abbrev Number: 0
 <1><e80>: Abbrev Number: 34 (DW_TAG_subprogram)
    <e81>   DW_AT_external    : 1
    <e81>   DW_AT_name        : (indirect string, offset: 0x68c): sha1_stream
    <e85>   DW_AT_decl_file   : 39
    <e86>   DW_AT_decl_line   : 98
    <e87>   DW_AT_decl_column : 12
    <e88>   DW_AT_prototyped  : 1
    <e88>   DW_AT_type        : <0x61>
    <e8c>   DW_AT_declaration : 1
    <e8c>   DW_AT_sibling     : <0xe9b>
 <2><e90>: Abbrev Number: 27 (DW_TAG_formal_parameter)
    <e91>   DW_AT_type        : <0x43f>
 <2><e95>: Abbrev Number: 27 (DW_TAG_formal_parameter)
    <e96>   DW_AT_type        : <0x135>
 <2><e9a>: Abbrev Number: 0
 <1><e9b>: Abbrev Number: 34 (DW_TAG_subprogram)
    <e9c>   DW_AT_external    : 1
    <e9c>   DW_AT_name        : (indirect string, offset: 0x6d7): md5_stream
    <ea0>   DW_AT_decl_file   : 40
    <ea1>   DW_AT_decl_line   : 134
    <ea2>   DW_AT_decl_column : 12
    <ea3>   DW_AT_prototyped  : 1
    <ea3>   DW_AT_type        : <0x61>
    <ea7>   DW_AT_declaration : 1
    <ea7>   DW_AT_sibling     : <0xeb6>
 <2><eab>: Abbrev Number: 27 (DW_TAG_formal_parameter)
    <eac>   DW_AT_type        : <0x43f>
 <2><eb0>: Abbrev Number: 27 (DW_TAG_formal_parameter)
    <eb1>   DW_AT_type        : <0x135>
 <2><eb5>: Abbrev Number: 0
 <1><eb6>: Abbrev Number: 42 (DW_TAG_subprogram)
    <eb7>   DW_AT_external    : 1
    <eb7>   DW_AT_name        : (indirect string, offset: 0xcbf): main
    <ebb>   DW_AT_decl_file   : 2
    <ebc>   DW_AT_decl_line   : 1243
    <ebe>   DW_AT_decl_column : 1
    <ebf>   DW_AT_prototyped  : 1
    <ebf>   DW_AT_type        : <0x61>
    <ec3>   DW_AT_low_pc      : 0x4848
    <ecb>   DW_AT_high_pc     : 0x93c
    <ed3>   DW_AT_frame_base  : 1 byte block: 9c 	(DW_OP_call_frame_cfa)
    <ed5>   DW_AT_GNU_all_tail_call_sites: 1
    <ed5>   DW_AT_sibling     : <0x1089>
 <2><ed9>: Abbrev Number: 43 (DW_TAG_formal_parameter)
    <eda>   DW_AT_name        : (indirect string, offset: 0x63c): argc
    <ede>   DW_AT_decl_file   : 2
    <edf>   DW_AT_decl_line   : 1243
    <ee1>   DW_AT_decl_column : 11
    <ee2>   DW_AT_type        : <0x61>
    <ee6>   DW_AT_location    : 3 byte block: 91 bc 7e 	(DW_OP_fbreg: -196)
 <2><eea>: Abbrev Number: 43 (DW_TAG_formal_parameter)
    <eeb>   DW_AT_name        : (indirect string, offset: 0x66a): argv
    <eef>   DW_AT_decl_file   : 2
    <ef0>   DW_AT_decl_line   : 1243
    <ef2>   DW_AT_decl_column : 24
    <ef3>   DW_AT_type        : <0x195>
    <ef7>   DW_AT_location    : 3 byte block: 91 b0 7e 	(DW_OP_fbreg: -208)
 <2><efb>: Abbrev Number: 32 (DW_TAG_variable)
    <efc>   DW_AT_name        : (indirect string, offset: 0x23c): bin_buffer_unaligned
    <f00>   DW_AT_decl_file   : 2
    <f01>   DW_AT_decl_line   : 1245
    <f03>   DW_AT_decl_column : 17
    <f04>   DW_AT_type        : <0x1089>
    <f08>   DW_AT_location    : 3 byte block: 91 90 7f 	(DW_OP_fbreg: -112)
 <2><f0c>: Abbrev Number: 32 (DW_TAG_variable)
    <f0d>   DW_AT_name        : (indirect string, offset: 0x6ad): bin_buffer
    <f11>   DW_AT_decl_file   : 2
    <f12>   DW_AT_decl_line   : 1247
    <f14>   DW_AT_decl_column : 18
    <f15>   DW_AT_type        : <0x1099>
    <f19>   DW_AT_location    : 3 byte block: 91 f8 7e 	(DW_OP_fbreg: -136)
 <2><f1d>: Abbrev Number: 32 (DW_TAG_variable)
    <f1e>   DW_AT_name        : (indirect string, offset: 0x8f2): do_check
    <f22>   DW_AT_decl_file   : 2
    <f23>   DW_AT_decl_line   : 1248
    <f25>   DW_AT_decl_column : 8
    <f26>   DW_AT_type        : <0x573>
    <f2a>   DW_AT_location    : 3 byte block: 91 c9 7e 	(DW_OP_fbreg: -183)
 <2><f2e>: Abbrev Number: 44 (DW_TAG_variable)
    <f2f>   DW_AT_name        : opt
    <f33>   DW_AT_decl_file   : 2
    <f34>   DW_AT_decl_line   : 1249
    <f36>   DW_AT_decl_column : 7
    <f37>   DW_AT_type        : <0x61>
    <f3b>   DW_AT_location    : 3 byte block: 91 d4 7e 	(DW_OP_fbreg: -172)
 <2><f3f>: Abbrev Number: 44 (DW_TAG_variable)
    <f40>   DW_AT_name        : ok
    <f43>   DW_AT_decl_file   : 2
    <f44>   DW_AT_decl_line   : 1250
    <f46>   DW_AT_decl_column : 8
    <f47>   DW_AT_type        : <0x573>
    <f4b>   DW_AT_location    : 3 byte block: 91 ca 7e 	(DW_OP_fbreg: -182)
 <2><f4f>: Abbrev Number: 32 (DW_TAG_variable)
    <f50>   DW_AT_name        : (indirect string, offset: 0x8ad): binary
    <f54>   DW_AT_decl_file   : 2
    <f55>   DW_AT_decl_line   : 1252
    <f57>   DW_AT_decl_column : 7
    <f58>   DW_AT_type        : <0x61>
    <f5c>   DW_AT_location    : 3 byte block: 91 d0 7e 	(DW_OP_fbreg: -176)
 <2><f60>: Abbrev Number: 32 (DW_TAG_variable)
    <f61>   DW_AT_name        : (indirect string, offset: 0x7a5): prefix_tag
    <f65>   DW_AT_decl_file   : 2
    <f66>   DW_AT_decl_line   : 1253
    <f68>   DW_AT_decl_column : 8
    <f69>   DW_AT_type        : <0x573>
    <f6d>   DW_AT_location    : 3 byte block: 91 cb 7e 	(DW_OP_fbreg: -181)
 <2><f71>: Abbrev Number: 32 (DW_TAG_variable)
    <f72>   DW_AT_name        : (indirect string, offset: 0xc66): short_opts
    <f76>   DW_AT_decl_file   : 2
    <f77>   DW_AT_decl_line   : 1275
    <f79>   DW_AT_decl_column : 15
    <f7a>   DW_AT_type        : <0xb4>
    <f7e>   DW_AT_location    : 3 byte block: 91 80 7f 	(DW_OP_fbreg: -128)
 <2><f82>: Abbrev Number: 32 (DW_TAG_variable)
    <f83>   DW_AT_name        : (indirect string, offset: 0xa8d): digest_length_str
    <f87>   DW_AT_decl_file   : 2
    <f88>   DW_AT_decl_line   : 1276
    <f8a>   DW_AT_decl_column : 15
    <f8b>   DW_AT_type        : <0xb4>
    <f8f>   DW_AT_location    : 3 byte block: 91 e0 7e 	(DW_OP_fbreg: -160)
 <2><f93>: Abbrev Number: 32 (DW_TAG_variable)
    <f94>   DW_AT_name        : (indirect string, offset: 0x29a): operand_lim
    <f98>   DW_AT_decl_file   : 2
    <f99>   DW_AT_decl_line   : 1489
    <f9b>   DW_AT_decl_column : 10
    <f9c>   DW_AT_type        : <0x195>
    <fa0>   DW_AT_location    : 3 byte block: 91 e8 7e 	(DW_OP_fbreg: -152)
 <2><fa4>: Abbrev Number: 45 (DW_TAG_lexical_block)
    <fa5>   DW_AT_low_pc      : 0x4a90
    <fad>   DW_AT_high_pc     : 0x61
 <2><fb5>: Abbrev Number: 45 (DW_TAG_lexical_block)
    <fb6>   DW_AT_low_pc      : 0x4c44
    <fbe>   DW_AT_high_pc     : 0x26
 <2><fc6>: Abbrev Number: 45 (DW_TAG_lexical_block)
    <fc7>   DW_AT_low_pc      : 0x4c7d
    <fcf>   DW_AT_high_pc     : 0x90
 <2><fd7>: Abbrev Number: 45 (DW_TAG_lexical_block)
    <fd8>   DW_AT_low_pc      : 0x4d6d
    <fe0>   DW_AT_high_pc     : 0x26
 <2><fe8>: Abbrev Number: 46 (DW_TAG_lexical_block)
    <fe9>   DW_AT_low_pc      : 0x4ff4
    <ff1>   DW_AT_high_pc     : 0x11d
    <ff9>   DW_AT_sibling     : <0x1077>
 <3><ffd>: Abbrev Number: 32 (DW_TAG_variable)
    <ffe>   DW_AT_name        : (indirect string, offset: 0x683): operandp
    <1002>   DW_AT_decl_file   : 2
    <1003>   DW_AT_decl_line   : 1493
    <1005>   DW_AT_decl_column : 15
    <1006>   DW_AT_type        : <0x195>
    <100a>   DW_AT_location    : 3 byte block: 91 f0 7e 	(DW_OP_fbreg: -144)
 <3><100e>: Abbrev Number: 47 (DW_TAG_lexical_block)
    <100f>   DW_AT_low_pc      : 0x5017
    <1017>   DW_AT_high_pc     : 0xe4
 <4><101f>: Abbrev Number: 32 (DW_TAG_variable)
    <1020>   DW_AT_name        : (indirect string, offset: 0xc78): file
    <1024>   DW_AT_decl_file   : 2
    <1025>   DW_AT_decl_line   : 1495
    <1027>   DW_AT_decl_column : 13
    <1028>   DW_AT_type        : <0x39>
    <102c>   DW_AT_location    : 3 byte block: 91 88 7f 	(DW_OP_fbreg: -120)
 <4><1030>: Abbrev Number: 47 (DW_TAG_lexical_block)
    <1031>   DW_AT_low_pc      : 0x5053
    <1039>   DW_AT_high_pc     : 0xa8
 <5><1041>: Abbrev Number: 32 (DW_TAG_variable)
    <1042>   DW_AT_name        : (indirect string, offset: 0xae): binary_file
    <1046>   DW_AT_decl_file   : 2
    <1047>   DW_AT_decl_line   : 1500
    <1049>   DW_AT_decl_column : 15
    <104a>   DW_AT_type        : <0x61>
    <104e>   DW_AT_location    : 3 byte block: 91 cc 7e 	(DW_OP_fbreg: -180)
 <5><1052>: Abbrev Number: 32 (DW_TAG_variable)
    <1053>   DW_AT_name        : (indirect string, offset: 0x8ea): missing
    <1057>   DW_AT_decl_file   : 2
    <1058>   DW_AT_decl_line   : 1501
    <105a>   DW_AT_decl_column : 16
    <105b>   DW_AT_type        : <0x573>
    <105f>   DW_AT_location    : 3 byte block: 91 c8 7e 	(DW_OP_fbreg: -184)
 <5><1063>: Abbrev Number: 32 (DW_TAG_variable)
    <1064>   DW_AT_name        : (indirect string, offset: 0x91c): length
    <1068>   DW_AT_decl_file   : 2
    <1069>   DW_AT_decl_line   : 1502
    <106b>   DW_AT_decl_column : 21
    <106c>   DW_AT_type        : <0x1b3>
    <1070>   DW_AT_location    : 3 byte block: 91 d8 7e 	(DW_OP_fbreg: -168)
 <5><1074>: Abbrev Number: 0
 <4><1075>: Abbrev Number: 0
 <3><1076>: Abbrev Number: 0
 <2><1077>: Abbrev Number: 45 (DW_TAG_lexical_block)
    <1078>   DW_AT_low_pc      : 0x5130
    <1080>   DW_AT_high_pc     : 0x2d
 <2><1088>: Abbrev Number: 0
 <1><1089>: Abbrev Number: 21 (DW_TAG_array_type)
    <108a>   DW_AT_type        : <0xca>
    <108e>   DW_AT_sibling     : <0x1099>
 <2><1092>: Abbrev Number: 22 (DW_TAG_subrange_type)
    <1093>   DW_AT_type        : <0xe9>
    <1097>   DW_AT_upper_bound : 71
 <2><1098>: Abbrev Number: 0
 <1><1099>: Abbrev Number: 3 (DW_TAG_pointer_type)
    <109a>   DW_AT_byte_size   : 8
    <109b>   DW_AT_type        : <0xca>
 <1><109f>: Abbrev Number: 48 (DW_TAG_subprogram)
    <10a0>   DW_AT_name        : (indirect string, offset: 0x787): digest_check
    <10a4>   DW_AT_decl_file   : 2
    <10a5>   DW_AT_decl_line   : 1025
    <10a7>   DW_AT_decl_column : 1
    <10a8>   DW_AT_prototyped  : 1
    <10a8>   DW_AT_type        : <0x573>
    <10ac>   DW_AT_low_pc      : 0x3f05
    <10b4>   DW_AT_high_pc     : 0x943
    <10bc>   DW_AT_frame_base  : 1 byte block: 9c 	(DW_OP_call_frame_cfa)
    <10be>   DW_AT_GNU_all_tail_call_sites: 1
    <10be>   DW_AT_sibling     : <0x12bd>
 <2><10c2>: Abbrev Number: 43 (DW_TAG_formal_parameter)
    <10c3>   DW_AT_name        : (indirect string, offset: 0x15e): checkfile_name
    <10c7>   DW_AT_decl_file   : 2
    <10c8>   DW_AT_decl_line   : 1025
    <10ca>   DW_AT_decl_column : 27
    <10cb>   DW_AT_type        : <0xb4>
    <10cf>   DW_AT_location    : 3 byte block: 91 f8 7d 	(DW_OP_fbreg: -264)
 <2><10d3>: Abbrev Number: 32 (DW_TAG_variable)
    <10d4>   DW_AT_name        : (indirect string, offset: 0x738): checkfile_stream
    <10d8>   DW_AT_decl_file   : 2
    <10d9>   DW_AT_decl_line   : 1027
    <10db>   DW_AT_decl_column : 9
    <10dc>   DW_AT_type        : <0x43f>
    <10e0>   DW_AT_location    : 3 byte block: 91 c0 7e 	(DW_OP_fbreg: -192)
 <2><10e4>: Abbrev Number: 32 (DW_TAG_variable)
    <10e5>   DW_AT_name        : (indirect string, offset: 0x44d): n_misformatted_lines
    <10e9>   DW_AT_decl_file   : 2
    <10ea>   DW_AT_decl_line   : 1028
    <10ec>   DW_AT_decl_column : 13
    <10ed>   DW_AT_type        : <0x1b3>
    <10f1>   DW_AT_location    : 3 byte block: 91 c8 7e 	(DW_OP_fbreg: -184)
 <2><10f5>: Abbrev Number: 32 (DW_TAG_variable)
    <10f6>   DW_AT_name        : (indirect string, offset: 0xb93): n_improperly_formatted_lines
    <10fa>   DW_AT_decl_file   : 2
    <10fb>   DW_AT_decl_line   : 1029
    <10fd>   DW_AT_decl_column : 13
    <10fe>   DW_AT_type        : <0x1b3>
    <1102>   DW_AT_location    : 3 byte block: 91 d0 7e 	(DW_OP_fbreg: -176)
 <2><1106>: Abbrev Number: 32 (DW_TAG_variable)
    <1107>   DW_AT_name        : (indirect string, offset: 0x7da): n_mismatched_checksums
    <110b>   DW_AT_decl_file   : 2
    <110c>   DW_AT_decl_line   : 1030
    <110e>   DW_AT_decl_column : 13
    <110f>   DW_AT_type        : <0x1b3>
    <1113>   DW_AT_location    : 3 byte block: 91 d8 7e 	(DW_OP_fbreg: -168)
 <2><1117>: Abbrev Number: 32 (DW_TAG_variable)
    <1118>   DW_AT_name        : (indirect string, offset: 0x4dc): n_open_or_read_failures
    <111c>   DW_AT_decl_file   : 2
    <111d>   DW_AT_decl_line   : 1031
    <111f>   DW_AT_decl_column : 13
    <1120>   DW_AT_type        : <0x1b3>
    <1124>   DW_AT_location    : 3 byte block: 91 e0 7e 	(DW_OP_fbreg: -160)
 <2><1128>: Abbrev Number: 32 (DW_TAG_variable)
    <1129>   DW_AT_name        : (indirect string, offset: 0xb97): properly_formatted_lines
    <112d>   DW_AT_decl_file   : 2
    <112e>   DW_AT_decl_line   : 1032
    <1130>   DW_AT_decl_column : 8
    <1131>   DW_AT_type        : <0x573>
    <1135>   DW_AT_location    : 3 byte block: 91 8b 7e 	(DW_OP_fbreg: -245)
 <2><1139>: Abbrev Number: 32 (DW_TAG_variable)
    <113a>   DW_AT_name        : (indirect string, offset: 0x7df): matched_checksums
    <113e>   DW_AT_decl_file   : 2
    <113f>   DW_AT_decl_line   : 1033
    <1141>   DW_AT_decl_column : 8
    <1142>   DW_AT_type        : <0x573>
    <1146>   DW_AT_location    : 3 byte block: 91 8c 7e 	(DW_OP_fbreg: -244)
 <2><114a>: Abbrev Number: 32 (DW_TAG_variable)
    <114b>   DW_AT_name        : (indirect string, offset: 0x23c): bin_buffer_unaligned
    <114f>   DW_AT_decl_file   : 2
    <1150>   DW_AT_decl_line   : 1034
    <1152>   DW_AT_decl_column : 17
    <1153>   DW_AT_type        : <0x1089>
    <1157>   DW_AT_location    : 3 byte block: 91 90 7f 	(DW_OP_fbreg: -112)
 <2><115b>: Abbrev Number: 32 (DW_TAG_variable)
    <115c>   DW_AT_name        : (indirect string, offset: 0x6ad): bin_buffer
    <1160>   DW_AT_decl_file   : 2
    <1161>   DW_AT_decl_line   : 1036
    <1163>   DW_AT_decl_column : 18
    <1164>   DW_AT_type        : <0x1099>
    <1168>   DW_AT_location    : 3 byte block: 91 f8 7e 	(DW_OP_fbreg: -136)
 <2><116c>: Abbrev Number: 32 (DW_TAG_variable)
    <116d>   DW_AT_name        : (indirect string, offset: 0xa81): line_number
    <1171>   DW_AT_decl_file   : 2
    <1172>   DW_AT_decl_line   : 1037
    <1174>   DW_AT_decl_column : 13
    <1175>   DW_AT_type        : <0x1b3>
    <1179>   DW_AT_location    : 3 byte block: 91 e8 7e 	(DW_OP_fbreg: -152)
 <2><117d>: Abbrev Number: 32 (DW_TAG_variable)
    <117e>   DW_AT_name        : (indirect string, offset: 0x9fc): line
    <1182>   DW_AT_decl_file   : 2
    <1183>   DW_AT_decl_line   : 1038
    <1185>   DW_AT_decl_column : 9
    <1186>   DW_AT_type        : <0x39>
    <118a>   DW_AT_location    : 3 byte block: 91 98 7e 	(DW_OP_fbreg: -232)
 <2><118e>: Abbrev Number: 32 (DW_TAG_variable)
    <118f>   DW_AT_name        : (indirect string, offset: 0xc18): line_chars_allocated
    <1193>   DW_AT_decl_file   : 2
    <1194>   DW_AT_decl_line   : 1039
    <1196>   DW_AT_decl_column : 10
    <1197>   DW_AT_type        : <0x15b>
    <119b>   DW_AT_location    : 3 byte block: 91 a0 7e 	(DW_OP_fbreg: -224)
 <2><119f>: Abbrev Number: 32 (DW_TAG_variable)
    <11a0>   DW_AT_name        : (indirect string, offset: 0xcac): is_stdin
    <11a4>   DW_AT_decl_file   : 2
    <11a5>   DW_AT_decl_line   : 1040
    <11a7>   DW_AT_decl_column : 8
    <11a8>   DW_AT_type        : <0x573>
    <11ac>   DW_AT_location    : 3 byte block: 91 8d 7e 	(DW_OP_fbreg: -243)
 <2><11b0>: Abbrev Number: 44 (DW_TAG_variable)
    <11b1>   DW_AT_name        : err
    <11b5>   DW_AT_decl_file   : 2
    <11b6>   DW_AT_decl_line   : 1182
    <11b8>   DW_AT_decl_column : 7
    <11b9>   DW_AT_type        : <0x61>
    <11bd>   DW_AT_location    : 3 byte block: 91 94 7e 	(DW_OP_fbreg: -236)
 <2><11c1>: Abbrev Number: 49 (DW_TAG_lexical_block)
    <11c2>   DW_AT_ranges      : 0x0
 <3><11c6>: Abbrev Number: 32 (DW_TAG_variable)
    <11c7>   DW_AT_name        : (indirect string, offset: 0xc85): filename
    <11cb>   DW_AT_decl_file   : 2
    <11cc>   DW_AT_decl_line   : 1063
    <11ce>   DW_AT_decl_column : 13
    <11cf>   DW_AT_type        : <0x39>
    <11d3>   DW_AT_location    : 3 byte block: 91 a8 7e 	(DW_OP_fbreg: -216)
 <3><11d7>: Abbrev Number: 32 (DW_TAG_variable)
    <11d8>   DW_AT_name        : (indirect string, offset: 0x8ad): binary
    <11dc>   DW_AT_decl_file   : 2
    <11dd>   DW_AT_decl_line   : 1064
    <11df>   DW_AT_decl_column : 11
    <11e0>   DW_AT_type        : <0x61>
    <11e4>   DW_AT_location    : 3 byte block: 91 90 7e 	(DW_OP_fbreg: -240)
 <3><11e8>: Abbrev Number: 32 (DW_TAG_variable)
    <11e9>   DW_AT_name        : (indirect string, offset: 0xd9): hex_digest
    <11ed>   DW_AT_decl_file   : 2
    <11ee>   DW_AT_decl_line   : 1065
    <11f0>   DW_AT_decl_column : 22
    <11f1>   DW_AT_type        : <0x1099>
    <11f5>   DW_AT_location    : 3 byte block: 91 b0 7e 	(DW_OP_fbreg: -208)
 <3><11f9>: Abbrev Number: 32 (DW_TAG_variable)
    <11fa>   DW_AT_name        : (indirect string, offset: 0x917): line_length
    <11fe>   DW_AT_decl_file   : 2
    <11ff>   DW_AT_decl_line   : 1066
    <1201>   DW_AT_decl_column : 15
    <1202>   DW_AT_type        : <0x143>
    <1206>   DW_AT_location    : 3 byte block: 91 80 7f 	(DW_OP_fbreg: -128)
 <3><120a>: Abbrev Number: 45 (DW_TAG_lexical_block)
    <120b>   DW_AT_low_pc      : 0x407b
    <1213>   DW_AT_high_pc     : 0x45
 <3><121b>: Abbrev Number: 47 (DW_TAG_lexical_block)
    <121c>   DW_AT_low_pc      : 0x4256
    <1224>   DW_AT_high_pc     : 0x2a8
 <4><122c>: Abbrev Number: 32 (DW_TAG_variable)
    <122d>   DW_AT_name        : (indirect string, offset: 0x65a): bin2hex
    <1231>   DW_AT_decl_file   : 2
    <1232>   DW_AT_decl_line   : 1110
    <1234>   DW_AT_decl_column : 29
    <1235>   DW_AT_type        : <0x12cd>
    <1239>   DW_AT_location    : 9 byte block: 3 a0 80 2 0 0 0 0 0 	(DW_OP_addr: 280a0)
 <4><1243>: Abbrev Number: 44 (DW_TAG_variable)
    <1244>   DW_AT_name        : ok
    <1247>   DW_AT_decl_file   : 2
    <1248>   DW_AT_decl_line   : 1114
    <124a>   DW_AT_decl_column : 16
    <124b>   DW_AT_type        : <0x573>
    <124f>   DW_AT_location    : 3 byte block: 91 8f 7e 	(DW_OP_fbreg: -241)
 <4><1253>: Abbrev Number: 32 (DW_TAG_variable)
    <1254>   DW_AT_name        : (indirect string, offset: 0x8ea): missing
    <1258>   DW_AT_decl_file   : 2
    <1259>   DW_AT_decl_line   : 1115
    <125b>   DW_AT_decl_column : 16
    <125c>   DW_AT_type        : <0x573>
    <1260>   DW_AT_location    : 3 byte block: 91 8a 7e 	(DW_OP_fbreg: -246)
 <4><1264>: Abbrev Number: 32 (DW_TAG_variable)
    <1265>   DW_AT_name        : (indirect string, offset: 0x46f): needs_escape
    <1269>   DW_AT_decl_file   : 2
    <126a>   DW_AT_decl_line   : 1118
    <126c>   DW_AT_decl_column : 16
    <126d>   DW_AT_type        : <0x573>
    <1271>   DW_AT_location    : 3 byte block: 91 8e 7e 	(DW_OP_fbreg: -242)
 <4><1275>: Abbrev Number: 32 (DW_TAG_variable)
    <1276>   DW_AT_name        : (indirect string, offset: 0x91c): length
    <127a>   DW_AT_decl_file   : 2
    <127b>   DW_AT_decl_line   : 1122
    <127d>   DW_AT_decl_column : 21
    <127e>   DW_AT_type        : <0x1b3>
    <1282>   DW_AT_location    : 3 byte block: 91 b8 7e 	(DW_OP_fbreg: -200)
 <4><1286>: Abbrev Number: 47 (DW_TAG_lexical_block)
    <1287>   DW_AT_low_pc      : 0x4366
    <128f>   DW_AT_high_pc     : 0x198
 <5><1297>: Abbrev Number: 32 (DW_TAG_variable)
    <1298>   DW_AT_name        : (indirect string, offset: 0x9b3): digest_bin_bytes
    <129c>   DW_AT_decl_file   : 2
    <129d>   DW_AT_decl_line   : 1143
    <129f>   DW_AT_decl_column : 22
    <12a0>   DW_AT_type        : <0x15b>
    <12a4>   DW_AT_location    : 3 byte block: 91 88 7f 	(DW_OP_fbreg: -120)
 <5><12a8>: Abbrev Number: 44 (DW_TAG_variable)
    <12a9>   DW_AT_name        : cnt
    <12ad>   DW_AT_decl_file   : 2
    <12ae>   DW_AT_decl_line   : 1144
    <12b0>   DW_AT_decl_column : 22
    <12b1>   DW_AT_type        : <0x15b>
    <12b5>   DW_AT_location    : 3 byte block: 91 f0 7e 	(DW_OP_fbreg: -144)
 <5><12b9>: Abbrev Number: 0
 <4><12ba>: Abbrev Number: 0
 <3><12bb>: Abbrev Number: 0
 <2><12bc>: Abbrev Number: 0
 <1><12bd>: Abbrev Number: 21 (DW_TAG_array_type)
    <12be>   DW_AT_type        : <0x50>
    <12c2>   DW_AT_sibling     : <0x12cd>
 <2><12c6>: Abbrev Number: 22 (DW_TAG_subrange_type)
    <12c7>   DW_AT_type        : <0xe9>
    <12cb>   DW_AT_upper_bound : 15
 <2><12cc>: Abbrev Number: 0
 <1><12cd>: Abbrev Number: 4 (DW_TAG_const_type)
    <12ce>   DW_AT_type        : <0x12bd>
 <1><12d2>: Abbrev Number: 50 (DW_TAG_subprogram)
    <12d3>   DW_AT_name        : (indirect string, offset: 0xaf9): output_file
    <12d7>   DW_AT_decl_file   : 2
    <12d8>   DW_AT_decl_line   : 970
    <12da>   DW_AT_decl_column : 1
    <12db>   DW_AT_prototyped  : 1
    <12db>   DW_AT_low_pc      : 0x3d1a
    <12e3>   DW_AT_high_pc     : 0x1eb
    <12eb>   DW_AT_frame_base  : 1 byte block: 9c 	(DW_OP_call_frame_cfa)
    <12ed>   DW_AT_GNU_all_tail_call_sites: 1
    <12ed>   DW_AT_sibling     : <0x13a5>
 <2><12f1>: Abbrev Number: 43 (DW_TAG_formal_parameter)
    <12f2>   DW_AT_name        : (indirect string, offset: 0xc78): file
    <12f6>   DW_AT_decl_file   : 2
    <12f7>   DW_AT_decl_line   : 970
    <12f9>   DW_AT_decl_column : 26
    <12fa>   DW_AT_type        : <0xb4>
    <12fe>   DW_AT_location    : 2 byte block: 91 48 	(DW_OP_fbreg: -56)
 <2><1301>: Abbrev Number: 43 (DW_TAG_formal_parameter)
    <1302>   DW_AT_name        : (indirect string, offset: 0xae): binary_file
    <1306>   DW_AT_decl_file   : 2
    <1307>   DW_AT_decl_line   : 970
    <1309>   DW_AT_decl_column : 36
    <130a>   DW_AT_type        : <0x61>
    <130e>   DW_AT_location    : 2 byte block: 91 44 	(DW_OP_fbreg: -60)
 <2><1311>: Abbrev Number: 43 (DW_TAG_formal_parameter)
    <1312>   DW_AT_name        : (indirect string, offset: 0xdd): digest
    <1316>   DW_AT_decl_file   : 2
    <1317>   DW_AT_decl_line   : 970
    <1319>   DW_AT_decl_column : 61
    <131a>   DW_AT_type        : <0x1a0>
    <131e>   DW_AT_location    : 3 byte block: 91 b8 7f 	(DW_OP_fbreg: -72)
 <2><1322>: Abbrev Number: 43 (DW_TAG_formal_parameter)
    <1323>   DW_AT_name        : (indirect string, offset: 0xb26): tagged
    <1327>   DW_AT_decl_file   : 2
    <1328>   DW_AT_decl_line   : 971
    <132a>   DW_AT_decl_column : 19
    <132b>   DW_AT_type        : <0x573>
    <132f>   DW_AT_location    : 2 byte block: 91 40 	(DW_OP_fbreg: -64)
 <2><1332>: Abbrev Number: 43 (DW_TAG_formal_parameter)
    <1333>   DW_AT_name        : (indirect string, offset: 0x158): delim
    <1337>   DW_AT_decl_file   : 2
    <1338>   DW_AT_decl_line   : 971
    <133a>   DW_AT_decl_column : 41
    <133b>   DW_AT_type        : <0xca>
    <133f>   DW_AT_location    : 3 byte block: 91 b4 7f 	(DW_OP_fbreg: -76)
 <2><1343>: Abbrev Number: 43 (DW_TAG_formal_parameter)
    <1344>   DW_AT_name        : (indirect string, offset: 0x1fec): args
    <1348>   DW_AT_decl_file   : 2
    <1349>   DW_AT_decl_line   : 971
    <134b>   DW_AT_decl_column : 66
    <134c>   DW_AT_type        : <0x573>
    <1350>   DW_AT_location    : 3 byte block: 91 b0 7f 	(DW_OP_fbreg: -80)
 <2><1354>: Abbrev Number: 43 (DW_TAG_formal_parameter)
    <1355>   DW_AT_name        : (indirect string, offset: 0x91c): length
    <1359>   DW_AT_decl_file   : 2
    <135a>   DW_AT_decl_line   : 972
    <135c>   DW_AT_decl_column : 37
    <135d>   DW_AT_type        : <0x1b3>
    <1361>   DW_AT_location    : 2 byte block: 91 0 	(DW_OP_fbreg: 0)
 <2><1364>: Abbrev Number: 32 (DW_TAG_variable)
    <1365>   DW_AT_name        : (indirect string, offset: 0x6ad): bin_buffer
    <1369>   DW_AT_decl_file   : 2
    <136a>   DW_AT_decl_line   : 974
    <136c>   DW_AT_decl_column : 24
    <136d>   DW_AT_type        : <0x13a5>
    <1371>   DW_AT_location    : 2 byte block: 91 68 	(DW_OP_fbreg: -24)
 <2><1374>: Abbrev Number: 32 (DW_TAG_variable)
    <1375>   DW_AT_name        : (indirect string, offset: 0x46f): needs_escape
    <1379>   DW_AT_decl_file   : 2
    <137a>   DW_AT_decl_line   : 979
    <137c>   DW_AT_decl_column : 8
    <137d>   DW_AT_type        : <0x573>
    <1381>   DW_AT_location    : 2 byte block: 91 5f 	(DW_OP_fbreg: -33)
 <2><1384>: Abbrev Number: 47 (DW_TAG_lexical_block)
    <1385>   DW_AT_low_pc      : 0x3e80
    <138d>   DW_AT_high_pc     : 0x46
 <3><1395>: Abbrev Number: 44 (DW_TAG_variable)
    <1396>   DW_AT_name        : i
    <1398>   DW_AT_decl_file   : 2
    <1399>   DW_AT_decl_line   : 1003
    <139b>   DW_AT_decl_column : 15
    <139c>   DW_AT_type        : <0x15b>
    <13a0>   DW_AT_location    : 2 byte block: 91 60 	(DW_OP_fbreg: -32)
 <3><13a3>: Abbrev Number: 0
 <2><13a4>: Abbrev Number: 0
 <1><13a5>: Abbrev Number: 3 (DW_TAG_pointer_type)
    <13a6>   DW_AT_byte_size   : 8
    <13a7>   DW_AT_type        : <0xd1>
 <1><13ab>: Abbrev Number: 48 (DW_TAG_subprogram)
    <13ac>   DW_AT_name        : (indirect string, offset: 0xc71): digest_file
    <13b0>   DW_AT_decl_file   : 2
    <13b1>   DW_AT_decl_line   : 904
    <13b3>   DW_AT_decl_column : 1
    <13b4>   DW_AT_prototyped  : 1
    <13b4>   DW_AT_type        : <0x573>
    <13b8>   DW_AT_low_pc      : 0x3b2b
    <13c0>   DW_AT_high_pc     : 0x1ef
    <13c8>   DW_AT_frame_base  : 1 byte block: 9c 	(DW_OP_call_frame_cfa)
    <13ca>   DW_AT_GNU_all_tail_call_sites: 1
    <13ca>   DW_AT_sibling     : <0x1451>
 <2><13ce>: Abbrev Number: 43 (DW_TAG_formal_parameter)
    <13cf>   DW_AT_name        : (indirect string, offset: 0xc85): filename
    <13d3>   DW_AT_decl_file   : 2
    <13d4>   DW_AT_decl_line   : 904
    <13d6>   DW_AT_decl_column : 26
    <13d7>   DW_AT_type        : <0xb4>
    <13db>   DW_AT_location    : 2 byte block: 91 48 	(DW_OP_fbreg: -56)
 <2><13de>: Abbrev Number: 43 (DW_TAG_formal_parameter)
    <13df>   DW_AT_name        : (indirect string, offset: 0x8ad): binary
    <13e3>   DW_AT_decl_file   : 2
    <13e4>   DW_AT_decl_line   : 904
    <13e6>   DW_AT_decl_column : 41
    <13e7>   DW_AT_type        : <0xc4>
    <13eb>   DW_AT_location    : 2 byte block: 91 40 	(DW_OP_fbreg: -64)
 <2><13ee>: Abbrev Number: 43 (DW_TAG_formal_parameter)
    <13ef>   DW_AT_name        : (indirect string, offset: 0x374): bin_result
    <13f3>   DW_AT_decl_file   : 2
    <13f4>   DW_AT_decl_line   : 904
    <13f6>   DW_AT_decl_column : 64
    <13f7>   DW_AT_type        : <0x1099>
    <13fb>   DW_AT_location    : 3 byte block: 91 b8 7f 	(DW_OP_fbreg: -72)
 <2><13ff>: Abbrev Number: 43 (DW_TAG_formal_parameter)
    <1400>   DW_AT_name        : (indirect string, offset: 0x8ea): missing
    <1404>   DW_AT_decl_file   : 2
    <1405>   DW_AT_decl_line   : 905
    <1407>   DW_AT_decl_column : 20
    <1408>   DW_AT_type        : <0x1451>
    <140c>   DW_AT_location    : 3 byte block: 91 b0 7f 	(DW_OP_fbreg: -80)
 <2><1410>: Abbrev Number: 43 (DW_TAG_formal_parameter)
    <1411>   DW_AT_name        : (indirect string, offset: 0x91c): length
    <1415>   DW_AT_decl_file   : 2
    <1416>   DW_AT_decl_line   : 905
    <1418>   DW_AT_decl_column : 53
    <1419>   DW_AT_type        : <0x561>
    <141d>   DW_AT_location    : 3 byte block: 91 a8 7f 	(DW_OP_fbreg: -88)
 <2><1421>: Abbrev Number: 44 (DW_TAG_variable)
    <1422>   DW_AT_name        : fp
    <1425>   DW_AT_decl_file   : 2
    <1426>   DW_AT_decl_line   : 907
    <1428>   DW_AT_decl_column : 9
    <1429>   DW_AT_type        : <0x43f>
    <142d>   DW_AT_location    : 2 byte block: 91 58 	(DW_OP_fbreg: -40)
 <2><1430>: Abbrev Number: 44 (DW_TAG_variable)
    <1431>   DW_AT_name        : err
    <1435>   DW_AT_decl_file   : 2
    <1436>   DW_AT_decl_line   : 908
    <1438>   DW_AT_decl_column : 7
    <1439>   DW_AT_type        : <0x61>
    <143d>   DW_AT_location    : 2 byte block: 91 54 	(DW_OP_fbreg: -44)
 <2><1440>: Abbrev Number: 32 (DW_TAG_variable)
    <1441>   DW_AT_name        : (indirect string, offset: 0xcac): is_stdin
    <1445>   DW_AT_decl_file   : 2
    <1446>   DW_AT_decl_line   : 909
    <1448>   DW_AT_decl_column : 8
    <1449>   DW_AT_type        : <0x573>
    <144d>   DW_AT_location    : 2 byte block: 91 53 	(DW_OP_fbreg: -45)
 <2><1450>: Abbrev Number: 0
 <1><1451>: Abbrev Number: 3 (DW_TAG_pointer_type)
    <1452>   DW_AT_byte_size   : 8
    <1453>   DW_AT_type        : <0x573>
 <1><1457>: Abbrev Number: 50 (DW_TAG_subprogram)
    <1458>   DW_AT_name        : (indirect string, offset: 0x396): print_filename
    <145c>   DW_AT_decl_file   : 2
    <145d>   DW_AT_decl_line   : 859
    <145f>   DW_AT_decl_column : 1
    <1460>   DW_AT_prototyped  : 1
    <1460>   DW_AT_low_pc      : 0x3a35
    <1468>   DW_AT_high_pc     : 0xf6
    <1470>   DW_AT_frame_base  : 1 byte block: 9c 	(DW_OP_call_frame_cfa)
    <1472>   DW_AT_GNU_all_tail_call_sites: 1
    <1472>   DW_AT_sibling     : <0x1497>
 <2><1476>: Abbrev Number: 43 (DW_TAG_formal_parameter)
    <1477>   DW_AT_name        : (indirect string, offset: 0xc78): file
    <147b>   DW_AT_decl_file   : 2
    <147c>   DW_AT_decl_line   : 859
    <147e>   DW_AT_decl_column : 29
    <147f>   DW_AT_type        : <0xb4>
    <1483>   DW_AT_location    : 2 byte block: 91 68 	(DW_OP_fbreg: -24)
 <2><1486>: Abbrev Number: 43 (DW_TAG_formal_parameter)
    <1487>   DW_AT_name        : (indirect string, offset: 0x1f35): escape
    <148b>   DW_AT_decl_file   : 2
    <148c>   DW_AT_decl_line   : 859
    <148e>   DW_AT_decl_column : 40
    <148f>   DW_AT_type        : <0x573>
    <1493>   DW_AT_location    : 2 byte block: 91 64 	(DW_OP_fbreg: -28)
 <2><1496>: Abbrev Number: 0
 <1><1497>: Abbrev Number: 48 (DW_TAG_subprogram)
    <1498>   DW_AT_name        : (indirect string, offset: 0x851): split_3
    <149c>   DW_AT_decl_file   : 2
    <149d>   DW_AT_decl_line   : 707
    <149f>   DW_AT_decl_column : 1
    <14a0>   DW_AT_prototyped  : 1
    <14a0>   DW_AT_type        : <0x573>
    <14a4>   DW_AT_low_pc      : 0x34df
    <14ac>   DW_AT_high_pc     : 0x556
    <14b4>   DW_AT_frame_base  : 1 byte block: 9c 	(DW_OP_call_frame_cfa)
    <14b6>   DW_AT_GNU_all_tail_call_sites: 1
    <14b6>   DW_AT_sibling     : <0x1600>
 <2><14ba>: Abbrev Number: 51 (DW_TAG_formal_parameter)
    <14bb>   DW_AT_name        : s
    <14bd>   DW_AT_decl_file   : 2
    <14be>   DW_AT_decl_line   : 707
    <14c0>   DW_AT_decl_column : 16
    <14c1>   DW_AT_type        : <0x39>
    <14c5>   DW_AT_location    : 3 byte block: 91 98 7f 	(DW_OP_fbreg: -104)
 <2><14c9>: Abbrev Number: 43 (DW_TAG_formal_parameter)
    <14ca>   DW_AT_name        : (indirect string, offset: 0x1f9): s_len
    <14ce>   DW_AT_decl_file   : 2
    <14cf>   DW_AT_decl_line   : 707
    <14d1>   DW_AT_decl_column : 26
    <14d2>   DW_AT_type        : <0x15b>
    <14d6>   DW_AT_location    : 3 byte block: 91 90 7f 	(DW_OP_fbreg: -112)
 <2><14da>: Abbrev Number: 43 (DW_TAG_formal_parameter)
    <14db>   DW_AT_name        : (indirect string, offset: 0xd9): hex_digest
    <14df>   DW_AT_decl_file   : 2
    <14e0>   DW_AT_decl_line   : 708
    <14e2>   DW_AT_decl_column : 26
    <14e3>   DW_AT_type        : <0x1600>
    <14e7>   DW_AT_location    : 3 byte block: 91 88 7f 	(DW_OP_fbreg: -120)
 <2><14eb>: Abbrev Number: 43 (DW_TAG_formal_parameter)
    <14ec>   DW_AT_name        : (indirect string, offset: 0x8ad): binary
    <14f0>   DW_AT_decl_file   : 2
    <14f1>   DW_AT_decl_line   : 708
    <14f3>   DW_AT_decl_column : 43
    <14f4>   DW_AT_type        : <0xc4>
    <14f8>   DW_AT_location    : 3 byte block: 91 80 7f 	(DW_OP_fbreg: -128)
 <2><14fc>: Abbrev Number: 43 (DW_TAG_formal_parameter)
    <14fd>   DW_AT_name        : (indirect string, offset: 0x135c): file_name
    <1501>   DW_AT_decl_file   : 2
    <1502>   DW_AT_decl_line   : 708
    <1504>   DW_AT_decl_column : 58
    <1505>   DW_AT_type        : <0x195>
    <1509>   DW_AT_location    : 3 byte block: 91 f8 7e 	(DW_OP_fbreg: -136)
 <2><150d>: Abbrev Number: 32 (DW_TAG_variable)
    <150e>   DW_AT_name        : (indirect string, offset: 0xc7d): escaped_filename
    <1512>   DW_AT_decl_file   : 2
    <1513>   DW_AT_decl_line   : 710
    <1515>   DW_AT_decl_column : 8
    <1516>   DW_AT_type        : <0x573>
    <151a>   DW_AT_location    : 3 byte block: 91 ad 7f 	(DW_OP_fbreg: -83)
 <2><151e>: Abbrev Number: 32 (DW_TAG_variable)
    <151f>   DW_AT_name        : (indirect string, offset: 0x563): algo_name_len
    <1523>   DW_AT_decl_file   : 2
    <1524>   DW_AT_decl_line   : 711
    <1526>   DW_AT_decl_column : 10
    <1527>   DW_AT_type        : <0x15b>
    <152b>   DW_AT_location    : 2 byte block: 91 58 	(DW_OP_fbreg: -40)
 <2><152e>: Abbrev Number: 44 (DW_TAG_variable)
    <152f>   DW_AT_name        : i
    <1531>   DW_AT_decl_file   : 2
    <1532>   DW_AT_decl_line   : 713
    <1534>   DW_AT_decl_column : 10
    <1535>   DW_AT_type        : <0x15b>
    <1539>   DW_AT_location    : 2 byte block: 91 40 	(DW_OP_fbreg: -64)
 <2><153c>: Abbrev Number: 46 (DW_TAG_lexical_block)
    <153d>   DW_AT_low_pc      : 0x356e
    <1545>   DW_AT_high_pc     : 0x45
    <154d>   DW_AT_sibling     : <0x1562>
 <3><1551>: Abbrev Number: 32 (DW_TAG_variable)
    <1552>   DW_AT_name        : (indirect string, offset: 0x9c4): algo_tag
    <1556>   DW_AT_decl_file   : 2
    <1557>   DW_AT_decl_line   : 728
    <1559>   DW_AT_decl_column : 17
    <155a>   DW_AT_type        : <0x17b>
    <155e>   DW_AT_location    : 2 byte block: 91 50 	(DW_OP_fbreg: -48)
 <3><1561>: Abbrev Number: 0
 <2><1562>: Abbrev Number: 46 (DW_TAG_lexical_block)
    <1563>   DW_AT_low_pc      : 0x3617
    <156b>   DW_AT_high_pc     : 0x1d2
    <1573>   DW_AT_sibling     : <0x15de>
 <3><1577>: Abbrev Number: 32 (DW_TAG_variable)
    <1578>   DW_AT_name        : (indirect string, offset: 0xa5b): algo_name
    <157c>   DW_AT_decl_file   : 2
    <157d>   DW_AT_decl_line   : 746
    <157f>   DW_AT_decl_column : 19
    <1580>   DW_AT_type        : <0xb4>
    <1584>   DW_AT_location    : 2 byte block: 91 60 	(DW_OP_fbreg: -32)
 <3><1587>: Abbrev Number: 32 (DW_TAG_variable)
    <1588>   DW_AT_name        : (indirect string, offset: 0x3dc): length_specified
    <158c>   DW_AT_decl_file   : 2
    <158d>   DW_AT_decl_line   : 747
    <158f>   DW_AT_decl_column : 12
    <1590>   DW_AT_type        : <0x573>
    <1594>   DW_AT_location    : 3 byte block: 91 ae 7f 	(DW_OP_fbreg: -82)
 <3><1598>: Abbrev Number: 32 (DW_TAG_variable)
    <1599>   DW_AT_name        : (indirect string, offset: 0x4ac): openssl_format
    <159d>   DW_AT_decl_file   : 2
    <159e>   DW_AT_decl_line   : 748
    <15a0>   DW_AT_decl_column : 12
    <15a1>   DW_AT_type        : <0x573>
    <15a5>   DW_AT_location    : 3 byte block: 91 af 7f 	(DW_OP_fbreg: -81)
 <3><15a9>: Abbrev Number: 47 (DW_TAG_lexical_block)
    <15aa>   DW_AT_low_pc      : 0x36f1
    <15b2>   DW_AT_high_pc     : 0x74
 <4><15ba>: Abbrev Number: 32 (DW_TAG_variable)
    <15bb>   DW_AT_name        : (indirect string, offset: 0x91c): length
    <15bf>   DW_AT_decl_file   : 2
    <15c0>   DW_AT_decl_line   : 762
    <15c2>   DW_AT_decl_column : 21
    <15c3>   DW_AT_type        : <0x1b3>
    <15c7>   DW_AT_location    : 3 byte block: 91 b0 7f 	(DW_OP_fbreg: -80)
 <4><15cb>: Abbrev Number: 32 (DW_TAG_variable)
    <15cc>   DW_AT_name        : (indirect string, offset: 0x19c): siend
    <15d0>   DW_AT_decl_file   : 2
    <15d1>   DW_AT_decl_line   : 763
    <15d3>   DW_AT_decl_column : 17
    <15d4>   DW_AT_type        : <0x39>
    <15d8>   DW_AT_location    : 3 byte block: 91 b8 7f 	(DW_OP_fbreg: -72)
 <4><15dc>: Abbrev Number: 0
 <3><15dd>: Abbrev Number: 0
 <2><15de>: Abbrev Number: 47 (DW_TAG_lexical_block)
    <15df>   DW_AT_low_pc      : 0x3842
    <15e7>   DW_AT_high_pc     : 0xa0
 <3><15ef>: Abbrev Number: 44 (DW_TAG_variable)
    <15f0>   DW_AT_name        : hp
    <15f3>   DW_AT_decl_file   : 2
    <15f4>   DW_AT_decl_line   : 800
    <15f6>   DW_AT_decl_column : 24
    <15f7>   DW_AT_type        : <0x13a5>
    <15fb>   DW_AT_location    : 2 byte block: 91 48 	(DW_OP_fbreg: -56)
 <3><15fe>: Abbrev Number: 0
 <2><15ff>: Abbrev Number: 0
 <1><1600>: Abbrev Number: 3 (DW_TAG_pointer_type)
    <1601>   DW_AT_byte_size   : 8
    <1602>   DW_AT_type        : <0x1099>
 <1><1606>: Abbrev Number: 48 (DW_TAG_subprogram)
    <1607>   DW_AT_name        : (indirect string, offset: 0xb40): algorithm_from_tag
    <160b>   DW_AT_decl_file   : 2
    <160c>   DW_AT_decl_line   : 668
    <160e>   DW_AT_decl_column : 1
    <160f>   DW_AT_prototyped  : 1
    <160f>   DW_AT_type        : <0x17b>
    <1613>   DW_AT_low_pc      : 0x339a
    <161b>   DW_AT_high_pc     : 0x145
    <1623>   DW_AT_frame_base  : 1 byte block: 9c 	(DW_OP_call_frame_cfa)
    <1625>   DW_AT_GNU_all_tail_call_sites: 1
    <1625>   DW_AT_sibling     : <0x16c2>
 <2><1629>: Abbrev Number: 51 (DW_TAG_formal_parameter)
    <162a>   DW_AT_name        : s
    <162c>   DW_AT_decl_file   : 2
    <162d>   DW_AT_decl_line   : 668
    <162f>   DW_AT_decl_column : 27
    <1630>   DW_AT_type        : <0x39>
    <1634>   DW_AT_location    : 3 byte block: 91 b8 7f 	(DW_OP_fbreg: -72)
 <2><1638>: Abbrev Number: 32 (DW_TAG_variable)
    <1639>   DW_AT_name        : (indirect string, offset: 0x1ba): max_tag_len
    <163d>   DW_AT_decl_file   : 2
    <163e>   DW_AT_decl_line   : 671
    <1640>   DW_AT_decl_column : 17
    <1641>   DW_AT_type        : <0x15b>
    <1645>   DW_AT_location    : 9 byte block: 3 0 22 3 0 0 0 0 0 	(DW_OP_addr: 32200)
 <2><164f>: Abbrev Number: 44 (DW_TAG_variable)
    <1650>   DW_AT_name        : i
    <1652>   DW_AT_decl_file   : 2
    <1653>   DW_AT_decl_line   : 682
    <1655>   DW_AT_decl_column : 10
    <1656>   DW_AT_type        : <0x15b>
    <165a>   DW_AT_location    : 2 byte block: 91 58 	(DW_OP_fbreg: -40)
 <2><165d>: Abbrev Number: 44 (DW_TAG_variable)
    <165e>   DW_AT_name        : sep
    <1662>   DW_AT_decl_file   : 2
    <1663>   DW_AT_decl_line   : 693
    <1665>   DW_AT_decl_column : 8
    <1666>   DW_AT_type        : <0x49>
    <166a>   DW_AT_location    : 2 byte block: 91 4f 	(DW_OP_fbreg: -49)
 <2><166d>: Abbrev Number: 32 (DW_TAG_variable)
    <166e>   DW_AT_name        : (indirect string, offset: 0x37f): algo
    <1672>   DW_AT_decl_file   : 2
    <1673>   DW_AT_decl_line   : 695
    <1675>   DW_AT_decl_column : 13
    <1676>   DW_AT_type        : <0x17b>
    <167a>   DW_AT_location    : 2 byte block: 91 68 	(DW_OP_fbreg: -24)
 <2><167d>: Abbrev Number: 47 (DW_TAG_lexical_block)
    <167e>   DW_AT_low_pc      : 0x33b6
    <1686>   DW_AT_high_pc     : 0x4d
 <3><168e>: Abbrev Number: 44 (DW_TAG_variable)
    <168f>   DW_AT_name        : tag
    <1693>   DW_AT_decl_file   : 2
    <1694>   DW_AT_decl_line   : 674
    <1696>   DW_AT_decl_column : 28
    <1697>   DW_AT_type        : <0x9a2>
    <169b>   DW_AT_location    : 2 byte block: 91 50 	(DW_OP_fbreg: -48)
 <3><169e>: Abbrev Number: 47 (DW_TAG_lexical_block)
    <169f>   DW_AT_low_pc      : 0x33c3
    <16a7>   DW_AT_high_pc     : 0x34
 <4><16af>: Abbrev Number: 32 (DW_TAG_variable)
    <16b0>   DW_AT_name        : (indirect string, offset: 0x1be): tag_len
    <16b4>   DW_AT_decl_file   : 2
    <16b5>   DW_AT_decl_line   : 677
    <16b7>   DW_AT_decl_column : 18
    <16b8>   DW_AT_type        : <0x15b>
    <16bc>   DW_AT_location    : 2 byte block: 91 60 	(DW_OP_fbreg: -32)
 <4><16bf>: Abbrev Number: 0
 <3><16c0>: Abbrev Number: 0
 <2><16c1>: Abbrev Number: 0
 <1><16c2>: Abbrev Number: 48 (DW_TAG_subprogram)
    <16c3>   DW_AT_name        : (indirect string, offset: 0x84d): bsd_split_3
    <16c7>   DW_AT_decl_file   : 2
    <16c8>   DW_AT_decl_line   : 624
    <16ca>   DW_AT_decl_column : 1
    <16cb>   DW_AT_prototyped  : 1
    <16cb>   DW_AT_type        : <0x573>
    <16cf>   DW_AT_low_pc      : 0x323f
    <16d7>   DW_AT_high_pc     : 0x15b
    <16df>   DW_AT_frame_base  : 1 byte block: 9c 	(DW_OP_call_frame_cfa)
    <16e1>   DW_AT_GNU_all_tail_call_sites: 1
    <16e1>   DW_AT_sibling     : <0x1743>
 <2><16e5>: Abbrev Number: 51 (DW_TAG_formal_parameter)
    <16e6>   DW_AT_name        : s
    <16e8>   DW_AT_decl_file   : 2
    <16e9>   DW_AT_decl_line   : 624
    <16eb>   DW_AT_decl_column : 20
    <16ec>   DW_AT_type        : <0x39>
    <16f0>   DW_AT_location    : 2 byte block: 91 58 	(DW_OP_fbreg: -40)
 <2><16f3>: Abbrev Number: 43 (DW_TAG_formal_parameter)
    <16f4>   DW_AT_name        : (indirect string, offset: 0x1f9): s_len
    <16f8>   DW_AT_decl_file   : 2
    <16f9>   DW_AT_decl_line   : 624
    <16fb>   DW_AT_decl_column : 30
    <16fc>   DW_AT_type        : <0x15b>
    <1700>   DW_AT_location    : 2 byte block: 91 50 	(DW_OP_fbreg: -48)
 <2><1703>: Abbrev Number: 43 (DW_TAG_formal_parameter)
    <1704>   DW_AT_name        : (indirect string, offset: 0xd9): hex_digest
    <1708>   DW_AT_decl_file   : 2
    <1709>   DW_AT_decl_line   : 624
    <170b>   DW_AT_decl_column : 53
    <170c>   DW_AT_type        : <0x1600>
    <1710>   DW_AT_location    : 2 byte block: 91 48 	(DW_OP_fbreg: -56)
 <2><1713>: Abbrev Number: 43 (DW_TAG_formal_parameter)
    <1714>   DW_AT_name        : (indirect string, offset: 0x135c): file_name
    <1718>   DW_AT_decl_file   : 2
    <1719>   DW_AT_decl_line   : 625
    <171b>   DW_AT_decl_column : 21
    <171c>   DW_AT_type        : <0x195>
    <1720>   DW_AT_location    : 2 byte block: 91 40 	(DW_OP_fbreg: -64)
 <2><1723>: Abbrev Number: 43 (DW_TAG_formal_parameter)
    <1724>   DW_AT_name        : (indirect string, offset: 0xc7d): escaped_filename
    <1728>   DW_AT_decl_file   : 2
    <1729>   DW_AT_decl_line   : 625
    <172b>   DW_AT_decl_column : 37
    <172c>   DW_AT_type        : <0x573>
    <1730>   DW_AT_location    : 3 byte block: 91 bc 7f 	(DW_OP_fbreg: -68)
 <2><1734>: Abbrev Number: 44 (DW_TAG_variable)
    <1735>   DW_AT_name        : i
    <1737>   DW_AT_decl_file   : 2
    <1738>   DW_AT_decl_line   : 627
    <173a>   DW_AT_decl_column : 10
    <173b>   DW_AT_type        : <0x15b>
    <173f>   DW_AT_location    : 2 byte block: 91 68 	(DW_OP_fbreg: -24)
 <2><1742>: Abbrev Number: 0
 <1><1743>: Abbrev Number: 48 (DW_TAG_subprogram)
    <1744>   DW_AT_name        : (indirect string, offset: 0xb7c): hex_digits
    <1748>   DW_AT_decl_file   : 2
    <1749>   DW_AT_decl_line   : 608
    <174b>   DW_AT_decl_column : 1
    <174c>   DW_AT_prototyped  : 1
    <174c>   DW_AT_type        : <0x573>
    <1750>   DW_AT_low_pc      : 0x31d2
    <1758>   DW_AT_high_pc     : 0x6d
    <1760>   DW_AT_frame_base  : 1 byte block: 9c 	(DW_OP_call_frame_cfa)
    <1762>   DW_AT_GNU_all_tail_call_sites: 1
    <1762>   DW_AT_sibling     : <0x1795>
 <2><1766>: Abbrev Number: 51 (DW_TAG_formal_parameter)
    <1767>   DW_AT_name        : s
    <1769>   DW_AT_decl_file   : 2
    <176a>   DW_AT_decl_line   : 608
    <176c>   DW_AT_decl_column : 34
    <176d>   DW_AT_type        : <0x13a5>
    <1771>   DW_AT_location    : 2 byte block: 91 58 	(DW_OP_fbreg: -40)
 <2><1774>: Abbrev Number: 47 (DW_TAG_lexical_block)
    <1775>   DW_AT_low_pc      : 0x31e2
    <177d>   DW_AT_high_pc     : 0x4f
 <3><1785>: Abbrev Number: 44 (DW_TAG_variable)
    <1786>   DW_AT_name        : i
    <1788>   DW_AT_decl_file   : 2
    <1789>   DW_AT_decl_line   : 610
    <178b>   DW_AT_decl_column : 21
    <178c>   DW_AT_type        : <0xe2>
    <1790>   DW_AT_location    : 2 byte block: 91 6c 	(DW_OP_fbreg: -20)
 <3><1793>: Abbrev Number: 0
 <2><1794>: Abbrev Number: 0
 <1><1795>: Abbrev Number: 52 (DW_TAG_subprogram)
    <1796>   DW_AT_name        : (indirect string, offset: 0x5e7): filename_unescape
    <179a>   DW_AT_decl_file   : 2
    <179b>   DW_AT_decl_line   : 557
    <179d>   DW_AT_decl_column : 1
    <179e>   DW_AT_prototyped  : 1
    <179e>   DW_AT_type        : <0x39>
    <17a2>   DW_AT_low_pc      : 0x30b7
    <17aa>   DW_AT_high_pc     : 0x11b
    <17b2>   DW_AT_frame_base  : 1 byte block: 9c 	(DW_OP_call_frame_cfa)
    <17b4>   DW_AT_GNU_all_call_sites: 1
    <17b4>   DW_AT_sibling     : <0x1807>
 <2><17b8>: Abbrev Number: 51 (DW_TAG_formal_parameter)
    <17b9>   DW_AT_name        : s
    <17bb>   DW_AT_decl_file   : 2
    <17bc>   DW_AT_decl_line   : 557
    <17be>   DW_AT_decl_column : 26
    <17bf>   DW_AT_type        : <0x39>
    <17c3>   DW_AT_location    : 2 byte block: 91 58 	(DW_OP_fbreg: -40)
 <2><17c6>: Abbrev Number: 43 (DW_TAG_formal_parameter)
    <17c7>   DW_AT_name        : (indirect string, offset: 0x1f9): s_len
    <17cb>   DW_AT_decl_file   : 2
    <17cc>   DW_AT_decl_line   : 557
    <17ce>   DW_AT_decl_column : 36
    <17cf>   DW_AT_type        : <0x15b>
    <17d3>   DW_AT_location    : 2 byte block: 91 50 	(DW_OP_fbreg: -48)
 <2><17d6>: Abbrev Number: 44 (DW_TAG_variable)
    <17d7>   DW_AT_name        : dst
    <17db>   DW_AT_decl_file   : 2
    <17dc>   DW_AT_decl_line   : 559
    <17de>   DW_AT_decl_column : 9
    <17df>   DW_AT_type        : <0x39>
    <17e3>   DW_AT_location    : 2 byte block: 91 60 	(DW_OP_fbreg: -32)
 <2><17e6>: Abbrev Number: 47 (DW_TAG_lexical_block)
    <17e7>   DW_AT_low_pc      : 0x30cf
    <17ef>   DW_AT_high_pc     : 0xe5
 <3><17f7>: Abbrev Number: 44 (DW_TAG_variable)
    <17f8>   DW_AT_name        : i
    <17fa>   DW_AT_decl_file   : 2
    <17fb>   DW_AT_decl_line   : 561
    <17fd>   DW_AT_decl_column : 15
    <17fe>   DW_AT_type        : <0x15b>
    <1802>   DW_AT_location    : 2 byte block: 91 68 	(DW_OP_fbreg: -24)
 <3><1805>: Abbrev Number: 0
 <2><1806>: Abbrev Number: 0
 <1><1807>: Abbrev Number: 53 (DW_TAG_subprogram)
    <1808>   DW_AT_external    : 1
    <1808>   DW_AT_name        : (indirect string, offset: 0xa9f): usage
    <180c>   DW_AT_decl_file   : 2
    <180d>   DW_AT_decl_line   : 399
    <180f>   DW_AT_decl_column : 1
    <1810>   DW_AT_prototyped  : 1
    <1810>   DW_AT_noreturn    : 1
    <1810>   DW_AT_low_pc      : 0x2e73
    <1818>   DW_AT_high_pc     : 0x244
    <1820>   DW_AT_frame_base  : 1 byte block: 9c 	(DW_OP_call_frame_cfa)
    <1822>   DW_AT_GNU_all_tail_call_sites: 1
    <1822>   DW_AT_sibling     : <0x1837>
 <2><1826>: Abbrev Number: 43 (DW_TAG_formal_parameter)
    <1827>   DW_AT_name        : (indirect string, offset: 0xb60): status
    <182b>   DW_AT_decl_file   : 2
    <182c>   DW_AT_decl_line   : 399
    <182e>   DW_AT_decl_column : 12
    <182f>   DW_AT_type        : <0x61>
    <1833>   DW_AT_location    : 2 byte block: 91 5c 	(DW_OP_fbreg: -36)
 <2><1836>: Abbrev Number: 0
 <1><1837>: Abbrev Number: 48 (DW_TAG_subprogram)
    <1838>   DW_AT_name        : (indirect string, offset: 0x1c6): sm3_sum_stream
    <183c>   DW_AT_decl_file   : 2
    <183d>   DW_AT_decl_line   : 271
    <183f>   DW_AT_decl_column : 1
    <1840>   DW_AT_prototyped  : 1
    <1840>   DW_AT_type        : <0x61>
    <1844>   DW_AT_low_pc      : 0x2e46
    <184c>   DW_AT_high_pc     : 0x2d
    <1854>   DW_AT_frame_base  : 1 byte block: 9c 	(DW_OP_call_frame_cfa)
    <1856>   DW_AT_GNU_all_tail_call_sites: 1
    <1856>   DW_AT_sibling     : <0x188b>
 <2><185a>: Abbrev Number: 43 (DW_TAG_formal_parameter)
    <185b>   DW_AT_name        : (indirect string, offset: 0x691): stream
    <185f>   DW_AT_decl_file   : 2
    <1860>   DW_AT_decl_line   : 271
    <1862>   DW_AT_decl_column : 23
    <1863>   DW_AT_type        : <0x43f>
    <1867>   DW_AT_location    : 2 byte block: 91 68 	(DW_OP_fbreg: -24)
 <2><186a>: Abbrev Number: 43 (DW_TAG_formal_parameter)
    <186b>   DW_AT_name        : (indirect string, offset: 0x8c2): resstream
    <186f>   DW_AT_decl_file   : 2
    <1870>   DW_AT_decl_line   : 271
    <1872>   DW_AT_decl_column : 37
    <1873>   DW_AT_type        : <0x135>
    <1877>   DW_AT_location    : 2 byte block: 91 60 	(DW_OP_fbreg: -32)
 <2><187a>: Abbrev Number: 43 (DW_TAG_formal_parameter)
    <187b>   DW_AT_name        : (indirect string, offset: 0x91c): length
    <187f>   DW_AT_decl_file   : 2
    <1880>   DW_AT_decl_line   : 271
    <1882>   DW_AT_decl_column : 59
    <1883>   DW_AT_type        : <0x561>
    <1887>   DW_AT_location    : 2 byte block: 91 58 	(DW_OP_fbreg: -40)
 <2><188a>: Abbrev Number: 0
 <1><188b>: Abbrev Number: 48 (DW_TAG_subprogram)
    <188c>   DW_AT_name        : (indirect string, offset: 0x501): blake2b_sum_stream
    <1890>   DW_AT_decl_file   : 2
    <1891>   DW_AT_decl_line   : 266
    <1893>   DW_AT_decl_column : 1
    <1894>   DW_AT_prototyped  : 1
    <1894>   DW_AT_type        : <0x61>
    <1898>   DW_AT_low_pc      : 0x2e12
    <18a0>   DW_AT_high_pc     : 0x34
    <18a8>   DW_AT_frame_base  : 1 byte block: 9c 	(DW_OP_call_frame_cfa)
    <18aa>   DW_AT_GNU_all_tail_call_sites: 1
    <18aa>   DW_AT_sibling     : <0x18df>
 <2><18ae>: Abbrev Number: 43 (DW_TAG_formal_parameter)
    <18af>   DW_AT_name        : (indirect string, offset: 0x691): stream
    <18b3>   DW_AT_decl_file   : 2
    <18b4>   DW_AT_decl_line   : 266
    <18b6>   DW_AT_decl_column : 27
    <18b7>   DW_AT_type        : <0x43f>
    <18bb>   DW_AT_location    : 2 byte block: 91 68 	(DW_OP_fbreg: -24)
 <2><18be>: Abbrev Number: 43 (DW_TAG_formal_parameter)
    <18bf>   DW_AT_name        : (indirect string, offset: 0x8c2): resstream
    <18c3>   DW_AT_decl_file   : 2
    <18c4>   DW_AT_decl_line   : 266
    <18c6>   DW_AT_decl_column : 41
    <18c7>   DW_AT_type        : <0x135>
    <18cb>   DW_AT_location    : 2 byte block: 91 60 	(DW_OP_fbreg: -32)
 <2><18ce>: Abbrev Number: 43 (DW_TAG_formal_parameter)
    <18cf>   DW_AT_name        : (indirect string, offset: 0x91c): length
    <18d3>   DW_AT_decl_file   : 2
    <18d4>   DW_AT_decl_line   : 266
    <18d6>   DW_AT_decl_column : 63
    <18d7>   DW_AT_type        : <0x561>
    <18db>   DW_AT_location    : 2 byte block: 91 58 	(DW_OP_fbreg: -40)
 <2><18de>: Abbrev Number: 0
 <1><18df>: Abbrev Number: 48 (DW_TAG_subprogram)
    <18e0>   DW_AT_name        : (indirect string, offset: 0xc7): sha512_sum_stream
    <18e4>   DW_AT_decl_file   : 2
    <18e5>   DW_AT_decl_line   : 261
    <18e7>   DW_AT_decl_column : 1
    <18e8>   DW_AT_prototyped  : 1
    <18e8>   DW_AT_type        : <0x61>
    <18ec>   DW_AT_low_pc      : 0x2de5
    <18f4>   DW_AT_high_pc     : 0x2d
    <18fc>   DW_AT_frame_base  : 1 byte block: 9c 	(DW_OP_call_frame_cfa)
    <18fe>   DW_AT_GNU_all_tail_call_sites: 1
    <18fe>   DW_AT_sibling     : <0x1933>
 <2><1902>: Abbrev Number: 43 (DW_TAG_formal_parameter)
    <1903>   DW_AT_name        : (indirect string, offset: 0x691): stream
    <1907>   DW_AT_decl_file   : 2
    <1908>   DW_AT_decl_line   : 261
    <190a>   DW_AT_decl_column : 26
    <190b>   DW_AT_type        : <0x43f>
    <190f>   DW_AT_location    : 2 byte block: 91 68 	(DW_OP_fbreg: -24)
 <2><1912>: Abbrev Number: 43 (DW_TAG_formal_parameter)
    <1913>   DW_AT_name        : (indirect string, offset: 0x8c2): resstream
    <1917>   DW_AT_decl_file   : 2
    <1918>   DW_AT_decl_line   : 261
    <191a>   DW_AT_decl_column : 40
    <191b>   DW_AT_type        : <0x135>
    <191f>   DW_AT_location    : 2 byte block: 91 60 	(DW_OP_fbreg: -32)
 <2><1922>: Abbrev Number: 43 (DW_TAG_formal_parameter)
    <1923>   DW_AT_name        : (indirect string, offset: 0x91c): length
    <1927>   DW_AT_decl_file   : 2
    <1928>   DW_AT_decl_line   : 261
    <192a>   DW_AT_decl_column : 62
    <192b>   DW_AT_type        : <0x561>
    <192f>   DW_AT_location    : 2 byte block: 91 58 	(DW_OP_fbreg: -40)
 <2><1932>: Abbrev Number: 0
 <1><1933>: Abbrev Number: 48 (DW_TAG_subprogram)
    <1934>   DW_AT_name        : (indirect string, offset: 0xc3a): sha384_sum_stream
    <1938>   DW_AT_decl_file   : 2
    <1939>   DW_AT_decl_line   : 256
    <193b>   DW_AT_decl_column : 1
    <193c>   DW_AT_prototyped  : 1
    <193c>   DW_AT_type        : <0x61>
    <1940>   DW_AT_low_pc      : 0x2db8
    <1948>   DW_AT_high_pc     : 0x2d
    <1950>   DW_AT_frame_base  : 1 byte block: 9c 	(DW_OP_call_frame_cfa)
    <1952>   DW_AT_GNU_all_tail_call_sites: 1
    <1952>   DW_AT_sibling     : <0x1987>
 <2><1956>: Abbrev Number: 43 (DW_TAG_formal_parameter)
    <1957>   DW_AT_name        : (indirect string, offset: 0x691): stream
    <195b>   DW_AT_decl_file   : 2
    <195c>   DW_AT_decl_line   : 256
    <195e>   DW_AT_decl_column : 26
    <195f>   DW_AT_type        : <0x43f>
    <1963>   DW_AT_location    : 2 byte block: 91 68 	(DW_OP_fbreg: -24)
 <2><1966>: Abbrev Number: 43 (DW_TAG_formal_parameter)
    <1967>   DW_AT_name        : (indirect string, offset: 0x8c2): resstream
    <196b>   DW_AT_decl_file   : 2
    <196c>   DW_AT_decl_line   : 256
    <196e>   DW_AT_decl_column : 40
    <196f>   DW_AT_type        : <0x135>
    <1973>   DW_AT_location    : 2 byte block: 91 60 	(DW_OP_fbreg: -32)
 <2><1976>: Abbrev Number: 43 (DW_TAG_formal_parameter)
    <1977>   DW_AT_name        : (indirect string, offset: 0x91c): length
    <197b>   DW_AT_decl_file   : 2
    <197c>   DW_AT_decl_line   : 256
    <197e>   DW_AT_decl_column : 62
    <197f>   DW_AT_type        : <0x561>
    <1983>   DW_AT_location    : 2 byte block: 91 58 	(DW_OP_fbreg: -40)
 <2><1986>: Abbrev Number: 0
 <1><1987>: Abbrev Number: 54 (DW_TAG_subprogram)
    <1988>   DW_AT_name        : (indirect string, offset: 0x620): sha256_sum_stream
    <198c>   DW_AT_decl_file   : 2
    <198d>   DW_AT_decl_line   : 251
    <198e>   DW_AT_decl_column : 1
    <198f>   DW_AT_prototyped  : 1
    <198f>   DW_AT_type        : <0x61>
    <1993>   DW_AT_low_pc      : 0x2d8b
    <199b>   DW_AT_high_pc     : 0x2d
    <19a3>   DW_AT_frame_base  : 1 byte block: 9c 	(DW_OP_call_frame_cfa)
    <19a5>   DW_AT_GNU_all_tail_call_sites: 1
    <19a5>   DW_AT_sibling     : <0x19d7>
 <2><19a9>: Abbrev Number: 55 (DW_TAG_formal_parameter)
    <19aa>   DW_AT_name        : (indirect string, offset: 0x691): stream
    <19ae>   DW_AT_decl_file   : 2
    <19af>   DW_AT_decl_line   : 251
    <19b0>   DW_AT_decl_column : 26
    <19b1>   DW_AT_type        : <0x43f>
    <19b5>   DW_AT_location    : 2 byte block: 91 68 	(DW_OP_fbreg: -24)
 <2><19b8>: Abbrev Number: 55 (DW_TAG_formal_parameter)
    <19b9>   DW_AT_name        : (indirect string, offset: 0x8c2): resstream
    <19bd>   DW_AT_decl_file   : 2
    <19be>   DW_AT_decl_line   : 251
    <19bf>   DW_AT_decl_column : 40
    <19c0>   DW_AT_type        : <0x135>
    <19c4>   DW_AT_location    : 2 byte block: 91 60 	(DW_OP_fbreg: -32)
 <2><19c7>: Abbrev Number: 55 (DW_TAG_formal_parameter)
    <19c8>   DW_AT_name        : (indirect string, offset: 0x91c): length
    <19cc>   DW_AT_decl_file   : 2
    <19cd>   DW_AT_decl_line   : 251
    <19ce>   DW_AT_decl_column : 62
    <19cf>   DW_AT_type        : <0x561>
    <19d3>   DW_AT_location    : 2 byte block: 91 58 	(DW_OP_fbreg: -40)
 <2><19d6>: Abbrev Number: 0
 <1><19d7>: Abbrev Number: 54 (DW_TAG_subprogram)
    <19d8>   DW_AT_name        : (indirect string, offset: 0x41): sha224_sum_stream
    <19dc>   DW_AT_decl_file   : 2
    <19dd>   DW_AT_decl_line   : 246
    <19de>   DW_AT_decl_column : 1
    <19df>   DW_AT_prototyped  : 1
    <19df>   DW_AT_type        : <0x61>
    <19e3>   DW_AT_low_pc      : 0x2d5e
    <19eb>   DW_AT_high_pc     : 0x2d
    <19f3>   DW_AT_frame_base  : 1 byte block: 9c 	(DW_OP_call_frame_cfa)
    <19f5>   DW_AT_GNU_all_tail_call_sites: 1
    <19f5>   DW_AT_sibling     : <0x1a27>
 <2><19f9>: Abbrev Number: 55 (DW_TAG_formal_parameter)
    <19fa>   DW_AT_name        : (indirect string, offset: 0x691): stream
    <19fe>   DW_AT_decl_file   : 2
    <19ff>   DW_AT_decl_line   : 246
    <1a00>   DW_AT_decl_column : 26
    <1a01>   DW_AT_type        : <0x43f>
    <1a05>   DW_AT_location    : 2 byte block: 91 68 	(DW_OP_fbreg: -24)
 <2><1a08>: Abbrev Number: 55 (DW_TAG_formal_parameter)
    <1a09>   DW_AT_name        : (indirect string, offset: 0x8c2): resstream
    <1a0d>   DW_AT_decl_file   : 2
    <1a0e>   DW_AT_decl_line   : 246
    <1a0f>   DW_AT_decl_column : 40
    <1a10>   DW_AT_type        : <0x135>
    <1a14>   DW_AT_location    : 2 byte block: 91 60 	(DW_OP_fbreg: -32)
 <2><1a17>: Abbrev Number: 55 (DW_TAG_formal_parameter)
    <1a18>   DW_AT_name        : (indirect string, offset: 0x91c): length
    <1a1c>   DW_AT_decl_file   : 2
    <1a1d>   DW_AT_decl_line   : 246
    <1a1e>   DW_AT_decl_column : 62
    <1a1f>   DW_AT_type        : <0x561>
    <1a23>   DW_AT_location    : 2 byte block: 91 58 	(DW_OP_fbreg: -40)
 <2><1a26>: Abbrev Number: 0
 <1><1a27>: Abbrev Number: 54 (DW_TAG_subprogram)
    <1a28>   DW_AT_name        : (indirect string, offset: 0xac7): sha1_sum_stream
    <1a2c>   DW_AT_decl_file   : 2
    <1a2d>   DW_AT_decl_line   : 241
    <1a2e>   DW_AT_decl_column : 1
    <1a2f>   DW_AT_prototyped  : 1
    <1a2f>   DW_AT_type        : <0x61>
    <1a33>   DW_AT_low_pc      : 0x2d31
    <1a3b>   DW_AT_high_pc     : 0x2d
    <1a43>   DW_AT_frame_base  : 1 byte block: 9c 	(DW_OP_call_frame_cfa)
    <1a45>   DW_AT_GNU_all_tail_call_sites: 1
    <1a45>   DW_AT_sibling     : <0x1a77>
 <2><1a49>: Abbrev Number: 55 (DW_TAG_formal_parameter)
    <1a4a>   DW_AT_name        : (indirect string, offset: 0x691): stream
    <1a4e>   DW_AT_decl_file   : 2
    <1a4f>   DW_AT_decl_line   : 241
    <1a50>   DW_AT_decl_column : 24
    <1a51>   DW_AT_type        : <0x43f>
    <1a55>   DW_AT_location    : 2 byte block: 91 68 	(DW_OP_fbreg: -24)
 <2><1a58>: Abbrev Number: 55 (DW_TAG_formal_parameter)
    <1a59>   DW_AT_name        : (indirect string, offset: 0x8c2): resstream
    <1a5d>   DW_AT_decl_file   : 2
    <1a5e>   DW_AT_decl_line   : 241
    <1a5f>   DW_AT_decl_column : 38
    <1a60>   DW_AT_type        : <0x135>
    <1a64>   DW_AT_location    : 2 byte block: 91 60 	(DW_OP_fbreg: -32)
 <2><1a67>: Abbrev Number: 55 (DW_TAG_formal_parameter)
    <1a68>   DW_AT_name        : (indirect string, offset: 0x91c): length
    <1a6c>   DW_AT_decl_file   : 2
    <1a6d>   DW_AT_decl_line   : 241
    <1a6e>   DW_AT_decl_column : 60
    <1a6f>   DW_AT_type        : <0x561>
    <1a73>   DW_AT_location    : 2 byte block: 91 58 	(DW_OP_fbreg: -40)
 <2><1a76>: Abbrev Number: 0
 <1><1a77>: Abbrev Number: 54 (DW_TAG_subprogram)
    <1a78>   DW_AT_name        : (indirect string, offset: 0x87b): md5_sum_stream
    <1a7c>   DW_AT_decl_file   : 2
    <1a7d>   DW_AT_decl_line   : 236
    <1a7e>   DW_AT_decl_column : 1
    <1a7f>   DW_AT_prototyped  : 1
    <1a7f>   DW_AT_type        : <0x61>
    <1a83>   DW_AT_low_pc      : 0x2d04
    <1a8b>   DW_AT_high_pc     : 0x2d
    <1a93>   DW_AT_frame_base  : 1 byte block: 9c 	(DW_OP_call_frame_cfa)
    <1a95>   DW_AT_GNU_all_tail_call_sites: 1
    <1a95>   DW_AT_sibling     : <0x1ac7>
 <2><1a99>: Abbrev Number: 55 (DW_TAG_formal_parameter)
    <1a9a>   DW_AT_name        : (indirect string, offset: 0x691): stream
    <1a9e>   DW_AT_decl_file   : 2
    <1a9f>   DW_AT_decl_line   : 236
    <1aa0>   DW_AT_decl_column : 23
    <1aa1>   DW_AT_type        : <0x43f>
    <1aa5>   DW_AT_location    : 2 byte block: 91 68 	(DW_OP_fbreg: -24)
 <2><1aa8>: Abbrev Number: 55 (DW_TAG_formal_parameter)
    <1aa9>   DW_AT_name        : (indirect string, offset: 0x8c2): resstream
    <1aad>   DW_AT_decl_file   : 2
    <1aae>   DW_AT_decl_line   : 236
    <1aaf>   DW_AT_decl_column : 37
    <1ab0>   DW_AT_type        : <0x135>
    <1ab4>   DW_AT_location    : 2 byte block: 91 60 	(DW_OP_fbreg: -32)
 <2><1ab7>: Abbrev Number: 55 (DW_TAG_formal_parameter)
    <1ab8>   DW_AT_name        : (indirect string, offset: 0x91c): length
    <1abc>   DW_AT_decl_file   : 2
    <1abd>   DW_AT_decl_line   : 236
    <1abe>   DW_AT_decl_column : 59
    <1abf>   DW_AT_type        : <0x561>
    <1ac3>   DW_AT_location    : 2 byte block: 91 58 	(DW_OP_fbreg: -40)
 <2><1ac6>: Abbrev Number: 0
 <1><1ac7>: Abbrev Number: 52 (DW_TAG_subprogram)
    <1ac8>   DW_AT_name        : (indirect string, offset: 0xc4c): bad_cast
    <1acc>   DW_AT_decl_file   : 1
    <1acd>   DW_AT_decl_line   : 695
    <1acf>   DW_AT_decl_column : 1
    <1ad0>   DW_AT_prototyped  : 1
    <1ad0>   DW_AT_type        : <0x39>
    <1ad4>   DW_AT_low_pc      : 0x2cf6
    <1adc>   DW_AT_high_pc     : 0xe
    <1ae4>   DW_AT_frame_base  : 1 byte block: 9c 	(DW_OP_call_frame_cfa)
    <1ae6>   DW_AT_GNU_all_call_sites: 1
    <1ae6>   DW_AT_sibling     : <0x1af9>
 <2><1aea>: Abbrev Number: 51 (DW_TAG_formal_parameter)
    <1aeb>   DW_AT_name        : s
    <1aed>   DW_AT_decl_file   : 1
    <1aee>   DW_AT_decl_line   : 695
    <1af0>   DW_AT_decl_column : 23
    <1af1>   DW_AT_type        : <0xb4>
    <1af5>   DW_AT_location    : 2 byte block: 91 68 	(DW_OP_fbreg: -24)
 <2><1af8>: Abbrev Number: 0
 <1><1af9>: Abbrev Number: 50 (DW_TAG_subprogram)
    <1afa>   DW_AT_name        : (indirect string, offset: 0x2b3): emit_ancillary_info
    <1afe>   DW_AT_decl_file   : 1
    <1aff>   DW_AT_decl_line   : 627
    <1b01>   DW_AT_decl_column : 1
    <1b02>   DW_AT_prototyped  : 1
    <1b02>   DW_AT_low_pc      : 0x2a5f
    <1b0a>   DW_AT_high_pc     : 0x297
    <1b12>   DW_AT_frame_base  : 1 byte block: 9c 	(DW_OP_call_frame_cfa)
    <1b14>   DW_AT_GNU_all_tail_call_sites: 1
    <1b14>   DW_AT_sibling     : <0x1baf>
 <2><1b18>: Abbrev Number: 43 (DW_TAG_formal_parameter)
    <1b19>   DW_AT_name        : (indirect string, offset: 0xc02): program
    <1b1d>   DW_AT_decl_file   : 1
    <1b1e>   DW_AT_decl_line   : 627
    <1b20>   DW_AT_decl_column : 34
    <1b21>   DW_AT_type        : <0xb4>
    <1b25>   DW_AT_location    : 3 byte block: 91 b8 7e 	(DW_OP_fbreg: -200)
 <2><1b29>: Abbrev Number: 56 (DW_TAG_structure_type)
    <1b2a>   DW_AT_name        : (indirect string, offset: 0x662): infomap
    <1b2e>   DW_AT_byte_size   : 16
    <1b2f>   DW_AT_decl_file   : 1
    <1b30>   DW_AT_decl_line   : 629
    <1b32>   DW_AT_decl_column : 10
    <1b33>   DW_AT_sibling     : <0x1b54>
 <3><1b37>: Abbrev Number: 57 (DW_TAG_member)
    <1b38>   DW_AT_name        : (indirect string, offset: 0xc02): program
    <1b3c>   DW_AT_decl_file   : 1
    <1b3d>   DW_AT_decl_line   : 629
    <1b3f>   DW_AT_decl_column : 32
    <1b40>   DW_AT_type        : <0xb4>
    <1b44>   DW_AT_data_member_location: 0
 <3><1b45>: Abbrev Number: 57 (DW_TAG_member)
    <1b46>   DW_AT_name        : (indirect string, offset: 0xcfa): node
    <1b4a>   DW_AT_decl_file   : 1
    <1b4b>   DW_AT_decl_line   : 629
    <1b4d>   DW_AT_decl_column : 53
    <1b4e>   DW_AT_type        : <0xb4>
    <1b52>   DW_AT_data_member_location: 8
 <3><1b53>: Abbrev Number: 0
 <2><1b54>: Abbrev Number: 4 (DW_TAG_const_type)
    <1b55>   DW_AT_type        : <0x1b29>
 <2><1b59>: Abbrev Number: 32 (DW_TAG_variable)
    <1b5a>   DW_AT_name        : (indirect string, offset: 0x662): infomap
    <1b5e>   DW_AT_decl_file   : 1
    <1b5f>   DW_AT_decl_line   : 629
    <1b61>   DW_AT_decl_column : 67
    <1b62>   DW_AT_type        : <0x1bbf>
    <1b66>   DW_AT_location    : 3 byte block: 91 e0 7e 	(DW_OP_fbreg: -160)
 <2><1b6a>: Abbrev Number: 32 (DW_TAG_variable)
    <1b6b>   DW_AT_name        : (indirect string, offset: 0xcfa): node
    <1b6f>   DW_AT_decl_file   : 1
    <1b70>   DW_AT_decl_line   : 639
    <1b72>   DW_AT_decl_column : 15
    <1b73>   DW_AT_type        : <0xb4>
    <1b77>   DW_AT_location    : 3 byte block: 91 c0 7e 	(DW_OP_fbreg: -192)
 <2><1b7b>: Abbrev Number: 32 (DW_TAG_variable)
    <1b7c>   DW_AT_name        : (indirect string, offset: 0xa1e): map_prog
    <1b80>   DW_AT_decl_file   : 1
    <1b81>   DW_AT_decl_line   : 640
    <1b83>   DW_AT_decl_column : 25
    <1b84>   DW_AT_type        : <0x1bc4>
    <1b88>   DW_AT_location    : 3 byte block: 91 c8 7e 	(DW_OP_fbreg: -184)
 <2><1b8c>: Abbrev Number: 32 (DW_TAG_variable)
    <1b8d>   DW_AT_name        : (indirect string, offset: 0x7fe): lc_messages
    <1b91>   DW_AT_decl_file   : 1
    <1b92>   DW_AT_decl_line   : 652
    <1b94>   DW_AT_decl_column : 15
    <1b95>   DW_AT_type        : <0xb4>
    <1b99>   DW_AT_location    : 3 byte block: 91 d0 7e 	(DW_OP_fbreg: -176)
 <2><1b9d>: Abbrev Number: 32 (DW_TAG_variable)
    <1b9e>   DW_AT_name        : (indirect string, offset: 0xbfe): url_program
    <1ba2>   DW_AT_decl_file   : 1
    <1ba3>   DW_AT_decl_line   : 665
    <1ba5>   DW_AT_decl_column : 15
    <1ba6>   DW_AT_type        : <0xb4>
    <1baa>   DW_AT_location    : 3 byte block: 91 d8 7e 	(DW_OP_fbreg: -168)
 <2><1bae>: Abbrev Number: 0
 <1><1baf>: Abbrev Number: 21 (DW_TAG_array_type)
    <1bb0>   DW_AT_type        : <0x1b54>
    <1bb4>   DW_AT_sibling     : <0x1bbf>
 <2><1bb8>: Abbrev Number: 22 (DW_TAG_subrange_type)
    <1bb9>   DW_AT_type        : <0xe9>
    <1bbd>   DW_AT_upper_bound : 6
 <2><1bbe>: Abbrev Number: 0
 <1><1bbf>: Abbrev Number: 4 (DW_TAG_const_type)
    <1bc0>   DW_AT_type        : <0x1baf>
 <1><1bc4>: Abbrev Number: 3 (DW_TAG_pointer_type)
    <1bc5>   DW_AT_byte_size   : 8
    <1bc6>   DW_AT_type        : <0x1b54>
 <1><1bca>: Abbrev Number: 58 (DW_TAG_subprogram)
    <1bcb>   DW_AT_name        : (indirect string, offset: 0x92c): emit_mandatory_arg_note
    <1bcf>   DW_AT_decl_file   : 1
    <1bd0>   DW_AT_decl_line   : 581
    <1bd2>   DW_AT_decl_column : 1
    <1bd3>   DW_AT_prototyped  : 1
    <1bd3>   DW_AT_low_pc      : 0x2a2e
    <1bdb>   DW_AT_high_pc     : 0x31
    <1be3>   DW_AT_frame_base  : 1 byte block: 9c 	(DW_OP_call_frame_cfa)
    <1be5>   DW_AT_GNU_all_tail_call_sites: 1
 <1><1be5>: Abbrev Number: 58 (DW_TAG_subprogram)
    <1be6>   DW_AT_name        : (indirect string, offset: 0x215): emit_stdin_note
    <1bea>   DW_AT_decl_file   : 1
    <1beb>   DW_AT_decl_line   : 574
    <1bed>   DW_AT_decl_column : 1
    <1bee>   DW_AT_prototyped  : 1
    <1bee>   DW_AT_low_pc      : 0x29fd
    <1bf6>   DW_AT_high_pc     : 0x31
    <1bfe>   DW_AT_frame_base  : 1 byte block: 9c 	(DW_OP_call_frame_cfa)
    <1c00>   DW_AT_GNU_all_tail_call_sites: 1
 <1><1c00>: Abbrev Number: 52 (DW_TAG_subprogram)
    <1c01>   DW_AT_name        : (indirect string, offset: 0x95a): ptr_align
    <1c05>   DW_AT_decl_file   : 1
    <1c06>   DW_AT_decl_line   : 493
    <1c08>   DW_AT_decl_column : 1
    <1c09>   DW_AT_prototyped  : 1
    <1c09>   DW_AT_type        : <0x135>
    <1c0d>   DW_AT_low_pc      : 0x29b7
    <1c15>   DW_AT_high_pc     : 0x46
    <1c1d>   DW_AT_frame_base  : 1 byte block: 9c 	(DW_OP_call_frame_cfa)
    <1c1f>   DW_AT_GNU_all_call_sites: 1
    <1c1f>   DW_AT_sibling     : <0x1c62>
 <2><1c23>: Abbrev Number: 51 (DW_TAG_formal_parameter)
    <1c24>   DW_AT_name        : ptr
    <1c28>   DW_AT_decl_file   : 1
    <1c29>   DW_AT_decl_line   : 493
    <1c2b>   DW_AT_decl_column : 24
    <1c2c>   DW_AT_type        : <0x1a0>
    <1c30>   DW_AT_location    : 2 byte block: 91 58 	(DW_OP_fbreg: -40)
 <2><1c33>: Abbrev Number: 43 (DW_TAG_formal_parameter)
    <1c34>   DW_AT_name        : (indirect string, offset: 0xa4): alignment
    <1c38>   DW_AT_decl_file   : 1
    <1c39>   DW_AT_decl_line   : 493
    <1c3b>   DW_AT_decl_column : 36
    <1c3c>   DW_AT_type        : <0x15b>
    <1c40>   DW_AT_location    : 2 byte block: 91 50 	(DW_OP_fbreg: -48)
 <2><1c43>: Abbrev Number: 44 (DW_TAG_variable)
    <1c44>   DW_AT_name        : p0
    <1c47>   DW_AT_decl_file   : 1
    <1c48>   DW_AT_decl_line   : 495
    <1c4a>   DW_AT_decl_column : 15
    <1c4b>   DW_AT_type        : <0xb4>
    <1c4f>   DW_AT_location    : 2 byte block: 91 60 	(DW_OP_fbreg: -32)
 <2><1c52>: Abbrev Number: 44 (DW_TAG_variable)
    <1c53>   DW_AT_name        : p1
    <1c56>   DW_AT_decl_file   : 1
    <1c57>   DW_AT_decl_line   : 496
    <1c59>   DW_AT_decl_column : 15
    <1c5a>   DW_AT_type        : <0xb4>
    <1c5e>   DW_AT_location    : 2 byte block: 91 68 	(DW_OP_fbreg: -24)
 <2><1c61>: Abbrev Number: 0
 <1><1c62>: Abbrev Number: 59 (DW_TAG_subprogram)
    <1c63>   DW_AT_name        : (indirect string, offset: 0x10): select_plural
    <1c67>   DW_AT_decl_file   : 1
    <1c68>   DW_AT_decl_line   : 186
    <1c69>   DW_AT_decl_column : 1
    <1c6a>   DW_AT_prototyped  : 1
    <1c6a>   DW_AT_type        : <0xe9>
    <1c6e>   DW_AT_low_pc      : 0x29a9
    <1c76>   DW_AT_high_pc     : 0xe
    <1c7e>   DW_AT_frame_base  : 1 byte block: 9c 	(DW_OP_call_frame_cfa)
    <1c80>   DW_AT_GNU_all_call_sites: 1
 <2><1c80>: Abbrev Number: 60 (DW_TAG_formal_parameter)
    <1c81>   DW_AT_name        : n
    <1c83>   DW_AT_decl_file   : 1
    <1c84>   DW_AT_decl_line   : 186
    <1c85>   DW_AT_decl_column : 26
    <1c86>   DW_AT_type        : <0x1b3>
    <1c8a>   DW_AT_location    : 2 byte block: 91 68 	(DW_OP_fbreg: -24)
 <2><1c8d>: Abbrev Number: 61 (DW_TAG_enumeration_type)
    <1c8e>   DW_AT_encoding    : 7	(unsigned)
    <1c8f>   DW_AT_byte_size   : 4
    <1c90>   DW_AT_type        : <0xe2>
    <1c94>   DW_AT_decl_file   : 1
    <1c95>   DW_AT_decl_line   : 190
    <1c96>   DW_AT_decl_column : 8
 <3><1c97>: Abbrev Number: 16 (DW_TAG_enumerator)
    <1c98>   DW_AT_name        : (indirect string, offset: 0xc9d): PLURAL_REDUCER
    <1c9c>   DW_AT_const_value : 0xf4240
 <3><1ca0>: Abbrev Number: 0
 <2><1ca1>: Abbrev Number: 0
 <1><1ca2>: Abbrev Number: 0
  Compilation Unit @ offset 0x1ca3:
   Length:        0x9e1 (32-bit)
   Version:       4
   Abbrev Offset: 0x3c0
   Pointer Size:  8
 <0><1cae>: Abbrev Number: 1 (DW_TAG_compile_unit)
    <1caf>   DW_AT_producer    : (indirect string, offset: 0x2c7): GNU C17 11.1.0 -mtune=generic -march=x86-64 -g -O0 -fasynchronous-unwind-tables -fstack-protector-strong -fstack-clash-protection -fcf-protection
    <1cb3>   DW_AT_language    : 12	(ANSI C99)
    <1cb4>   DW_AT_name        : (indirect string, offset: 0xd99): src/blake2/blake2b-ref.c
    <1cb8>   DW_AT_comp_dir    : (indirect string, offset: 0xa27): /home/jacekline/dev/research/programs/coreutils-9.1
    <1cbc>   DW_AT_low_pc      : 0x5184
    <1cc4>   DW_AT_high_pc     : 0x5fba
    <1ccc>   DW_AT_stmt_list   : 0xe62
 <1><1cd0>: Abbrev Number: 2 (DW_TAG_base_type)
    <1cd1>   DW_AT_byte_size   : 1
    <1cd2>   DW_AT_encoding    : 8	(unsigned char)
    <1cd3>   DW_AT_name        : (indirect string, offset: 0x251): unsigned char
 <1><1cd7>: Abbrev Number: 3 (DW_TAG_const_type)
    <1cd8>   DW_AT_type        : <0x1cd0>
 <1><1cdc>: Abbrev Number: 2 (DW_TAG_base_type)
    <1cdd>   DW_AT_byte_size   : 2
    <1cde>   DW_AT_encoding    : 7	(unsigned)
    <1cdf>   DW_AT_name        : (indirect string, offset: 0xbd5): short unsigned int
 <1><1ce3>: Abbrev Number: 2 (DW_TAG_base_type)
    <1ce4>   DW_AT_byte_size   : 4
    <1ce5>   DW_AT_encoding    : 7	(unsigned)
    <1ce6>   DW_AT_name        : (indirect string, offset: 0x8d6): unsigned int
 <1><1cea>: Abbrev Number: 3 (DW_TAG_const_type)
    <1ceb>   DW_AT_type        : <0x1ce3>
 <1><1cef>: Abbrev Number: 2 (DW_TAG_base_type)
    <1cf0>   DW_AT_byte_size   : 8
    <1cf1>   DW_AT_encoding    : 7	(unsigned)
    <1cf2>   DW_AT_name        : (indirect string, offset: 0x8d1): long unsigned int
 <1><1cf6>: Abbrev Number: 2 (DW_TAG_base_type)
    <1cf7>   DW_AT_byte_size   : 1
    <1cf8>   DW_AT_encoding    : 6	(signed char)
    <1cf9>   DW_AT_name        : (indirect string, offset: 0x253): signed char
 <1><1cfd>: Abbrev Number: 4 (DW_TAG_typedef)
    <1cfe>   DW_AT_name        : (indirect string, offset: 0xe6a): __uint8_t
    <1d02>   DW_AT_decl_file   : 3
    <1d03>   DW_AT_decl_line   : 38
    <1d04>   DW_AT_decl_column : 23
    <1d05>   DW_AT_type        : <0x1cd0>
 <1><1d09>: Abbrev Number: 2 (DW_TAG_base_type)
    <1d0a>   DW_AT_byte_size   : 2
    <1d0b>   DW_AT_encoding    : 5	(signed)
    <1d0c>   DW_AT_name        : (indirect string, offset: 0xa6c): short int
 <1><1d10>: Abbrev Number: 5 (DW_TAG_base_type)
    <1d11>   DW_AT_byte_size   : 4
    <1d12>   DW_AT_encoding    : 5	(signed)
    <1d13>   DW_AT_name        : int
 <1><1d17>: Abbrev Number: 4 (DW_TAG_typedef)
    <1d18>   DW_AT_name        : (indirect string, offset: 0xf7d): __uint32_t
    <1d1c>   DW_AT_decl_file   : 3
    <1d1d>   DW_AT_decl_line   : 42
    <1d1e>   DW_AT_decl_column : 22
    <1d1f>   DW_AT_type        : <0x1ce3>
 <1><1d23>: Abbrev Number: 2 (DW_TAG_base_type)
    <1d24>   DW_AT_byte_size   : 8
    <1d25>   DW_AT_encoding    : 5	(signed)
    <1d26>   DW_AT_name        : (indirect string, offset: 0x6bd): long int
 <1><1d2a>: Abbrev Number: 4 (DW_TAG_typedef)
    <1d2b>   DW_AT_name        : (indirect string, offset: 0xf3d): __uint64_t
    <1d2f>   DW_AT_decl_file   : 3
    <1d30>   DW_AT_decl_line   : 45
    <1d31>   DW_AT_decl_column : 27
    <1d32>   DW_AT_type        : <0x1cef>
 <1><1d36>: Abbrev Number: 6 (DW_TAG_pointer_type)
    <1d37>   DW_AT_byte_size   : 8
 <1><1d38>: Abbrev Number: 2 (DW_TAG_base_type)
    <1d39>   DW_AT_byte_size   : 1
    <1d3a>   DW_AT_encoding    : 6	(signed char)
    <1d3b>   DW_AT_name        : (indirect string, offset: 0x25a): char
 <1><1d3f>: Abbrev Number: 4 (DW_TAG_typedef)
    <1d40>   DW_AT_name        : (indirect string, offset: 0xe6c): uint8_t
    <1d44>   DW_AT_decl_file   : 4
    <1d45>   DW_AT_decl_line   : 24
    <1d46>   DW_AT_decl_column : 19
    <1d47>   DW_AT_type        : <0x1cfd>
 <1><1d4b>: Abbrev Number: 3 (DW_TAG_const_type)
    <1d4c>   DW_AT_type        : <0x1d3f>
 <1><1d50>: Abbrev Number: 4 (DW_TAG_typedef)
    <1d51>   DW_AT_name        : (indirect string, offset: 0xf7f): uint32_t
    <1d55>   DW_AT_decl_file   : 4
    <1d56>   DW_AT_decl_line   : 26
    <1d57>   DW_AT_decl_column : 20
    <1d58>   DW_AT_type        : <0x1d17>
 <1><1d5c>: Abbrev Number: 4 (DW_TAG_typedef)
    <1d5d>   DW_AT_name        : (indirect string, offset: 0xf3f): uint64_t
    <1d61>   DW_AT_decl_file   : 4
    <1d62>   DW_AT_decl_line   : 27
    <1d63>   DW_AT_decl_column : 20
    <1d64>   DW_AT_type        : <0x1d2a>
 <1><1d68>: Abbrev Number: 3 (DW_TAG_const_type)
    <1d69>   DW_AT_type        : <0x1d5c>
 <1><1d6d>: Abbrev Number: 4 (DW_TAG_typedef)
    <1d6e>   DW_AT_name        : (indirect string, offset: 0x70): size_t
    <1d72>   DW_AT_decl_file   : 5
    <1d73>   DW_AT_decl_line   : 209
    <1d74>   DW_AT_decl_column : 23
    <1d75>   DW_AT_type        : <0x1cef>
 <1><1d79>: Abbrev Number: 2 (DW_TAG_base_type)
    <1d7a>   DW_AT_byte_size   : 8
    <1d7b>   DW_AT_encoding    : 5	(signed)
    <1d7c>   DW_AT_name        : (indirect string, offset: 0x6b8): long long int
 <1><1d80>: Abbrev Number: 2 (DW_TAG_base_type)
    <1d81>   DW_AT_byte_size   : 16
    <1d82>   DW_AT_encoding    : 4	(float)
    <1d83>   DW_AT_name        : (indirect string, offset: 0x86f): long double
 <1><1d87>: Abbrev Number: 2 (DW_TAG_base_type)
    <1d88>   DW_AT_byte_size   : 8
    <1d89>   DW_AT_encoding    : 7	(unsigned)
    <1d8a>   DW_AT_name        : (indirect string, offset: 0x8cc): long long unsigned int
 <1><1d8e>: Abbrev Number: 7 (DW_TAG_enumeration_type)
    <1d8f>   DW_AT_name        : (indirect string, offset: 0xef2): blake2s_constant
    <1d93>   DW_AT_encoding    : 7	(unsigned)
    <1d94>   DW_AT_byte_size   : 4
    <1d95>   DW_AT_type        : <0x1ce3>
    <1d99>   DW_AT_decl_file   : 6
    <1d9a>   DW_AT_decl_line   : 33
    <1d9b>   DW_AT_decl_column : 8
    <1d9c>   DW_AT_sibling     : <0x1dbf>
 <2><1da0>: Abbrev Number: 8 (DW_TAG_enumerator)
    <1da1>   DW_AT_name        : (indirect string, offset: 0xdf6): BLAKE2S_BLOCKBYTES
    <1da5>   DW_AT_const_value : 64
 <2><1da6>: Abbrev Number: 8 (DW_TAG_enumerator)
    <1da7>   DW_AT_name        : (indirect string, offset: 0xd77): BLAKE2S_OUTBYTES
    <1dab>   DW_AT_const_value : 32
 <2><1dac>: Abbrev Number: 8 (DW_TAG_enumerator)
    <1dad>   DW_AT_name        : (indirect string, offset: 0xf03): BLAKE2S_KEYBYTES
    <1db1>   DW_AT_const_value : 32
 <2><1db2>: Abbrev Number: 8 (DW_TAG_enumerator)
    <1db3>   DW_AT_name        : (indirect string, offset: 0xecd): BLAKE2S_SALTBYTES
    <1db7>   DW_AT_const_value : 8
 <2><1db8>: Abbrev Number: 8 (DW_TAG_enumerator)
    <1db9>   DW_AT_name        : (indirect string, offset: 0xd61): BLAKE2S_PERSONALBYTES
    <1dbd>   DW_AT_const_value : 8
 <2><1dbe>: Abbrev Number: 0
 <1><1dbf>: Abbrev Number: 7 (DW_TAG_enumeration_type)
    <1dc0>   DW_AT_name        : (indirect string, offset: 0xde5): blake2b_constant
    <1dc4>   DW_AT_encoding    : 7	(unsigned)
    <1dc5>   DW_AT_byte_size   : 4
    <1dc6>   DW_AT_type        : <0x1ce3>
    <1dca>   DW_AT_decl_file   : 6
    <1dcb>   DW_AT_decl_line   : 42
    <1dcc>   DW_AT_decl_column : 8
    <1dcd>   DW_AT_sibling     : <0x1df0>
 <2><1dd1>: Abbrev Number: 8 (DW_TAG_enumerator)
    <1dd2>   DW_AT_name        : (indirect string, offset: 0xfac): BLAKE2B_BLOCKBYTES
    <1dd6>   DW_AT_const_value : 128
 <2><1dd7>: Abbrev Number: 8 (DW_TAG_enumerator)
    <1dd8>   DW_AT_name        : (indirect string, offset: 0xf9b): BLAKE2B_OUTBYTES
    <1ddc>   DW_AT_const_value : 64
 <2><1ddd>: Abbrev Number: 8 (DW_TAG_enumerator)
    <1dde>   DW_AT_name        : (indirect string, offset: 0xf6c): BLAKE2B_KEYBYTES
    <1de2>   DW_AT_const_value : 64
 <2><1de3>: Abbrev Number: 8 (DW_TAG_enumerator)
    <1de4>   DW_AT_name        : (indirect string, offset: 0xd4f): BLAKE2B_SALTBYTES
    <1de8>   DW_AT_const_value : 16
 <2><1de9>: Abbrev Number: 8 (DW_TAG_enumerator)
    <1dea>   DW_AT_name        : (indirect string, offset: 0xe54): BLAKE2B_PERSONALBYTES
    <1dee>   DW_AT_const_value : 16
 <2><1def>: Abbrev Number: 0
 <1><1df0>: Abbrev Number: 9 (DW_TAG_array_type)
    <1df1>   DW_AT_type        : <0x1d3f>
    <1df5>   DW_AT_sibling     : <0x1e00>
 <2><1df9>: Abbrev Number: 10 (DW_TAG_subrange_type)
    <1dfa>   DW_AT_type        : <0x1cef>
    <1dfe>   DW_AT_upper_bound : 63
 <2><1dff>: Abbrev Number: 0
 <1><1e00>: Abbrev Number: 11 (DW_TAG_structure_type)
    <1e01>   DW_AT_name        : (indirect string, offset: 0xe44): blake2b_state__
    <1e05>   DW_AT_byte_size   : 248
    <1e06>   DW_AT_decl_file   : 6
    <1e07>   DW_AT_decl_line   : 62
    <1e08>   DW_AT_decl_column : 18
    <1e09>   DW_AT_sibling     : <0x1e63>
 <2><1e0d>: Abbrev Number: 12 (DW_TAG_member)
    <1e0e>   DW_AT_name        : h
    <1e10>   DW_AT_decl_file   : 6
    <1e11>   DW_AT_decl_line   : 64
    <1e12>   DW_AT_decl_column : 14
    <1e13>   DW_AT_type        : <0x1e63>
    <1e17>   DW_AT_data_member_location: 0
 <2><1e18>: Abbrev Number: 12 (DW_TAG_member)
    <1e19>   DW_AT_name        : t
    <1e1b>   DW_AT_decl_file   : 6
    <1e1c>   DW_AT_decl_line   : 65
    <1e1d>   DW_AT_decl_column : 14
    <1e1e>   DW_AT_type        : <0x1e73>
    <1e22>   DW_AT_data_member_location: 64
 <2><1e23>: Abbrev Number: 12 (DW_TAG_member)
    <1e24>   DW_AT_name        : f
    <1e26>   DW_AT_decl_file   : 6
    <1e27>   DW_AT_decl_line   : 66
    <1e28>   DW_AT_decl_column : 14
    <1e29>   DW_AT_type        : <0x1e73>
    <1e2d>   DW_AT_data_member_location: 80
 <2><1e2e>: Abbrev Number: 12 (DW_TAG_member)
    <1e2f>   DW_AT_name        : buf
    <1e33>   DW_AT_decl_file   : 6
    <1e34>   DW_AT_decl_line   : 67
    <1e35>   DW_AT_decl_column : 14
    <1e36>   DW_AT_type        : <0x1e83>
    <1e3a>   DW_AT_data_member_location: 96
 <2><1e3b>: Abbrev Number: 13 (DW_TAG_member)
    <1e3c>   DW_AT_name        : (indirect string, offset: 0xd48): buflen
    <1e40>   DW_AT_decl_file   : 6
    <1e41>   DW_AT_decl_line   : 68
    <1e42>   DW_AT_decl_column : 14
    <1e43>   DW_AT_type        : <0x1d6d>
    <1e47>   DW_AT_data_member_location: 224
 <2><1e48>: Abbrev Number: 13 (DW_TAG_member)
    <1e49>   DW_AT_name        : (indirect string, offset: 0xd28): outlen
    <1e4d>   DW_AT_decl_file   : 6
    <1e4e>   DW_AT_decl_line   : 69
    <1e4f>   DW_AT_decl_column : 14
    <1e50>   DW_AT_type        : <0x1d6d>
    <1e54>   DW_AT_data_member_location: 232
 <2><1e55>: Abbrev Number: 13 (DW_TAG_member)
    <1e56>   DW_AT_name        : (indirect string, offset: 0xcf5): last_node
    <1e5a>   DW_AT_decl_file   : 6
    <1e5b>   DW_AT_decl_line   : 70
    <1e5c>   DW_AT_decl_column : 14
    <1e5d>   DW_AT_type        : <0x1d3f>
    <1e61>   DW_AT_data_member_location: 240
 <2><1e62>: Abbrev Number: 0
 <1><1e63>: Abbrev Number: 9 (DW_TAG_array_type)
    <1e64>   DW_AT_type        : <0x1d5c>
    <1e68>   DW_AT_sibling     : <0x1e73>
 <2><1e6c>: Abbrev Number: 10 (DW_TAG_subrange_type)
    <1e6d>   DW_AT_type        : <0x1cef>
    <1e71>   DW_AT_upper_bound : 7
 <2><1e72>: Abbrev Number: 0
 <1><1e73>: Abbrev Number: 9 (DW_TAG_array_type)
    <1e74>   DW_AT_type        : <0x1d5c>
    <1e78>   DW_AT_sibling     : <0x1e83>
 <2><1e7c>: Abbrev Number: 10 (DW_TAG_subrange_type)
    <1e7d>   DW_AT_type        : <0x1cef>
    <1e81>   DW_AT_upper_bound : 1
 <2><1e82>: Abbrev Number: 0
 <1><1e83>: Abbrev Number: 9 (DW_TAG_array_type)
    <1e84>   DW_AT_type        : <0x1d3f>
    <1e88>   DW_AT_sibling     : <0x1e93>
 <2><1e8c>: Abbrev Number: 10 (DW_TAG_subrange_type)
    <1e8d>   DW_AT_type        : <0x1cef>
    <1e91>   DW_AT_upper_bound : 127
 <2><1e92>: Abbrev Number: 0
 <1><1e93>: Abbrev Number: 4 (DW_TAG_typedef)
    <1e94>   DW_AT_name        : (indirect string, offset: 0xf2f): blake2b_state
    <1e98>   DW_AT_decl_file   : 6
    <1e99>   DW_AT_decl_line   : 71
    <1e9a>   DW_AT_decl_column : 5
    <1e9b>   DW_AT_type        : <0x1e00>
 <1><1e9f>: Abbrev Number: 3 (DW_TAG_const_type)
    <1ea0>   DW_AT_type        : <0x1e93>
 <1><1ea4>: Abbrev Number: 9 (DW_TAG_array_type)
    <1ea5>   DW_AT_type        : <0x1e93>
    <1ea9>   DW_AT_sibling     : <0x1eb4>
 <2><1ead>: Abbrev Number: 10 (DW_TAG_subrange_type)
    <1eae>   DW_AT_type        : <0x1cef>
    <1eb2>   DW_AT_upper_bound : 0
 <2><1eb3>: Abbrev Number: 0
 <1><1eb4>: Abbrev Number: 11 (DW_TAG_structure_type)
    <1eb5>   DW_AT_name        : (indirect string, offset: 0xfd2): blake2b_param__
    <1eb9>   DW_AT_byte_size   : 64
    <1eba>   DW_AT_decl_file   : 6
    <1ebb>   DW_AT_decl_line   : 110
    <1ebc>   DW_AT_decl_column : 3
    <1ebd>   DW_AT_sibling     : <0x1f5e>
 <2><1ec1>: Abbrev Number: 13 (DW_TAG_member)
    <1ec2>   DW_AT_name        : (indirect string, offset: 0x8b4): digest_length
    <1ec6>   DW_AT_decl_file   : 6
    <1ec7>   DW_AT_decl_line   : 110
    <1ec8>   DW_AT_decl_column : 3
    <1ec9>   DW_AT_type        : <0x1d3f>
    <1ecd>   DW_AT_data_member_location: 0
 <2><1ece>: Abbrev Number: 13 (DW_TAG_member)
    <1ecf>   DW_AT_name        : (indirect string, offset: 0xf14): key_length
    <1ed3>   DW_AT_decl_file   : 6
    <1ed4>   DW_AT_decl_line   : 110
    <1ed5>   DW_AT_decl_column : 3
    <1ed6>   DW_AT_type        : <0x1d3f>
    <1eda>   DW_AT_data_member_location: 1
 <2><1edb>: Abbrev Number: 13 (DW_TAG_member)
    <1edc>   DW_AT_name        : (indirect string, offset: 0xeb1): fanout
    <1ee0>   DW_AT_decl_file   : 6
    <1ee1>   DW_AT_decl_line   : 110
    <1ee2>   DW_AT_decl_column : 3
    <1ee3>   DW_AT_type        : <0x1d3f>
    <1ee7>   DW_AT_data_member_location: 2
 <2><1ee8>: Abbrev Number: 13 (DW_TAG_member)
    <1ee9>   DW_AT_name        : (indirect string, offset: 0xe2e): depth
    <1eed>   DW_AT_decl_file   : 6
    <1eee>   DW_AT_decl_line   : 110
    <1eef>   DW_AT_decl_column : 3
    <1ef0>   DW_AT_type        : <0x1d3f>
    <1ef4>   DW_AT_data_member_location: 3
 <2><1ef5>: Abbrev Number: 13 (DW_TAG_member)
    <1ef6>   DW_AT_name        : (indirect string, offset: 0xec1): leaf_length
    <1efa>   DW_AT_decl_file   : 6
    <1efb>   DW_AT_decl_line   : 110
    <1efc>   DW_AT_decl_column : 3
    <1efd>   DW_AT_type        : <0x1d50>
    <1f01>   DW_AT_data_member_location: 4
 <2><1f02>: Abbrev Number: 13 (DW_TAG_member)
    <1f03>   DW_AT_name        : (indirect string, offset: 0xf8f): node_offset
    <1f07>   DW_AT_decl_file   : 6
    <1f08>   DW_AT_decl_line   : 110
    <1f09>   DW_AT_decl_column : 3
    <1f0a>   DW_AT_type        : <0x1d50>
    <1f0e>   DW_AT_data_member_location: 8
 <2><1f0f>: Abbrev Number: 13 (DW_TAG_member)
    <1f10>   DW_AT_name        : (indirect string, offset: 0xdda): xof_length
    <1f14>   DW_AT_decl_file   : 6
    <1f15>   DW_AT_decl_line   : 110
    <1f16>   DW_AT_decl_column : 3
    <1f17>   DW_AT_type        : <0x1d50>
    <1f1b>   DW_AT_data_member_location: 12
 <2><1f1c>: Abbrev Number: 13 (DW_TAG_member)
    <1f1d>   DW_AT_name        : (indirect string, offset: 0xe29): node_depth
    <1f21>   DW_AT_decl_file   : 6
    <1f22>   DW_AT_decl_line   : 110
    <1f23>   DW_AT_decl_column : 3
    <1f24>   DW_AT_type        : <0x1d3f>
    <1f28>   DW_AT_data_member_location: 16
 <2><1f29>: Abbrev Number: 13 (DW_TAG_member)
    <1f2a>   DW_AT_name        : (indirect string, offset: 0xe74): inner_length
    <1f2e>   DW_AT_decl_file   : 6
    <1f2f>   DW_AT_decl_line   : 110
    <1f30>   DW_AT_decl_column : 3
    <1f31>   DW_AT_type        : <0x1d3f>
    <1f35>   DW_AT_data_member_location: 17
 <2><1f36>: Abbrev Number: 13 (DW_TAG_member)
    <1f37>   DW_AT_name        : (indirect string, offset: 0xfe2): reserved
    <1f3b>   DW_AT_decl_file   : 6
    <1f3c>   DW_AT_decl_line   : 110
    <1f3d>   DW_AT_decl_column : 3
    <1f3e>   DW_AT_type        : <0x1f5e>
    <1f42>   DW_AT_data_member_location: 18
 <2><1f43>: Abbrev Number: 13 (DW_TAG_member)
    <1f44>   DW_AT_name        : (indirect string, offset: 0xd23): salt
    <1f48>   DW_AT_decl_file   : 6
    <1f49>   DW_AT_decl_line   : 110
    <1f4a>   DW_AT_decl_column : 3
    <1f4b>   DW_AT_type        : <0x1f6e>
    <1f4f>   DW_AT_data_member_location: 32
 <2><1f50>: Abbrev Number: 13 (DW_TAG_member)
    <1f51>   DW_AT_name        : (indirect string, offset: 0xe3b): personal
    <1f55>   DW_AT_decl_file   : 6
    <1f56>   DW_AT_decl_line   : 110
    <1f57>   DW_AT_decl_column : 3
    <1f58>   DW_AT_type        : <0x1f6e>
    <1f5c>   DW_AT_data_member_location: 48
 <2><1f5d>: Abbrev Number: 0
 <1><1f5e>: Abbrev Number: 9 (DW_TAG_array_type)
    <1f5f>   DW_AT_type        : <0x1d3f>
    <1f63>   DW_AT_sibling     : <0x1f6e>
 <2><1f67>: Abbrev Number: 10 (DW_TAG_subrange_type)
    <1f68>   DW_AT_type        : <0x1cef>
    <1f6c>   DW_AT_upper_bound : 13
 <2><1f6d>: Abbrev Number: 0
 <1><1f6e>: Abbrev Number: 9 (DW_TAG_array_type)
    <1f6f>   DW_AT_type        : <0x1d3f>
    <1f73>   DW_AT_sibling     : <0x1f7e>
 <2><1f77>: Abbrev Number: 10 (DW_TAG_subrange_type)
    <1f78>   DW_AT_type        : <0x1cef>
    <1f7c>   DW_AT_upper_bound : 15
 <2><1f7d>: Abbrev Number: 0
 <1><1f7e>: Abbrev Number: 4 (DW_TAG_typedef)
    <1f7f>   DW_AT_name        : (indirect string, offset: 0xe88): blake2b_param
    <1f83>   DW_AT_decl_file   : 6
    <1f84>   DW_AT_decl_line   : 126
    <1f85>   DW_AT_decl_column : 34
    <1f86>   DW_AT_type        : <0x1eb4>
 <1><1f8a>: Abbrev Number: 3 (DW_TAG_const_type)
    <1f8b>   DW_AT_type        : <0x1f7e>
 <1><1f8f>: Abbrev Number: 9 (DW_TAG_array_type)
    <1f90>   DW_AT_type        : <0x1f7e>
    <1f94>   DW_AT_sibling     : <0x1f9f>
 <2><1f98>: Abbrev Number: 10 (DW_TAG_subrange_type)
    <1f99>   DW_AT_type        : <0x1cef>
    <1f9d>   DW_AT_upper_bound : 0
 <2><1f9e>: Abbrev Number: 0
 <1><1f9f>: Abbrev Number: 9 (DW_TAG_array_type)
    <1fa0>   DW_AT_type        : <0x1d68>
    <1fa4>   DW_AT_sibling     : <0x1faf>
 <2><1fa8>: Abbrev Number: 10 (DW_TAG_subrange_type)
    <1fa9>   DW_AT_type        : <0x1cef>
    <1fad>   DW_AT_upper_bound : 7
 <2><1fae>: Abbrev Number: 0
 <1><1faf>: Abbrev Number: 3 (DW_TAG_const_type)
    <1fb0>   DW_AT_type        : <0x1f9f>
 <1><1fb4>: Abbrev Number: 14 (DW_TAG_variable)
    <1fb5>   DW_AT_name        : (indirect string, offset: 0xf1f): blake2b_IV
    <1fb9>   DW_AT_decl_file   : 2
    <1fba>   DW_AT_decl_line   : 27
    <1fbb>   DW_AT_decl_column : 23
    <1fbc>   DW_AT_type        : <0x1faf>
    <1fc0>   DW_AT_location    : 9 byte block: 3 c0 80 2 0 0 0 0 0 	(DW_OP_addr: 280c0)
 <1><1fca>: Abbrev Number: 9 (DW_TAG_array_type)
    <1fcb>   DW_AT_type        : <0x1d4b>
    <1fcf>   DW_AT_sibling     : <0x1fe0>
 <2><1fd3>: Abbrev Number: 10 (DW_TAG_subrange_type)
    <1fd4>   DW_AT_type        : <0x1cef>
    <1fd8>   DW_AT_upper_bound : 11
 <2><1fd9>: Abbrev Number: 10 (DW_TAG_subrange_type)
    <1fda>   DW_AT_type        : <0x1cef>
    <1fde>   DW_AT_upper_bound : 15
 <2><1fdf>: Abbrev Number: 0
 <1><1fe0>: Abbrev Number: 3 (DW_TAG_const_type)
    <1fe1>   DW_AT_type        : <0x1fca>
 <1><1fe5>: Abbrev Number: 14 (DW_TAG_variable)
    <1fe6>   DW_AT_name        : (indirect string, offset: 0xcff): blake2b_sigma
    <1fea>   DW_AT_decl_file   : 2
    <1feb>   DW_AT_decl_line   : 35
    <1fec>   DW_AT_decl_column : 22
    <1fed>   DW_AT_type        : <0x1fe0>
    <1ff1>   DW_AT_location    : 9 byte block: 3 0 81 2 0 0 0 0 0 	(DW_OP_addr: 28100)
 <1><1ffb>: Abbrev Number: 15 (DW_TAG_subprogram)
    <1ffc>   DW_AT_external    : 1
    <1ffc>   DW_AT_name        : (indirect string, offset: 0xdd3): memcpy
    <2000>   DW_AT_decl_file   : 7
    <2001>   DW_AT_decl_line   : 43
    <2002>   DW_AT_decl_column : 14
    <2003>   DW_AT_prototyped  : 1
    <2003>   DW_AT_type        : <0x1d36>
    <2007>   DW_AT_declaration : 1
    <2007>   DW_AT_sibling     : <0x201b>
 <2><200b>: Abbrev Number: 16 (DW_TAG_formal_parameter)
    <200c>   DW_AT_type        : <0x1d36>
 <2><2010>: Abbrev Number: 16 (DW_TAG_formal_parameter)
    <2011>   DW_AT_type        : <0x201b>
 <2><2015>: Abbrev Number: 16 (DW_TAG_formal_parameter)
    <2016>   DW_AT_type        : <0x1d6d>
 <2><201a>: Abbrev Number: 0
 <1><201b>: Abbrev Number: 17 (DW_TAG_pointer_type)
    <201c>   DW_AT_byte_size   : 8
    <201d>   DW_AT_type        : <0x2021>
 <1><2021>: Abbrev Number: 18 (DW_TAG_const_type)
 <1><2022>: Abbrev Number: 15 (DW_TAG_subprogram)
    <2023>   DW_AT_external    : 1
    <2023>   DW_AT_name        : (indirect string, offset: 0xe34): memset
    <2027>   DW_AT_decl_file   : 7
    <2028>   DW_AT_decl_line   : 61
    <2029>   DW_AT_decl_column : 14
    <202a>   DW_AT_prototyped  : 1
    <202a>   DW_AT_type        : <0x1d36>
    <202e>   DW_AT_declaration : 1
    <202e>   DW_AT_sibling     : <0x2042>
 <2><2032>: Abbrev Number: 16 (DW_TAG_formal_parameter)
    <2033>   DW_AT_type        : <0x1d36>
 <2><2037>: Abbrev Number: 16 (DW_TAG_formal_parameter)
    <2038>   DW_AT_type        : <0x1d10>
 <2><203c>: Abbrev Number: 16 (DW_TAG_formal_parameter)
    <203d>   DW_AT_type        : <0x1d6d>
 <2><2041>: Abbrev Number: 0
 <1><2042>: Abbrev Number: 19 (DW_TAG_subprogram)
    <2043>   DW_AT_external    : 1
    <2043>   DW_AT_name        : (indirect string, offset: 0xe81): blake2
    <2047>   DW_AT_decl_file   : 2
    <2048>   DW_AT_decl_line   : 306
    <204a>   DW_AT_decl_column : 5
    <204b>   DW_AT_prototyped  : 1
    <204b>   DW_AT_type        : <0x1d10>
    <204f>   DW_AT_low_pc      : 0xb0f2
    <2057>   DW_AT_high_pc     : 0x4c
    <205f>   DW_AT_frame_base  : 1 byte block: 9c 	(DW_OP_call_frame_cfa)
    <2061>   DW_AT_GNU_all_tail_call_sites: 1
    <2061>   DW_AT_sibling     : <0x20c5>
 <2><2065>: Abbrev Number: 20 (DW_TAG_formal_parameter)
    <2066>   DW_AT_name        : out
    <206a>   DW_AT_decl_file   : 2
    <206b>   DW_AT_decl_line   : 306
    <206d>   DW_AT_decl_column : 19
    <206e>   DW_AT_type        : <0x1d36>
    <2072>   DW_AT_location    : 2 byte block: 91 68 	(DW_OP_fbreg: -24)
 <2><2075>: Abbrev Number: 21 (DW_TAG_formal_parameter)
    <2076>   DW_AT_name        : (indirect string, offset: 0xd28): outlen
    <207a>   DW_AT_decl_file   : 2
    <207b>   DW_AT_decl_line   : 306
    <207d>   DW_AT_decl_column : 31
    <207e>   DW_AT_type        : <0x1d6d>
    <2082>   DW_AT_location    : 2 byte block: 91 60 	(DW_OP_fbreg: -32)
 <2><2085>: Abbrev Number: 20 (DW_TAG_formal_parameter)
    <2086>   DW_AT_name        : in
    <2089>   DW_AT_decl_file   : 2
    <208a>   DW_AT_decl_line   : 306
    <208c>   DW_AT_decl_column : 51
    <208d>   DW_AT_type        : <0x201b>
    <2091>   DW_AT_location    : 2 byte block: 91 58 	(DW_OP_fbreg: -40)
 <2><2094>: Abbrev Number: 21 (DW_TAG_formal_parameter)
    <2095>   DW_AT_name        : (indirect string, offset: 0xe23): inlen
    <2099>   DW_AT_decl_file   : 2
    <209a>   DW_AT_decl_line   : 306
    <209c>   DW_AT_decl_column : 62
    <209d>   DW_AT_type        : <0x1d6d>
    <20a1>   DW_AT_location    : 2 byte block: 91 50 	(DW_OP_fbreg: -48)
 <2><20a4>: Abbrev Number: 20 (DW_TAG_formal_parameter)
    <20a5>   DW_AT_name        : key
    <20a9>   DW_AT_decl_file   : 2
    <20aa>   DW_AT_decl_line   : 306
    <20ac>   DW_AT_decl_column : 81
    <20ad>   DW_AT_type        : <0x201b>
    <20b1>   DW_AT_location    : 2 byte block: 91 48 	(DW_OP_fbreg: -56)
 <2><20b4>: Abbrev Number: 21 (DW_TAG_formal_parameter)
    <20b5>   DW_AT_name        : (indirect string, offset: 0xf65): keylen
    <20b9>   DW_AT_decl_file   : 2
    <20ba>   DW_AT_decl_line   : 306
    <20bc>   DW_AT_decl_column : 93
    <20bd>   DW_AT_type        : <0x1d6d>
    <20c1>   DW_AT_location    : 2 byte block: 91 40 	(DW_OP_fbreg: -64)
 <2><20c4>: Abbrev Number: 0
 <1><20c5>: Abbrev Number: 19 (DW_TAG_subprogram)
    <20c6>   DW_AT_external    : 1
    <20c6>   DW_AT_name        : (indirect string, offset: 0x1d5): blake2b
    <20ca>   DW_AT_decl_file   : 2
    <20cb>   DW_AT_decl_line   : 277
    <20cd>   DW_AT_decl_column : 5
    <20ce>   DW_AT_prototyped  : 1
    <20ce>   DW_AT_type        : <0x1d10>
    <20d2>   DW_AT_low_pc      : 0xaf70
    <20da>   DW_AT_high_pc     : 0x182
    <20e2>   DW_AT_frame_base  : 1 byte block: 9c 	(DW_OP_call_frame_cfa)
    <20e4>   DW_AT_GNU_all_tail_call_sites: 1
    <20e4>   DW_AT_sibling     : <0x215d>
 <2><20e8>: Abbrev Number: 20 (DW_TAG_formal_parameter)
    <20e9>   DW_AT_name        : out
    <20ed>   DW_AT_decl_file   : 2
    <20ee>   DW_AT_decl_line   : 277
    <20f0>   DW_AT_decl_column : 20
    <20f1>   DW_AT_type        : <0x1d36>
    <20f5>   DW_AT_location    : 3 byte block: 91 e8 7d 	(DW_OP_fbreg: -280)
 <2><20f9>: Abbrev Number: 21 (DW_TAG_formal_parameter)
    <20fa>   DW_AT_name        : (indirect string, offset: 0xd28): outlen
    <20fe>   DW_AT_decl_file   : 2
    <20ff>   DW_AT_decl_line   : 277
    <2101>   DW_AT_decl_column : 32
    <2102>   DW_AT_type        : <0x1d6d>
    <2106>   DW_AT_location    : 3 byte block: 91 e0 7d 	(DW_OP_fbreg: -288)
 <2><210a>: Abbrev Number: 20 (DW_TAG_formal_parameter)
    <210b>   DW_AT_name        : in
    <210e>   DW_AT_decl_file   : 2
    <210f>   DW_AT_decl_line   : 277
    <2111>   DW_AT_decl_column : 52
    <2112>   DW_AT_type        : <0x201b>
    <2116>   DW_AT_location    : 3 byte block: 91 d8 7d 	(DW_OP_fbreg: -296)
 <2><211a>: Abbrev Number: 21 (DW_TAG_formal_parameter)
    <211b>   DW_AT_name        : (indirect string, offset: 0xe23): inlen
    <211f>   DW_AT_decl_file   : 2
    <2120>   DW_AT_decl_line   : 277
    <2122>   DW_AT_decl_column : 63
    <2123>   DW_AT_type        : <0x1d6d>
    <2127>   DW_AT_location    : 3 byte block: 91 d0 7d 	(DW_OP_fbreg: -304)
 <2><212b>: Abbrev Number: 20 (DW_TAG_formal_parameter)
    <212c>   DW_AT_name        : key
    <2130>   DW_AT_decl_file   : 2
    <2131>   DW_AT_decl_line   : 277
    <2133>   DW_AT_decl_column : 82
    <2134>   DW_AT_type        : <0x201b>
    <2138>   DW_AT_location    : 3 byte block: 91 c8 7d 	(DW_OP_fbreg: -312)
 <2><213c>: Abbrev Number: 21 (DW_TAG_formal_parameter)
    <213d>   DW_AT_name        : (indirect string, offset: 0xf65): keylen
    <2141>   DW_AT_decl_file   : 2
    <2142>   DW_AT_decl_line   : 277
    <2144>   DW_AT_decl_column : 94
    <2145>   DW_AT_type        : <0x1d6d>
    <2149>   DW_AT_location    : 3 byte block: 91 c0 7d 	(DW_OP_fbreg: -320)
 <2><214d>: Abbrev Number: 22 (DW_TAG_variable)
    <214e>   DW_AT_name        : S
    <2150>   DW_AT_decl_file   : 2
    <2151>   DW_AT_decl_line   : 279
    <2153>   DW_AT_decl_column : 17
    <2154>   DW_AT_type        : <0x1ea4>
    <2158>   DW_AT_location    : 3 byte block: 91 f0 7d 	(DW_OP_fbreg: -272)
 <2><215c>: Abbrev Number: 0
 <1><215d>: Abbrev Number: 23 (DW_TAG_subprogram)
    <215e>   DW_AT_external    : 1
    <215e>   DW_AT_name        : (indirect string, offset: 0xea3): blake2b_final
    <2162>   DW_AT_decl_file   : 2
    <2163>   DW_AT_decl_line   : 252
    <2164>   DW_AT_decl_column : 5
    <2165>   DW_AT_prototyped  : 1
    <2165>   DW_AT_type        : <0x1d10>
    <2169>   DW_AT_low_pc      : 0xadd0
    <2171>   DW_AT_high_pc     : 0x1a0
    <2179>   DW_AT_frame_base  : 1 byte block: 9c 	(DW_OP_call_frame_cfa)
    <217b>   DW_AT_GNU_all_tail_call_sites: 1
    <217b>   DW_AT_sibling     : <0x21cc>
 <2><217f>: Abbrev Number: 24 (DW_TAG_formal_parameter)
    <2180>   DW_AT_name        : S
    <2182>   DW_AT_decl_file   : 2
    <2183>   DW_AT_decl_line   : 252
    <2184>   DW_AT_decl_column : 35
    <2185>   DW_AT_type        : <0x21cc>
    <2189>   DW_AT_location    : 3 byte block: 91 88 7f 	(DW_OP_fbreg: -120)
 <2><218d>: Abbrev Number: 24 (DW_TAG_formal_parameter)
    <218e>   DW_AT_name        : out
    <2192>   DW_AT_decl_file   : 2
    <2193>   DW_AT_decl_line   : 252
    <2194>   DW_AT_decl_column : 44
    <2195>   DW_AT_type        : <0x1d36>
    <2199>   DW_AT_location    : 3 byte block: 91 80 7f 	(DW_OP_fbreg: -128)
 <2><219d>: Abbrev Number: 25 (DW_TAG_formal_parameter)
    <219e>   DW_AT_name        : (indirect string, offset: 0xd28): outlen
    <21a2>   DW_AT_decl_file   : 2
    <21a3>   DW_AT_decl_line   : 252
    <21a4>   DW_AT_decl_column : 56
    <21a5>   DW_AT_type        : <0x1d6d>
    <21a9>   DW_AT_location    : 3 byte block: 91 f8 7e 	(DW_OP_fbreg: -136)
 <2><21ad>: Abbrev Number: 14 (DW_TAG_variable)
    <21ae>   DW_AT_name        : (indirect string, offset: 0x157c): buffer
    <21b2>   DW_AT_decl_file   : 2
    <21b3>   DW_AT_decl_line   : 254
    <21b4>   DW_AT_decl_column : 11
    <21b5>   DW_AT_type        : <0x1df0>
    <21b9>   DW_AT_location    : 3 byte block: 91 a0 7f 	(DW_OP_fbreg: -96)
 <2><21bd>: Abbrev Number: 26 (DW_TAG_variable)
    <21be>   DW_AT_name        : i
    <21c0>   DW_AT_decl_file   : 2
    <21c1>   DW_AT_decl_line   : 255
    <21c2>   DW_AT_decl_column : 10
    <21c3>   DW_AT_type        : <0x1d6d>
    <21c7>   DW_AT_location    : 3 byte block: 91 98 7f 	(DW_OP_fbreg: -104)
 <2><21cb>: Abbrev Number: 0
 <1><21cc>: Abbrev Number: 17 (DW_TAG_pointer_type)
    <21cd>   DW_AT_byte_size   : 8
    <21ce>   DW_AT_type        : <0x1e93>
 <1><21d2>: Abbrev Number: 23 (DW_TAG_subprogram)
    <21d3>   DW_AT_external    : 1
    <21d3>   DW_AT_name        : (indirect string, offset: 0xf56): blake2b_update
    <21d7>   DW_AT_decl_file   : 2
    <21d8>   DW_AT_decl_line   : 225
    <21d9>   DW_AT_decl_column : 5
    <21da>   DW_AT_prototyped  : 1
    <21da>   DW_AT_type        : <0x1d10>
    <21de>   DW_AT_low_pc      : 0xac89
    <21e6>   DW_AT_high_pc     : 0x147
    <21ee>   DW_AT_frame_base  : 1 byte block: 9c 	(DW_OP_call_frame_cfa)
    <21f0>   DW_AT_GNU_all_tail_call_sites: 1
    <21f0>   DW_AT_sibling     : <0x225f>
 <2><21f4>: Abbrev Number: 24 (DW_TAG_formal_parameter)
    <21f5>   DW_AT_name        : S
    <21f7>   DW_AT_decl_file   : 2
    <21f8>   DW_AT_decl_line   : 225
    <21f9>   DW_AT_decl_column : 36
    <21fa>   DW_AT_type        : <0x21cc>
    <21fe>   DW_AT_location    : 2 byte block: 91 48 	(DW_OP_fbreg: -56)
 <2><2201>: Abbrev Number: 24 (DW_TAG_formal_parameter)
    <2202>   DW_AT_name        : pin
    <2206>   DW_AT_decl_file   : 2
    <2207>   DW_AT_decl_line   : 225
    <2208>   DW_AT_decl_column : 51
    <2209>   DW_AT_type        : <0x201b>
    <220d>   DW_AT_location    : 2 byte block: 91 40 	(DW_OP_fbreg: -64)
 <2><2210>: Abbrev Number: 25 (DW_TAG_formal_parameter)
    <2211>   DW_AT_name        : (indirect string, offset: 0xe23): inlen
    <2215>   DW_AT_decl_file   : 2
    <2216>   DW_AT_decl_line   : 225
    <2217>   DW_AT_decl_column : 63
    <2218>   DW_AT_type        : <0x1d6d>
    <221c>   DW_AT_location    : 3 byte block: 91 b8 7f 	(DW_OP_fbreg: -72)
 <2><2220>: Abbrev Number: 26 (DW_TAG_variable)
    <2221>   DW_AT_name        : in
    <2224>   DW_AT_decl_file   : 2
    <2225>   DW_AT_decl_line   : 227
    <2226>   DW_AT_decl_column : 25
    <2227>   DW_AT_type        : <0x225f>
    <222b>   DW_AT_location    : 2 byte block: 91 58 	(DW_OP_fbreg: -40)
 <2><222e>: Abbrev Number: 27 (DW_TAG_lexical_block)
    <222f>   DW_AT_low_pc      : 0xacb4
    <2237>   DW_AT_high_pc     : 0x115
 <3><223f>: Abbrev Number: 14 (DW_TAG_variable)
    <2240>   DW_AT_name        : (indirect string, offset: 0xf2a): left
    <2244>   DW_AT_decl_file   : 2
    <2245>   DW_AT_decl_line   : 230
    <2246>   DW_AT_decl_column : 12
    <2247>   DW_AT_type        : <0x1d6d>
    <224b>   DW_AT_location    : 2 byte block: 91 60 	(DW_OP_fbreg: -32)
 <3><224e>: Abbrev Number: 14 (DW_TAG_variable)
    <224f>   DW_AT_name        : (indirect string, offset: 0xdce): fill
    <2253>   DW_AT_decl_file   : 2
    <2254>   DW_AT_decl_line   : 231
    <2255>   DW_AT_decl_column : 12
    <2256>   DW_AT_type        : <0x1d6d>
    <225a>   DW_AT_location    : 2 byte block: 91 68 	(DW_OP_fbreg: -24)
 <3><225d>: Abbrev Number: 0
 <2><225e>: Abbrev Number: 0
 <1><225f>: Abbrev Number: 17 (DW_TAG_pointer_type)
    <2260>   DW_AT_byte_size   : 8
    <2261>   DW_AT_type        : <0x1cd7>
 <1><2265>: Abbrev Number: 28 (DW_TAG_subprogram)
    <2266>   DW_AT_name        : (indirect string, offset: 0xd2f): blake2b_compress
    <226a>   DW_AT_decl_file   : 2
    <226b>   DW_AT_decl_line   : 181
    <226c>   DW_AT_decl_column : 13
    <226d>   DW_AT_prototyped  : 1
    <226d>   DW_AT_low_pc      : 0x5701
    <2275>   DW_AT_high_pc     : 0x5588
    <227d>   DW_AT_frame_base  : 1 byte block: 9c 	(DW_OP_call_frame_cfa)
    <227f>   DW_AT_GNU_all_tail_call_sites: 1
    <227f>   DW_AT_sibling     : <0x22cc>
 <2><2283>: Abbrev Number: 24 (DW_TAG_formal_parameter)
    <2284>   DW_AT_name        : S
    <2286>   DW_AT_decl_file   : 2
    <2287>   DW_AT_decl_line   : 181
    <2288>   DW_AT_decl_column : 46
    <2289>   DW_AT_type        : <0x21cc>
    <228d>   DW_AT_location    : 3 byte block: 91 c8 7d 	(DW_OP_fbreg: -312)
 <2><2291>: Abbrev Number: 25 (DW_TAG_formal_parameter)
    <2292>   DW_AT_name        : (indirect string, offset: 0x1409): block
    <2296>   DW_AT_decl_file   : 2
    <2297>   DW_AT_decl_line   : 181
    <2298>   DW_AT_decl_column : 63
    <2299>   DW_AT_type        : <0x22cc>
    <229d>   DW_AT_location    : 3 byte block: 91 c0 7d 	(DW_OP_fbreg: -320)
 <2><22a1>: Abbrev Number: 26 (DW_TAG_variable)
    <22a2>   DW_AT_name        : m
    <22a4>   DW_AT_decl_file   : 2
    <22a5>   DW_AT_decl_line   : 183
    <22a6>   DW_AT_decl_column : 12
    <22a7>   DW_AT_type        : <0x22d2>
    <22ab>   DW_AT_location    : 3 byte block: 91 e0 7d 	(DW_OP_fbreg: -288)
 <2><22af>: Abbrev Number: 26 (DW_TAG_variable)
    <22b0>   DW_AT_name        : v
    <22b2>   DW_AT_decl_file   : 2
    <22b3>   DW_AT_decl_line   : 184
    <22b4>   DW_AT_decl_column : 12
    <22b5>   DW_AT_type        : <0x22d2>
    <22b9>   DW_AT_location    : 3 byte block: 91 e0 7e 	(DW_OP_fbreg: -160)
 <2><22bd>: Abbrev Number: 26 (DW_TAG_variable)
    <22be>   DW_AT_name        : i
    <22c0>   DW_AT_decl_file   : 2
    <22c1>   DW_AT_decl_line   : 185
    <22c2>   DW_AT_decl_column : 10
    <22c3>   DW_AT_type        : <0x1d6d>
    <22c7>   DW_AT_location    : 3 byte block: 91 d8 7d 	(DW_OP_fbreg: -296)
 <2><22cb>: Abbrev Number: 0
 <1><22cc>: Abbrev Number: 17 (DW_TAG_pointer_type)
    <22cd>   DW_AT_byte_size   : 8
    <22ce>   DW_AT_type        : <0x1d4b>
 <1><22d2>: Abbrev Number: 9 (DW_TAG_array_type)
    <22d3>   DW_AT_type        : <0x1d5c>
    <22d7>   DW_AT_sibling     : <0x22e2>
 <2><22db>: Abbrev Number: 10 (DW_TAG_subrange_type)
    <22dc>   DW_AT_type        : <0x1cef>
    <22e0>   DW_AT_upper_bound : 15
 <2><22e1>: Abbrev Number: 0
 <1><22e2>: Abbrev Number: 23 (DW_TAG_subprogram)
    <22e3>   DW_AT_external    : 1
    <22e3>   DW_AT_name        : (indirect string, offset: 0xd88): blake2b_init_key
    <22e7>   DW_AT_decl_file   : 2
    <22e8>   DW_AT_decl_line   : 124
    <22e9>   DW_AT_decl_column : 5
    <22ea>   DW_AT_prototyped  : 1
    <22ea>   DW_AT_type        : <0x1d10>
    <22ee>   DW_AT_low_pc      : 0x5502
    <22f6>   DW_AT_high_pc     : 0x1ff
    <22fe>   DW_AT_frame_base  : 1 byte block: 9c 	(DW_OP_call_frame_cfa)
    <2300>   DW_AT_GNU_all_tail_call_sites: 1
    <2300>   DW_AT_sibling     : <0x2373>
 <2><2304>: Abbrev Number: 24 (DW_TAG_formal_parameter)
    <2305>   DW_AT_name        : S
    <2307>   DW_AT_decl_file   : 2
    <2308>   DW_AT_decl_line   : 124
    <2309>   DW_AT_decl_column : 38
    <230a>   DW_AT_type        : <0x21cc>
    <230e>   DW_AT_location    : 3 byte block: 91 98 7e 	(DW_OP_fbreg: -232)
 <2><2312>: Abbrev Number: 25 (DW_TAG_formal_parameter)
    <2313>   DW_AT_name        : (indirect string, offset: 0xd28): outlen
    <2317>   DW_AT_decl_file   : 2
    <2318>   DW_AT_decl_line   : 124
    <2319>   DW_AT_decl_column : 48
    <231a>   DW_AT_type        : <0x1d6d>
    <231e>   DW_AT_location    : 3 byte block: 91 90 7e 	(DW_OP_fbreg: -240)
 <2><2322>: Abbrev Number: 24 (DW_TAG_formal_parameter)
    <2323>   DW_AT_name        : key
    <2327>   DW_AT_decl_file   : 2
    <2328>   DW_AT_decl_line   : 124
    <2329>   DW_AT_decl_column : 68
    <232a>   DW_AT_type        : <0x201b>
    <232e>   DW_AT_location    : 3 byte block: 91 88 7e 	(DW_OP_fbreg: -248)
 <2><2332>: Abbrev Number: 25 (DW_TAG_formal_parameter)
    <2333>   DW_AT_name        : (indirect string, offset: 0xf65): keylen
    <2337>   DW_AT_decl_file   : 2
    <2338>   DW_AT_decl_line   : 124
    <2339>   DW_AT_decl_column : 80
    <233a>   DW_AT_type        : <0x1d6d>
    <233e>   DW_AT_location    : 3 byte block: 91 80 7e 	(DW_OP_fbreg: -256)
 <2><2342>: Abbrev Number: 26 (DW_TAG_variable)
    <2343>   DW_AT_name        : P
    <2345>   DW_AT_decl_file   : 2
    <2346>   DW_AT_decl_line   : 126
    <2347>   DW_AT_decl_column : 17
    <2348>   DW_AT_type        : <0x1f8f>
    <234c>   DW_AT_location    : 3 byte block: 91 a0 7e 	(DW_OP_fbreg: -224)
 <2><2350>: Abbrev Number: 27 (DW_TAG_lexical_block)
    <2351>   DW_AT_low_pc      : 0x567b
    <2359>   DW_AT_high_pc     : 0x6b
 <3><2361>: Abbrev Number: 14 (DW_TAG_variable)
    <2362>   DW_AT_name        : (indirect string, offset: 0x1409): block
    <2366>   DW_AT_decl_file   : 2
    <2367>   DW_AT_decl_line   : 148
    <2368>   DW_AT_decl_column : 13
    <2369>   DW_AT_type        : <0x1e83>
    <236d>   DW_AT_location    : 3 byte block: 91 e0 7e 	(DW_OP_fbreg: -160)
 <3><2371>: Abbrev Number: 0
 <2><2372>: Abbrev Number: 0
 <1><2373>: Abbrev Number: 23 (DW_TAG_subprogram)
    <2374>   DW_AT_external    : 1
    <2374>   DW_AT_name        : (indirect string, offset: 0xe96): blake2b_init
    <2378>   DW_AT_decl_file   : 2
    <2379>   DW_AT_decl_line   : 102
    <237a>   DW_AT_decl_column : 5
    <237b>   DW_AT_prototyped  : 1
    <237b>   DW_AT_type        : <0x1d10>
    <237f>   DW_AT_low_pc      : 0x53f6
    <2387>   DW_AT_high_pc     : 0x10c
    <238f>   DW_AT_frame_base  : 1 byte block: 9c 	(DW_OP_call_frame_cfa)
    <2391>   DW_AT_GNU_all_tail_call_sites: 1
    <2391>   DW_AT_sibling     : <0x23c2>
 <2><2395>: Abbrev Number: 24 (DW_TAG_formal_parameter)
    <2396>   DW_AT_name        : S
    <2398>   DW_AT_decl_file   : 2
    <2399>   DW_AT_decl_line   : 102
    <239a>   DW_AT_decl_column : 34
    <239b>   DW_AT_type        : <0x21cc>
    <239f>   DW_AT_location    : 3 byte block: 91 98 7f 	(DW_OP_fbreg: -104)
 <2><23a3>: Abbrev Number: 25 (DW_TAG_formal_parameter)
    <23a4>   DW_AT_name        : (indirect string, offset: 0xd28): outlen
    <23a8>   DW_AT_decl_file   : 2
    <23a9>   DW_AT_decl_line   : 102
    <23aa>   DW_AT_decl_column : 44
    <23ab>   DW_AT_type        : <0x1d6d>
    <23af>   DW_AT_location    : 3 byte block: 91 90 7f 	(DW_OP_fbreg: -112)
 <2><23b3>: Abbrev Number: 26 (DW_TAG_variable)
    <23b4>   DW_AT_name        : P
    <23b6>   DW_AT_decl_file   : 2
    <23b7>   DW_AT_decl_line   : 104
    <23b8>   DW_AT_decl_column : 17
    <23b9>   DW_AT_type        : <0x1f8f>
    <23bd>   DW_AT_location    : 3 byte block: 91 a0 7f 	(DW_OP_fbreg: -96)
 <2><23c1>: Abbrev Number: 0
 <1><23c2>: Abbrev Number: 23 (DW_TAG_subprogram)
    <23c3>   DW_AT_external    : 1
    <23c3>   DW_AT_name        : (indirect string, offset: 0xedf): blake2b_init_param
    <23c7>   DW_AT_decl_file   : 2
    <23c8>   DW_AT_decl_line   : 85
    <23c9>   DW_AT_decl_column : 5
    <23ca>   DW_AT_prototyped  : 1
    <23ca>   DW_AT_type        : <0x1d10>
    <23ce>   DW_AT_low_pc      : 0x5363
    <23d6>   DW_AT_high_pc     : 0x93
    <23de>   DW_AT_frame_base  : 1 byte block: 9c 	(DW_OP_call_frame_cfa)
    <23e0>   DW_AT_GNU_all_tail_call_sites: 1
    <23e0>   DW_AT_sibling     : <0x2419>
 <2><23e4>: Abbrev Number: 24 (DW_TAG_formal_parameter)
    <23e5>   DW_AT_name        : S
    <23e7>   DW_AT_decl_file   : 2
    <23e8>   DW_AT_decl_line   : 85
    <23e9>   DW_AT_decl_column : 40
    <23ea>   DW_AT_type        : <0x21cc>
    <23ee>   DW_AT_location    : 2 byte block: 91 58 	(DW_OP_fbreg: -40)
 <2><23f1>: Abbrev Number: 24 (DW_TAG_formal_parameter)
    <23f2>   DW_AT_name        : P
    <23f4>   DW_AT_decl_file   : 2
    <23f5>   DW_AT_decl_line   : 85
    <23f6>   DW_AT_decl_column : 64
    <23f7>   DW_AT_type        : <0x2419>
    <23fb>   DW_AT_location    : 2 byte block: 91 50 	(DW_OP_fbreg: -48)
 <2><23fe>: Abbrev Number: 26 (DW_TAG_variable)
    <23ff>   DW_AT_name        : p
    <2401>   DW_AT_decl_file   : 2
    <2402>   DW_AT_decl_line   : 87
    <2403>   DW_AT_decl_column : 18
    <2404>   DW_AT_type        : <0x22cc>
    <2408>   DW_AT_location    : 2 byte block: 91 68 	(DW_OP_fbreg: -24)
 <2><240b>: Abbrev Number: 26 (DW_TAG_variable)
    <240c>   DW_AT_name        : i
    <240e>   DW_AT_decl_file   : 2
    <240f>   DW_AT_decl_line   : 88
    <2410>   DW_AT_decl_column : 10
    <2411>   DW_AT_type        : <0x1d6d>
    <2415>   DW_AT_location    : 2 byte block: 91 60 	(DW_OP_fbreg: -32)
 <2><2418>: Abbrev Number: 0
 <1><2419>: Abbrev Number: 17 (DW_TAG_pointer_type)
    <241a>   DW_AT_byte_size   : 8
    <241b>   DW_AT_type        : <0x1f8a>
 <1><241f>: Abbrev Number: 28 (DW_TAG_subprogram)
    <2420>   DW_AT_name        : (indirect string, offset: 0xf48): blake2b_init0
    <2424>   DW_AT_decl_file   : 2
    <2425>   DW_AT_decl_line   : 76
    <2426>   DW_AT_decl_column : 13
    <2427>   DW_AT_prototyped  : 1
    <2427>   DW_AT_low_pc      : 0x5300
    <242f>   DW_AT_high_pc     : 0x63
    <2437>   DW_AT_frame_base  : 1 byte block: 9c 	(DW_OP_call_frame_cfa)
    <2439>   DW_AT_GNU_all_tail_call_sites: 1
    <2439>   DW_AT_sibling     : <0x2458>
 <2><243d>: Abbrev Number: 24 (DW_TAG_formal_parameter)
    <243e>   DW_AT_name        : S
    <2440>   DW_AT_decl_file   : 2
    <2441>   DW_AT_decl_line   : 76
    <2442>   DW_AT_decl_column : 43
    <2443>   DW_AT_type        : <0x21cc>
    <2447>   DW_AT_location    : 2 byte block: 91 58 	(DW_OP_fbreg: -40)
 <2><244a>: Abbrev Number: 26 (DW_TAG_variable)
    <244b>   DW_AT_name        : i
    <244d>   DW_AT_decl_file   : 2
    <244e>   DW_AT_decl_line   : 78
    <244f>   DW_AT_decl_column : 10
    <2450>   DW_AT_type        : <0x1d6d>
    <2454>   DW_AT_location    : 2 byte block: 91 68 	(DW_OP_fbreg: -24)
 <2><2457>: Abbrev Number: 0
 <1><2458>: Abbrev Number: 29 (DW_TAG_subprogram)
    <2459>   DW_AT_name        : (indirect string, offset: 0xe09): blake2b_increment_counter
    <245d>   DW_AT_decl_file   : 2
    <245e>   DW_AT_decl_line   : 70
    <245f>   DW_AT_decl_column : 13
    <2460>   DW_AT_prototyped  : 1
    <2460>   DW_AT_low_pc      : 0x52b1
    <2468>   DW_AT_high_pc     : 0x4f
    <2470>   DW_AT_frame_base  : 1 byte block: 9c 	(DW_OP_call_frame_cfa)
    <2472>   DW_AT_GNU_all_call_sites: 1
    <2472>   DW_AT_sibling     : <0x2493>
 <2><2476>: Abbrev Number: 24 (DW_TAG_formal_parameter)
    <2477>   DW_AT_name        : S
    <2479>   DW_AT_decl_file   : 2
    <247a>   DW_AT_decl_line   : 70
    <247b>   DW_AT_decl_column : 55
    <247c>   DW_AT_type        : <0x21cc>
    <2480>   DW_AT_location    : 2 byte block: 91 68 	(DW_OP_fbreg: -24)
 <2><2483>: Abbrev Number: 24 (DW_TAG_formal_parameter)
    <2484>   DW_AT_name        : inc
    <2488>   DW_AT_decl_file   : 2
    <2489>   DW_AT_decl_line   : 70
    <248a>   DW_AT_decl_column : 73
    <248b>   DW_AT_type        : <0x1d68>
    <248f>   DW_AT_location    : 2 byte block: 91 60 	(DW_OP_fbreg: -32)
 <2><2492>: Abbrev Number: 0
 <1><2493>: Abbrev Number: 28 (DW_TAG_subprogram)
    <2494>   DW_AT_name        : (indirect string, offset: 0xd0d): blake2b_set_lastblock
    <2498>   DW_AT_decl_file   : 2
    <2499>   DW_AT_decl_line   : 63
    <249a>   DW_AT_decl_column : 13
    <249b>   DW_AT_prototyped  : 1
    <249b>   DW_AT_low_pc      : 0x5277
    <24a3>   DW_AT_high_pc     : 0x3a
    <24ab>   DW_AT_frame_base  : 1 byte block: 9c 	(DW_OP_call_frame_cfa)
    <24ad>   DW_AT_GNU_all_tail_call_sites: 1
    <24ad>   DW_AT_sibling     : <0x24bf>
 <2><24b1>: Abbrev Number: 24 (DW_TAG_formal_parameter)
    <24b2>   DW_AT_name        : S
    <24b4>   DW_AT_decl_file   : 2
    <24b5>   DW_AT_decl_line   : 63
    <24b6>   DW_AT_decl_column : 51
    <24b7>   DW_AT_type        : <0x21cc>
    <24bb>   DW_AT_location    : 2 byte block: 91 68 	(DW_OP_fbreg: -24)
 <2><24be>: Abbrev Number: 0
 <1><24bf>: Abbrev Number: 30 (DW_TAG_subprogram)
    <24c0>   DW_AT_name        : (indirect string, offset: 0xfeb): blake2b_is_lastblock
    <24c4>   DW_AT_decl_file   : 2
    <24c5>   DW_AT_decl_line   : 58
    <24c6>   DW_AT_decl_column : 12
    <24c7>   DW_AT_prototyped  : 1
    <24c7>   DW_AT_type        : <0x1d10>
    <24cb>   DW_AT_low_pc      : 0x5258
    <24d3>   DW_AT_high_pc     : 0x1f
    <24db>   DW_AT_frame_base  : 1 byte block: 9c 	(DW_OP_call_frame_cfa)
    <24dd>   DW_AT_GNU_all_call_sites: 1
    <24dd>   DW_AT_sibling     : <0x24ef>
 <2><24e1>: Abbrev Number: 24 (DW_TAG_formal_parameter)
    <24e2>   DW_AT_name        : S
    <24e4>   DW_AT_decl_file   : 2
    <24e5>   DW_AT_decl_line   : 58
    <24e6>   DW_AT_decl_column : 55
    <24e7>   DW_AT_type        : <0x24ef>
    <24eb>   DW_AT_location    : 2 byte block: 91 68 	(DW_OP_fbreg: -24)
 <2><24ee>: Abbrev Number: 0
 <1><24ef>: Abbrev Number: 17 (DW_TAG_pointer_type)
    <24f0>   DW_AT_byte_size   : 8
    <24f1>   DW_AT_type        : <0x1e9f>
 <1><24f5>: Abbrev Number: 29 (DW_TAG_subprogram)
    <24f6>   DW_AT_name        : (indirect string, offset: 0xdb9): blake2b_set_lastnode
    <24fa>   DW_AT_decl_file   : 2
    <24fb>   DW_AT_decl_line   : 52
    <24fc>   DW_AT_decl_column : 13
    <24fd>   DW_AT_prototyped  : 1
    <24fd>   DW_AT_low_pc      : 0x523d
    <2505>   DW_AT_high_pc     : 0x1b
    <250d>   DW_AT_frame_base  : 1 byte block: 9c 	(DW_OP_call_frame_cfa)
    <250f>   DW_AT_GNU_all_call_sites: 1
    <250f>   DW_AT_sibling     : <0x2521>
 <2><2513>: Abbrev Number: 24 (DW_TAG_formal_parameter)
    <2514>   DW_AT_name        : S
    <2516>   DW_AT_decl_file   : 2
    <2517>   DW_AT_decl_line   : 52
    <2518>   DW_AT_decl_column : 50
    <2519>   DW_AT_type        : <0x21cc>
    <251d>   DW_AT_location    : 2 byte block: 91 68 	(DW_OP_fbreg: -24)
 <2><2520>: Abbrev Number: 0
 <1><2521>: Abbrev Number: 28 (DW_TAG_subprogram)
    <2522>   DW_AT_name        : (indirect string, offset: 0xfbf): secure_zero_memory
    <2526>   DW_AT_decl_file   : 1
    <2527>   DW_AT_decl_line   : 161
    <2528>   DW_AT_decl_column : 27
    <2529>   DW_AT_prototyped  : 1
    <2529>   DW_AT_low_pc      : 0x5211
    <2531>   DW_AT_high_pc     : 0x2c
    <2539>   DW_AT_frame_base  : 1 byte block: 9c 	(DW_OP_call_frame_cfa)
    <253b>   DW_AT_GNU_all_tail_call_sites: 1
    <253b>   DW_AT_sibling     : <0x2570>
 <2><253f>: Abbrev Number: 24 (DW_TAG_formal_parameter)
    <2540>   DW_AT_name        : v
    <2542>   DW_AT_decl_file   : 1
    <2543>   DW_AT_decl_line   : 161
    <2544>   DW_AT_decl_column : 52
    <2545>   DW_AT_type        : <0x1d36>
    <2549>   DW_AT_location    : 2 byte block: 91 68 	(DW_OP_fbreg: -24)
 <2><254c>: Abbrev Number: 24 (DW_TAG_formal_parameter)
    <254d>   DW_AT_name        : n
    <254f>   DW_AT_decl_file   : 1
    <2550>   DW_AT_decl_line   : 161
    <2551>   DW_AT_decl_column : 62
    <2552>   DW_AT_type        : <0x1d6d>
    <2556>   DW_AT_location    : 2 byte block: 91 60 	(DW_OP_fbreg: -32)
 <2><2559>: Abbrev Number: 14 (DW_TAG_variable)
    <255a>   DW_AT_name        : (indirect string, offset: 0xeb8): memset_v
    <255e>   DW_AT_decl_file   : 1
    <255f>   DW_AT_decl_line   : 163
    <2560>   DW_AT_decl_column : 33
    <2561>   DW_AT_type        : <0x2594>
    <2565>   DW_AT_location    : 9 byte block: 3 d8 20 3 0 0 0 0 0 	(DW_OP_addr: 320d8)
 <2><256f>: Abbrev Number: 0
 <1><2570>: Abbrev Number: 31 (DW_TAG_subroutine_type)
    <2571>   DW_AT_prototyped  : 1
    <2571>   DW_AT_type        : <0x1d36>
    <2575>   DW_AT_sibling     : <0x2589>
 <2><2579>: Abbrev Number: 16 (DW_TAG_formal_parameter)
    <257a>   DW_AT_type        : <0x1d36>
 <2><257e>: Abbrev Number: 16 (DW_TAG_formal_parameter)
    <257f>   DW_AT_type        : <0x1d10>
 <2><2583>: Abbrev Number: 16 (DW_TAG_formal_parameter)
    <2584>   DW_AT_type        : <0x1d6d>
 <2><2588>: Abbrev Number: 0
 <1><2589>: Abbrev Number: 17 (DW_TAG_pointer_type)
    <258a>   DW_AT_byte_size   : 8
    <258b>   DW_AT_type        : <0x2570>
 <1><258f>: Abbrev Number: 3 (DW_TAG_const_type)
    <2590>   DW_AT_type        : <0x2589>
 <1><2594>: Abbrev Number: 32 (DW_TAG_volatile_type)
    <2595>   DW_AT_type        : <0x258f>
 <1><2599>: Abbrev Number: 30 (DW_TAG_subprogram)
    <259a>   DW_AT_name        : (indirect string, offset: 0xf88): rotr64
    <259e>   DW_AT_decl_file   : 1
    <259f>   DW_AT_decl_line   : 155
    <25a0>   DW_AT_decl_column : 31
    <25a1>   DW_AT_prototyped  : 1
    <25a1>   DW_AT_type        : <0x1d5c>
    <25a5>   DW_AT_low_pc      : 0x51f5
    <25ad>   DW_AT_high_pc     : 0x1c
    <25b5>   DW_AT_frame_base  : 1 byte block: 9c 	(DW_OP_call_frame_cfa)
    <25b7>   DW_AT_GNU_all_call_sites: 1
    <25b7>   DW_AT_sibling     : <0x25d6>
 <2><25bb>: Abbrev Number: 24 (DW_TAG_formal_parameter)
    <25bc>   DW_AT_name        : w
    <25be>   DW_AT_decl_file   : 1
    <25bf>   DW_AT_decl_line   : 155
    <25c0>   DW_AT_decl_column : 54
    <25c1>   DW_AT_type        : <0x1d68>
    <25c5>   DW_AT_location    : 2 byte block: 91 68 	(DW_OP_fbreg: -24)
 <2><25c8>: Abbrev Number: 24 (DW_TAG_formal_parameter)
    <25c9>   DW_AT_name        : c
    <25cb>   DW_AT_decl_file   : 1
    <25cc>   DW_AT_decl_line   : 155
    <25cd>   DW_AT_decl_column : 72
    <25ce>   DW_AT_type        : <0x1cea>
    <25d2>   DW_AT_location    : 2 byte block: 91 64 	(DW_OP_fbreg: -28)
 <2><25d5>: Abbrev Number: 0
 <1><25d6>: Abbrev Number: 29 (DW_TAG_subprogram)
    <25d7>   DW_AT_name        : (indirect string, offset: 0xd40): store64
    <25db>   DW_AT_decl_file   : 1
    <25dc>   DW_AT_decl_line   : 111
    <25dd>   DW_AT_decl_column : 27
    <25de>   DW_AT_prototyped  : 1
    <25de>   DW_AT_low_pc      : 0x51db
    <25e6>   DW_AT_high_pc     : 0x1a
    <25ee>   DW_AT_frame_base  : 1 byte block: 9c 	(DW_OP_call_frame_cfa)
    <25f0>   DW_AT_GNU_all_call_sites: 1
    <25f0>   DW_AT_sibling     : <0x2611>
 <2><25f4>: Abbrev Number: 24 (DW_TAG_formal_parameter)
    <25f5>   DW_AT_name        : dst
    <25f9>   DW_AT_decl_file   : 1
    <25fa>   DW_AT_decl_line   : 111
    <25fb>   DW_AT_decl_column : 42
    <25fc>   DW_AT_type        : <0x1d36>
    <2600>   DW_AT_location    : 2 byte block: 91 68 	(DW_OP_fbreg: -24)
 <2><2603>: Abbrev Number: 24 (DW_TAG_formal_parameter)
    <2604>   DW_AT_name        : w
    <2606>   DW_AT_decl_file   : 1
    <2607>   DW_AT_decl_line   : 111
    <2608>   DW_AT_decl_column : 56
    <2609>   DW_AT_type        : <0x1d5c>
    <260d>   DW_AT_location    : 2 byte block: 91 60 	(DW_OP_fbreg: -32)
 <2><2610>: Abbrev Number: 0
 <1><2611>: Abbrev Number: 29 (DW_TAG_subprogram)
    <2612>   DW_AT_name        : (indirect string, offset: 0x1000): store32
    <2616>   DW_AT_decl_file   : 1
    <2617>   DW_AT_decl_line   : 98
    <2618>   DW_AT_decl_column : 27
    <2619>   DW_AT_prototyped  : 1
    <2619>   DW_AT_low_pc      : 0x51c4
    <2621>   DW_AT_high_pc     : 0x17
    <2629>   DW_AT_frame_base  : 1 byte block: 9c 	(DW_OP_call_frame_cfa)
    <262b>   DW_AT_GNU_all_call_sites: 1
    <262b>   DW_AT_sibling     : <0x264c>
 <2><262f>: Abbrev Number: 24 (DW_TAG_formal_parameter)
    <2630>   DW_AT_name        : dst
    <2634>   DW_AT_decl_file   : 1
    <2635>   DW_AT_decl_line   : 98
    <2636>   DW_AT_decl_column : 42
    <2637>   DW_AT_type        : <0x1d36>
    <263b>   DW_AT_location    : 2 byte block: 91 68 	(DW_OP_fbreg: -24)
 <2><263e>: Abbrev Number: 24 (DW_TAG_formal_parameter)
    <263f>   DW_AT_name        : w
    <2641>   DW_AT_decl_file   : 1
    <2642>   DW_AT_decl_line   : 98
    <2643>   DW_AT_decl_column : 56
    <2644>   DW_AT_type        : <0x1d50>
    <2648>   DW_AT_location    : 2 byte block: 91 64 	(DW_OP_fbreg: -28)
 <2><264b>: Abbrev Number: 0
 <1><264c>: Abbrev Number: 33 (DW_TAG_subprogram)
    <264d>   DW_AT_name        : (indirect string, offset: 0xdb2): load64
    <2651>   DW_AT_decl_file   : 1
    <2652>   DW_AT_decl_line   : 55
    <2653>   DW_AT_decl_column : 31
    <2654>   DW_AT_prototyped  : 1
    <2654>   DW_AT_type        : <0x1d5c>
    <2658>   DW_AT_low_pc      : 0x5184
    <2660>   DW_AT_high_pc     : 0x40
    <2668>   DW_AT_frame_base  : 1 byte block: 9c 	(DW_OP_call_frame_cfa)
    <266a>   DW_AT_GNU_all_tail_call_sites: 1
 <2><266a>: Abbrev Number: 24 (DW_TAG_formal_parameter)
    <266b>   DW_AT_name        : src
    <266f>   DW_AT_decl_file   : 1
    <2670>   DW_AT_decl_line   : 55
    <2671>   DW_AT_decl_column : 51
    <2672>   DW_AT_type        : <0x201b>
    <2676>   DW_AT_location    : 2 byte block: 91 58 	(DW_OP_fbreg: -40)
 <2><2679>: Abbrev Number: 26 (DW_TAG_variable)
    <267a>   DW_AT_name        : w
    <267c>   DW_AT_decl_file   : 1
    <267d>   DW_AT_decl_line   : 58
    <267e>   DW_AT_decl_column : 12
    <267f>   DW_AT_type        : <0x1d5c>
    <2683>   DW_AT_location    : 2 byte block: 91 60 	(DW_OP_fbreg: -32)
 <2><2686>: Abbrev Number: 0
 <1><2687>: Abbrev Number: 0
  Compilation Unit @ offset 0x2688:
   Length:        0x547 (32-bit)
   Version:       4
   Abbrev Offset: 0x5ce
   Pointer Size:  8
 <0><2693>: Abbrev Number: 1 (DW_TAG_compile_unit)
    <2694>   DW_AT_producer    : (indirect string, offset: 0x2c7): GNU C17 11.1.0 -mtune=generic -march=x86-64 -g -O0 -fasynchronous-unwind-tables -fstack-protector-strong -fstack-clash-protection -fcf-protection
    <2698>   DW_AT_language    : 12	(ANSI C99)
    <2699>   DW_AT_name        : (indirect string, offset: 0x1011): src/blake2/b2sum.c
    <269d>   DW_AT_comp_dir    : (indirect string, offset: 0xa27): /home/jacekline/dev/research/programs/coreutils-9.1
    <26a1>   DW_AT_low_pc      : 0xb13e
    <26a9>   DW_AT_high_pc     : 0x1ca
    <26b1>   DW_AT_stmt_list   : 0x135c
 <1><26b5>: Abbrev Number: 2 (DW_TAG_typedef)
    <26b6>   DW_AT_name        : (indirect string, offset: 0x70): size_t
    <26ba>   DW_AT_decl_file   : 2
    <26bb>   DW_AT_decl_line   : 209
    <26bc>   DW_AT_decl_column : 23
    <26bd>   DW_AT_type        : <0x26c6>
 <1><26c1>: Abbrev Number: 3 (DW_TAG_const_type)
    <26c2>   DW_AT_type        : <0x26b5>
 <1><26c6>: Abbrev Number: 4 (DW_TAG_base_type)
    <26c7>   DW_AT_byte_size   : 8
    <26c8>   DW_AT_encoding    : 7	(unsigned)
    <26c9>   DW_AT_name        : (indirect string, offset: 0x8d1): long unsigned int
 <1><26cd>: Abbrev Number: 4 (DW_TAG_base_type)
    <26ce>   DW_AT_byte_size   : 4
    <26cf>   DW_AT_encoding    : 7	(unsigned)
    <26d0>   DW_AT_name        : (indirect string, offset: 0x8d6): unsigned int
 <1><26d4>: Abbrev Number: 5 (DW_TAG_pointer_type)
    <26d5>   DW_AT_byte_size   : 8
 <1><26d6>: Abbrev Number: 6 (DW_TAG_restrict_type)
    <26d7>   DW_AT_type        : <0x26d4>
 <1><26db>: Abbrev Number: 4 (DW_TAG_base_type)
    <26dc>   DW_AT_byte_size   : 1
    <26dd>   DW_AT_encoding    : 8	(unsigned char)
    <26de>   DW_AT_name        : (indirect string, offset: 0x251): unsigned char
 <1><26e2>: Abbrev Number: 4 (DW_TAG_base_type)
    <26e3>   DW_AT_byte_size   : 2
    <26e4>   DW_AT_encoding    : 7	(unsigned)
    <26e5>   DW_AT_name        : (indirect string, offset: 0xbd5): short unsigned int
 <1><26e9>: Abbrev Number: 4 (DW_TAG_base_type)
    <26ea>   DW_AT_byte_size   : 1
    <26eb>   DW_AT_encoding    : 6	(signed char)
    <26ec>   DW_AT_name        : (indirect string, offset: 0x253): signed char
 <1><26f0>: Abbrev Number: 2 (DW_TAG_typedef)
    <26f1>   DW_AT_name        : (indirect string, offset: 0xe6a): __uint8_t
    <26f5>   DW_AT_decl_file   : 3
    <26f6>   DW_AT_decl_line   : 38
    <26f7>   DW_AT_decl_column : 23
    <26f8>   DW_AT_type        : <0x26db>
 <1><26fc>: Abbrev Number: 4 (DW_TAG_base_type)
    <26fd>   DW_AT_byte_size   : 2
    <26fe>   DW_AT_encoding    : 5	(signed)
    <26ff>   DW_AT_name        : (indirect string, offset: 0xa6c): short int
 <1><2703>: Abbrev Number: 7 (DW_TAG_base_type)
    <2704>   DW_AT_byte_size   : 4
    <2705>   DW_AT_encoding    : 5	(signed)
    <2706>   DW_AT_name        : int
 <1><270a>: Abbrev Number: 4 (DW_TAG_base_type)
    <270b>   DW_AT_byte_size   : 8
    <270c>   DW_AT_encoding    : 5	(signed)
    <270d>   DW_AT_name        : (indirect string, offset: 0x6bd): long int
 <1><2711>: Abbrev Number: 2 (DW_TAG_typedef)
    <2712>   DW_AT_name        : (indirect string, offset: 0xf3d): __uint64_t
    <2716>   DW_AT_decl_file   : 3
    <2717>   DW_AT_decl_line   : 45
    <2718>   DW_AT_decl_column : 27
    <2719>   DW_AT_type        : <0x26c6>
 <1><271d>: Abbrev Number: 2 (DW_TAG_typedef)
    <271e>   DW_AT_name        : (indirect string, offset: 0x904): __off_t
    <2722>   DW_AT_decl_file   : 3
    <2723>   DW_AT_decl_line   : 152
    <2724>   DW_AT_decl_column : 25
    <2725>   DW_AT_type        : <0x270a>
 <1><2729>: Abbrev Number: 2 (DW_TAG_typedef)
    <272a>   DW_AT_name        : (indirect string, offset: 0x9e8): __off64_t
    <272e>   DW_AT_decl_file   : 3
    <272f>   DW_AT_decl_line   : 153
    <2730>   DW_AT_decl_column : 27
    <2731>   DW_AT_type        : <0x270a>
 <1><2735>: Abbrev Number: 8 (DW_TAG_pointer_type)
    <2736>   DW_AT_byte_size   : 8
    <2737>   DW_AT_type        : <0x273b>
 <1><273b>: Abbrev Number: 4 (DW_TAG_base_type)
    <273c>   DW_AT_byte_size   : 1
    <273d>   DW_AT_encoding    : 6	(signed char)
    <273e>   DW_AT_name        : (indirect string, offset: 0x25a): char
 <1><2742>: Abbrev Number: 9 (DW_TAG_structure_type)
    <2743>   DW_AT_name        : (indirect string, offset: 0x225): _IO_FILE
    <2747>   DW_AT_byte_size   : 216
    <2748>   DW_AT_decl_file   : 4
    <2749>   DW_AT_decl_line   : 49
    <274a>   DW_AT_decl_column : 8
    <274b>   DW_AT_sibling     : <0x28c9>
 <2><274f>: Abbrev Number: 10 (DW_TAG_member)
    <2750>   DW_AT_name        : (indirect string, offset: 0x1e86): _flags
    <2754>   DW_AT_decl_file   : 4
    <2755>   DW_AT_decl_line   : 51
    <2756>   DW_AT_decl_column : 7
    <2757>   DW_AT_type        : <0x2703>
    <275b>   DW_AT_data_member_location: 0
 <2><275c>: Abbrev Number: 10 (DW_TAG_member)
    <275d>   DW_AT_name        : (indirect string, offset: 0x462): _IO_read_ptr
    <2761>   DW_AT_decl_file   : 4
    <2762>   DW_AT_decl_line   : 54
    <2763>   DW_AT_decl_column : 9
    <2764>   DW_AT_type        : <0x2735>
    <2768>   DW_AT_data_member_location: 8
 <2><2769>: Abbrev Number: 10 (DW_TAG_member)
    <276a>   DW_AT_name        : (indirect string, offset: 0xb53): _IO_read_end
    <276e>   DW_AT_decl_file   : 4
    <276f>   DW_AT_decl_line   : 55
    <2770>   DW_AT_decl_column : 9
    <2771>   DW_AT_type        : <0x2735>
    <2775>   DW_AT_data_member_location: 16
 <2><2776>: Abbrev Number: 10 (DW_TAG_member)
    <2777>   DW_AT_name        : (indirect string, offset: 0x5f9): _IO_read_base
    <277b>   DW_AT_decl_file   : 4
    <277c>   DW_AT_decl_line   : 56
    <277d>   DW_AT_decl_column : 9
    <277e>   DW_AT_type        : <0x2735>
    <2782>   DW_AT_data_member_location: 24
 <2><2783>: Abbrev Number: 10 (DW_TAG_member)
    <2784>   DW_AT_name        : (indirect string, offset: 0xe4): _IO_write_base
    <2788>   DW_AT_decl_file   : 4
    <2789>   DW_AT_decl_line   : 57
    <278a>   DW_AT_decl_column : 9
    <278b>   DW_AT_type        : <0x2735>
    <278f>   DW_AT_data_member_location: 32
 <2><2790>: Abbrev Number: 10 (DW_TAG_member)
    <2791>   DW_AT_name        : (indirect string, offset: 0xc0a): _IO_write_ptr
    <2795>   DW_AT_decl_file   : 4
    <2796>   DW_AT_decl_line   : 58
    <2797>   DW_AT_decl_column : 9
    <2798>   DW_AT_type        : <0x2735>
    <279c>   DW_AT_data_member_location: 40
 <2><279d>: Abbrev Number: 10 (DW_TAG_member)
    <279e>   DW_AT_name        : (indirect string, offset: 0x71a): _IO_write_end
    <27a2>   DW_AT_decl_file   : 4
    <27a3>   DW_AT_decl_line   : 59
    <27a4>   DW_AT_decl_column : 9
    <27a5>   DW_AT_type        : <0x2735>
    <27a9>   DW_AT_data_member_location: 48
 <2><27aa>: Abbrev Number: 10 (DW_TAG_member)
    <27ab>   DW_AT_name        : (indirect string, offset: 0x76e): _IO_buf_base
    <27af>   DW_AT_decl_file   : 4
    <27b0>   DW_AT_decl_line   : 60
    <27b1>   DW_AT_decl_column : 9
    <27b2>   DW_AT_type        : <0x2735>
    <27b6>   DW_AT_data_member_location: 56
 <2><27b7>: Abbrev Number: 10 (DW_TAG_member)
    <27b8>   DW_AT_name        : (indirect string, offset: 0xa01): _IO_buf_end
    <27bc>   DW_AT_decl_file   : 4
    <27bd>   DW_AT_decl_line   : 61
    <27be>   DW_AT_decl_column : 9
    <27bf>   DW_AT_type        : <0x2735>
    <27c3>   DW_AT_data_member_location: 64
 <2><27c4>: Abbrev Number: 10 (DW_TAG_member)
    <27c5>   DW_AT_name        : (indirect string, offset: 0x143): _IO_save_base
    <27c9>   DW_AT_decl_file   : 4
    <27ca>   DW_AT_decl_line   : 64
    <27cb>   DW_AT_decl_column : 9
    <27cc>   DW_AT_type        : <0x2735>
    <27d0>   DW_AT_data_member_location: 72
 <2><27d1>: Abbrev Number: 10 (DW_TAG_member)
    <27d2>   DW_AT_name        : (indirect string, offset: 0x98f): _IO_backup_base
    <27d6>   DW_AT_decl_file   : 4
    <27d7>   DW_AT_decl_line   : 65
    <27d8>   DW_AT_decl_column : 9
    <27d9>   DW_AT_type        : <0x2735>
    <27dd>   DW_AT_data_member_location: 80
 <2><27de>: Abbrev Number: 10 (DW_TAG_member)
    <27df>   DW_AT_name        : (indirect string, offset: 0xba): _IO_save_end
    <27e3>   DW_AT_decl_file   : 4
    <27e4>   DW_AT_decl_line   : 66
    <27e5>   DW_AT_decl_column : 9
    <27e6>   DW_AT_type        : <0x2735>
    <27ea>   DW_AT_data_member_location: 88
 <2><27eb>: Abbrev Number: 10 (DW_TAG_member)
    <27ec>   DW_AT_name        : (indirect string, offset: 0x4bb): _markers
    <27f0>   DW_AT_decl_file   : 4
    <27f1>   DW_AT_decl_line   : 68
    <27f2>   DW_AT_decl_column : 22
    <27f3>   DW_AT_type        : <0x28e2>
    <27f7>   DW_AT_data_member_location: 96
 <2><27f8>: Abbrev Number: 10 (DW_TAG_member)
    <27f9>   DW_AT_name        : (indirect string, offset: 0x189): _chain
    <27fd>   DW_AT_decl_file   : 4
    <27fe>   DW_AT_decl_line   : 70
    <27ff>   DW_AT_decl_column : 20
    <2800>   DW_AT_type        : <0x28e8>
    <2804>   DW_AT_data_member_location: 104
 <2><2805>: Abbrev Number: 10 (DW_TAG_member)
    <2806>   DW_AT_name        : (indirect string, offset: 0xbb0): _fileno
    <280a>   DW_AT_decl_file   : 4
    <280b>   DW_AT_decl_line   : 72
    <280c>   DW_AT_decl_column : 7
    <280d>   DW_AT_type        : <0x2703>
    <2811>   DW_AT_data_member_location: 112
 <2><2812>: Abbrev Number: 10 (DW_TAG_member)
    <2813>   DW_AT_name        : (indirect string, offset: 0x5df): _flags2
    <2817>   DW_AT_decl_file   : 4
    <2818>   DW_AT_decl_line   : 73
    <2819>   DW_AT_decl_column : 7
    <281a>   DW_AT_type        : <0x2703>
    <281e>   DW_AT_data_member_location: 116
 <2><281f>: Abbrev Number: 10 (DW_TAG_member)
    <2820>   DW_AT_name        : (indirect string, offset: 0x64e): _old_offset
    <2824>   DW_AT_decl_file   : 4
    <2825>   DW_AT_decl_line   : 74
    <2826>   DW_AT_decl_column : 11
    <2827>   DW_AT_type        : <0x271d>
    <282b>   DW_AT_data_member_location: 120
 <2><282c>: Abbrev Number: 10 (DW_TAG_member)
    <282d>   DW_AT_name        : (indirect string, offset: 0x190): _cur_column
    <2831>   DW_AT_decl_file   : 4
    <2832>   DW_AT_decl_line   : 77
    <2833>   DW_AT_decl_column : 18
    <2834>   DW_AT_type        : <0x26e2>
    <2838>   DW_AT_data_member_location: 128
 <2><2839>: Abbrev Number: 10 (DW_TAG_member)
    <283a>   DW_AT_name        : (indirect string, offset: 0xaea): _vtable_offset
    <283e>   DW_AT_decl_file   : 4
    <283f>   DW_AT_decl_line   : 78
    <2840>   DW_AT_decl_column : 15
    <2841>   DW_AT_type        : <0x26e9>
    <2845>   DW_AT_data_member_location: 130
 <2><2846>: Abbrev Number: 10 (DW_TAG_member)
    <2847>   DW_AT_name        : (indirect string, offset: 0x9a9): _shortbuf
    <284b>   DW_AT_decl_file   : 4
    <284c>   DW_AT_decl_line   : 79
    <284d>   DW_AT_decl_column : 8
    <284e>   DW_AT_type        : <0x28ee>
    <2852>   DW_AT_data_member_location: 131
 <2><2853>: Abbrev Number: 10 (DW_TAG_member)
    <2854>   DW_AT_name        : (indirect string, offset: 0xfb): _lock
    <2858>   DW_AT_decl_file   : 4
    <2859>   DW_AT_decl_line   : 81
    <285a>   DW_AT_decl_column : 15
    <285b>   DW_AT_type        : <0x28fe>
    <285f>   DW_AT_data_member_location: 136
 <2><2860>: Abbrev Number: 10 (DW_TAG_member)
    <2861>   DW_AT_name        : (indirect string, offset: 0x652): _offset
    <2865>   DW_AT_decl_file   : 4
    <2866>   DW_AT_decl_line   : 89
    <2867>   DW_AT_decl_column : 13
    <2868>   DW_AT_type        : <0x2729>
    <286c>   DW_AT_data_member_location: 144
 <2><286d>: Abbrev Number: 10 (DW_TAG_member)
    <286e>   DW_AT_name        : (indirect string, offset: 0x7a): _codecvt
    <2872>   DW_AT_decl_file   : 4
    <2873>   DW_AT_decl_line   : 91
    <2874>   DW_AT_decl_column : 23
    <2875>   DW_AT_type        : <0x2909>
    <2879>   DW_AT_data_member_location: 152
 <2><287a>: Abbrev Number: 10 (DW_TAG_member)
    <287b>   DW_AT_name        : (indirect string, offset: 0x231): _wide_data
    <287f>   DW_AT_decl_file   : 4
    <2880>   DW_AT_decl_line   : 92
    <2881>   DW_AT_decl_column : 25
    <2882>   DW_AT_type        : <0x2914>
    <2886>   DW_AT_data_member_location: 160
 <2><2887>: Abbrev Number: 10 (DW_TAG_member)
    <2888>   DW_AT_name        : (indirect string, offset: 0x25f): _freeres_list
    <288c>   DW_AT_decl_file   : 4
    <288d>   DW_AT_decl_line   : 93
    <288e>   DW_AT_decl_column : 20
    <288f>   DW_AT_type        : <0x28e8>
    <2893>   DW_AT_data_member_location: 168
 <2><2894>: Abbrev Number: 10 (DW_TAG_member)
    <2895>   DW_AT_name        : (indirect string, offset: 0x944): _freeres_buf
    <2899>   DW_AT_decl_file   : 4
    <289a>   DW_AT_decl_line   : 94
    <289b>   DW_AT_decl_column : 9
    <289c>   DW_AT_type        : <0x26d4>
    <28a0>   DW_AT_data_member_location: 176
 <2><28a1>: Abbrev Number: 10 (DW_TAG_member)
    <28a2>   DW_AT_name        : (indirect string, offset: 0x7c6): __pad5
    <28a6>   DW_AT_decl_file   : 4
    <28a7>   DW_AT_decl_line   : 95
    <28a8>   DW_AT_decl_column : 10
    <28a9>   DW_AT_type        : <0x26b5>
    <28ad>   DW_AT_data_member_location: 184
 <2><28ae>: Abbrev Number: 10 (DW_TAG_member)
    <28af>   DW_AT_name        : (indirect string, offset: 0x818): _mode
    <28b3>   DW_AT_decl_file   : 4
    <28b4>   DW_AT_decl_line   : 96
    <28b5>   DW_AT_decl_column : 7
    <28b6>   DW_AT_type        : <0x2703>
    <28ba>   DW_AT_data_member_location: 192
 <2><28bb>: Abbrev Number: 10 (DW_TAG_member)
    <28bc>   DW_AT_name        : (indirect string, offset: 0x60e): _unused2
    <28c0>   DW_AT_decl_file   : 4
    <28c1>   DW_AT_decl_line   : 98
    <28c2>   DW_AT_decl_column : 8
    <28c3>   DW_AT_type        : <0x291a>
    <28c7>   DW_AT_data_member_location: 196
 <2><28c8>: Abbrev Number: 0
 <1><28c9>: Abbrev Number: 2 (DW_TAG_typedef)
    <28ca>   DW_AT_name        : (indirect string, offset: 0x229): FILE
    <28ce>   DW_AT_decl_file   : 5
    <28cf>   DW_AT_decl_line   : 7
    <28d0>   DW_AT_decl_column : 25
    <28d1>   DW_AT_type        : <0x2742>
 <1><28d5>: Abbrev Number: 11 (DW_TAG_typedef)
    <28d6>   DW_AT_name        : (indirect string, offset: 0x3ed): _IO_lock_t
    <28da>   DW_AT_decl_file   : 4
    <28db>   DW_AT_decl_line   : 43
    <28dc>   DW_AT_decl_column : 14
 <1><28dd>: Abbrev Number: 12 (DW_TAG_structure_type)
    <28de>   DW_AT_name        : (indirect string, offset: 0x1e5): _IO_marker
    <28e2>   DW_AT_declaration : 1
 <1><28e2>: Abbrev Number: 8 (DW_TAG_pointer_type)
    <28e3>   DW_AT_byte_size   : 8
    <28e4>   DW_AT_type        : <0x28dd>
 <1><28e8>: Abbrev Number: 8 (DW_TAG_pointer_type)
    <28e9>   DW_AT_byte_size   : 8
    <28ea>   DW_AT_type        : <0x2742>
 <1><28ee>: Abbrev Number: 13 (DW_TAG_array_type)
    <28ef>   DW_AT_type        : <0x273b>
    <28f3>   DW_AT_sibling     : <0x28fe>
 <2><28f7>: Abbrev Number: 14 (DW_TAG_subrange_type)
    <28f8>   DW_AT_type        : <0x26c6>
    <28fc>   DW_AT_upper_bound : 0
 <2><28fd>: Abbrev Number: 0
 <1><28fe>: Abbrev Number: 8 (DW_TAG_pointer_type)
    <28ff>   DW_AT_byte_size   : 8
    <2900>   DW_AT_type        : <0x28d5>
 <1><2904>: Abbrev Number: 12 (DW_TAG_structure_type)
    <2905>   DW_AT_name        : (indirect string, offset: 0x77): _IO_codecvt
    <2909>   DW_AT_declaration : 1
 <1><2909>: Abbrev Number: 8 (DW_TAG_pointer_type)
    <290a>   DW_AT_byte_size   : 8
    <290b>   DW_AT_type        : <0x2904>
 <1><290f>: Abbrev Number: 12 (DW_TAG_structure_type)
    <2910>   DW_AT_name        : (indirect string, offset: 0x22e): _IO_wide_data
    <2914>   DW_AT_declaration : 1
 <1><2914>: Abbrev Number: 8 (DW_TAG_pointer_type)
    <2915>   DW_AT_byte_size   : 8
    <2916>   DW_AT_type        : <0x290f>
 <1><291a>: Abbrev Number: 13 (DW_TAG_array_type)
    <291b>   DW_AT_type        : <0x273b>
    <291f>   DW_AT_sibling     : <0x292a>
 <2><2923>: Abbrev Number: 14 (DW_TAG_subrange_type)
    <2924>   DW_AT_type        : <0x26c6>
    <2928>   DW_AT_upper_bound : 19
 <2><2929>: Abbrev Number: 0
 <1><292a>: Abbrev Number: 8 (DW_TAG_pointer_type)
    <292b>   DW_AT_byte_size   : 8
    <292c>   DW_AT_type        : <0x28c9>
 <1><2930>: Abbrev Number: 6 (DW_TAG_restrict_type)
    <2931>   DW_AT_type        : <0x292a>
 <1><2935>: Abbrev Number: 4 (DW_TAG_base_type)
    <2936>   DW_AT_byte_size   : 8
    <2937>   DW_AT_encoding    : 5	(signed)
    <2938>   DW_AT_name        : (indirect string, offset: 0x6b8): long long int
 <1><293c>: Abbrev Number: 4 (DW_TAG_base_type)
    <293d>   DW_AT_byte_size   : 16
    <293e>   DW_AT_encoding    : 4	(float)
    <293f>   DW_AT_name        : (indirect string, offset: 0x86f): long double
 <1><2943>: Abbrev Number: 4 (DW_TAG_base_type)
    <2944>   DW_AT_byte_size   : 8
    <2945>   DW_AT_encoding    : 7	(unsigned)
    <2946>   DW_AT_name        : (indirect string, offset: 0x8cc): long long unsigned int
 <1><294a>: Abbrev Number: 8 (DW_TAG_pointer_type)
    <294b>   DW_AT_byte_size   : 8
    <294c>   DW_AT_type        : <0x2950>
 <1><2950>: Abbrev Number: 15 (DW_TAG_const_type)
 <1><2951>: Abbrev Number: 2 (DW_TAG_typedef)
    <2952>   DW_AT_name        : (indirect string, offset: 0xe6c): uint8_t
    <2956>   DW_AT_decl_file   : 6
    <2957>   DW_AT_decl_line   : 24
    <2958>   DW_AT_decl_column : 19
    <2959>   DW_AT_type        : <0x26f0>
 <1><295d>: Abbrev Number: 2 (DW_TAG_typedef)
    <295e>   DW_AT_name        : (indirect string, offset: 0xf3f): uint64_t
    <2962>   DW_AT_decl_file   : 6
    <2963>   DW_AT_decl_line   : 27
    <2964>   DW_AT_decl_column : 20
    <2965>   DW_AT_type        : <0x2711>
 <1><2969>: Abbrev Number: 9 (DW_TAG_structure_type)
    <296a>   DW_AT_name        : (indirect string, offset: 0xe44): blake2b_state__
    <296e>   DW_AT_byte_size   : 248
    <296f>   DW_AT_decl_file   : 7
    <2970>   DW_AT_decl_line   : 62
    <2971>   DW_AT_decl_column : 18
    <2972>   DW_AT_sibling     : <0x29cc>
 <2><2976>: Abbrev Number: 16 (DW_TAG_member)
    <2977>   DW_AT_name        : h
    <2979>   DW_AT_decl_file   : 7
    <297a>   DW_AT_decl_line   : 64
    <297b>   DW_AT_decl_column : 14
    <297c>   DW_AT_type        : <0x29cc>
    <2980>   DW_AT_data_member_location: 0
 <2><2981>: Abbrev Number: 16 (DW_TAG_member)
    <2982>   DW_AT_name        : t
    <2984>   DW_AT_decl_file   : 7
    <2985>   DW_AT_decl_line   : 65
    <2986>   DW_AT_decl_column : 14
    <2987>   DW_AT_type        : <0x29dc>
    <298b>   DW_AT_data_member_location: 64
 <2><298c>: Abbrev Number: 16 (DW_TAG_member)
    <298d>   DW_AT_name        : f
    <298f>   DW_AT_decl_file   : 7
    <2990>   DW_AT_decl_line   : 66
    <2991>   DW_AT_decl_column : 14
    <2992>   DW_AT_type        : <0x29dc>
    <2996>   DW_AT_data_member_location: 80
 <2><2997>: Abbrev Number: 16 (DW_TAG_member)
    <2998>   DW_AT_name        : buf
    <299c>   DW_AT_decl_file   : 7
    <299d>   DW_AT_decl_line   : 67
    <299e>   DW_AT_decl_column : 14
    <299f>   DW_AT_type        : <0x29ec>
    <29a3>   DW_AT_data_member_location: 96
 <2><29a4>: Abbrev Number: 10 (DW_TAG_member)
    <29a5>   DW_AT_name        : (indirect string, offset: 0xd48): buflen
    <29a9>   DW_AT_decl_file   : 7
    <29aa>   DW_AT_decl_line   : 68
    <29ab>   DW_AT_decl_column : 14
    <29ac>   DW_AT_type        : <0x26b5>
    <29b0>   DW_AT_data_member_location: 224
 <2><29b1>: Abbrev Number: 10 (DW_TAG_member)
    <29b2>   DW_AT_name        : (indirect string, offset: 0xd28): outlen
    <29b6>   DW_AT_decl_file   : 7
    <29b7>   DW_AT_decl_line   : 69
    <29b8>   DW_AT_decl_column : 14
    <29b9>   DW_AT_type        : <0x26b5>
    <29bd>   DW_AT_data_member_location: 232
 <2><29be>: Abbrev Number: 10 (DW_TAG_member)
    <29bf>   DW_AT_name        : (indirect string, offset: 0xcf5): last_node
    <29c3>   DW_AT_decl_file   : 7
    <29c4>   DW_AT_decl_line   : 70
    <29c5>   DW_AT_decl_column : 14
    <29c6>   DW_AT_type        : <0x2951>
    <29ca>   DW_AT_data_member_location: 240
 <2><29cb>: Abbrev Number: 0
 <1><29cc>: Abbrev Number: 13 (DW_TAG_array_type)
    <29cd>   DW_AT_type        : <0x295d>
    <29d1>   DW_AT_sibling     : <0x29dc>
 <2><29d5>: Abbrev Number: 14 (DW_TAG_subrange_type)
    <29d6>   DW_AT_type        : <0x26c6>
    <29da>   DW_AT_upper_bound : 7
 <2><29db>: Abbrev Number: 0
 <1><29dc>: Abbrev Number: 13 (DW_TAG_array_type)
    <29dd>   DW_AT_type        : <0x295d>
    <29e1>   DW_AT_sibling     : <0x29ec>
 <2><29e5>: Abbrev Number: 14 (DW_TAG_subrange_type)
    <29e6>   DW_AT_type        : <0x26c6>
    <29ea>   DW_AT_upper_bound : 1
 <2><29eb>: Abbrev Number: 0
 <1><29ec>: Abbrev Number: 13 (DW_TAG_array_type)
    <29ed>   DW_AT_type        : <0x2951>
    <29f1>   DW_AT_sibling     : <0x29fc>
 <2><29f5>: Abbrev Number: 14 (DW_TAG_subrange_type)
    <29f6>   DW_AT_type        : <0x26c6>
    <29fa>   DW_AT_upper_bound : 127
 <2><29fb>: Abbrev Number: 0
 <1><29fc>: Abbrev Number: 2 (DW_TAG_typedef)
    <29fd>   DW_AT_name        : (indirect string, offset: 0xf2f): blake2b_state
    <2a01>   DW_AT_decl_file   : 7
    <2a02>   DW_AT_decl_line   : 71
    <2a03>   DW_AT_decl_column : 5
    <2a04>   DW_AT_type        : <0x2969>
 <1><2a08>: Abbrev Number: 13 (DW_TAG_array_type)
    <2a09>   DW_AT_type        : <0x29fc>
    <2a0d>   DW_AT_sibling     : <0x2a18>
 <2><2a11>: Abbrev Number: 14 (DW_TAG_subrange_type)
    <2a12>   DW_AT_type        : <0x26c6>
    <2a16>   DW_AT_upper_bound : 0
 <2><2a17>: Abbrev Number: 0
 <1><2a18>: Abbrev Number: 17 (DW_TAG_subprogram)
    <2a19>   DW_AT_external    : 1
    <2a19>   DW_AT_name        : (indirect string, offset: 0xb73): rpl_free
    <2a1d>   DW_AT_decl_file   : 10
    <2a1e>   DW_AT_decl_line   : 635
    <2a20>   DW_AT_decl_column : 19
    <2a21>   DW_AT_prototyped  : 1
    <2a21>   DW_AT_declaration : 1
    <2a21>   DW_AT_sibling     : <0x2a2b>
 <2><2a25>: Abbrev Number: 18 (DW_TAG_formal_parameter)
    <2a26>   DW_AT_type        : <0x26d4>
 <2><2a2a>: Abbrev Number: 0
 <1><2a2b>: Abbrev Number: 19 (DW_TAG_subprogram)
    <2a2c>   DW_AT_external    : 1
    <2a2c>   DW_AT_name        : (indirect string, offset: 0xea3): blake2b_final
    <2a30>   DW_AT_decl_file   : 7
    <2a31>   DW_AT_decl_line   : 158
    <2a32>   DW_AT_decl_column : 7
    <2a33>   DW_AT_prototyped  : 1
    <2a33>   DW_AT_type        : <0x2703>
    <2a37>   DW_AT_declaration : 1
    <2a37>   DW_AT_sibling     : <0x2a4b>
 <2><2a3b>: Abbrev Number: 18 (DW_TAG_formal_parameter)
    <2a3c>   DW_AT_type        : <0x2a4b>
 <2><2a40>: Abbrev Number: 18 (DW_TAG_formal_parameter)
    <2a41>   DW_AT_type        : <0x26d4>
 <2><2a45>: Abbrev Number: 18 (DW_TAG_formal_parameter)
    <2a46>   DW_AT_type        : <0x26b5>
 <2><2a4a>: Abbrev Number: 0
 <1><2a4b>: Abbrev Number: 8 (DW_TAG_pointer_type)
    <2a4c>   DW_AT_byte_size   : 8
    <2a4d>   DW_AT_type        : <0x29fc>
 <1><2a51>: Abbrev Number: 19 (DW_TAG_subprogram)
    <2a52>   DW_AT_external    : 1
    <2a52>   DW_AT_name        : (indirect string, offset: 0xf56): blake2b_update
    <2a56>   DW_AT_decl_file   : 7
    <2a57>   DW_AT_decl_line   : 157
    <2a58>   DW_AT_decl_column : 7
    <2a59>   DW_AT_prototyped  : 1
    <2a59>   DW_AT_type        : <0x2703>
    <2a5d>   DW_AT_declaration : 1
    <2a5d>   DW_AT_sibling     : <0x2a71>
 <2><2a61>: Abbrev Number: 18 (DW_TAG_formal_parameter)
    <2a62>   DW_AT_type        : <0x2a4b>
 <2><2a66>: Abbrev Number: 18 (DW_TAG_formal_parameter)
    <2a67>   DW_AT_type        : <0x294a>
 <2><2a6b>: Abbrev Number: 18 (DW_TAG_formal_parameter)
    <2a6c>   DW_AT_type        : <0x26b5>
 <2><2a70>: Abbrev Number: 0
 <1><2a71>: Abbrev Number: 20 (DW_TAG_subprogram)
    <2a72>   DW_AT_external    : 1
    <2a72>   DW_AT_name        : (indirect string, offset: 0x1032): feof
    <2a76>   DW_AT_decl_file   : 8
    <2a77>   DW_AT_decl_line   : 759
    <2a79>   DW_AT_decl_column : 12
    <2a7a>   DW_AT_prototyped  : 1
    <2a7a>   DW_AT_type        : <0x2703>
    <2a7e>   DW_AT_declaration : 1
    <2a7e>   DW_AT_sibling     : <0x2a88>
 <2><2a82>: Abbrev Number: 18 (DW_TAG_formal_parameter)
    <2a83>   DW_AT_type        : <0x292a>
 <2><2a87>: Abbrev Number: 0
 <1><2a88>: Abbrev Number: 20 (DW_TAG_subprogram)
    <2a89>   DW_AT_external    : 1
    <2a89>   DW_AT_name        : (indirect string, offset: 0x105a): ferror
    <2a8d>   DW_AT_decl_file   : 8
    <2a8e>   DW_AT_decl_line   : 761
    <2a90>   DW_AT_decl_column : 12
    <2a91>   DW_AT_prototyped  : 1
    <2a91>   DW_AT_type        : <0x2703>
    <2a95>   DW_AT_declaration : 1
    <2a95>   DW_AT_sibling     : <0x2a9f>
 <2><2a99>: Abbrev Number: 18 (DW_TAG_formal_parameter)
    <2a9a>   DW_AT_type        : <0x292a>
 <2><2a9e>: Abbrev Number: 0
 <1><2a9f>: Abbrev Number: 20 (DW_TAG_subprogram)
    <2aa0>   DW_AT_external    : 1
    <2aa0>   DW_AT_name        : (indirect string, offset: 0x1054): fread
    <2aa4>   DW_AT_decl_file   : 8
    <2aa5>   DW_AT_decl_line   : 646
    <2aa7>   DW_AT_decl_column : 15
    <2aa8>   DW_AT_prototyped  : 1
    <2aa8>   DW_AT_type        : <0x26b5>
    <2aac>   DW_AT_declaration : 1
    <2aac>   DW_AT_sibling     : <0x2ac5>
 <2><2ab0>: Abbrev Number: 18 (DW_TAG_formal_parameter)
    <2ab1>   DW_AT_type        : <0x26d6>
 <2><2ab5>: Abbrev Number: 18 (DW_TAG_formal_parameter)
    <2ab6>   DW_AT_type        : <0x26b5>
 <2><2aba>: Abbrev Number: 18 (DW_TAG_formal_parameter)
    <2abb>   DW_AT_type        : <0x26b5>
 <2><2abf>: Abbrev Number: 18 (DW_TAG_formal_parameter)
    <2ac0>   DW_AT_type        : <0x2930>
 <2><2ac4>: Abbrev Number: 0
 <1><2ac5>: Abbrev Number: 19 (DW_TAG_subprogram)
    <2ac6>   DW_AT_external    : 1
    <2ac6>   DW_AT_name        : (indirect string, offset: 0xe96): blake2b_init
    <2aca>   DW_AT_decl_file   : 7
    <2acb>   DW_AT_decl_line   : 153
    <2acc>   DW_AT_decl_column : 7
    <2acd>   DW_AT_prototyped  : 1
    <2acd>   DW_AT_type        : <0x2703>
    <2ad1>   DW_AT_declaration : 1
    <2ad1>   DW_AT_sibling     : <0x2ae0>
 <2><2ad5>: Abbrev Number: 18 (DW_TAG_formal_parameter)
    <2ad6>   DW_AT_type        : <0x2a4b>
 <2><2ada>: Abbrev Number: 18 (DW_TAG_formal_parameter)
    <2adb>   DW_AT_type        : <0x26b5>
 <2><2adf>: Abbrev Number: 0
 <1><2ae0>: Abbrev Number: 20 (DW_TAG_subprogram)
    <2ae1>   DW_AT_external    : 1
    <2ae1>   DW_AT_name        : (indirect string, offset: 0x2352): malloc
    <2ae5>   DW_AT_decl_file   : 9
    <2ae6>   DW_AT_decl_line   : 1044
    <2ae8>   DW_AT_decl_column : 1
    <2ae9>   DW_AT_prototyped  : 1
    <2ae9>   DW_AT_type        : <0x26d4>
    <2aed>   DW_AT_declaration : 1
    <2aed>   DW_AT_sibling     : <0x2af7>
 <2><2af1>: Abbrev Number: 18 (DW_TAG_formal_parameter)
    <2af2>   DW_AT_type        : <0x26b5>
 <2><2af6>: Abbrev Number: 0
 <1><2af7>: Abbrev Number: 21 (DW_TAG_subprogram)
    <2af8>   DW_AT_external    : 1
    <2af8>   DW_AT_name        : (indirect string, offset: 0xc8e): blake2b_stream
    <2afc>   DW_AT_decl_file   : 1
    <2afd>   DW_AT_decl_line   : 86
    <2afe>   DW_AT_decl_column : 5
    <2aff>   DW_AT_prototyped  : 1
    <2aff>   DW_AT_type        : <0x2703>
    <2b03>   DW_AT_low_pc      : 0xb13e
    <2b0b>   DW_AT_high_pc     : 0x1ca
    <2b13>   DW_AT_frame_base  : 1 byte block: 9c 	(DW_OP_call_frame_cfa)
    <2b15>   DW_AT_GNU_all_tail_call_sites: 1
    <2b15>   DW_AT_sibling     : <0x2bcc>
 <2><2b19>: Abbrev Number: 22 (DW_TAG_formal_parameter)
    <2b1a>   DW_AT_name        : (indirect string, offset: 0x691): stream
    <2b1e>   DW_AT_decl_file   : 1
    <2b1f>   DW_AT_decl_line   : 86
    <2b20>   DW_AT_decl_column : 27
    <2b21>   DW_AT_type        : <0x292a>
    <2b25>   DW_AT_location    : 3 byte block: 91 c8 7d 	(DW_OP_fbreg: -312)
 <2><2b29>: Abbrev Number: 22 (DW_TAG_formal_parameter)
    <2b2a>   DW_AT_name        : (indirect string, offset: 0x8c2): resstream
    <2b2e>   DW_AT_decl_file   : 1
    <2b2f>   DW_AT_decl_line   : 86
    <2b30>   DW_AT_decl_column : 41
    <2b31>   DW_AT_type        : <0x26d4>
    <2b35>   DW_AT_location    : 3 byte block: 91 c0 7d 	(DW_OP_fbreg: -320)
 <2><2b39>: Abbrev Number: 22 (DW_TAG_formal_parameter)
    <2b3a>   DW_AT_name        : (indirect string, offset: 0x1008): outbytes
    <2b3e>   DW_AT_decl_file   : 1
    <2b3f>   DW_AT_decl_line   : 86
    <2b40>   DW_AT_decl_column : 59
    <2b41>   DW_AT_type        : <0x26b5>
    <2b45>   DW_AT_location    : 3 byte block: 91 b8 7d 	(DW_OP_fbreg: -328)
 <2><2b49>: Abbrev Number: 23 (DW_TAG_variable)
    <2b4a>   DW_AT_name        : ret
    <2b4e>   DW_AT_decl_file   : 1
    <2b4f>   DW_AT_decl_line   : 88
    <2b50>   DW_AT_decl_column : 7
    <2b51>   DW_AT_type        : <0x2703>
    <2b55>   DW_AT_location    : 3 byte block: 91 d4 7d 	(DW_OP_fbreg: -300)
 <2><2b59>: Abbrev Number: 23 (DW_TAG_variable)
    <2b5a>   DW_AT_name        : sum
    <2b5e>   DW_AT_decl_file   : 1
    <2b5f>   DW_AT_decl_line   : 89
    <2b60>   DW_AT_decl_column : 10
    <2b61>   DW_AT_type        : <0x26b5>
    <2b65>   DW_AT_location    : 3 byte block: 91 d8 7d 	(DW_OP_fbreg: -296)
 <2><2b69>: Abbrev Number: 23 (DW_TAG_variable)
    <2b6a>   DW_AT_name        : n
    <2b6c>   DW_AT_decl_file   : 1
    <2b6d>   DW_AT_decl_line   : 89
    <2b6e>   DW_AT_decl_column : 15
    <2b6f>   DW_AT_type        : <0x26b5>
    <2b73>   DW_AT_location    : 3 byte block: 91 e8 7d 	(DW_OP_fbreg: -280)
 <2><2b77>: Abbrev Number: 23 (DW_TAG_variable)
    <2b78>   DW_AT_name        : S
    <2b7a>   DW_AT_decl_file   : 1
    <2b7b>   DW_AT_decl_line   : 90
    <2b7c>   DW_AT_decl_column : 17
    <2b7d>   DW_AT_type        : <0x2a08>
    <2b81>   DW_AT_location    : 3 byte block: 91 f0 7d 	(DW_OP_fbreg: -272)
 <2><2b85>: Abbrev Number: 24 (DW_TAG_variable)
    <2b86>   DW_AT_name        : (indirect string, offset: 0x1024): buffer_length
    <2b8a>   DW_AT_decl_file   : 1
    <2b8b>   DW_AT_decl_line   : 91
    <2b8c>   DW_AT_decl_column : 23
    <2b8d>   DW_AT_type        : <0x26c1>
    <2b91>   DW_AT_location    : 9 byte block: 3 c0 81 2 0 0 0 0 0 	(DW_OP_addr: 281c0)
 <2><2b9b>: Abbrev Number: 24 (DW_TAG_variable)
    <2b9c>   DW_AT_name        : (indirect string, offset: 0x157c): buffer
    <2ba0>   DW_AT_decl_file   : 1
    <2ba1>   DW_AT_decl_line   : 92
    <2ba2>   DW_AT_decl_column : 12
    <2ba3>   DW_AT_type        : <0x2bcc>
    <2ba7>   DW_AT_location    : 3 byte block: 91 e0 7d 	(DW_OP_fbreg: -288)
 <2><2bab>: Abbrev Number: 25 (DW_TAG_label)
    <2bac>   DW_AT_name        : (indirect string, offset: 0x1045): cleanup_buffer
    <2bb0>   DW_AT_decl_file   : 1
    <2bb1>   DW_AT_decl_line   : 131
    <2bb2>   DW_AT_decl_column : 1
    <2bb3>   DW_AT_low_pc      : 0xb2dd
 <2><2bbb>: Abbrev Number: 25 (DW_TAG_label)
    <2bbc>   DW_AT_name        : (indirect string, offset: 0x1037): final_process
    <2bc0>   DW_AT_decl_file   : 1
    <2bc1>   DW_AT_decl_line   : 125
    <2bc2>   DW_AT_decl_column : 1
    <2bc3>   DW_AT_low_pc      : 0xb289
 <2><2bcb>: Abbrev Number: 0
 <1><2bcc>: Abbrev Number: 8 (DW_TAG_pointer_type)
    <2bcd>   DW_AT_byte_size   : 8
    <2bce>   DW_AT_type        : <0x2951>
 <1><2bd2>: Abbrev Number: 0
  Compilation Unit @ offset 0x2bd3:
   Length:        0x7e2 (32-bit)
   Version:       4
   Abbrev Offset: 0x72f
   Pointer Size:  8
 <0><2bde>: Abbrev Number: 1 (DW_TAG_compile_unit)
    <2bdf>   DW_AT_producer    : (indirect string, offset: 0x2c7): GNU C17 11.1.0 -mtune=generic -march=x86-64 -g -O0 -fasynchronous-unwind-tables -fstack-protector-strong -fstack-clash-protection -fcf-protection
    <2be3>   DW_AT_language    : 12	(ANSI C99)
    <2be4>   DW_AT_name        : (indirect string, offset: 0x10ca): src/sum.c
    <2be8>   DW_AT_comp_dir    : (indirect string, offset: 0xa27): /home/jacekline/dev/research/programs/coreutils-9.1
    <2bec>   DW_AT_low_pc      : 0xb308
    <2bf4>   DW_AT_high_pc     : 0x5ce
    <2bfc>   DW_AT_stmt_list   : 0x150d
 <1><2c00>: Abbrev Number: 2 (DW_TAG_typedef)
    <2c01>   DW_AT_name        : (indirect string, offset: 0x70): size_t
    <2c05>   DW_AT_decl_file   : 2
    <2c06>   DW_AT_decl_line   : 209
    <2c07>   DW_AT_decl_column : 23
    <2c08>   DW_AT_type        : <0x2c11>
 <1><2c0c>: Abbrev Number: 3 (DW_TAG_const_type)
    <2c0d>   DW_AT_type        : <0x2c00>
 <1><2c11>: Abbrev Number: 4 (DW_TAG_base_type)
    <2c12>   DW_AT_byte_size   : 8
    <2c13>   DW_AT_encoding    : 7	(unsigned)
    <2c14>   DW_AT_name        : (indirect string, offset: 0x8d1): long unsigned int
 <1><2c18>: Abbrev Number: 4 (DW_TAG_base_type)
    <2c19>   DW_AT_byte_size   : 4
    <2c1a>   DW_AT_encoding    : 7	(unsigned)
    <2c1b>   DW_AT_name        : (indirect string, offset: 0x8d6): unsigned int
 <1><2c1f>: Abbrev Number: 5 (DW_TAG_pointer_type)
    <2c20>   DW_AT_byte_size   : 8
 <1><2c21>: Abbrev Number: 6 (DW_TAG_restrict_type)
    <2c22>   DW_AT_type        : <0x2c1f>
 <1><2c26>: Abbrev Number: 4 (DW_TAG_base_type)
    <2c27>   DW_AT_byte_size   : 1
    <2c28>   DW_AT_encoding    : 8	(unsigned char)
    <2c29>   DW_AT_name        : (indirect string, offset: 0x251): unsigned char
 <1><2c2d>: Abbrev Number: 4 (DW_TAG_base_type)
    <2c2e>   DW_AT_byte_size   : 2
    <2c2f>   DW_AT_encoding    : 7	(unsigned)
    <2c30>   DW_AT_name        : (indirect string, offset: 0xbd5): short unsigned int
 <1><2c34>: Abbrev Number: 4 (DW_TAG_base_type)
    <2c35>   DW_AT_byte_size   : 1
    <2c36>   DW_AT_encoding    : 6	(signed char)
    <2c37>   DW_AT_name        : (indirect string, offset: 0x253): signed char
 <1><2c3b>: Abbrev Number: 2 (DW_TAG_typedef)
    <2c3c>   DW_AT_name        : (indirect string, offset: 0xe6a): __uint8_t
    <2c40>   DW_AT_decl_file   : 3
    <2c41>   DW_AT_decl_line   : 38
    <2c42>   DW_AT_decl_column : 23
    <2c43>   DW_AT_type        : <0x2c26>
 <1><2c47>: Abbrev Number: 4 (DW_TAG_base_type)
    <2c48>   DW_AT_byte_size   : 2
    <2c49>   DW_AT_encoding    : 5	(signed)
    <2c4a>   DW_AT_name        : (indirect string, offset: 0xa6c): short int
 <1><2c4e>: Abbrev Number: 7 (DW_TAG_base_type)
    <2c4f>   DW_AT_byte_size   : 4
    <2c50>   DW_AT_encoding    : 5	(signed)
    <2c51>   DW_AT_name        : int
 <1><2c55>: Abbrev Number: 4 (DW_TAG_base_type)
    <2c56>   DW_AT_byte_size   : 8
    <2c57>   DW_AT_encoding    : 5	(signed)
    <2c58>   DW_AT_name        : (indirect string, offset: 0x6bd): long int
 <1><2c5c>: Abbrev Number: 2 (DW_TAG_typedef)
    <2c5d>   DW_AT_name        : (indirect string, offset: 0xb13): __uintmax_t
    <2c61>   DW_AT_decl_file   : 3
    <2c62>   DW_AT_decl_line   : 73
    <2c63>   DW_AT_decl_column : 27
    <2c64>   DW_AT_type        : <0x2c11>
 <1><2c68>: Abbrev Number: 2 (DW_TAG_typedef)
    <2c69>   DW_AT_name        : (indirect string, offset: 0x904): __off_t
    <2c6d>   DW_AT_decl_file   : 3
    <2c6e>   DW_AT_decl_line   : 152
    <2c6f>   DW_AT_decl_column : 25
    <2c70>   DW_AT_type        : <0x2c55>
 <1><2c74>: Abbrev Number: 2 (DW_TAG_typedef)
    <2c75>   DW_AT_name        : (indirect string, offset: 0x9e8): __off64_t
    <2c79>   DW_AT_decl_file   : 3
    <2c7a>   DW_AT_decl_line   : 153
    <2c7b>   DW_AT_decl_column : 27
    <2c7c>   DW_AT_type        : <0x2c55>
 <1><2c80>: Abbrev Number: 8 (DW_TAG_pointer_type)
    <2c81>   DW_AT_byte_size   : 8
    <2c82>   DW_AT_type        : <0x2c86>
 <1><2c86>: Abbrev Number: 4 (DW_TAG_base_type)
    <2c87>   DW_AT_byte_size   : 1
    <2c88>   DW_AT_encoding    : 6	(signed char)
    <2c89>   DW_AT_name        : (indirect string, offset: 0x25a): char
 <1><2c8d>: Abbrev Number: 3 (DW_TAG_const_type)
    <2c8e>   DW_AT_type        : <0x2c86>
 <1><2c92>: Abbrev Number: 9 (DW_TAG_structure_type)
    <2c93>   DW_AT_name        : (indirect string, offset: 0x225): _IO_FILE
    <2c97>   DW_AT_byte_size   : 216
    <2c98>   DW_AT_decl_file   : 4
    <2c99>   DW_AT_decl_line   : 49
    <2c9a>   DW_AT_decl_column : 8
    <2c9b>   DW_AT_sibling     : <0x2e19>
 <2><2c9f>: Abbrev Number: 10 (DW_TAG_member)
    <2ca0>   DW_AT_name        : (indirect string, offset: 0x1e86): _flags
    <2ca4>   DW_AT_decl_file   : 4
    <2ca5>   DW_AT_decl_line   : 51
    <2ca6>   DW_AT_decl_column : 7
    <2ca7>   DW_AT_type        : <0x2c4e>
    <2cab>   DW_AT_data_member_location: 0
 <2><2cac>: Abbrev Number: 10 (DW_TAG_member)
    <2cad>   DW_AT_name        : (indirect string, offset: 0x462): _IO_read_ptr
    <2cb1>   DW_AT_decl_file   : 4
    <2cb2>   DW_AT_decl_line   : 54
    <2cb3>   DW_AT_decl_column : 9
    <2cb4>   DW_AT_type        : <0x2c80>
    <2cb8>   DW_AT_data_member_location: 8
 <2><2cb9>: Abbrev Number: 10 (DW_TAG_member)
    <2cba>   DW_AT_name        : (indirect string, offset: 0xb53): _IO_read_end
    <2cbe>   DW_AT_decl_file   : 4
    <2cbf>   DW_AT_decl_line   : 55
    <2cc0>   DW_AT_decl_column : 9
    <2cc1>   DW_AT_type        : <0x2c80>
    <2cc5>   DW_AT_data_member_location: 16
 <2><2cc6>: Abbrev Number: 10 (DW_TAG_member)
    <2cc7>   DW_AT_name        : (indirect string, offset: 0x5f9): _IO_read_base
    <2ccb>   DW_AT_decl_file   : 4
    <2ccc>   DW_AT_decl_line   : 56
    <2ccd>   DW_AT_decl_column : 9
    <2cce>   DW_AT_type        : <0x2c80>
    <2cd2>   DW_AT_data_member_location: 24
 <2><2cd3>: Abbrev Number: 10 (DW_TAG_member)
    <2cd4>   DW_AT_name        : (indirect string, offset: 0xe4): _IO_write_base
    <2cd8>   DW_AT_decl_file   : 4
    <2cd9>   DW_AT_decl_line   : 57
    <2cda>   DW_AT_decl_column : 9
    <2cdb>   DW_AT_type        : <0x2c80>
    <2cdf>   DW_AT_data_member_location: 32
 <2><2ce0>: Abbrev Number: 10 (DW_TAG_member)
    <2ce1>   DW_AT_name        : (indirect string, offset: 0xc0a): _IO_write_ptr
    <2ce5>   DW_AT_decl_file   : 4
    <2ce6>   DW_AT_decl_line   : 58
    <2ce7>   DW_AT_decl_column : 9
    <2ce8>   DW_AT_type        : <0x2c80>
    <2cec>   DW_AT_data_member_location: 40
 <2><2ced>: Abbrev Number: 10 (DW_TAG_member)
    <2cee>   DW_AT_name        : (indirect string, offset: 0x71a): _IO_write_end
    <2cf2>   DW_AT_decl_file   : 4
    <2cf3>   DW_AT_decl_line   : 59
    <2cf4>   DW_AT_decl_column : 9
    <2cf5>   DW_AT_type        : <0x2c80>
    <2cf9>   DW_AT_data_member_location: 48
 <2><2cfa>: Abbrev Number: 10 (DW_TAG_member)
    <2cfb>   DW_AT_name        : (indirect string, offset: 0x76e): _IO_buf_base
    <2cff>   DW_AT_decl_file   : 4
    <2d00>   DW_AT_decl_line   : 60
    <2d01>   DW_AT_decl_column : 9
    <2d02>   DW_AT_type        : <0x2c80>
    <2d06>   DW_AT_data_member_location: 56
 <2><2d07>: Abbrev Number: 10 (DW_TAG_member)
    <2d08>   DW_AT_name        : (indirect string, offset: 0xa01): _IO_buf_end
    <2d0c>   DW_AT_decl_file   : 4
    <2d0d>   DW_AT_decl_line   : 61
    <2d0e>   DW_AT_decl_column : 9
    <2d0f>   DW_AT_type        : <0x2c80>
    <2d13>   DW_AT_data_member_location: 64
 <2><2d14>: Abbrev Number: 10 (DW_TAG_member)
    <2d15>   DW_AT_name        : (indirect string, offset: 0x143): _IO_save_base
    <2d19>   DW_AT_decl_file   : 4
    <2d1a>   DW_AT_decl_line   : 64
    <2d1b>   DW_AT_decl_column : 9
    <2d1c>   DW_AT_type        : <0x2c80>
    <2d20>   DW_AT_data_member_location: 72
 <2><2d21>: Abbrev Number: 10 (DW_TAG_member)
    <2d22>   DW_AT_name        : (indirect string, offset: 0x98f): _IO_backup_base
    <2d26>   DW_AT_decl_file   : 4
    <2d27>   DW_AT_decl_line   : 65
    <2d28>   DW_AT_decl_column : 9
    <2d29>   DW_AT_type        : <0x2c80>
    <2d2d>   DW_AT_data_member_location: 80
 <2><2d2e>: Abbrev Number: 10 (DW_TAG_member)
    <2d2f>   DW_AT_name        : (indirect string, offset: 0xba): _IO_save_end
    <2d33>   DW_AT_decl_file   : 4
    <2d34>   DW_AT_decl_line   : 66
    <2d35>   DW_AT_decl_column : 9
    <2d36>   DW_AT_type        : <0x2c80>
    <2d3a>   DW_AT_data_member_location: 88
 <2><2d3b>: Abbrev Number: 10 (DW_TAG_member)
    <2d3c>   DW_AT_name        : (indirect string, offset: 0x4bb): _markers
    <2d40>   DW_AT_decl_file   : 4
    <2d41>   DW_AT_decl_line   : 68
    <2d42>   DW_AT_decl_column : 22
    <2d43>   DW_AT_type        : <0x2e32>
    <2d47>   DW_AT_data_member_location: 96
 <2><2d48>: Abbrev Number: 10 (DW_TAG_member)
    <2d49>   DW_AT_name        : (indirect string, offset: 0x189): _chain
    <2d4d>   DW_AT_decl_file   : 4
    <2d4e>   DW_AT_decl_line   : 70
    <2d4f>   DW_AT_decl_column : 20
    <2d50>   DW_AT_type        : <0x2e38>
    <2d54>   DW_AT_data_member_location: 104
 <2><2d55>: Abbrev Number: 10 (DW_TAG_member)
    <2d56>   DW_AT_name        : (indirect string, offset: 0xbb0): _fileno
    <2d5a>   DW_AT_decl_file   : 4
    <2d5b>   DW_AT_decl_line   : 72
    <2d5c>   DW_AT_decl_column : 7
    <2d5d>   DW_AT_type        : <0x2c4e>
    <2d61>   DW_AT_data_member_location: 112
 <2><2d62>: Abbrev Number: 10 (DW_TAG_member)
    <2d63>   DW_AT_name        : (indirect string, offset: 0x5df): _flags2
    <2d67>   DW_AT_decl_file   : 4
    <2d68>   DW_AT_decl_line   : 73
    <2d69>   DW_AT_decl_column : 7
    <2d6a>   DW_AT_type        : <0x2c4e>
    <2d6e>   DW_AT_data_member_location: 116
 <2><2d6f>: Abbrev Number: 10 (DW_TAG_member)
    <2d70>   DW_AT_name        : (indirect string, offset: 0x64e): _old_offset
    <2d74>   DW_AT_decl_file   : 4
    <2d75>   DW_AT_decl_line   : 74
    <2d76>   DW_AT_decl_column : 11
    <2d77>   DW_AT_type        : <0x2c68>
    <2d7b>   DW_AT_data_member_location: 120
 <2><2d7c>: Abbrev Number: 10 (DW_TAG_member)
    <2d7d>   DW_AT_name        : (indirect string, offset: 0x190): _cur_column
    <2d81>   DW_AT_decl_file   : 4
    <2d82>   DW_AT_decl_line   : 77
    <2d83>   DW_AT_decl_column : 18
    <2d84>   DW_AT_type        : <0x2c2d>
    <2d88>   DW_AT_data_member_location: 128
 <2><2d89>: Abbrev Number: 10 (DW_TAG_member)
    <2d8a>   DW_AT_name        : (indirect string, offset: 0xaea): _vtable_offset
    <2d8e>   DW_AT_decl_file   : 4
    <2d8f>   DW_AT_decl_line   : 78
    <2d90>   DW_AT_decl_column : 15
    <2d91>   DW_AT_type        : <0x2c34>
    <2d95>   DW_AT_data_member_location: 130
 <2><2d96>: Abbrev Number: 10 (DW_TAG_member)
    <2d97>   DW_AT_name        : (indirect string, offset: 0x9a9): _shortbuf
    <2d9b>   DW_AT_decl_file   : 4
    <2d9c>   DW_AT_decl_line   : 79
    <2d9d>   DW_AT_decl_column : 8
    <2d9e>   DW_AT_type        : <0x2e3e>
    <2da2>   DW_AT_data_member_location: 131
 <2><2da3>: Abbrev Number: 10 (DW_TAG_member)
    <2da4>   DW_AT_name        : (indirect string, offset: 0xfb): _lock
    <2da8>   DW_AT_decl_file   : 4
    <2da9>   DW_AT_decl_line   : 81
    <2daa>   DW_AT_decl_column : 15
    <2dab>   DW_AT_type        : <0x2e4e>
    <2daf>   DW_AT_data_member_location: 136
 <2><2db0>: Abbrev Number: 10 (DW_TAG_member)
    <2db1>   DW_AT_name        : (indirect string, offset: 0x652): _offset
    <2db5>   DW_AT_decl_file   : 4
    <2db6>   DW_AT_decl_line   : 89
    <2db7>   DW_AT_decl_column : 13
    <2db8>   DW_AT_type        : <0x2c74>
    <2dbc>   DW_AT_data_member_location: 144
 <2><2dbd>: Abbrev Number: 10 (DW_TAG_member)
    <2dbe>   DW_AT_name        : (indirect string, offset: 0x7a): _codecvt
    <2dc2>   DW_AT_decl_file   : 4
    <2dc3>   DW_AT_decl_line   : 91
    <2dc4>   DW_AT_decl_column : 23
    <2dc5>   DW_AT_type        : <0x2e59>
    <2dc9>   DW_AT_data_member_location: 152
 <2><2dca>: Abbrev Number: 10 (DW_TAG_member)
    <2dcb>   DW_AT_name        : (indirect string, offset: 0x231): _wide_data
    <2dcf>   DW_AT_decl_file   : 4
    <2dd0>   DW_AT_decl_line   : 92
    <2dd1>   DW_AT_decl_column : 25
    <2dd2>   DW_AT_type        : <0x2e64>
    <2dd6>   DW_AT_data_member_location: 160
 <2><2dd7>: Abbrev Number: 10 (DW_TAG_member)
    <2dd8>   DW_AT_name        : (indirect string, offset: 0x25f): _freeres_list
    <2ddc>   DW_AT_decl_file   : 4
    <2ddd>   DW_AT_decl_line   : 93
    <2dde>   DW_AT_decl_column : 20
    <2ddf>   DW_AT_type        : <0x2e38>
    <2de3>   DW_AT_data_member_location: 168
 <2><2de4>: Abbrev Number: 10 (DW_TAG_member)
    <2de5>   DW_AT_name        : (indirect string, offset: 0x944): _freeres_buf
    <2de9>   DW_AT_decl_file   : 4
    <2dea>   DW_AT_decl_line   : 94
    <2deb>   DW_AT_decl_column : 9
    <2dec>   DW_AT_type        : <0x2c1f>
    <2df0>   DW_AT_data_member_location: 176
 <2><2df1>: Abbrev Number: 10 (DW_TAG_member)
    <2df2>   DW_AT_name        : (indirect string, offset: 0x7c6): __pad5
    <2df6>   DW_AT_decl_file   : 4
    <2df7>   DW_AT_decl_line   : 95
    <2df8>   DW_AT_decl_column : 10
    <2df9>   DW_AT_type        : <0x2c00>
    <2dfd>   DW_AT_data_member_location: 184
 <2><2dfe>: Abbrev Number: 10 (DW_TAG_member)
    <2dff>   DW_AT_name        : (indirect string, offset: 0x818): _mode
    <2e03>   DW_AT_decl_file   : 4
    <2e04>   DW_AT_decl_line   : 96
    <2e05>   DW_AT_decl_column : 7
    <2e06>   DW_AT_type        : <0x2c4e>
    <2e0a>   DW_AT_data_member_location: 192
 <2><2e0b>: Abbrev Number: 10 (DW_TAG_member)
    <2e0c>   DW_AT_name        : (indirect string, offset: 0x60e): _unused2
    <2e10>   DW_AT_decl_file   : 4
    <2e11>   DW_AT_decl_line   : 98
    <2e12>   DW_AT_decl_column : 8
    <2e13>   DW_AT_type        : <0x2e6a>
    <2e17>   DW_AT_data_member_location: 196
 <2><2e18>: Abbrev Number: 0
 <1><2e19>: Abbrev Number: 2 (DW_TAG_typedef)
    <2e1a>   DW_AT_name        : (indirect string, offset: 0x229): FILE
    <2e1e>   DW_AT_decl_file   : 5
    <2e1f>   DW_AT_decl_line   : 7
    <2e20>   DW_AT_decl_column : 25
    <2e21>   DW_AT_type        : <0x2c92>
 <1><2e25>: Abbrev Number: 11 (DW_TAG_typedef)
    <2e26>   DW_AT_name        : (indirect string, offset: 0x3ed): _IO_lock_t
    <2e2a>   DW_AT_decl_file   : 4
    <2e2b>   DW_AT_decl_line   : 43
    <2e2c>   DW_AT_decl_column : 14
 <1><2e2d>: Abbrev Number: 12 (DW_TAG_structure_type)
    <2e2e>   DW_AT_name        : (indirect string, offset: 0x1e5): _IO_marker
    <2e32>   DW_AT_declaration : 1
 <1><2e32>: Abbrev Number: 8 (DW_TAG_pointer_type)
    <2e33>   DW_AT_byte_size   : 8
    <2e34>   DW_AT_type        : <0x2e2d>
 <1><2e38>: Abbrev Number: 8 (DW_TAG_pointer_type)
    <2e39>   DW_AT_byte_size   : 8
    <2e3a>   DW_AT_type        : <0x2c92>
 <1><2e3e>: Abbrev Number: 13 (DW_TAG_array_type)
    <2e3f>   DW_AT_type        : <0x2c86>
    <2e43>   DW_AT_sibling     : <0x2e4e>
 <2><2e47>: Abbrev Number: 14 (DW_TAG_subrange_type)
    <2e48>   DW_AT_type        : <0x2c11>
    <2e4c>   DW_AT_upper_bound : 0
 <2><2e4d>: Abbrev Number: 0
 <1><2e4e>: Abbrev Number: 8 (DW_TAG_pointer_type)
    <2e4f>   DW_AT_byte_size   : 8
    <2e50>   DW_AT_type        : <0x2e25>
 <1><2e54>: Abbrev Number: 12 (DW_TAG_structure_type)
    <2e55>   DW_AT_name        : (indirect string, offset: 0x77): _IO_codecvt
    <2e59>   DW_AT_declaration : 1
 <1><2e59>: Abbrev Number: 8 (DW_TAG_pointer_type)
    <2e5a>   DW_AT_byte_size   : 8
    <2e5b>   DW_AT_type        : <0x2e54>
 <1><2e5f>: Abbrev Number: 12 (DW_TAG_structure_type)
    <2e60>   DW_AT_name        : (indirect string, offset: 0x22e): _IO_wide_data
    <2e64>   DW_AT_declaration : 1
 <1><2e64>: Abbrev Number: 8 (DW_TAG_pointer_type)
    <2e65>   DW_AT_byte_size   : 8
    <2e66>   DW_AT_type        : <0x2e5f>
 <1><2e6a>: Abbrev Number: 13 (DW_TAG_array_type)
    <2e6b>   DW_AT_type        : <0x2c86>
    <2e6f>   DW_AT_sibling     : <0x2e7a>
 <2><2e73>: Abbrev Number: 14 (DW_TAG_subrange_type)
    <2e74>   DW_AT_type        : <0x2c11>
    <2e78>   DW_AT_upper_bound : 19
 <2><2e79>: Abbrev Number: 0
 <1><2e7a>: Abbrev Number: 8 (DW_TAG_pointer_type)
    <2e7b>   DW_AT_byte_size   : 8
    <2e7c>   DW_AT_type        : <0x2c8d>
 <1><2e80>: Abbrev Number: 8 (DW_TAG_pointer_type)
    <2e81>   DW_AT_byte_size   : 8
    <2e82>   DW_AT_type        : <0x2e19>
 <1><2e86>: Abbrev Number: 6 (DW_TAG_restrict_type)
    <2e87>   DW_AT_type        : <0x2e80>
 <1><2e8b>: Abbrev Number: 4 (DW_TAG_base_type)
    <2e8c>   DW_AT_byte_size   : 8
    <2e8d>   DW_AT_encoding    : 5	(signed)
    <2e8e>   DW_AT_name        : (indirect string, offset: 0x6b8): long long int
 <1><2e92>: Abbrev Number: 4 (DW_TAG_base_type)
    <2e93>   DW_AT_byte_size   : 16
    <2e94>   DW_AT_encoding    : 4	(float)
    <2e95>   DW_AT_name        : (indirect string, offset: 0x86f): long double
 <1><2e99>: Abbrev Number: 4 (DW_TAG_base_type)
    <2e9a>   DW_AT_byte_size   : 8
    <2e9b>   DW_AT_encoding    : 7	(unsigned)
    <2e9c>   DW_AT_name        : (indirect string, offset: 0x8cc): long long unsigned int
 <1><2ea0>: Abbrev Number: 8 (DW_TAG_pointer_type)
    <2ea1>   DW_AT_byte_size   : 8
    <2ea2>   DW_AT_type        : <0x2ea6>
 <1><2ea6>: Abbrev Number: 15 (DW_TAG_const_type)
 <1><2ea7>: Abbrev Number: 2 (DW_TAG_typedef)
    <2ea8>   DW_AT_name        : (indirect string, offset: 0xe6c): uint8_t
    <2eac>   DW_AT_decl_file   : 6
    <2ead>   DW_AT_decl_line   : 24
    <2eae>   DW_AT_decl_column : 19
    <2eaf>   DW_AT_type        : <0x2c3b>
 <1><2eb3>: Abbrev Number: 2 (DW_TAG_typedef)
    <2eb4>   DW_AT_name        : (indirect string, offset: 0xb15): uintmax_t
    <2eb8>   DW_AT_decl_file   : 7
    <2eb9>   DW_AT_decl_line   : 102
    <2eba>   DW_AT_decl_column : 22
    <2ebb>   DW_AT_type        : <0x2c5c>
 <1><2ebf>: Abbrev Number: 16 (DW_TAG_enumeration_type)
    <2ec0>   DW_AT_encoding    : 7	(unsigned)
    <2ec1>   DW_AT_byte_size   : 4
    <2ec2>   DW_AT_type        : <0x2c18>
    <2ec6>   DW_AT_decl_file   : 9
    <2ec7>   DW_AT_decl_line   : 44
    <2ec8>   DW_AT_decl_column : 1
    <2ec9>   DW_AT_sibling     : <0x2f0b>
 <2><2ecd>: Abbrev Number: 17 (DW_TAG_enumerator)
    <2ece>   DW_AT_name        : (indirect string, offset: 0x10b0): human_ceiling
    <2ed2>   DW_AT_const_value : 0
 <2><2ed3>: Abbrev Number: 17 (DW_TAG_enumerator)
    <2ed4>   DW_AT_name        : (indirect string, offset: 0x1089): human_round_to_nearest
    <2ed8>   DW_AT_const_value : 1
 <2><2ed9>: Abbrev Number: 17 (DW_TAG_enumerator)
    <2eda>   DW_AT_name        : (indirect string, offset: 0x10be): human_floor
    <2ede>   DW_AT_const_value : 2
 <2><2edf>: Abbrev Number: 17 (DW_TAG_enumerator)
    <2ee0>   DW_AT_name        : (indirect string, offset: 0x10d4): human_group_digits
    <2ee4>   DW_AT_const_value : 4
 <2><2ee5>: Abbrev Number: 17 (DW_TAG_enumerator)
    <2ee6>   DW_AT_name        : (indirect string, offset: 0x111a): human_suppress_point_zero
    <2eea>   DW_AT_const_value : 8
 <2><2eeb>: Abbrev Number: 17 (DW_TAG_enumerator)
    <2eec>   DW_AT_name        : (indirect string, offset: 0x1070): human_autoscale
    <2ef0>   DW_AT_const_value : 16
 <2><2ef1>: Abbrev Number: 17 (DW_TAG_enumerator)
    <2ef2>   DW_AT_name        : (indirect string, offset: 0x10a0): human_base_1024
    <2ef6>   DW_AT_const_value : 32
 <2><2ef7>: Abbrev Number: 17 (DW_TAG_enumerator)
    <2ef8>   DW_AT_name        : (indirect string, offset: 0x10f6): human_space_before_unit
    <2efc>   DW_AT_const_value : 64
 <2><2efd>: Abbrev Number: 17 (DW_TAG_enumerator)
    <2efe>   DW_AT_name        : (indirect string, offset: 0x1080): human_SI
    <2f02>   DW_AT_const_value : 128
 <2><2f03>: Abbrev Number: 18 (DW_TAG_enumerator)
    <2f04>   DW_AT_name        : (indirect string, offset: 0x113d): human_B
    <2f08>   DW_AT_const_value : 256
 <2><2f0a>: Abbrev Number: 0
 <1><2f0b>: Abbrev Number: 8 (DW_TAG_pointer_type)
    <2f0c>   DW_AT_byte_size   : 8
    <2f0d>   DW_AT_type        : <0x2eb3>
 <1><2f11>: Abbrev Number: 19 (DW_TAG_subprogram)
    <2f12>   DW_AT_external    : 1
    <2f12>   DW_AT_name        : (indirect string, offset: 0x178): putchar_unlocked
    <2f16>   DW_AT_decl_file   : 8
    <2f17>   DW_AT_decl_line   : 546
    <2f19>   DW_AT_decl_column : 12
    <2f1a>   DW_AT_prototyped  : 1
    <2f1a>   DW_AT_type        : <0x2c4e>
    <2f1e>   DW_AT_declaration : 1
    <2f1e>   DW_AT_sibling     : <0x2f28>
 <2><2f22>: Abbrev Number: 20 (DW_TAG_formal_parameter)
    <2f23>   DW_AT_type        : <0x2c4e>
 <2><2f27>: Abbrev Number: 0
 <1><2f28>: Abbrev Number: 19 (DW_TAG_subprogram)
    <2f29>   DW_AT_external    : 1
    <2f29>   DW_AT_name        : (indirect string, offset: 0xa0e): printf
    <2f2d>   DW_AT_decl_file   : 8
    <2f2e>   DW_AT_decl_line   : 332
    <2f30>   DW_AT_decl_column : 12
    <2f31>   DW_AT_prototyped  : 1
    <2f31>   DW_AT_type        : <0x2c4e>
    <2f35>   DW_AT_declaration : 1
    <2f35>   DW_AT_sibling     : <0x2f40>
 <2><2f39>: Abbrev Number: 20 (DW_TAG_formal_parameter)
    <2f3a>   DW_AT_type        : <0x2e7a>
 <2><2f3e>: Abbrev Number: 21 (DW_TAG_unspecified_parameters)
 <2><2f3f>: Abbrev Number: 0
 <1><2f40>: Abbrev Number: 22 (DW_TAG_subprogram)
    <2f41>   DW_AT_external    : 1
    <2f41>   DW_AT_name        : (indirect string, offset: 0x10e7): human_readable
    <2f45>   DW_AT_decl_file   : 9
    <2f46>   DW_AT_decl_line   : 79
    <2f47>   DW_AT_decl_column : 7
    <2f48>   DW_AT_prototyped  : 1
    <2f48>   DW_AT_type        : <0x2c80>
    <2f4c>   DW_AT_declaration : 1
    <2f4c>   DW_AT_sibling     : <0x2f6a>
 <2><2f50>: Abbrev Number: 20 (DW_TAG_formal_parameter)
    <2f51>   DW_AT_type        : <0x2eb3>
 <2><2f55>: Abbrev Number: 20 (DW_TAG_formal_parameter)
    <2f56>   DW_AT_type        : <0x2c80>
 <2><2f5a>: Abbrev Number: 20 (DW_TAG_formal_parameter)
    <2f5b>   DW_AT_type        : <0x2c4e>
 <2><2f5f>: Abbrev Number: 20 (DW_TAG_formal_parameter)
    <2f60>   DW_AT_type        : <0x2eb3>
 <2><2f64>: Abbrev Number: 20 (DW_TAG_formal_parameter)
    <2f65>   DW_AT_type        : <0x2eb3>
 <2><2f69>: Abbrev Number: 0
 <1><2f6a>: Abbrev Number: 23 (DW_TAG_subprogram)
    <2f6b>   DW_AT_external    : 1
    <2f6b>   DW_AT_name        : (indirect string, offset: 0xb73): rpl_free
    <2f6f>   DW_AT_decl_file   : 10
    <2f70>   DW_AT_decl_line   : 739
    <2f72>   DW_AT_decl_column : 1
    <2f73>   DW_AT_prototyped  : 1
    <2f73>   DW_AT_declaration : 1
    <2f73>   DW_AT_sibling     : <0x2f7d>
 <2><2f77>: Abbrev Number: 20 (DW_TAG_formal_parameter)
    <2f78>   DW_AT_type        : <0x2c1f>
 <2><2f7c>: Abbrev Number: 0
 <1><2f7d>: Abbrev Number: 24 (DW_TAG_subprogram)
    <2f7e>   DW_AT_external    : 1
    <2f7e>   DW_AT_name        : (indirect string, offset: 0x3f8): __errno_location
    <2f82>   DW_AT_decl_file   : 11
    <2f83>   DW_AT_decl_line   : 37
    <2f84>   DW_AT_decl_column : 13
    <2f85>   DW_AT_prototyped  : 1
    <2f85>   DW_AT_type        : <0x2f89>
    <2f89>   DW_AT_declaration : 1
 <1><2f89>: Abbrev Number: 8 (DW_TAG_pointer_type)
    <2f8a>   DW_AT_byte_size   : 8
    <2f8b>   DW_AT_type        : <0x2c4e>
 <1><2f8f>: Abbrev Number: 19 (DW_TAG_subprogram)
    <2f90>   DW_AT_external    : 1
    <2f90>   DW_AT_name        : (indirect string, offset: 0x28c): feof_unlocked
    <2f94>   DW_AT_decl_file   : 8
    <2f95>   DW_AT_decl_line   : 766
    <2f97>   DW_AT_decl_column : 12
    <2f98>   DW_AT_prototyped  : 1
    <2f98>   DW_AT_type        : <0x2c4e>
    <2f9c>   DW_AT_declaration : 1
    <2f9c>   DW_AT_sibling     : <0x2fa6>
 <2><2fa0>: Abbrev Number: 20 (DW_TAG_formal_parameter)
    <2fa1>   DW_AT_type        : <0x2e80>
 <2><2fa5>: Abbrev Number: 0
 <1><2fa6>: Abbrev Number: 19 (DW_TAG_subprogram)
    <2fa7>   DW_AT_external    : 1
    <2fa7>   DW_AT_name        : (indirect string, offset: 0x83): ferror_unlocked
    <2fab>   DW_AT_decl_file   : 8
    <2fac>   DW_AT_decl_line   : 767
    <2fae>   DW_AT_decl_column : 12
    <2faf>   DW_AT_prototyped  : 1
    <2faf>   DW_AT_type        : <0x2c4e>
    <2fb3>   DW_AT_declaration : 1
    <2fb3>   DW_AT_sibling     : <0x2fbd>
 <2><2fb7>: Abbrev Number: 20 (DW_TAG_formal_parameter)
    <2fb8>   DW_AT_type        : <0x2e80>
 <2><2fbc>: Abbrev Number: 0
 <1><2fbd>: Abbrev Number: 19 (DW_TAG_subprogram)
    <2fbe>   DW_AT_external    : 1
    <2fbe>   DW_AT_name        : (indirect string, offset: 0x1061): fread_unlocked
    <2fc2>   DW_AT_decl_file   : 8
    <2fc3>   DW_AT_decl_line   : 673
    <2fc5>   DW_AT_decl_column : 15
    <2fc6>   DW_AT_prototyped  : 1
    <2fc6>   DW_AT_type        : <0x2c00>
    <2fca>   DW_AT_declaration : 1
    <2fca>   DW_AT_sibling     : <0x2fe3>
 <2><2fce>: Abbrev Number: 20 (DW_TAG_formal_parameter)
    <2fcf>   DW_AT_type        : <0x2c21>
 <2><2fd3>: Abbrev Number: 20 (DW_TAG_formal_parameter)
    <2fd4>   DW_AT_type        : <0x2c00>
 <2><2fd8>: Abbrev Number: 20 (DW_TAG_formal_parameter)
    <2fd9>   DW_AT_type        : <0x2c00>
 <2><2fdd>: Abbrev Number: 20 (DW_TAG_formal_parameter)
    <2fde>   DW_AT_type        : <0x2e86>
 <2><2fe2>: Abbrev Number: 0
 <1><2fe3>: Abbrev Number: 19 (DW_TAG_subprogram)
    <2fe4>   DW_AT_external    : 1
    <2fe4>   DW_AT_name        : (indirect string, offset: 0x2352): malloc
    <2fe8>   DW_AT_decl_file   : 10
    <2fe9>   DW_AT_decl_line   : 1044
    <2feb>   DW_AT_decl_column : 1
    <2fec>   DW_AT_prototyped  : 1
    <2fec>   DW_AT_type        : <0x2c1f>
    <2ff0>   DW_AT_declaration : 1
    <2ff0>   DW_AT_sibling     : <0x2ffa>
 <2><2ff4>: Abbrev Number: 20 (DW_TAG_formal_parameter)
    <2ff5>   DW_AT_type        : <0x2c00>
 <2><2ff9>: Abbrev Number: 0
 <1><2ffa>: Abbrev Number: 25 (DW_TAG_subprogram)
    <2ffb>   DW_AT_external    : 1
    <2ffb>   DW_AT_name        : (indirect string, offset: 0xb34): output_sysv
    <2fff>   DW_AT_decl_file   : 1
    <3000>   DW_AT_decl_line   : 203
    <3001>   DW_AT_decl_column : 1
    <3002>   DW_AT_prototyped  : 1
    <3002>   DW_AT_low_pc      : 0xb7f5
    <300a>   DW_AT_high_pc     : 0xe1
    <3012>   DW_AT_frame_base  : 1 byte block: 9c 	(DW_OP_call_frame_cfa)
    <3014>   DW_AT_GNU_all_tail_call_sites: 1
    <3014>   DW_AT_sibling     : <0x3098>
 <2><3018>: Abbrev Number: 26 (DW_TAG_formal_parameter)
    <3019>   DW_AT_name        : (indirect string, offset: 0xc78): file
    <301d>   DW_AT_decl_file   : 1
    <301e>   DW_AT_decl_line   : 203
    <301f>   DW_AT_decl_column : 26
    <3020>   DW_AT_type        : <0x2e7a>
    <3024>   DW_AT_location    : 3 byte block: 91 c8 7a 	(DW_OP_fbreg: -696)
 <2><3028>: Abbrev Number: 26 (DW_TAG_formal_parameter)
    <3029>   DW_AT_name        : (indirect string, offset: 0xae): binary_file
    <302d>   DW_AT_decl_file   : 1
    <302e>   DW_AT_decl_line   : 203
    <302f>   DW_AT_decl_column : 36
    <3030>   DW_AT_type        : <0x2c4e>
    <3034>   DW_AT_location    : 3 byte block: 91 c4 7a 	(DW_OP_fbreg: -700)
 <2><3038>: Abbrev Number: 26 (DW_TAG_formal_parameter)
    <3039>   DW_AT_name        : (indirect string, offset: 0xdd): digest
    <303d>   DW_AT_decl_file   : 1
    <303e>   DW_AT_decl_line   : 203
    <303f>   DW_AT_decl_column : 61
    <3040>   DW_AT_type        : <0x2ea0>
    <3044>   DW_AT_location    : 3 byte block: 91 b8 7a 	(DW_OP_fbreg: -712)
 <2><3048>: Abbrev Number: 26 (DW_TAG_formal_parameter)
    <3049>   DW_AT_name        : (indirect string, offset: 0xb26): tagged
    <304d>   DW_AT_decl_file   : 1
    <304e>   DW_AT_decl_line   : 204
    <304f>   DW_AT_decl_column : 19
    <3050>   DW_AT_type        : <0x3098>
    <3054>   DW_AT_location    : 3 byte block: 91 c0 7a 	(DW_OP_fbreg: -704)
 <2><3058>: Abbrev Number: 26 (DW_TAG_formal_parameter)
    <3059>   DW_AT_name        : (indirect string, offset: 0x158): delim
    <305d>   DW_AT_decl_file   : 1
    <305e>   DW_AT_decl_line   : 204
    <305f>   DW_AT_decl_column : 41
    <3060>   DW_AT_type        : <0x2c26>
    <3064>   DW_AT_location    : 3 byte block: 91 b4 7a 	(DW_OP_fbreg: -716)
 <2><3068>: Abbrev Number: 26 (DW_TAG_formal_parameter)
    <3069>   DW_AT_name        : (indirect string, offset: 0x1fec): args
    <306d>   DW_AT_decl_file   : 1
    <306e>   DW_AT_decl_line   : 204
    <306f>   DW_AT_decl_column : 53
    <3070>   DW_AT_type        : <0x3098>
    <3074>   DW_AT_location    : 3 byte block: 91 b0 7a 	(DW_OP_fbreg: -720)
 <2><3078>: Abbrev Number: 26 (DW_TAG_formal_parameter)
    <3079>   DW_AT_name        : (indirect string, offset: 0x91c): length
    <307d>   DW_AT_decl_file   : 1
    <307e>   DW_AT_decl_line   : 205
    <307f>   DW_AT_decl_column : 24
    <3080>   DW_AT_type        : <0x2eb3>
    <3084>   DW_AT_location    : 2 byte block: 91 0 	(DW_OP_fbreg: 0)
 <2><3087>: Abbrev Number: 27 (DW_TAG_variable)
    <3088>   DW_AT_name        : (indirect string, offset: 0x1145): hbuf
    <308c>   DW_AT_decl_file   : 1
    <308d>   DW_AT_decl_line   : 208
    <308e>   DW_AT_decl_column : 8
    <308f>   DW_AT_type        : <0x309f>
    <3093>   DW_AT_location    : 3 byte block: 91 d0 7a 	(DW_OP_fbreg: -688)
 <2><3097>: Abbrev Number: 0
 <1><3098>: Abbrev Number: 4 (DW_TAG_base_type)
    <3099>   DW_AT_byte_size   : 1
    <309a>   DW_AT_encoding    : 2	(boolean)
    <309b>   DW_AT_name        : (indirect string, offset: 0x36e): _Bool
 <1><309f>: Abbrev Number: 13 (DW_TAG_array_type)
    <30a0>   DW_AT_type        : <0x2c86>
    <30a4>   DW_AT_sibling     : <0x30b0>
 <2><30a8>: Abbrev Number: 28 (DW_TAG_subrange_type)
    <30a9>   DW_AT_type        : <0x2c11>
    <30ad>   DW_AT_upper_bound : 651
 <2><30af>: Abbrev Number: 0
 <1><30b0>: Abbrev Number: 25 (DW_TAG_subprogram)
    <30b1>   DW_AT_external    : 1
    <30b1>   DW_AT_name        : (indirect string, offset: 0x571): output_bsd
    <30b5>   DW_AT_decl_file   : 1
    <30b6>   DW_AT_decl_line   : 186
    <30b7>   DW_AT_decl_column : 1
    <30b8>   DW_AT_prototyped  : 1
    <30b8>   DW_AT_low_pc      : 0xb714
    <30c0>   DW_AT_high_pc     : 0xe1
    <30c8>   DW_AT_frame_base  : 1 byte block: 9c 	(DW_OP_call_frame_cfa)
    <30ca>   DW_AT_GNU_all_tail_call_sites: 1
    <30ca>   DW_AT_sibling     : <0x314e>
 <2><30ce>: Abbrev Number: 26 (DW_TAG_formal_parameter)
    <30cf>   DW_AT_name        : (indirect string, offset: 0xc78): file
    <30d3>   DW_AT_decl_file   : 1
    <30d4>   DW_AT_decl_line   : 186
    <30d5>   DW_AT_decl_column : 25
    <30d6>   DW_AT_type        : <0x2e7a>
    <30da>   DW_AT_location    : 3 byte block: 91 c8 7a 	(DW_OP_fbreg: -696)
 <2><30de>: Abbrev Number: 26 (DW_TAG_formal_parameter)
    <30df>   DW_AT_name        : (indirect string, offset: 0xae): binary_file
    <30e3>   DW_AT_decl_file   : 1
    <30e4>   DW_AT_decl_line   : 186
    <30e5>   DW_AT_decl_column : 35
    <30e6>   DW_AT_type        : <0x2c4e>
    <30ea>   DW_AT_location    : 3 byte block: 91 c4 7a 	(DW_OP_fbreg: -700)
 <2><30ee>: Abbrev Number: 26 (DW_TAG_formal_parameter)
    <30ef>   DW_AT_name        : (indirect string, offset: 0xdd): digest
    <30f3>   DW_AT_decl_file   : 1
    <30f4>   DW_AT_decl_line   : 186
    <30f5>   DW_AT_decl_column : 60
    <30f6>   DW_AT_type        : <0x2ea0>
    <30fa>   DW_AT_location    : 3 byte block: 91 b8 7a 	(DW_OP_fbreg: -712)
 <2><30fe>: Abbrev Number: 26 (DW_TAG_formal_parameter)
    <30ff>   DW_AT_name        : (indirect string, offset: 0xb26): tagged
    <3103>   DW_AT_decl_file   : 1
    <3104>   DW_AT_decl_line   : 187
    <3105>   DW_AT_decl_column : 18
    <3106>   DW_AT_type        : <0x3098>
    <310a>   DW_AT_location    : 3 byte block: 91 c0 7a 	(DW_OP_fbreg: -704)
 <2><310e>: Abbrev Number: 26 (DW_TAG_formal_parameter)
    <310f>   DW_AT_name        : (indirect string, offset: 0x158): delim
    <3113>   DW_AT_decl_file   : 1
    <3114>   DW_AT_decl_line   : 187
    <3115>   DW_AT_decl_column : 40
    <3116>   DW_AT_type        : <0x2c26>
    <311a>   DW_AT_location    : 3 byte block: 91 b4 7a 	(DW_OP_fbreg: -716)
 <2><311e>: Abbrev Number: 26 (DW_TAG_formal_parameter)
    <311f>   DW_AT_name        : (indirect string, offset: 0x1fec): args
    <3123>   DW_AT_decl_file   : 1
    <3124>   DW_AT_decl_line   : 187
    <3125>   DW_AT_decl_column : 52
    <3126>   DW_AT_type        : <0x3098>
    <312a>   DW_AT_location    : 3 byte block: 91 b0 7a 	(DW_OP_fbreg: -720)
 <2><312e>: Abbrev Number: 26 (DW_TAG_formal_parameter)
    <312f>   DW_AT_name        : (indirect string, offset: 0x91c): length
    <3133>   DW_AT_decl_file   : 1
    <3134>   DW_AT_decl_line   : 188
    <3135>   DW_AT_decl_column : 23
    <3136>   DW_AT_type        : <0x2eb3>
    <313a>   DW_AT_location    : 2 byte block: 91 0 	(DW_OP_fbreg: 0)
 <2><313d>: Abbrev Number: 27 (DW_TAG_variable)
    <313e>   DW_AT_name        : (indirect string, offset: 0x1145): hbuf
    <3142>   DW_AT_decl_file   : 1
    <3143>   DW_AT_decl_line   : 191
    <3144>   DW_AT_decl_column : 8
    <3145>   DW_AT_type        : <0x309f>
    <3149>   DW_AT_location    : 3 byte block: 91 d0 7a 	(DW_OP_fbreg: -688)
 <2><314d>: Abbrev Number: 0
 <1><314e>: Abbrev Number: 29 (DW_TAG_subprogram)
    <314f>   DW_AT_external    : 1
    <314f>   DW_AT_name        : (indirect string, offset: 0x96f): sysv_sum_stream
    <3153>   DW_AT_decl_file   : 1
    <3154>   DW_AT_decl_line   : 111
    <3155>   DW_AT_decl_column : 1
    <3156>   DW_AT_prototyped  : 1
    <3156>   DW_AT_type        : <0x2c4e>
    <315a>   DW_AT_low_pc      : 0xb524
    <3162>   DW_AT_high_pc     : 0x1f0
    <316a>   DW_AT_frame_base  : 1 byte block: 9c 	(DW_OP_call_frame_cfa)
    <316c>   DW_AT_GNU_all_tail_call_sites: 1
    <316c>   DW_AT_sibling     : <0x3290>
 <2><3170>: Abbrev Number: 26 (DW_TAG_formal_parameter)
    <3171>   DW_AT_name        : (indirect string, offset: 0x691): stream
    <3175>   DW_AT_decl_file   : 1
    <3176>   DW_AT_decl_line   : 111
    <3177>   DW_AT_decl_column : 24
    <3178>   DW_AT_type        : <0x2e80>
    <317c>   DW_AT_location    : 3 byte block: 91 98 7f 	(DW_OP_fbreg: -104)
 <2><3180>: Abbrev Number: 26 (DW_TAG_formal_parameter)
    <3181>   DW_AT_name        : (indirect string, offset: 0x8c2): resstream
    <3185>   DW_AT_decl_file   : 1
    <3186>   DW_AT_decl_line   : 111
    <3187>   DW_AT_decl_column : 38
    <3188>   DW_AT_type        : <0x2c1f>
    <318c>   DW_AT_location    : 3 byte block: 91 90 7f 	(DW_OP_fbreg: -112)
 <2><3190>: Abbrev Number: 26 (DW_TAG_formal_parameter)
    <3191>   DW_AT_name        : (indirect string, offset: 0x91c): length
    <3195>   DW_AT_decl_file   : 1
    <3196>   DW_AT_decl_line   : 111
    <3197>   DW_AT_decl_column : 60
    <3198>   DW_AT_type        : <0x2f0b>
    <319c>   DW_AT_location    : 3 byte block: 91 88 7f 	(DW_OP_fbreg: -120)
 <2><31a0>: Abbrev Number: 30 (DW_TAG_variable)
    <31a1>   DW_AT_name        : ret
    <31a5>   DW_AT_decl_file   : 1
    <31a6>   DW_AT_decl_line   : 113
    <31a7>   DW_AT_decl_column : 7
    <31a8>   DW_AT_type        : <0x2c4e>
    <31ac>   DW_AT_location    : 3 byte block: 91 ac 7f 	(DW_OP_fbreg: -84)
 <2><31b0>: Abbrev Number: 30 (DW_TAG_variable)
    <31b1>   DW_AT_name        : sum
    <31b5>   DW_AT_decl_file   : 1
    <31b6>   DW_AT_decl_line   : 114
    <31b7>   DW_AT_decl_column : 10
    <31b8>   DW_AT_type        : <0x2c00>
    <31bc>   DW_AT_location    : 3 byte block: 91 b8 7f 	(DW_OP_fbreg: -72)
 <2><31c0>: Abbrev Number: 30 (DW_TAG_variable)
    <31c1>   DW_AT_name        : n
    <31c3>   DW_AT_decl_file   : 1
    <31c4>   DW_AT_decl_line   : 114
    <31c5>   DW_AT_decl_column : 15
    <31c6>   DW_AT_type        : <0x2c00>
    <31ca>   DW_AT_location    : 2 byte block: 91 60 	(DW_OP_fbreg: -32)
 <2><31cd>: Abbrev Number: 27 (DW_TAG_variable)
    <31ce>   DW_AT_name        : (indirect string, offset: 0x110e): total_bytes
    <31d2>   DW_AT_decl_file   : 1
    <31d3>   DW_AT_decl_line   : 115
    <31d4>   DW_AT_decl_column : 13
    <31d5>   DW_AT_type        : <0x2eb3>
    <31d9>   DW_AT_location    : 2 byte block: 91 40 	(DW_OP_fbreg: -64)
 <2><31dc>: Abbrev Number: 27 (DW_TAG_variable)
    <31dd>   DW_AT_name        : (indirect string, offset: 0x1024): buffer_length
    <31e1>   DW_AT_decl_file   : 1
    <31e2>   DW_AT_decl_line   : 116
    <31e3>   DW_AT_decl_column : 23
    <31e4>   DW_AT_type        : <0x2c0c>
    <31e8>   DW_AT_location    : 9 byte block: 3 e8 81 2 0 0 0 0 0 	(DW_OP_addr: 281e8)
 <2><31f2>: Abbrev Number: 27 (DW_TAG_variable)
    <31f3>   DW_AT_name        : (indirect string, offset: 0x157c): buffer
    <31f7>   DW_AT_decl_file   : 1
    <31f8>   DW_AT_decl_line   : 117
    <31f9>   DW_AT_decl_column : 12
    <31fa>   DW_AT_type        : <0x3290>
    <31fe>   DW_AT_location    : 2 byte block: 91 58 	(DW_OP_fbreg: -40)
 <2><3201>: Abbrev Number: 30 (DW_TAG_variable)
    <3202>   DW_AT_name        : s
    <3204>   DW_AT_decl_file   : 1
    <3205>   DW_AT_decl_line   : 123
    <3206>   DW_AT_decl_column : 16
    <3207>   DW_AT_type        : <0x2c18>
    <320b>   DW_AT_location    : 3 byte block: 91 b0 7f 	(DW_OP_fbreg: -80)
 <2><320f>: Abbrev Number: 31 (DW_TAG_label)
    <3210>   DW_AT_name        : (indirect string, offset: 0x1045): cleanup_buffer
    <3214>   DW_AT_decl_file   : 1
    <3215>   DW_AT_decl_line   : 177
    <3216>   DW_AT_decl_column : 1
    <3217>   DW_AT_low_pc      : 0xb6ef
 <2><321f>: Abbrev Number: 31 (DW_TAG_label)
    <3220>   DW_AT_name        : (indirect string, offset: 0x1037): final_process
    <3224>   DW_AT_decl_file   : 1
    <3225>   DW_AT_decl_line   : 160
    <3226>   DW_AT_decl_column : 1
    <3227>   DW_AT_low_pc      : 0xb65f
 <2><322f>: Abbrev Number: 30 (DW_TAG_variable)
    <3230>   DW_AT_name        : r
    <3232>   DW_AT_decl_file   : 1
    <3233>   DW_AT_decl_line   : 171
    <3234>   DW_AT_decl_column : 7
    <3235>   DW_AT_type        : <0x2c4e>
    <3239>   DW_AT_location    : 3 byte block: 91 b4 7f 	(DW_OP_fbreg: -76)
 <2><323d>: Abbrev Number: 27 (DW_TAG_variable)
    <323e>   DW_AT_name        : (indirect string, offset: 0x1134): checksum
    <3242>   DW_AT_decl_file   : 1
    <3243>   DW_AT_decl_line   : 172
    <3244>   DW_AT_decl_column : 7
    <3245>   DW_AT_type        : <0x2c4e>
    <3249>   DW_AT_location    : 3 byte block: 91 a8 7f 	(DW_OP_fbreg: -88)
 <2><324d>: Abbrev Number: 32 (DW_TAG_lexical_block)
    <324e>   DW_AT_low_pc      : 0xb600
    <3256>   DW_AT_high_pc     : 0x2d
    <325e>   DW_AT_sibling     : <0x3270>
 <3><3262>: Abbrev Number: 30 (DW_TAG_variable)
    <3263>   DW_AT_name        : i
    <3265>   DW_AT_decl_file   : 1
    <3266>   DW_AT_decl_line   : 150
    <3267>   DW_AT_decl_column : 17
    <3268>   DW_AT_type        : <0x2c00>
    <326c>   DW_AT_location    : 2 byte block: 91 48 	(DW_OP_fbreg: -56)
 <3><326f>: Abbrev Number: 0
 <2><3270>: Abbrev Number: 33 (DW_TAG_lexical_block)
    <3271>   DW_AT_low_pc      : 0xb65f
    <3279>   DW_AT_high_pc     : 0x2d
 <3><3281>: Abbrev Number: 30 (DW_TAG_variable)
    <3282>   DW_AT_name        : i
    <3284>   DW_AT_decl_file   : 1
    <3285>   DW_AT_decl_line   : 162
    <3286>   DW_AT_decl_column : 15
    <3287>   DW_AT_type        : <0x2c00>
    <328b>   DW_AT_location    : 2 byte block: 91 50 	(DW_OP_fbreg: -48)
 <3><328e>: Abbrev Number: 0
 <2><328f>: Abbrev Number: 0
 <1><3290>: Abbrev Number: 8 (DW_TAG_pointer_type)
    <3291>   DW_AT_byte_size   : 8
    <3292>   DW_AT_type        : <0x2ea7>
 <1><3296>: Abbrev Number: 34 (DW_TAG_subprogram)
    <3297>   DW_AT_external    : 1
    <3297>   DW_AT_name        : (indirect string, offset: 0x134): bsd_sum_stream
    <329b>   DW_AT_decl_file   : 1
    <329c>   DW_AT_decl_line   : 33
    <329d>   DW_AT_decl_column : 1
    <329e>   DW_AT_prototyped  : 1
    <329e>   DW_AT_type        : <0x2c4e>
    <32a2>   DW_AT_low_pc      : 0xb308
    <32aa>   DW_AT_high_pc     : 0x21c
    <32b2>   DW_AT_frame_base  : 1 byte block: 9c 	(DW_OP_call_frame_cfa)
    <32b4>   DW_AT_GNU_all_tail_call_sites: 1
 <2><32b4>: Abbrev Number: 26 (DW_TAG_formal_parameter)
    <32b5>   DW_AT_name        : (indirect string, offset: 0x691): stream
    <32b9>   DW_AT_decl_file   : 1
    <32ba>   DW_AT_decl_line   : 33
    <32bb>   DW_AT_decl_column : 23
    <32bc>   DW_AT_type        : <0x2e80>
    <32c0>   DW_AT_location    : 3 byte block: 91 a8 7f 	(DW_OP_fbreg: -88)
 <2><32c4>: Abbrev Number: 26 (DW_TAG_formal_parameter)
    <32c5>   DW_AT_name        : (indirect string, offset: 0x8c2): resstream
    <32c9>   DW_AT_decl_file   : 1
    <32ca>   DW_AT_decl_line   : 33
    <32cb>   DW_AT_decl_column : 37
    <32cc>   DW_AT_type        : <0x2c1f>
    <32d0>   DW_AT_location    : 3 byte block: 91 a0 7f 	(DW_OP_fbreg: -96)
 <2><32d4>: Abbrev Number: 26 (DW_TAG_formal_parameter)
    <32d5>   DW_AT_name        : (indirect string, offset: 0x91c): length
    <32d9>   DW_AT_decl_file   : 1
    <32da>   DW_AT_decl_line   : 33
    <32db>   DW_AT_decl_column : 59
    <32dc>   DW_AT_type        : <0x2f0b>
    <32e0>   DW_AT_location    : 3 byte block: 91 98 7f 	(DW_OP_fbreg: -104)
 <2><32e4>: Abbrev Number: 30 (DW_TAG_variable)
    <32e5>   DW_AT_name        : ret
    <32e9>   DW_AT_decl_file   : 1
    <32ea>   DW_AT_decl_line   : 35
    <32eb>   DW_AT_decl_column : 7
    <32ec>   DW_AT_type        : <0x2c4e>
    <32f0>   DW_AT_location    : 3 byte block: 91 b4 7f 	(DW_OP_fbreg: -76)
 <2><32f4>: Abbrev Number: 30 (DW_TAG_variable)
    <32f5>   DW_AT_name        : sum
    <32f9>   DW_AT_decl_file   : 1
    <32fa>   DW_AT_decl_line   : 36
    <32fb>   DW_AT_decl_column : 10
    <32fc>   DW_AT_type        : <0x2c00>
    <3300>   DW_AT_location    : 3 byte block: 91 b8 7f 	(DW_OP_fbreg: -72)
 <2><3304>: Abbrev Number: 30 (DW_TAG_variable)
    <3305>   DW_AT_name        : n
    <3307>   DW_AT_decl_file   : 1
    <3308>   DW_AT_decl_line   : 36
    <3309>   DW_AT_decl_column : 15
    <330a>   DW_AT_type        : <0x2c00>
    <330e>   DW_AT_location    : 2 byte block: 91 60 	(DW_OP_fbreg: -32)
 <2><3311>: Abbrev Number: 27 (DW_TAG_variable)
    <3312>   DW_AT_name        : (indirect string, offset: 0x1134): checksum
    <3316>   DW_AT_decl_file   : 1
    <3317>   DW_AT_decl_line   : 37
    <3318>   DW_AT_decl_column : 7
    <3319>   DW_AT_type        : <0x2c4e>
    <331d>   DW_AT_location    : 3 byte block: 91 b0 7f 	(DW_OP_fbreg: -80)
 <2><3321>: Abbrev Number: 27 (DW_TAG_variable)
    <3322>   DW_AT_name        : (indirect string, offset: 0x110e): total_bytes
    <3326>   DW_AT_decl_file   : 1
    <3327>   DW_AT_decl_line   : 38
    <3328>   DW_AT_decl_column : 13
    <3329>   DW_AT_type        : <0x2eb3>
    <332d>   DW_AT_location    : 2 byte block: 91 40 	(DW_OP_fbreg: -64)
 <2><3330>: Abbrev Number: 27 (DW_TAG_variable)
    <3331>   DW_AT_name        : (indirect string, offset: 0x1024): buffer_length
    <3335>   DW_AT_decl_file   : 1
    <3336>   DW_AT_decl_line   : 39
    <3337>   DW_AT_decl_column : 23
    <3338>   DW_AT_type        : <0x2c0c>
    <333c>   DW_AT_location    : 9 byte block: 3 e0 81 2 0 0 0 0 0 	(DW_OP_addr: 281e0)
 <2><3346>: Abbrev Number: 27 (DW_TAG_variable)
    <3347>   DW_AT_name        : (indirect string, offset: 0x157c): buffer
    <334b>   DW_AT_decl_file   : 1
    <334c>   DW_AT_decl_line   : 40
    <334d>   DW_AT_decl_column : 12
    <334e>   DW_AT_type        : <0x3290>
    <3352>   DW_AT_location    : 2 byte block: 91 58 	(DW_OP_fbreg: -40)
 <2><3355>: Abbrev Number: 31 (DW_TAG_label)
    <3356>   DW_AT_name        : (indirect string, offset: 0x1045): cleanup_buffer
    <335a>   DW_AT_decl_file   : 1
    <335b>   DW_AT_decl_line   : 102
    <335c>   DW_AT_decl_column : 1
    <335d>   DW_AT_low_pc      : 0xb4ff
 <2><3365>: Abbrev Number: 31 (DW_TAG_label)
    <3366>   DW_AT_name        : (indirect string, offset: 0x1037): final_process
    <336a>   DW_AT_decl_file   : 1
    <336b>   DW_AT_decl_line   : 84
    <336c>   DW_AT_decl_column : 1
    <336d>   DW_AT_low_pc      : 0xb46e
 <2><3375>: Abbrev Number: 32 (DW_TAG_lexical_block)
    <3376>   DW_AT_low_pc      : 0xb3ec
    <337e>   DW_AT_high_pc     : 0x50
    <3386>   DW_AT_sibling     : <0x3398>
 <3><338a>: Abbrev Number: 30 (DW_TAG_variable)
    <338b>   DW_AT_name        : i
    <338d>   DW_AT_decl_file   : 1
    <338e>   DW_AT_decl_line   : 70
    <338f>   DW_AT_decl_column : 17
    <3390>   DW_AT_type        : <0x2c00>
    <3394>   DW_AT_location    : 2 byte block: 91 48 	(DW_OP_fbreg: -56)
 <3><3397>: Abbrev Number: 0
 <2><3398>: Abbrev Number: 33 (DW_TAG_lexical_block)
    <3399>   DW_AT_low_pc      : 0xb46e
    <33a1>   DW_AT_high_pc     : 0x50
 <3><33a9>: Abbrev Number: 30 (DW_TAG_variable)
    <33aa>   DW_AT_name        : i
    <33ac>   DW_AT_decl_file   : 1
    <33ad>   DW_AT_decl_line   : 86
    <33ae>   DW_AT_decl_column : 15
    <33af>   DW_AT_type        : <0x2c00>
    <33b3>   DW_AT_location    : 2 byte block: 91 50 	(DW_OP_fbreg: -48)
 <3><33b6>: Abbrev Number: 0
 <2><33b7>: Abbrev Number: 0
 <1><33b8>: Abbrev Number: 0
  Compilation Unit @ offset 0x33b9:
   Length:        0x8a7 (32-bit)
   Version:       4
   Abbrev Offset: 0x913
   Pointer Size:  8
 <0><33c4>: Abbrev Number: 1 (DW_TAG_compile_unit)
    <33c5>   DW_AT_producer    : (indirect string, offset: 0x2c7): GNU C17 11.1.0 -mtune=generic -march=x86-64 -g -O0 -fasynchronous-unwind-tables -fstack-protector-strong -fstack-clash-protection -fcf-protection
    <33c9>   DW_AT_language    : 12	(ANSI C99)
    <33ca>   DW_AT_name        : (indirect string, offset: 0x117c): src/cksum.c
    <33ce>   DW_AT_comp_dir    : (indirect string, offset: 0xa27): /home/jacekline/dev/research/programs/coreutils-9.1
    <33d2>   DW_AT_low_pc      : 0xb8d6
    <33da>   DW_AT_high_pc     : 0x7a3
    <33e2>   DW_AT_stmt_list   : 0x1877
 <1><33e6>: Abbrev Number: 2 (DW_TAG_typedef)
    <33e7>   DW_AT_name        : (indirect string, offset: 0x70): size_t
    <33eb>   DW_AT_decl_file   : 4
    <33ec>   DW_AT_decl_line   : 209
    <33ed>   DW_AT_decl_column : 23
    <33ee>   DW_AT_type        : <0x33f2>
 <1><33f2>: Abbrev Number: 3 (DW_TAG_base_type)
    <33f3>   DW_AT_byte_size   : 8
    <33f4>   DW_AT_encoding    : 7	(unsigned)
    <33f5>   DW_AT_name        : (indirect string, offset: 0x8d1): long unsigned int
 <1><33f9>: Abbrev Number: 3 (DW_TAG_base_type)
    <33fa>   DW_AT_byte_size   : 4
    <33fb>   DW_AT_encoding    : 7	(unsigned)
    <33fc>   DW_AT_name        : (indirect string, offset: 0x8d6): unsigned int
 <1><3400>: Abbrev Number: 4 (DW_TAG_pointer_type)
    <3401>   DW_AT_byte_size   : 8
 <1><3402>: Abbrev Number: 5 (DW_TAG_restrict_type)
    <3403>   DW_AT_type        : <0x3400>
 <1><3407>: Abbrev Number: 3 (DW_TAG_base_type)
    <3408>   DW_AT_byte_size   : 1
    <3409>   DW_AT_encoding    : 8	(unsigned char)
    <340a>   DW_AT_name        : (indirect string, offset: 0x251): unsigned char
 <1><340e>: Abbrev Number: 3 (DW_TAG_base_type)
    <340f>   DW_AT_byte_size   : 2
    <3410>   DW_AT_encoding    : 7	(unsigned)
    <3411>   DW_AT_name        : (indirect string, offset: 0xbd5): short unsigned int
 <1><3415>: Abbrev Number: 3 (DW_TAG_base_type)
    <3416>   DW_AT_byte_size   : 1
    <3417>   DW_AT_encoding    : 6	(signed char)
    <3418>   DW_AT_name        : (indirect string, offset: 0x253): signed char
 <1><341c>: Abbrev Number: 3 (DW_TAG_base_type)
    <341d>   DW_AT_byte_size   : 2
    <341e>   DW_AT_encoding    : 5	(signed)
    <341f>   DW_AT_name        : (indirect string, offset: 0xa6c): short int
 <1><3423>: Abbrev Number: 6 (DW_TAG_base_type)
    <3424>   DW_AT_byte_size   : 4
    <3425>   DW_AT_encoding    : 5	(signed)
    <3426>   DW_AT_name        : int
 <1><342a>: Abbrev Number: 2 (DW_TAG_typedef)
    <342b>   DW_AT_name        : (indirect string, offset: 0xf7d): __uint32_t
    <342f>   DW_AT_decl_file   : 5
    <3430>   DW_AT_decl_line   : 42
    <3431>   DW_AT_decl_column : 22
    <3432>   DW_AT_type        : <0x33f9>
 <1><3436>: Abbrev Number: 3 (DW_TAG_base_type)
    <3437>   DW_AT_byte_size   : 8
    <3438>   DW_AT_encoding    : 5	(signed)
    <3439>   DW_AT_name        : (indirect string, offset: 0x6bd): long int
 <1><343d>: Abbrev Number: 2 (DW_TAG_typedef)
    <343e>   DW_AT_name        : (indirect string, offset: 0xb13): __uintmax_t
    <3442>   DW_AT_decl_file   : 5
    <3443>   DW_AT_decl_line   : 73
    <3444>   DW_AT_decl_column : 27
    <3445>   DW_AT_type        : <0x33f2>
 <1><3449>: Abbrev Number: 2 (DW_TAG_typedef)
    <344a>   DW_AT_name        : (indirect string, offset: 0x904): __off_t
    <344e>   DW_AT_decl_file   : 5
    <344f>   DW_AT_decl_line   : 152
    <3450>   DW_AT_decl_column : 25
    <3451>   DW_AT_type        : <0x3436>
 <1><3455>: Abbrev Number: 2 (DW_TAG_typedef)
    <3456>   DW_AT_name        : (indirect string, offset: 0x9e8): __off64_t
    <345a>   DW_AT_decl_file   : 5
    <345b>   DW_AT_decl_line   : 153
    <345c>   DW_AT_decl_column : 27
    <345d>   DW_AT_type        : <0x3436>
 <1><3461>: Abbrev Number: 2 (DW_TAG_typedef)
    <3462>   DW_AT_name        : (indirect string, offset: 0x97f): __time_t
    <3466>   DW_AT_decl_file   : 5
    <3467>   DW_AT_decl_line   : 160
    <3468>   DW_AT_decl_column : 26
    <3469>   DW_AT_type        : <0x3436>
 <1><346d>: Abbrev Number: 7 (DW_TAG_pointer_type)
    <346e>   DW_AT_byte_size   : 8
    <346f>   DW_AT_type        : <0x3473>
 <1><3473>: Abbrev Number: 3 (DW_TAG_base_type)
    <3474>   DW_AT_byte_size   : 1
    <3475>   DW_AT_encoding    : 6	(signed char)
    <3476>   DW_AT_name        : (indirect string, offset: 0x25a): char
 <1><347a>: Abbrev Number: 8 (DW_TAG_const_type)
    <347b>   DW_AT_type        : <0x3473>
 <1><347f>: Abbrev Number: 9 (DW_TAG_structure_type)
    <3480>   DW_AT_name        : (indirect string, offset: 0x225): _IO_FILE
    <3484>   DW_AT_byte_size   : 216
    <3485>   DW_AT_decl_file   : 6
    <3486>   DW_AT_decl_line   : 49
    <3487>   DW_AT_decl_column : 8
    <3488>   DW_AT_sibling     : <0x3606>
 <2><348c>: Abbrev Number: 10 (DW_TAG_member)
    <348d>   DW_AT_name        : (indirect string, offset: 0x1e86): _flags
    <3491>   DW_AT_decl_file   : 6
    <3492>   DW_AT_decl_line   : 51
    <3493>   DW_AT_decl_column : 7
    <3494>   DW_AT_type        : <0x3423>
    <3498>   DW_AT_data_member_location: 0
 <2><3499>: Abbrev Number: 10 (DW_TAG_member)
    <349a>   DW_AT_name        : (indirect string, offset: 0x462): _IO_read_ptr
    <349e>   DW_AT_decl_file   : 6
    <349f>   DW_AT_decl_line   : 54
    <34a0>   DW_AT_decl_column : 9
    <34a1>   DW_AT_type        : <0x346d>
    <34a5>   DW_AT_data_member_location: 8
 <2><34a6>: Abbrev Number: 10 (DW_TAG_member)
    <34a7>   DW_AT_name        : (indirect string, offset: 0xb53): _IO_read_end
    <34ab>   DW_AT_decl_file   : 6
    <34ac>   DW_AT_decl_line   : 55
    <34ad>   DW_AT_decl_column : 9
    <34ae>   DW_AT_type        : <0x346d>
    <34b2>   DW_AT_data_member_location: 16
 <2><34b3>: Abbrev Number: 10 (DW_TAG_member)
    <34b4>   DW_AT_name        : (indirect string, offset: 0x5f9): _IO_read_base
    <34b8>   DW_AT_decl_file   : 6
    <34b9>   DW_AT_decl_line   : 56
    <34ba>   DW_AT_decl_column : 9
    <34bb>   DW_AT_type        : <0x346d>
    <34bf>   DW_AT_data_member_location: 24
 <2><34c0>: Abbrev Number: 10 (DW_TAG_member)
    <34c1>   DW_AT_name        : (indirect string, offset: 0xe4): _IO_write_base
    <34c5>   DW_AT_decl_file   : 6
    <34c6>   DW_AT_decl_line   : 57
    <34c7>   DW_AT_decl_column : 9
    <34c8>   DW_AT_type        : <0x346d>
    <34cc>   DW_AT_data_member_location: 32
 <2><34cd>: Abbrev Number: 10 (DW_TAG_member)
    <34ce>   DW_AT_name        : (indirect string, offset: 0xc0a): _IO_write_ptr
    <34d2>   DW_AT_decl_file   : 6
    <34d3>   DW_AT_decl_line   : 58
    <34d4>   DW_AT_decl_column : 9
    <34d5>   DW_AT_type        : <0x346d>
    <34d9>   DW_AT_data_member_location: 40
 <2><34da>: Abbrev Number: 10 (DW_TAG_member)
    <34db>   DW_AT_name        : (indirect string, offset: 0x71a): _IO_write_end
    <34df>   DW_AT_decl_file   : 6
    <34e0>   DW_AT_decl_line   : 59
    <34e1>   DW_AT_decl_column : 9
    <34e2>   DW_AT_type        : <0x346d>
    <34e6>   DW_AT_data_member_location: 48
 <2><34e7>: Abbrev Number: 10 (DW_TAG_member)
    <34e8>   DW_AT_name        : (indirect string, offset: 0x76e): _IO_buf_base
    <34ec>   DW_AT_decl_file   : 6
    <34ed>   DW_AT_decl_line   : 60
    <34ee>   DW_AT_decl_column : 9
    <34ef>   DW_AT_type        : <0x346d>
    <34f3>   DW_AT_data_member_location: 56
 <2><34f4>: Abbrev Number: 10 (DW_TAG_member)
    <34f5>   DW_AT_name        : (indirect string, offset: 0xa01): _IO_buf_end
    <34f9>   DW_AT_decl_file   : 6
    <34fa>   DW_AT_decl_line   : 61
    <34fb>   DW_AT_decl_column : 9
    <34fc>   DW_AT_type        : <0x346d>
    <3500>   DW_AT_data_member_location: 64
 <2><3501>: Abbrev Number: 10 (DW_TAG_member)
    <3502>   DW_AT_name        : (indirect string, offset: 0x143): _IO_save_base
    <3506>   DW_AT_decl_file   : 6
    <3507>   DW_AT_decl_line   : 64
    <3508>   DW_AT_decl_column : 9
    <3509>   DW_AT_type        : <0x346d>
    <350d>   DW_AT_data_member_location: 72
 <2><350e>: Abbrev Number: 10 (DW_TAG_member)
    <350f>   DW_AT_name        : (indirect string, offset: 0x98f): _IO_backup_base
    <3513>   DW_AT_decl_file   : 6
    <3514>   DW_AT_decl_line   : 65
    <3515>   DW_AT_decl_column : 9
    <3516>   DW_AT_type        : <0x346d>
    <351a>   DW_AT_data_member_location: 80
 <2><351b>: Abbrev Number: 10 (DW_TAG_member)
    <351c>   DW_AT_name        : (indirect string, offset: 0xba): _IO_save_end
    <3520>   DW_AT_decl_file   : 6
    <3521>   DW_AT_decl_line   : 66
    <3522>   DW_AT_decl_column : 9
    <3523>   DW_AT_type        : <0x346d>
    <3527>   DW_AT_data_member_location: 88
 <2><3528>: Abbrev Number: 10 (DW_TAG_member)
    <3529>   DW_AT_name        : (indirect string, offset: 0x4bb): _markers
    <352d>   DW_AT_decl_file   : 6
    <352e>   DW_AT_decl_line   : 68
    <352f>   DW_AT_decl_column : 22
    <3530>   DW_AT_type        : <0x361f>
    <3534>   DW_AT_data_member_location: 96
 <2><3535>: Abbrev Number: 10 (DW_TAG_member)
    <3536>   DW_AT_name        : (indirect string, offset: 0x189): _chain
    <353a>   DW_AT_decl_file   : 6
    <353b>   DW_AT_decl_line   : 70
    <353c>   DW_AT_decl_column : 20
    <353d>   DW_AT_type        : <0x3625>
    <3541>   DW_AT_data_member_location: 104
 <2><3542>: Abbrev Number: 10 (DW_TAG_member)
    <3543>   DW_AT_name        : (indirect string, offset: 0xbb0): _fileno
    <3547>   DW_AT_decl_file   : 6
    <3548>   DW_AT_decl_line   : 72
    <3549>   DW_AT_decl_column : 7
    <354a>   DW_AT_type        : <0x3423>
    <354e>   DW_AT_data_member_location: 112
 <2><354f>: Abbrev Number: 10 (DW_TAG_member)
    <3550>   DW_AT_name        : (indirect string, offset: 0x5df): _flags2
    <3554>   DW_AT_decl_file   : 6
    <3555>   DW_AT_decl_line   : 73
    <3556>   DW_AT_decl_column : 7
    <3557>   DW_AT_type        : <0x3423>
    <355b>   DW_AT_data_member_location: 116
 <2><355c>: Abbrev Number: 10 (DW_TAG_member)
    <355d>   DW_AT_name        : (indirect string, offset: 0x64e): _old_offset
    <3561>   DW_AT_decl_file   : 6
    <3562>   DW_AT_decl_line   : 74
    <3563>   DW_AT_decl_column : 11
    <3564>   DW_AT_type        : <0x3449>
    <3568>   DW_AT_data_member_location: 120
 <2><3569>: Abbrev Number: 10 (DW_TAG_member)
    <356a>   DW_AT_name        : (indirect string, offset: 0x190): _cur_column
    <356e>   DW_AT_decl_file   : 6
    <356f>   DW_AT_decl_line   : 77
    <3570>   DW_AT_decl_column : 18
    <3571>   DW_AT_type        : <0x340e>
    <3575>   DW_AT_data_member_location: 128
 <2><3576>: Abbrev Number: 10 (DW_TAG_member)
    <3577>   DW_AT_name        : (indirect string, offset: 0xaea): _vtable_offset
    <357b>   DW_AT_decl_file   : 6
    <357c>   DW_AT_decl_line   : 78
    <357d>   DW_AT_decl_column : 15
    <357e>   DW_AT_type        : <0x3415>
    <3582>   DW_AT_data_member_location: 130
 <2><3583>: Abbrev Number: 10 (DW_TAG_member)
    <3584>   DW_AT_name        : (indirect string, offset: 0x9a9): _shortbuf
    <3588>   DW_AT_decl_file   : 6
    <3589>   DW_AT_decl_line   : 79
    <358a>   DW_AT_decl_column : 8
    <358b>   DW_AT_type        : <0x362b>
    <358f>   DW_AT_data_member_location: 131
 <2><3590>: Abbrev Number: 10 (DW_TAG_member)
    <3591>   DW_AT_name        : (indirect string, offset: 0xfb): _lock
    <3595>   DW_AT_decl_file   : 6
    <3596>   DW_AT_decl_line   : 81
    <3597>   DW_AT_decl_column : 15
    <3598>   DW_AT_type        : <0x363b>
    <359c>   DW_AT_data_member_location: 136
 <2><359d>: Abbrev Number: 10 (DW_TAG_member)
    <359e>   DW_AT_name        : (indirect string, offset: 0x652): _offset
    <35a2>   DW_AT_decl_file   : 6
    <35a3>   DW_AT_decl_line   : 89
    <35a4>   DW_AT_decl_column : 13
    <35a5>   DW_AT_type        : <0x3455>
    <35a9>   DW_AT_data_member_location: 144
 <2><35aa>: Abbrev Number: 10 (DW_TAG_member)
    <35ab>   DW_AT_name        : (indirect string, offset: 0x7a): _codecvt
    <35af>   DW_AT_decl_file   : 6
    <35b0>   DW_AT_decl_line   : 91
    <35b1>   DW_AT_decl_column : 23
    <35b2>   DW_AT_type        : <0x3646>
    <35b6>   DW_AT_data_member_location: 152
 <2><35b7>: Abbrev Number: 10 (DW_TAG_member)
    <35b8>   DW_AT_name        : (indirect string, offset: 0x231): _wide_data
    <35bc>   DW_AT_decl_file   : 6
    <35bd>   DW_AT_decl_line   : 92
    <35be>   DW_AT_decl_column : 25
    <35bf>   DW_AT_type        : <0x3651>
    <35c3>   DW_AT_data_member_location: 160
 <2><35c4>: Abbrev Number: 10 (DW_TAG_member)
    <35c5>   DW_AT_name        : (indirect string, offset: 0x25f): _freeres_list
    <35c9>   DW_AT_decl_file   : 6
    <35ca>   DW_AT_decl_line   : 93
    <35cb>   DW_AT_decl_column : 20
    <35cc>   DW_AT_type        : <0x3625>
    <35d0>   DW_AT_data_member_location: 168
 <2><35d1>: Abbrev Number: 10 (DW_TAG_member)
    <35d2>   DW_AT_name        : (indirect string, offset: 0x944): _freeres_buf
    <35d6>   DW_AT_decl_file   : 6
    <35d7>   DW_AT_decl_line   : 94
    <35d8>   DW_AT_decl_column : 9
    <35d9>   DW_AT_type        : <0x3400>
    <35dd>   DW_AT_data_member_location: 176
 <2><35de>: Abbrev Number: 10 (DW_TAG_member)
    <35df>   DW_AT_name        : (indirect string, offset: 0x7c6): __pad5
    <35e3>   DW_AT_decl_file   : 6
    <35e4>   DW_AT_decl_line   : 95
    <35e5>   DW_AT_decl_column : 10
    <35e6>   DW_AT_type        : <0x33e6>
    <35ea>   DW_AT_data_member_location: 184
 <2><35eb>: Abbrev Number: 10 (DW_TAG_member)
    <35ec>   DW_AT_name        : (indirect string, offset: 0x818): _mode
    <35f0>   DW_AT_decl_file   : 6
    <35f1>   DW_AT_decl_line   : 96
    <35f2>   DW_AT_decl_column : 7
    <35f3>   DW_AT_type        : <0x3423>
    <35f7>   DW_AT_data_member_location: 192
 <2><35f8>: Abbrev Number: 10 (DW_TAG_member)
    <35f9>   DW_AT_name        : (indirect string, offset: 0x60e): _unused2
    <35fd>   DW_AT_decl_file   : 6
    <35fe>   DW_AT_decl_line   : 98
    <35ff>   DW_AT_decl_column : 8
    <3600>   DW_AT_type        : <0x3657>
    <3604>   DW_AT_data_member_location: 196
 <2><3605>: Abbrev Number: 0
 <1><3606>: Abbrev Number: 2 (DW_TAG_typedef)
    <3607>   DW_AT_name        : (indirect string, offset: 0x229): FILE
    <360b>   DW_AT_decl_file   : 7
    <360c>   DW_AT_decl_line   : 7
    <360d>   DW_AT_decl_column : 25
    <360e>   DW_AT_type        : <0x347f>
 <1><3612>: Abbrev Number: 11 (DW_TAG_typedef)
    <3613>   DW_AT_name        : (indirect string, offset: 0x3ed): _IO_lock_t
    <3617>   DW_AT_decl_file   : 6
    <3618>   DW_AT_decl_line   : 43
    <3619>   DW_AT_decl_column : 14
 <1><361a>: Abbrev Number: 12 (DW_TAG_structure_type)
    <361b>   DW_AT_name        : (indirect string, offset: 0x1e5): _IO_marker
    <361f>   DW_AT_declaration : 1
 <1><361f>: Abbrev Number: 7 (DW_TAG_pointer_type)
    <3620>   DW_AT_byte_size   : 8
    <3621>   DW_AT_type        : <0x361a>
 <1><3625>: Abbrev Number: 7 (DW_TAG_pointer_type)
    <3626>   DW_AT_byte_size   : 8
    <3627>   DW_AT_type        : <0x347f>
 <1><362b>: Abbrev Number: 13 (DW_TAG_array_type)
    <362c>   DW_AT_type        : <0x3473>
    <3630>   DW_AT_sibling     : <0x363b>
 <2><3634>: Abbrev Number: 14 (DW_TAG_subrange_type)
    <3635>   DW_AT_type        : <0x33f2>
    <3639>   DW_AT_upper_bound : 0
 <2><363a>: Abbrev Number: 0
 <1><363b>: Abbrev Number: 7 (DW_TAG_pointer_type)
    <363c>   DW_AT_byte_size   : 8
    <363d>   DW_AT_type        : <0x3612>
 <1><3641>: Abbrev Number: 12 (DW_TAG_structure_type)
    <3642>   DW_AT_name        : (indirect string, offset: 0x77): _IO_codecvt
    <3646>   DW_AT_declaration : 1
 <1><3646>: Abbrev Number: 7 (DW_TAG_pointer_type)
    <3647>   DW_AT_byte_size   : 8
    <3648>   DW_AT_type        : <0x3641>
 <1><364c>: Abbrev Number: 12 (DW_TAG_structure_type)
    <364d>   DW_AT_name        : (indirect string, offset: 0x22e): _IO_wide_data
    <3651>   DW_AT_declaration : 1
 <1><3651>: Abbrev Number: 7 (DW_TAG_pointer_type)
    <3652>   DW_AT_byte_size   : 8
    <3653>   DW_AT_type        : <0x364c>
 <1><3657>: Abbrev Number: 13 (DW_TAG_array_type)
    <3658>   DW_AT_type        : <0x3473>
    <365c>   DW_AT_sibling     : <0x3667>
 <2><3660>: Abbrev Number: 14 (DW_TAG_subrange_type)
    <3661>   DW_AT_type        : <0x33f2>
    <3665>   DW_AT_upper_bound : 19
 <2><3666>: Abbrev Number: 0
 <1><3667>: Abbrev Number: 7 (DW_TAG_pointer_type)
    <3668>   DW_AT_byte_size   : 8
    <3669>   DW_AT_type        : <0x347a>
 <1><366d>: Abbrev Number: 7 (DW_TAG_pointer_type)
    <366e>   DW_AT_byte_size   : 8
    <366f>   DW_AT_type        : <0x3606>
 <1><3673>: Abbrev Number: 5 (DW_TAG_restrict_type)
    <3674>   DW_AT_type        : <0x366d>
 <1><3678>: Abbrev Number: 3 (DW_TAG_base_type)
    <3679>   DW_AT_byte_size   : 8
    <367a>   DW_AT_encoding    : 5	(signed)
    <367b>   DW_AT_name        : (indirect string, offset: 0x6b8): long long int
 <1><367f>: Abbrev Number: 3 (DW_TAG_base_type)
    <3680>   DW_AT_byte_size   : 16
    <3681>   DW_AT_encoding    : 4	(float)
    <3682>   DW_AT_name        : (indirect string, offset: 0x86f): long double
 <1><3686>: Abbrev Number: 2 (DW_TAG_typedef)
    <3687>   DW_AT_name        : (indirect string, offset: 0x981): time_t
    <368b>   DW_AT_decl_file   : 8
    <368c>   DW_AT_decl_line   : 7
    <368d>   DW_AT_decl_column : 18
    <368e>   DW_AT_type        : <0x3461>
 <1><3692>: Abbrev Number: 3 (DW_TAG_base_type)
    <3693>   DW_AT_byte_size   : 8
    <3694>   DW_AT_encoding    : 7	(unsigned)
    <3695>   DW_AT_name        : (indirect string, offset: 0x8cc): long long unsigned int
 <1><3699>: Abbrev Number: 2 (DW_TAG_typedef)
    <369a>   DW_AT_name        : (indirect string, offset: 0xf7f): uint32_t
    <369e>   DW_AT_decl_file   : 9
    <369f>   DW_AT_decl_line   : 26
    <36a0>   DW_AT_decl_column : 20
    <36a1>   DW_AT_type        : <0x342a>
 <1><36a5>: Abbrev Number: 2 (DW_TAG_typedef)
    <36a6>   DW_AT_name        : (indirect string, offset: 0x11e0): uint_fast32_t
    <36aa>   DW_AT_decl_file   : 10
    <36ab>   DW_AT_decl_line   : 74
    <36ac>   DW_AT_decl_column : 27
    <36ad>   DW_AT_type        : <0x33f2>
 <1><36b1>: Abbrev Number: 8 (DW_TAG_const_type)
    <36b2>   DW_AT_type        : <0x36a5>
 <1><36b6>: Abbrev Number: 2 (DW_TAG_typedef)
    <36b7>   DW_AT_name        : (indirect string, offset: 0xb15): uintmax_t
    <36bb>   DW_AT_decl_file   : 10
    <36bc>   DW_AT_decl_line   : 102
    <36bd>   DW_AT_decl_column : 22
    <36be>   DW_AT_type        : <0x343d>
 <1><36c2>: Abbrev Number: 7 (DW_TAG_pointer_type)
    <36c3>   DW_AT_byte_size   : 8
    <36c4>   DW_AT_type        : <0x36c8>
 <1><36c8>: Abbrev Number: 15 (DW_TAG_const_type)
 <1><36c9>: Abbrev Number: 16 (DW_TAG_enumeration_type)
    <36ca>   DW_AT_encoding    : 7	(unsigned)
    <36cb>   DW_AT_byte_size   : 4
    <36cc>   DW_AT_type        : <0x33f9>
    <36d0>   DW_AT_decl_file   : 11
    <36d1>   DW_AT_decl_line   : 41
    <36d2>   DW_AT_decl_column : 6
    <36d3>   DW_AT_sibling     : <0x36e1>
 <2><36d7>: Abbrev Number: 17 (DW_TAG_enumerator)
    <36d8>   DW_AT_name        : (indirect string, offset: 0x833): TIMESPEC_HZ
    <36dc>   DW_AT_const_value : 0x3b9aca00
 <2><36e0>: Abbrev Number: 0
 <1><36e1>: Abbrev Number: 16 (DW_TAG_enumeration_type)
    <36e2>   DW_AT_encoding    : 7	(unsigned)
    <36e3>   DW_AT_byte_size   : 4
    <36e4>   DW_AT_type        : <0x33f9>
    <36e8>   DW_AT_decl_file   : 11
    <36e9>   DW_AT_decl_line   : 42
    <36ea>   DW_AT_decl_column : 6
    <36eb>   DW_AT_sibling     : <0x36f6>
 <2><36ef>: Abbrev Number: 18 (DW_TAG_enumerator)
    <36f0>   DW_AT_name        : (indirect string, offset: 0x82d): LOG10_TIMESPEC_HZ
    <36f4>   DW_AT_const_value : 9
 <2><36f5>: Abbrev Number: 0
 <1><36f6>: Abbrev Number: 19 (DW_TAG_variable)
    <36f7>   DW_AT_name        : (indirect string, offset: 0xb67): cksum_debug
    <36fb>   DW_AT_decl_file   : 12
    <36fc>   DW_AT_decl_line   : 4
    <36fd>   DW_AT_decl_column : 13
    <36fe>   DW_AT_type        : <0x3702>
    <3702>   DW_AT_external    : 1
    <3702>   DW_AT_declaration : 1
 <1><3702>: Abbrev Number: 3 (DW_TAG_base_type)
    <3703>   DW_AT_byte_size   : 1
    <3704>   DW_AT_encoding    : 2	(boolean)
    <3705>   DW_AT_name        : (indirect string, offset: 0x36e): _Bool
 <1><3709>: Abbrev Number: 13 (DW_TAG_array_type)
    <370a>   DW_AT_type        : <0x36b1>
    <370e>   DW_AT_sibling     : <0x371f>
 <2><3712>: Abbrev Number: 14 (DW_TAG_subrange_type)
    <3713>   DW_AT_type        : <0x33f2>
    <3717>   DW_AT_upper_bound : 7
 <2><3718>: Abbrev Number: 14 (DW_TAG_subrange_type)
    <3719>   DW_AT_type        : <0x33f2>
    <371d>   DW_AT_upper_bound : 255
 <2><371e>: Abbrev Number: 0
 <1><371f>: Abbrev Number: 8 (DW_TAG_const_type)
    <3720>   DW_AT_type        : <0x3709>
 <1><3724>: Abbrev Number: 19 (DW_TAG_variable)
    <3725>   DW_AT_name        : (indirect string, offset: 0x123b): crctab
    <3729>   DW_AT_decl_file   : 12
    <372a>   DW_AT_decl_line   : 17
    <372b>   DW_AT_decl_column : 28
    <372c>   DW_AT_type        : <0x371f>
    <3730>   DW_AT_external    : 1
    <3730>   DW_AT_declaration : 1
 <1><3730>: Abbrev Number: 20 (DW_TAG_subroutine_type)
    <3731>   DW_AT_prototyped  : 1
    <3731>   DW_AT_type        : <0x3702>
    <3735>   DW_AT_sibling     : <0x3749>
 <2><3739>: Abbrev Number: 21 (DW_TAG_formal_parameter)
    <373a>   DW_AT_type        : <0x366d>
 <2><373e>: Abbrev Number: 21 (DW_TAG_formal_parameter)
    <373f>   DW_AT_type        : <0x3749>
 <2><3743>: Abbrev Number: 21 (DW_TAG_formal_parameter)
    <3744>   DW_AT_type        : <0x374f>
 <2><3748>: Abbrev Number: 0
 <1><3749>: Abbrev Number: 7 (DW_TAG_pointer_type)
    <374a>   DW_AT_byte_size   : 8
    <374b>   DW_AT_type        : <0x36a5>
 <1><374f>: Abbrev Number: 7 (DW_TAG_pointer_type)
    <3750>   DW_AT_byte_size   : 8
    <3751>   DW_AT_type        : <0x36b6>
 <1><3755>: Abbrev Number: 22 (DW_TAG_variable)
    <3756>   DW_AT_name        : (indirect string, offset: 0x11b4): cksum_fp
    <375a>   DW_AT_decl_file   : 3
    <375b>   DW_AT_decl_line   : 156
    <375c>   DW_AT_decl_column : 5
    <375d>   DW_AT_type        : <0x376b>
    <3761>   DW_AT_location    : 9 byte block: 3 8 22 3 0 0 0 0 0 	(DW_OP_addr: 32208)
 <1><376b>: Abbrev Number: 7 (DW_TAG_pointer_type)
    <376c>   DW_AT_byte_size   : 8
    <376d>   DW_AT_type        : <0x3730>
 <1><3771>: Abbrev Number: 23 (DW_TAG_subprogram)
    <3772>   DW_AT_external    : 1
    <3772>   DW_AT_name        : (indirect string, offset: 0x178): putchar_unlocked
    <3776>   DW_AT_decl_file   : 13
    <3777>   DW_AT_decl_line   : 546
    <3779>   DW_AT_decl_column : 12
    <377a>   DW_AT_prototyped  : 1
    <377a>   DW_AT_type        : <0x3423>
    <377e>   DW_AT_declaration : 1
    <377e>   DW_AT_sibling     : <0x3788>
 <2><3782>: Abbrev Number: 21 (DW_TAG_formal_parameter)
    <3783>   DW_AT_type        : <0x3423>
 <2><3787>: Abbrev Number: 0
 <1><3788>: Abbrev Number: 23 (DW_TAG_subprogram)
    <3789>   DW_AT_external    : 1
    <3789>   DW_AT_name        : (indirect string, offset: 0xa0e): printf
    <378d>   DW_AT_decl_file   : 13
    <378e>   DW_AT_decl_line   : 332
    <3790>   DW_AT_decl_column : 12
    <3791>   DW_AT_prototyped  : 1
    <3791>   DW_AT_type        : <0x3423>
    <3795>   DW_AT_declaration : 1
    <3795>   DW_AT_sibling     : <0x37a0>
 <2><3799>: Abbrev Number: 21 (DW_TAG_formal_parameter)
    <379a>   DW_AT_type        : <0x3667>
 <2><379e>: Abbrev Number: 24 (DW_TAG_unspecified_parameters)
 <2><379f>: Abbrev Number: 0
 <1><37a0>: Abbrev Number: 25 (DW_TAG_subprogram)
    <37a1>   DW_AT_external    : 1
    <37a1>   DW_AT_name        : (indirect string, offset: 0x11d6): umaxtostr
    <37a5>   DW_AT_decl_file   : 14
    <37a6>   DW_AT_decl_line   : 29
    <37a7>   DW_AT_decl_column : 31
    <37a8>   DW_AT_prototyped  : 1
    <37a8>   DW_AT_type        : <0x346d>
    <37ac>   DW_AT_declaration : 1
    <37ac>   DW_AT_sibling     : <0x37bb>
 <2><37b0>: Abbrev Number: 21 (DW_TAG_formal_parameter)
    <37b1>   DW_AT_type        : <0x36b6>
 <2><37b5>: Abbrev Number: 21 (DW_TAG_formal_parameter)
    <37b6>   DW_AT_type        : <0x346d>
 <2><37ba>: Abbrev Number: 0
 <1><37bb>: Abbrev Number: 25 (DW_TAG_subprogram)
    <37bc>   DW_AT_external    : 1
    <37bc>   DW_AT_name        : (indirect string, offset: 0x11f4): cksum_pclmul
    <37c0>   DW_AT_decl_file   : 12
    <37c1>   DW_AT_decl_line   : 15
    <37c2>   DW_AT_decl_column : 1
    <37c3>   DW_AT_prototyped  : 1
    <37c3>   DW_AT_type        : <0x3702>
    <37c7>   DW_AT_declaration : 1
    <37c7>   DW_AT_sibling     : <0x37db>
 <2><37cb>: Abbrev Number: 21 (DW_TAG_formal_parameter)
    <37cc>   DW_AT_type        : <0x366d>
 <2><37d0>: Abbrev Number: 21 (DW_TAG_formal_parameter)
    <37d1>   DW_AT_type        : <0x3749>
 <2><37d5>: Abbrev Number: 21 (DW_TAG_formal_parameter)
    <37d6>   DW_AT_type        : <0x374f>
 <2><37da>: Abbrev Number: 0
 <1><37db>: Abbrev Number: 23 (DW_TAG_subprogram)
    <37dc>   DW_AT_external    : 1
    <37dc>   DW_AT_name        : (indirect string, offset: 0x1061): fread_unlocked
    <37e0>   DW_AT_decl_file   : 13
    <37e1>   DW_AT_decl_line   : 673
    <37e3>   DW_AT_decl_column : 15
    <37e4>   DW_AT_prototyped  : 1
    <37e4>   DW_AT_type        : <0x33e6>
    <37e8>   DW_AT_declaration : 1
    <37e8>   DW_AT_sibling     : <0x3801>
 <2><37ec>: Abbrev Number: 21 (DW_TAG_formal_parameter)
    <37ed>   DW_AT_type        : <0x3402>
 <2><37f1>: Abbrev Number: 21 (DW_TAG_formal_parameter)
    <37f2>   DW_AT_type        : <0x33e6>
 <2><37f6>: Abbrev Number: 21 (DW_TAG_formal_parameter)
    <37f7>   DW_AT_type        : <0x33e6>
 <2><37fb>: Abbrev Number: 21 (DW_TAG_formal_parameter)
    <37fc>   DW_AT_type        : <0x3673>
 <2><3800>: Abbrev Number: 0
 <1><3801>: Abbrev Number: 23 (DW_TAG_subprogram)
    <3802>   DW_AT_external    : 1
    <3802>   DW_AT_name        : (indirect string, offset: 0x28c): feof_unlocked
    <3806>   DW_AT_decl_file   : 13
    <3807>   DW_AT_decl_line   : 766
    <3809>   DW_AT_decl_column : 12
    <380a>   DW_AT_prototyped  : 1
    <380a>   DW_AT_type        : <0x3423>
    <380e>   DW_AT_declaration : 1
    <380e>   DW_AT_sibling     : <0x3818>
 <2><3812>: Abbrev Number: 21 (DW_TAG_formal_parameter)
    <3813>   DW_AT_type        : <0x366d>
 <2><3817>: Abbrev Number: 0
 <1><3818>: Abbrev Number: 23 (DW_TAG_subprogram)
    <3819>   DW_AT_external    : 1
    <3819>   DW_AT_name        : (indirect string, offset: 0x83): ferror_unlocked
    <381d>   DW_AT_decl_file   : 13
    <381e>   DW_AT_decl_line   : 767
    <3820>   DW_AT_decl_column : 12
    <3821>   DW_AT_prototyped  : 1
    <3821>   DW_AT_type        : <0x3423>
    <3825>   DW_AT_declaration : 1
    <3825>   DW_AT_sibling     : <0x382f>
 <2><3829>: Abbrev Number: 21 (DW_TAG_formal_parameter)
    <382a>   DW_AT_type        : <0x366d>
 <2><382e>: Abbrev Number: 0
 <1><382f>: Abbrev Number: 26 (DW_TAG_subprogram)
    <3830>   DW_AT_external    : 1
    <3830>   DW_AT_name        : (indirect string, offset: 0x3f8): __errno_location
    <3834>   DW_AT_decl_file   : 16
    <3835>   DW_AT_decl_line   : 37
    <3836>   DW_AT_decl_column : 13
    <3837>   DW_AT_prototyped  : 1
    <3837>   DW_AT_type        : <0x383b>
    <383b>   DW_AT_declaration : 1
 <1><383b>: Abbrev Number: 7 (DW_TAG_pointer_type)
    <383c>   DW_AT_byte_size   : 8
    <383d>   DW_AT_type        : <0x3423>
 <1><3841>: Abbrev Number: 27 (DW_TAG_subprogram)
    <3842>   DW_AT_external    : 1
    <3842>   DW_AT_name        : (indirect string, offset: 0x136c): error
    <3846>   DW_AT_decl_file   : 17
    <3847>   DW_AT_decl_line   : 33
    <3848>   DW_AT_decl_column : 13
    <3849>   DW_AT_prototyped  : 1
    <3849>   DW_AT_declaration : 1
    <3849>   DW_AT_sibling     : <0x385e>
 <2><384d>: Abbrev Number: 21 (DW_TAG_formal_parameter)
    <384e>   DW_AT_type        : <0x3423>
 <2><3852>: Abbrev Number: 21 (DW_TAG_formal_parameter)
    <3853>   DW_AT_type        : <0x3423>
 <2><3857>: Abbrev Number: 21 (DW_TAG_formal_parameter)
    <3858>   DW_AT_type        : <0x3667>
 <2><385c>: Abbrev Number: 24 (DW_TAG_unspecified_parameters)
 <2><385d>: Abbrev Number: 0
 <1><385e>: Abbrev Number: 25 (DW_TAG_subprogram)
    <385f>   DW_AT_external    : 1
    <385f>   DW_AT_name        : (indirect string, offset: 0x618): gettext
    <3863>   DW_AT_decl_file   : 15
    <3864>   DW_AT_decl_line   : 39
    <3865>   DW_AT_decl_column : 14
    <3866>   DW_AT_prototyped  : 1
    <3866>   DW_AT_type        : <0x346d>
    <386a>   DW_AT_declaration : 1
    <386a>   DW_AT_sibling     : <0x3874>
 <2><386e>: Abbrev Number: 21 (DW_TAG_formal_parameter)
    <386f>   DW_AT_type        : <0x3667>
 <2><3873>: Abbrev Number: 0
 <1><3874>: Abbrev Number: 28 (DW_TAG_subprogram)
    <3875>   DW_AT_external    : 1
    <3875>   DW_AT_name        : (indirect string, offset: 0x749): output_crc
    <3879>   DW_AT_decl_file   : 3
    <387a>   DW_AT_decl_line   : 288
    <387c>   DW_AT_decl_column : 1
    <387d>   DW_AT_prototyped  : 1
    <387d>   DW_AT_low_pc      : 0xbfcc
    <3885>   DW_AT_high_pc     : 0xad
    <388d>   DW_AT_frame_base  : 1 byte block: 9c 	(DW_OP_call_frame_cfa)
    <388f>   DW_AT_GNU_all_tail_call_sites: 1
    <388f>   DW_AT_sibling     : <0x3917>
 <2><3893>: Abbrev Number: 29 (DW_TAG_formal_parameter)
    <3894>   DW_AT_name        : (indirect string, offset: 0xc78): file
    <3898>   DW_AT_decl_file   : 3
    <3899>   DW_AT_decl_line   : 288
    <389b>   DW_AT_decl_column : 25
    <389c>   DW_AT_type        : <0x3667>
    <38a0>   DW_AT_location    : 2 byte block: 91 48 	(DW_OP_fbreg: -56)
 <2><38a3>: Abbrev Number: 29 (DW_TAG_formal_parameter)
    <38a4>   DW_AT_name        : (indirect string, offset: 0xae): binary_file
    <38a8>   DW_AT_decl_file   : 3
    <38a9>   DW_AT_decl_line   : 288
    <38ab>   DW_AT_decl_column : 35
    <38ac>   DW_AT_type        : <0x3423>
    <38b0>   DW_AT_location    : 2 byte block: 91 44 	(DW_OP_fbreg: -60)
 <2><38b3>: Abbrev Number: 29 (DW_TAG_formal_parameter)
    <38b4>   DW_AT_name        : (indirect string, offset: 0xdd): digest
    <38b8>   DW_AT_decl_file   : 3
    <38b9>   DW_AT_decl_line   : 288
    <38bb>   DW_AT_decl_column : 60
    <38bc>   DW_AT_type        : <0x36c2>
    <38c0>   DW_AT_location    : 3 byte block: 91 b8 7f 	(DW_OP_fbreg: -72)
 <2><38c4>: Abbrev Number: 29 (DW_TAG_formal_parameter)
    <38c5>   DW_AT_name        : (indirect string, offset: 0xb26): tagged
    <38c9>   DW_AT_decl_file   : 3
    <38ca>   DW_AT_decl_line   : 289
    <38cc>   DW_AT_decl_column : 18
    <38cd>   DW_AT_type        : <0x3702>
    <38d1>   DW_AT_location    : 2 byte block: 91 40 	(DW_OP_fbreg: -64)
 <2><38d4>: Abbrev Number: 29 (DW_TAG_formal_parameter)
    <38d5>   DW_AT_name        : (indirect string, offset: 0x158): delim
    <38d9>   DW_AT_decl_file   : 3
    <38da>   DW_AT_decl_line   : 289
    <38dc>   DW_AT_decl_column : 40
    <38dd>   DW_AT_type        : <0x3407>
    <38e1>   DW_AT_location    : 3 byte block: 91 b4 7f 	(DW_OP_fbreg: -76)
 <2><38e5>: Abbrev Number: 29 (DW_TAG_formal_parameter)
    <38e6>   DW_AT_name        : (indirect string, offset: 0x1fec): args
    <38ea>   DW_AT_decl_file   : 3
    <38eb>   DW_AT_decl_line   : 289
    <38ed>   DW_AT_decl_column : 52
    <38ee>   DW_AT_type        : <0x3702>
    <38f2>   DW_AT_location    : 3 byte block: 91 b0 7f 	(DW_OP_fbreg: -80)
 <2><38f6>: Abbrev Number: 29 (DW_TAG_formal_parameter)
    <38f7>   DW_AT_name        : (indirect string, offset: 0x91c): length
    <38fb>   DW_AT_decl_file   : 3
    <38fc>   DW_AT_decl_line   : 289
    <38fe>   DW_AT_decl_column : 68
    <38ff>   DW_AT_type        : <0x36b6>
    <3903>   DW_AT_location    : 2 byte block: 91 0 	(DW_OP_fbreg: 0)
 <2><3906>: Abbrev Number: 30 (DW_TAG_variable)
    <3907>   DW_AT_name        : (indirect string, offset: 0x11bd): length_buf
    <390b>   DW_AT_decl_file   : 3
    <390c>   DW_AT_decl_line   : 291
    <390e>   DW_AT_decl_column : 8
    <390f>   DW_AT_type        : <0x3917>
    <3913>   DW_AT_location    : 2 byte block: 91 50 	(DW_OP_fbreg: -48)
 <2><3916>: Abbrev Number: 0
 <1><3917>: Abbrev Number: 13 (DW_TAG_array_type)
    <3918>   DW_AT_type        : <0x3473>
    <391c>   DW_AT_sibling     : <0x3927>
 <2><3920>: Abbrev Number: 14 (DW_TAG_subrange_type)
    <3921>   DW_AT_type        : <0x33f2>
    <3925>   DW_AT_upper_bound : 20
 <2><3926>: Abbrev Number: 0
 <1><3927>: Abbrev Number: 31 (DW_TAG_subprogram)
    <3928>   DW_AT_external    : 1
    <3928>   DW_AT_name        : (indirect string, offset: 0x1e): crc_sum_stream
    <392c>   DW_AT_decl_file   : 3
    <392d>   DW_AT_decl_line   : 256
    <392f>   DW_AT_decl_column : 1
    <3930>   DW_AT_prototyped  : 1
    <3930>   DW_AT_type        : <0x3423>
    <3934>   DW_AT_low_pc      : 0xbea4
    <393c>   DW_AT_high_pc     : 0x128
    <3944>   DW_AT_frame_base  : 1 byte block: 9c 	(DW_OP_call_frame_cfa)
    <3946>   DW_AT_GNU_all_tail_call_sites: 1
    <3946>   DW_AT_sibling     : <0x39ac>
 <2><394a>: Abbrev Number: 29 (DW_TAG_formal_parameter)
    <394b>   DW_AT_name        : (indirect string, offset: 0x691): stream
    <394f>   DW_AT_decl_file   : 3
    <3950>   DW_AT_decl_line   : 256
    <3952>   DW_AT_decl_column : 23
    <3953>   DW_AT_type        : <0x366d>
    <3957>   DW_AT_location    : 2 byte block: 91 48 	(DW_OP_fbreg: -56)
 <2><395a>: Abbrev Number: 29 (DW_TAG_formal_parameter)
    <395b>   DW_AT_name        : (indirect string, offset: 0x8c2): resstream
    <395f>   DW_AT_decl_file   : 3
    <3960>   DW_AT_decl_line   : 256
    <3962>   DW_AT_decl_column : 37
    <3963>   DW_AT_type        : <0x3400>
    <3967>   DW_AT_location    : 2 byte block: 91 40 	(DW_OP_fbreg: -64)
 <2><396a>: Abbrev Number: 29 (DW_TAG_formal_parameter)
    <396b>   DW_AT_name        : (indirect string, offset: 0x91c): length
    <396f>   DW_AT_decl_file   : 3
    <3970>   DW_AT_decl_line   : 256
    <3972>   DW_AT_decl_column : 59
    <3973>   DW_AT_type        : <0x374f>
    <3977>   DW_AT_location    : 3 byte block: 91 b8 7f 	(DW_OP_fbreg: -72)
 <2><397b>: Abbrev Number: 30 (DW_TAG_variable)
    <397c>   DW_AT_name        : (indirect string, offset: 0x110e): total_bytes
    <3980>   DW_AT_decl_file   : 3
    <3981>   DW_AT_decl_line   : 258
    <3983>   DW_AT_decl_column : 13
    <3984>   DW_AT_type        : <0x36b6>
    <3988>   DW_AT_location    : 2 byte block: 91 58 	(DW_OP_fbreg: -40)
 <2><398b>: Abbrev Number: 32 (DW_TAG_variable)
    <398c>   DW_AT_name        : crc
    <3990>   DW_AT_decl_file   : 3
    <3991>   DW_AT_decl_line   : 259
    <3993>   DW_AT_decl_column : 17
    <3994>   DW_AT_type        : <0x36a5>
    <3998>   DW_AT_location    : 2 byte block: 91 60 	(DW_OP_fbreg: -32)
 <2><399b>: Abbrev Number: 30 (DW_TAG_variable)
    <399c>   DW_AT_name        : (indirect string, offset: 0x115b): crc_out
    <39a0>   DW_AT_decl_file   : 3
    <39a1>   DW_AT_decl_line   : 278
    <39a3>   DW_AT_decl_column : 16
    <39a4>   DW_AT_type        : <0x33f9>
    <39a8>   DW_AT_location    : 2 byte block: 91 54 	(DW_OP_fbreg: -44)
 <2><39ab>: Abbrev Number: 0
 <1><39ac>: Abbrev Number: 33 (DW_TAG_subprogram)
    <39ad>   DW_AT_name        : (indirect string, offset: 0x1169): cksum_slice8
    <39b1>   DW_AT_decl_file   : 3
    <39b2>   DW_AT_decl_line   : 193
    <39b3>   DW_AT_decl_column : 1
    <39b4>   DW_AT_prototyped  : 1
    <39b4>   DW_AT_type        : <0x3702>
    <39b8>   DW_AT_low_pc      : 0xbae2
    <39c0>   DW_AT_high_pc     : 0x3c2
    <39c8>   DW_AT_frame_base  : 1 byte block: 9c 	(DW_OP_call_frame_cfa)
    <39ca>   DW_AT_GNU_all_tail_call_sites: 1
    <39ca>   DW_AT_sibling     : <0x3aa0>
 <2><39ce>: Abbrev Number: 34 (DW_TAG_formal_parameter)
    <39cf>   DW_AT_name        : fp
    <39d2>   DW_AT_decl_file   : 3
    <39d3>   DW_AT_decl_line   : 193
    <39d4>   DW_AT_decl_column : 21
    <39d5>   DW_AT_type        : <0x366d>
    <39d9>   DW_AT_location    : 4 byte block: 91 a8 ff 7b 	(DW_OP_fbreg: -65624)
 <2><39de>: Abbrev Number: 35 (DW_TAG_formal_parameter)
    <39df>   DW_AT_name        : (indirect string, offset: 0x115b): crc_out
    <39e3>   DW_AT_decl_file   : 3
    <39e4>   DW_AT_decl_line   : 193
    <39e5>   DW_AT_decl_column : 40
    <39e6>   DW_AT_type        : <0x3749>
    <39ea>   DW_AT_location    : 4 byte block: 91 a0 ff 7b 	(DW_OP_fbreg: -65632)
 <2><39ef>: Abbrev Number: 35 (DW_TAG_formal_parameter)
    <39f0>   DW_AT_name        : (indirect string, offset: 0x114a): length_out
    <39f4>   DW_AT_decl_file   : 3
    <39f5>   DW_AT_decl_line   : 193
    <39f6>   DW_AT_decl_column : 60
    <39f7>   DW_AT_type        : <0x374f>
    <39fb>   DW_AT_location    : 4 byte block: 91 98 ff 7b 	(DW_OP_fbreg: -65640)
 <2><3a00>: Abbrev Number: 36 (DW_TAG_variable)
    <3a01>   DW_AT_name        : buf
    <3a05>   DW_AT_decl_file   : 3
    <3a06>   DW_AT_decl_line   : 195
    <3a07>   DW_AT_decl_column : 12
    <3a08>   DW_AT_type        : <0x3aa0>
    <3a0c>   DW_AT_location    : 4 byte block: 91 e0 ff 7b 	(DW_OP_fbreg: -65568)
 <2><3a11>: Abbrev Number: 36 (DW_TAG_variable)
    <3a12>   DW_AT_name        : crc
    <3a16>   DW_AT_decl_file   : 3
    <3a17>   DW_AT_decl_line   : 196
    <3a18>   DW_AT_decl_column : 17
    <3a19>   DW_AT_type        : <0x36a5>
    <3a1d>   DW_AT_location    : 4 byte block: 91 b8 ff 7b 	(DW_OP_fbreg: -65608)
 <2><3a22>: Abbrev Number: 22 (DW_TAG_variable)
    <3a23>   DW_AT_name        : (indirect string, offset: 0x91c): length
    <3a27>   DW_AT_decl_file   : 3
    <3a28>   DW_AT_decl_line   : 197
    <3a29>   DW_AT_decl_column : 13
    <3a2a>   DW_AT_type        : <0x36b6>
    <3a2e>   DW_AT_location    : 4 byte block: 91 c0 ff 7b 	(DW_OP_fbreg: -65600)
 <2><3a33>: Abbrev Number: 22 (DW_TAG_variable)
    <3a34>   DW_AT_name        : (indirect string, offset: 0x1199): bytes_read
    <3a38>   DW_AT_decl_file   : 3
    <3a39>   DW_AT_decl_line   : 198
    <3a3a>   DW_AT_decl_column : 10
    <3a3b>   DW_AT_type        : <0x33e6>
    <3a3f>   DW_AT_location    : 4 byte block: 91 c8 ff 7b 	(DW_OP_fbreg: -65592)
 <2><3a44>: Abbrev Number: 37 (DW_TAG_lexical_block)
    <3a45>   DW_AT_ranges      : 0x30
 <3><3a49>: Abbrev Number: 22 (DW_TAG_variable)
    <3a4a>   DW_AT_name        : (indirect string, offset: 0x1163): datap
    <3a4e>   DW_AT_decl_file   : 3
    <3a4f>   DW_AT_decl_line   : 205
    <3a50>   DW_AT_decl_column : 17
    <3a51>   DW_AT_type        : <0x3ab1>
    <3a55>   DW_AT_location    : 4 byte block: 91 d0 ff 7b 	(DW_OP_fbreg: -65584)
 <3><3a5a>: Abbrev Number: 36 (DW_TAG_variable)
    <3a5b>   DW_AT_name        : cp
    <3a5e>   DW_AT_decl_file   : 3
    <3a5f>   DW_AT_decl_line   : 239
    <3a60>   DW_AT_decl_column : 22
    <3a61>   DW_AT_type        : <0x3ab7>
    <3a65>   DW_AT_location    : 4 byte block: 91 d8 ff 7b 	(DW_OP_fbreg: -65576)
 <3><3a6a>: Abbrev Number: 38 (DW_TAG_lexical_block)
    <3a6b>   DW_AT_low_pc      : 0xbbe4
    <3a73>   DW_AT_high_pc     : 0x1a9
 <4><3a7b>: Abbrev Number: 22 (DW_TAG_variable)
    <3a7c>   DW_AT_name        : (indirect string, offset: 0x1242): first
    <3a80>   DW_AT_decl_file   : 3
    <3a81>   DW_AT_decl_line   : 224
    <3a82>   DW_AT_decl_column : 20
    <3a83>   DW_AT_type        : <0x3699>
    <3a87>   DW_AT_location    : 4 byte block: 91 b0 ff 7b 	(DW_OP_fbreg: -65616)
 <4><3a8c>: Abbrev Number: 22 (DW_TAG_variable)
    <3a8d>   DW_AT_name        : (indirect string, offset: 0x11c8): second
    <3a91>   DW_AT_decl_file   : 3
    <3a92>   DW_AT_decl_line   : 224
    <3a93>   DW_AT_decl_column : 38
    <3a94>   DW_AT_type        : <0x3699>
    <3a98>   DW_AT_location    : 4 byte block: 91 b4 ff 7b 	(DW_OP_fbreg: -65612)
 <4><3a9d>: Abbrev Number: 0
 <3><3a9e>: Abbrev Number: 0
 <2><3a9f>: Abbrev Number: 0
 <1><3aa0>: Abbrev Number: 13 (DW_TAG_array_type)
    <3aa1>   DW_AT_type        : <0x3699>
    <3aa5>   DW_AT_sibling     : <0x3ab1>
 <2><3aa9>: Abbrev Number: 39 (DW_TAG_subrange_type)
    <3aaa>   DW_AT_type        : <0x33f2>
    <3aae>   DW_AT_upper_bound : 16383
 <2><3ab0>: Abbrev Number: 0
 <1><3ab1>: Abbrev Number: 7 (DW_TAG_pointer_type)
    <3ab2>   DW_AT_byte_size   : 8
    <3ab3>   DW_AT_type        : <0x3699>
 <1><3ab7>: Abbrev Number: 7 (DW_TAG_pointer_type)
    <3ab8>   DW_AT_byte_size   : 8
    <3ab9>   DW_AT_type        : <0x3407>
 <1><3abd>: Abbrev Number: 33 (DW_TAG_subprogram)
    <3abe>   DW_AT_name        : (indirect string, offset: 0x1188): pclmul_supported
    <3ac2>   DW_AT_decl_file   : 3
    <3ac3>   DW_AT_decl_line   : 159
    <3ac4>   DW_AT_decl_column : 1
    <3ac5>   DW_AT_prototyped  : 1
    <3ac5>   DW_AT_type        : <0x3702>
    <3ac9>   DW_AT_low_pc      : 0xb994
    <3ad1>   DW_AT_high_pc     : 0x14e
    <3ad9>   DW_AT_frame_base  : 1 byte block: 9c 	(DW_OP_call_frame_cfa)
    <3adb>   DW_AT_GNU_all_tail_call_sites: 1
    <3adb>   DW_AT_sibling     : <0x3b1c>
 <2><3adf>: Abbrev Number: 36 (DW_TAG_variable)
    <3ae0>   DW_AT_name        : eax
    <3ae4>   DW_AT_decl_file   : 3
    <3ae5>   DW_AT_decl_line   : 162
    <3ae6>   DW_AT_decl_column : 16
    <3ae7>   DW_AT_type        : <0x33f9>
    <3aeb>   DW_AT_location    : 2 byte block: 91 58 	(DW_OP_fbreg: -40)
 <2><3aee>: Abbrev Number: 36 (DW_TAG_variable)
    <3aef>   DW_AT_name        : ebx
    <3af3>   DW_AT_decl_file   : 3
    <3af4>   DW_AT_decl_line   : 163
    <3af5>   DW_AT_decl_column : 16
    <3af6>   DW_AT_type        : <0x33f9>
    <3afa>   DW_AT_location    : 2 byte block: 91 5c 	(DW_OP_fbreg: -36)
 <2><3afd>: Abbrev Number: 36 (DW_TAG_variable)
    <3afe>   DW_AT_name        : ecx
    <3b02>   DW_AT_decl_file   : 3
    <3b03>   DW_AT_decl_line   : 164
    <3b04>   DW_AT_decl_column : 16
    <3b05>   DW_AT_type        : <0x33f9>
    <3b09>   DW_AT_location    : 2 byte block: 91 60 	(DW_OP_fbreg: -32)
 <2><3b0c>: Abbrev Number: 36 (DW_TAG_variable)
    <3b0d>   DW_AT_name        : edx
    <3b11>   DW_AT_decl_file   : 3
    <3b12>   DW_AT_decl_line   : 165
    <3b13>   DW_AT_decl_column : 16
    <3b14>   DW_AT_type        : <0x33f9>
    <3b18>   DW_AT_location    : 2 byte block: 91 64 	(DW_OP_fbreg: -28)
 <2><3b1b>: Abbrev Number: 0
 <1><3b1c>: Abbrev Number: 40 (DW_TAG_subprogram)
    <3b1d>   DW_AT_name        : (indirect string, offset: 0x122f): __get_cpuid
    <3b21>   DW_AT_decl_file   : 2
    <3b22>   DW_AT_decl_line   : 302
    <3b24>   DW_AT_decl_column : 1
    <3b25>   DW_AT_prototyped  : 1
    <3b25>   DW_AT_type        : <0x3423>
    <3b29>   DW_AT_low_pc      : 0xb91c
    <3b31>   DW_AT_high_pc     : 0x78
    <3b39>   DW_AT_frame_base  : 1 byte block: 9c 	(DW_OP_call_frame_cfa)
    <3b3b>   DW_AT_GNU_all_tail_call_sites: 1
    <3b3b>   DW_AT_sibling     : <0x3bb2>
 <2><3b3f>: Abbrev Number: 29 (DW_TAG_formal_parameter)
    <3b40>   DW_AT_name        : (indirect string, offset: 0x11cf): __leaf
    <3b44>   DW_AT_decl_file   : 2
    <3b45>   DW_AT_decl_line   : 302
    <3b47>   DW_AT_decl_column : 27
    <3b48>   DW_AT_type        : <0x33f9>
    <3b4c>   DW_AT_location    : 2 byte block: 91 54 	(DW_OP_fbreg: -44)
 <2><3b4f>: Abbrev Number: 29 (DW_TAG_formal_parameter)
    <3b50>   DW_AT_name        : (indirect string, offset: 0x11ee): __eax
    <3b54>   DW_AT_decl_file   : 2
    <3b55>   DW_AT_decl_line   : 303
    <3b57>   DW_AT_decl_column : 21
    <3b58>   DW_AT_type        : <0x3bb2>
    <3b5c>   DW_AT_location    : 2 byte block: 91 48 	(DW_OP_fbreg: -56)
 <2><3b5f>: Abbrev Number: 29 (DW_TAG_formal_parameter)
    <3b60>   DW_AT_name        : (indirect string, offset: 0x1229): __ebx
    <3b64>   DW_AT_decl_file   : 2
    <3b65>   DW_AT_decl_line   : 303
    <3b67>   DW_AT_decl_column : 42
    <3b68>   DW_AT_type        : <0x3bb2>
    <3b6c>   DW_AT_location    : 2 byte block: 91 40 	(DW_OP_fbreg: -64)
 <2><3b6f>: Abbrev Number: 29 (DW_TAG_formal_parameter)
    <3b70>   DW_AT_name        : (indirect string, offset: 0x1176): __ecx
    <3b74>   DW_AT_decl_file   : 2
    <3b75>   DW_AT_decl_line   : 304
    <3b77>   DW_AT_decl_column : 21
    <3b78>   DW_AT_type        : <0x3bb2>
    <3b7c>   DW_AT_location    : 3 byte block: 91 b8 7f 	(DW_OP_fbreg: -72)
 <2><3b80>: Abbrev Number: 29 (DW_TAG_formal_parameter)
    <3b81>   DW_AT_name        : (indirect string, offset: 0x120d): __edx
    <3b85>   DW_AT_decl_file   : 2
    <3b86>   DW_AT_decl_line   : 304
    <3b88>   DW_AT_decl_column : 42
    <3b89>   DW_AT_type        : <0x3bb2>
    <3b8d>   DW_AT_location    : 3 byte block: 91 b0 7f 	(DW_OP_fbreg: -80)
 <2><3b91>: Abbrev Number: 30 (DW_TAG_variable)
    <3b92>   DW_AT_name        : (indirect string, offset: 0x1201): __ext
    <3b96>   DW_AT_decl_file   : 2
    <3b97>   DW_AT_decl_line   : 306
    <3b99>   DW_AT_decl_column : 16
    <3b9a>   DW_AT_type        : <0x33f9>
    <3b9e>   DW_AT_location    : 2 byte block: 91 60 	(DW_OP_fbreg: -32)
 <2><3ba1>: Abbrev Number: 30 (DW_TAG_variable)
    <3ba2>   DW_AT_name        : (indirect string, offset: 0x1213): __maxlevel
    <3ba6>   DW_AT_decl_file   : 2
    <3ba7>   DW_AT_decl_line   : 307
    <3ba9>   DW_AT_decl_column : 16
    <3baa>   DW_AT_type        : <0x33f9>
    <3bae>   DW_AT_location    : 2 byte block: 91 64 	(DW_OP_fbreg: -28)
 <2><3bb1>: Abbrev Number: 0
 <1><3bb2>: Abbrev Number: 7 (DW_TAG_pointer_type)
    <3bb3>   DW_AT_byte_size   : 8
    <3bb4>   DW_AT_type        : <0x33f9>
 <1><3bb8>: Abbrev Number: 41 (DW_TAG_subprogram)
    <3bb9>   DW_AT_name        : (indirect string, offset: 0x11a4): __get_cpuid_max
    <3bbd>   DW_AT_decl_file   : 2
    <3bbe>   DW_AT_decl_line   : 247
    <3bbf>   DW_AT_decl_column : 1
    <3bc0>   DW_AT_prototyped  : 1
    <3bc0>   DW_AT_type        : <0x33f9>
    <3bc4>   DW_AT_low_pc      : 0xb8e4
    <3bcc>   DW_AT_high_pc     : 0x38
    <3bd4>   DW_AT_frame_base  : 1 byte block: 9c 	(DW_OP_call_frame_cfa)
    <3bd6>   DW_AT_GNU_all_call_sites: 1
    <3bd6>   DW_AT_sibling     : <0x3c35>
 <2><3bda>: Abbrev Number: 35 (DW_TAG_formal_parameter)
    <3bdb>   DW_AT_name        : (indirect string, offset: 0x1201): __ext
    <3bdf>   DW_AT_decl_file   : 2
    <3be0>   DW_AT_decl_line   : 247
    <3be1>   DW_AT_decl_column : 31
    <3be2>   DW_AT_type        : <0x33f9>
    <3be6>   DW_AT_location    : 2 byte block: 91 54 	(DW_OP_fbreg: -44)
 <2><3be9>: Abbrev Number: 35 (DW_TAG_formal_parameter)
    <3bea>   DW_AT_name        : (indirect string, offset: 0x1155): __sig
    <3bee>   DW_AT_decl_file   : 2
    <3bef>   DW_AT_decl_line   : 247
    <3bf0>   DW_AT_decl_column : 52
    <3bf1>   DW_AT_type        : <0x3bb2>
    <3bf5>   DW_AT_location    : 2 byte block: 91 48 	(DW_OP_fbreg: -56)
 <2><3bf8>: Abbrev Number: 22 (DW_TAG_variable)
    <3bf9>   DW_AT_name        : (indirect string, offset: 0x11ee): __eax
    <3bfd>   DW_AT_decl_file   : 2
    <3bfe>   DW_AT_decl_line   : 249
    <3bff>   DW_AT_decl_column : 16
    <3c00>   DW_AT_type        : <0x33f9>
    <3c04>   DW_AT_location    : 2 byte block: 91 58 	(DW_OP_fbreg: -40)
 <2><3c07>: Abbrev Number: 22 (DW_TAG_variable)
    <3c08>   DW_AT_name        : (indirect string, offset: 0x1229): __ebx
    <3c0c>   DW_AT_decl_file   : 2
    <3c0d>   DW_AT_decl_line   : 249
    <3c0e>   DW_AT_decl_column : 23
    <3c0f>   DW_AT_type        : <0x33f9>
    <3c13>   DW_AT_location    : 2 byte block: 91 5c 	(DW_OP_fbreg: -36)
 <2><3c16>: Abbrev Number: 22 (DW_TAG_variable)
    <3c17>   DW_AT_name        : (indirect string, offset: 0x1176): __ecx
    <3c1b>   DW_AT_decl_file   : 2
    <3c1c>   DW_AT_decl_line   : 249
    <3c1d>   DW_AT_decl_column : 30
    <3c1e>   DW_AT_type        : <0x33f9>
    <3c22>   DW_AT_location    : 2 byte block: 91 60 	(DW_OP_fbreg: -32)
 <2><3c25>: Abbrev Number: 22 (DW_TAG_variable)
    <3c26>   DW_AT_name        : (indirect string, offset: 0x120d): __edx
    <3c2a>   DW_AT_decl_file   : 2
    <3c2b>   DW_AT_decl_line   : 249
    <3c2c>   DW_AT_decl_column : 37
    <3c2d>   DW_AT_type        : <0x33f9>
    <3c31>   DW_AT_location    : 2 byte block: 91 64 	(DW_OP_fbreg: -28)
 <2><3c34>: Abbrev Number: 0
 <1><3c35>: Abbrev Number: 42 (DW_TAG_subprogram)
    <3c36>   DW_AT_name        : (indirect string, offset: 0x121e): __bswap_32
    <3c3a>   DW_AT_decl_file   : 1
    <3c3b>   DW_AT_decl_line   : 49
    <3c3c>   DW_AT_decl_column : 1
    <3c3d>   DW_AT_prototyped  : 1
    <3c3d>   DW_AT_type        : <0x342a>
    <3c41>   DW_AT_low_pc      : 0xb8d6
    <3c49>   DW_AT_high_pc     : 0xe
    <3c51>   DW_AT_frame_base  : 1 byte block: 9c 	(DW_OP_call_frame_cfa)
    <3c53>   DW_AT_GNU_all_call_sites: 1
 <2><3c53>: Abbrev Number: 35 (DW_TAG_formal_parameter)
    <3c54>   DW_AT_name        : (indirect string, offset: 0x1207): __bsx
    <3c58>   DW_AT_decl_file   : 1
    <3c59>   DW_AT_decl_line   : 49
    <3c5a>   DW_AT_decl_column : 24
    <3c5b>   DW_AT_type        : <0x342a>
    <3c5f>   DW_AT_location    : 2 byte block: 91 6c 	(DW_OP_fbreg: -20)
 <2><3c62>: Abbrev Number: 0
 <1><3c63>: Abbrev Number: 0
  Compilation Unit @ offset 0x3c64:
   Length:        0x9b (32-bit)
   Version:       4
   Abbrev Offset: 0xb98
   Pointer Size:  8
 <0><3c6f>: Abbrev Number: 1 (DW_TAG_compile_unit)
    <3c70>   DW_AT_producer    : (indirect string, offset: 0x2c7): GNU C17 11.1.0 -mtune=generic -march=x86-64 -g -O0 -fasynchronous-unwind-tables -fstack-protector-strong -fstack-clash-protection -fcf-protection
    <3c74>   DW_AT_language    : 12	(ANSI C99)
    <3c75>   DW_AT_name        : (indirect string, offset: 0x1248): src/crctab.c
    <3c79>   DW_AT_comp_dir    : (indirect string, offset: 0xa27): /home/jacekline/dev/research/programs/coreutils-9.1
    <3c7d>   DW_AT_stmt_list   : 0x1c54
 <1><3c81>: Abbrev Number: 2 (DW_TAG_base_type)
    <3c82>   DW_AT_byte_size   : 1
    <3c83>   DW_AT_encoding    : 8	(unsigned char)
    <3c84>   DW_AT_name        : (indirect string, offset: 0x251): unsigned char
 <1><3c88>: Abbrev Number: 2 (DW_TAG_base_type)
    <3c89>   DW_AT_byte_size   : 2
    <3c8a>   DW_AT_encoding    : 7	(unsigned)
    <3c8b>   DW_AT_name        : (indirect string, offset: 0xbd5): short unsigned int
 <1><3c8f>: Abbrev Number: 2 (DW_TAG_base_type)
    <3c90>   DW_AT_byte_size   : 4
    <3c91>   DW_AT_encoding    : 7	(unsigned)
    <3c92>   DW_AT_name        : (indirect string, offset: 0x8d6): unsigned int
 <1><3c96>: Abbrev Number: 2 (DW_TAG_base_type)
    <3c97>   DW_AT_byte_size   : 8
    <3c98>   DW_AT_encoding    : 7	(unsigned)
    <3c99>   DW_AT_name        : (indirect string, offset: 0x8d1): long unsigned int
 <1><3c9d>: Abbrev Number: 2 (DW_TAG_base_type)
    <3c9e>   DW_AT_byte_size   : 1
    <3c9f>   DW_AT_encoding    : 6	(signed char)
    <3ca0>   DW_AT_name        : (indirect string, offset: 0x253): signed char
 <1><3ca4>: Abbrev Number: 2 (DW_TAG_base_type)
    <3ca5>   DW_AT_byte_size   : 2
    <3ca6>   DW_AT_encoding    : 5	(signed)
    <3ca7>   DW_AT_name        : (indirect string, offset: 0xa6c): short int
 <1><3cab>: Abbrev Number: 3 (DW_TAG_base_type)
    <3cac>   DW_AT_byte_size   : 4
    <3cad>   DW_AT_encoding    : 5	(signed)
    <3cae>   DW_AT_name        : int
 <1><3cb2>: Abbrev Number: 2 (DW_TAG_base_type)
    <3cb3>   DW_AT_byte_size   : 8
    <3cb4>   DW_AT_encoding    : 5	(signed)
    <3cb5>   DW_AT_name        : (indirect string, offset: 0x6bd): long int
 <1><3cb9>: Abbrev Number: 2 (DW_TAG_base_type)
    <3cba>   DW_AT_byte_size   : 1
    <3cbb>   DW_AT_encoding    : 6	(signed char)
    <3cbc>   DW_AT_name        : (indirect string, offset: 0x25a): char
 <1><3cc0>: Abbrev Number: 4 (DW_TAG_typedef)
    <3cc1>   DW_AT_name        : (indirect string, offset: 0x11e0): uint_fast32_t
    <3cc5>   DW_AT_decl_file   : 1
    <3cc6>   DW_AT_decl_line   : 74
    <3cc7>   DW_AT_decl_column : 27
    <3cc8>   DW_AT_type        : <0x3c96>
 <1><3ccc>: Abbrev Number: 5 (DW_TAG_const_type)
    <3ccd>   DW_AT_type        : <0x3cc0>
 <1><3cd1>: Abbrev Number: 6 (DW_TAG_array_type)
    <3cd2>   DW_AT_type        : <0x3ccc>
    <3cd6>   DW_AT_sibling     : <0x3ce7>
 <2><3cda>: Abbrev Number: 7 (DW_TAG_subrange_type)
    <3cdb>   DW_AT_type        : <0x3c96>
    <3cdf>   DW_AT_upper_bound : 7
 <2><3ce0>: Abbrev Number: 7 (DW_TAG_subrange_type)
    <3ce1>   DW_AT_type        : <0x3c96>
    <3ce5>   DW_AT_upper_bound : 255
 <2><3ce6>: Abbrev Number: 0
 <1><3ce7>: Abbrev Number: 5 (DW_TAG_const_type)
    <3ce8>   DW_AT_type        : <0x3cd1>
 <1><3cec>: Abbrev Number: 8 (DW_TAG_variable)
    <3ced>   DW_AT_name        : (indirect string, offset: 0x123b): crctab
    <3cf1>   DW_AT_decl_file   : 2
    <3cf2>   DW_AT_decl_line   : 3
    <3cf3>   DW_AT_decl_column : 21
    <3cf4>   DW_AT_type        : <0x3ce7>
    <3cf8>   DW_AT_external    : 1
    <3cf8>   DW_AT_location    : 9 byte block: 3 60 82 2 0 0 0 0 0 	(DW_OP_addr: 28260)
 <1><3d02>: Abbrev Number: 0
  Compilation Unit @ offset 0x3d03:
   Length:        0x42 (32-bit)
   Version:       4
   Abbrev Offset: 0xbf9
   Pointer Size:  8
 <0><3d0e>: Abbrev Number: 1 (DW_TAG_compile_unit)
    <3d0f>   DW_AT_producer    : (indirect string, offset: 0x2c7): GNU C17 11.1.0 -mtune=generic -march=x86-64 -g -O0 -fasynchronous-unwind-tables -fstack-protector-strong -fstack-clash-protection -fcf-protection
    <3d13>   DW_AT_language    : 12	(ANSI C99)
    <3d14>   DW_AT_name        : (indirect string, offset: 0x1255): src/version.c
    <3d18>   DW_AT_comp_dir    : (indirect string, offset: 0xa27): /home/jacekline/dev/research/programs/coreutils-9.1
    <3d1c>   DW_AT_stmt_list   : 0x1c9a
 <1><3d20>: Abbrev Number: 2 (DW_TAG_variable)
    <3d21>   DW_AT_name        : (indirect string, offset: 0x6c6): Version
    <3d25>   DW_AT_decl_file   : 1
    <3d26>   DW_AT_decl_line   : 2
    <3d27>   DW_AT_decl_column : 13
    <3d28>   DW_AT_type        : <0x3d36>
    <3d2c>   DW_AT_external    : 1
    <3d2c>   DW_AT_location    : 9 byte block: 3 e0 20 3 0 0 0 0 0 	(DW_OP_addr: 320e0)
 <1><3d36>: Abbrev Number: 3 (DW_TAG_pointer_type)
    <3d37>   DW_AT_byte_size   : 8
    <3d38>   DW_AT_type        : <0x3d43>
 <1><3d3c>: Abbrev Number: 4 (DW_TAG_base_type)
    <3d3d>   DW_AT_byte_size   : 1
    <3d3e>   DW_AT_encoding    : 6	(signed char)
    <3d3f>   DW_AT_name        : (indirect string, offset: 0x25a): char
 <1><3d43>: Abbrev Number: 5 (DW_TAG_const_type)
    <3d44>   DW_AT_type        : <0x3d3c>
 <1><3d48>: Abbrev Number: 0
  Compilation Unit @ offset 0x3d49:
   Length:        0x794 (32-bit)
   Version:       4
   Abbrev Offset: 0xc37
   Pointer Size:  8
 <0><3d54>: Abbrev Number: 1 (DW_TAG_compile_unit)
    <3d55>   DW_AT_producer    : (indirect string, offset: 0x2c7): GNU C17 11.1.0 -mtune=generic -march=x86-64 -g -O0 -fasynchronous-unwind-tables -fstack-protector-strong -fstack-clash-protection -fcf-protection
    <3d59>   DW_AT_language    : 12	(ANSI C99)
    <3d5a>   DW_AT_name        : (indirect string, offset: 0x12c4): lib/argmatch.c
    <3d5e>   DW_AT_comp_dir    : (indirect string, offset: 0xa27): /home/jacekline/dev/research/programs/coreutils-9.1
    <3d62>   DW_AT_low_pc      : 0xc079
    <3d6a>   DW_AT_high_pc     : 0x4ed
    <3d72>   DW_AT_stmt_list   : 0x1cc8
 <1><3d76>: Abbrev Number: 2 (DW_TAG_typedef)
    <3d77>   DW_AT_name        : (indirect string, offset: 0x47c): ptrdiff_t
    <3d7b>   DW_AT_decl_file   : 2
    <3d7c>   DW_AT_decl_line   : 143
    <3d7d>   DW_AT_decl_column : 26
    <3d7e>   DW_AT_type        : <0x3d82>
 <1><3d82>: Abbrev Number: 3 (DW_TAG_base_type)
    <3d83>   DW_AT_byte_size   : 8
    <3d84>   DW_AT_encoding    : 5	(signed)
    <3d85>   DW_AT_name        : (indirect string, offset: 0x6bd): long int
 <1><3d89>: Abbrev Number: 2 (DW_TAG_typedef)
    <3d8a>   DW_AT_name        : (indirect string, offset: 0x70): size_t
    <3d8e>   DW_AT_decl_file   : 2
    <3d8f>   DW_AT_decl_line   : 209
    <3d90>   DW_AT_decl_column : 23
    <3d91>   DW_AT_type        : <0x3d95>
 <1><3d95>: Abbrev Number: 3 (DW_TAG_base_type)
    <3d96>   DW_AT_byte_size   : 8
    <3d97>   DW_AT_encoding    : 7	(unsigned)
    <3d98>   DW_AT_name        : (indirect string, offset: 0x8d1): long unsigned int
 <1><3d9c>: Abbrev Number: 4 (DW_TAG_base_type)
    <3d9d>   DW_AT_byte_size   : 4
    <3d9e>   DW_AT_encoding    : 5	(signed)
    <3d9f>   DW_AT_name        : int
 <1><3da3>: Abbrev Number: 3 (DW_TAG_base_type)
    <3da4>   DW_AT_byte_size   : 8
    <3da5>   DW_AT_encoding    : 5	(signed)
    <3da6>   DW_AT_name        : (indirect string, offset: 0x6b8): long long int
 <1><3daa>: Abbrev Number: 3 (DW_TAG_base_type)
    <3dab>   DW_AT_byte_size   : 16
    <3dac>   DW_AT_encoding    : 4	(float)
    <3dad>   DW_AT_name        : (indirect string, offset: 0x86f): long double
 <1><3db1>: Abbrev Number: 3 (DW_TAG_base_type)
    <3db2>   DW_AT_byte_size   : 4
    <3db3>   DW_AT_encoding    : 7	(unsigned)
    <3db4>   DW_AT_name        : (indirect string, offset: 0x8d6): unsigned int
 <1><3db8>: Abbrev Number: 5 (DW_TAG_pointer_type)
    <3db9>   DW_AT_byte_size   : 8
 <1><3dba>: Abbrev Number: 3 (DW_TAG_base_type)
    <3dbb>   DW_AT_byte_size   : 1
    <3dbc>   DW_AT_encoding    : 8	(unsigned char)
    <3dbd>   DW_AT_name        : (indirect string, offset: 0x251): unsigned char
 <1><3dc1>: Abbrev Number: 3 (DW_TAG_base_type)
    <3dc2>   DW_AT_byte_size   : 2
    <3dc3>   DW_AT_encoding    : 7	(unsigned)
    <3dc4>   DW_AT_name        : (indirect string, offset: 0xbd5): short unsigned int
 <1><3dc8>: Abbrev Number: 3 (DW_TAG_base_type)
    <3dc9>   DW_AT_byte_size   : 1
    <3dca>   DW_AT_encoding    : 6	(signed char)
    <3dcb>   DW_AT_name        : (indirect string, offset: 0x253): signed char
 <1><3dcf>: Abbrev Number: 3 (DW_TAG_base_type)
    <3dd0>   DW_AT_byte_size   : 2
    <3dd1>   DW_AT_encoding    : 5	(signed)
    <3dd2>   DW_AT_name        : (indirect string, offset: 0xa6c): short int
 <1><3dd6>: Abbrev Number: 2 (DW_TAG_typedef)
    <3dd7>   DW_AT_name        : (indirect string, offset: 0x904): __off_t
    <3ddb>   DW_AT_decl_file   : 3
    <3ddc>   DW_AT_decl_line   : 152
    <3ddd>   DW_AT_decl_column : 25
    <3dde>   DW_AT_type        : <0x3d82>
 <1><3de2>: Abbrev Number: 2 (DW_TAG_typedef)
    <3de3>   DW_AT_name        : (indirect string, offset: 0x9e8): __off64_t
    <3de7>   DW_AT_decl_file   : 3
    <3de8>   DW_AT_decl_line   : 153
    <3de9>   DW_AT_decl_column : 27
    <3dea>   DW_AT_type        : <0x3d82>
 <1><3dee>: Abbrev Number: 6 (DW_TAG_pointer_type)
    <3def>   DW_AT_byte_size   : 8
    <3df0>   DW_AT_type        : <0x3df4>
 <1><3df4>: Abbrev Number: 3 (DW_TAG_base_type)
    <3df5>   DW_AT_byte_size   : 1
    <3df6>   DW_AT_encoding    : 6	(signed char)
    <3df7>   DW_AT_name        : (indirect string, offset: 0x25a): char
 <1><3dfb>: Abbrev Number: 7 (DW_TAG_const_type)
    <3dfc>   DW_AT_type        : <0x3df4>
 <1><3e00>: Abbrev Number: 8 (DW_TAG_structure_type)
    <3e01>   DW_AT_name        : (indirect string, offset: 0x225): _IO_FILE
    <3e05>   DW_AT_byte_size   : 216
    <3e06>   DW_AT_decl_file   : 4
    <3e07>   DW_AT_decl_line   : 49
    <3e08>   DW_AT_decl_column : 8
    <3e09>   DW_AT_sibling     : <0x3f87>
 <2><3e0d>: Abbrev Number: 9 (DW_TAG_member)
    <3e0e>   DW_AT_name        : (indirect string, offset: 0x1e86): _flags
    <3e12>   DW_AT_decl_file   : 4
    <3e13>   DW_AT_decl_line   : 51
    <3e14>   DW_AT_decl_column : 7
    <3e15>   DW_AT_type        : <0x3d9c>
    <3e19>   DW_AT_data_member_location: 0
 <2><3e1a>: Abbrev Number: 9 (DW_TAG_member)
    <3e1b>   DW_AT_name        : (indirect string, offset: 0x462): _IO_read_ptr
    <3e1f>   DW_AT_decl_file   : 4
    <3e20>   DW_AT_decl_line   : 54
    <3e21>   DW_AT_decl_column : 9
    <3e22>   DW_AT_type        : <0x3dee>
    <3e26>   DW_AT_data_member_location: 8
 <2><3e27>: Abbrev Number: 9 (DW_TAG_member)
    <3e28>   DW_AT_name        : (indirect string, offset: 0xb53): _IO_read_end
    <3e2c>   DW_AT_decl_file   : 4
    <3e2d>   DW_AT_decl_line   : 55
    <3e2e>   DW_AT_decl_column : 9
    <3e2f>   DW_AT_type        : <0x3dee>
    <3e33>   DW_AT_data_member_location: 16
 <2><3e34>: Abbrev Number: 9 (DW_TAG_member)
    <3e35>   DW_AT_name        : (indirect string, offset: 0x5f9): _IO_read_base
    <3e39>   DW_AT_decl_file   : 4
    <3e3a>   DW_AT_decl_line   : 56
    <3e3b>   DW_AT_decl_column : 9
    <3e3c>   DW_AT_type        : <0x3dee>
    <3e40>   DW_AT_data_member_location: 24
 <2><3e41>: Abbrev Number: 9 (DW_TAG_member)
    <3e42>   DW_AT_name        : (indirect string, offset: 0xe4): _IO_write_base
    <3e46>   DW_AT_decl_file   : 4
    <3e47>   DW_AT_decl_line   : 57
    <3e48>   DW_AT_decl_column : 9
    <3e49>   DW_AT_type        : <0x3dee>
    <3e4d>   DW_AT_data_member_location: 32
 <2><3e4e>: Abbrev Number: 9 (DW_TAG_member)
    <3e4f>   DW_AT_name        : (indirect string, offset: 0xc0a): _IO_write_ptr
    <3e53>   DW_AT_decl_file   : 4
    <3e54>   DW_AT_decl_line   : 58
    <3e55>   DW_AT_decl_column : 9
    <3e56>   DW_AT_type        : <0x3dee>
    <3e5a>   DW_AT_data_member_location: 40
 <2><3e5b>: Abbrev Number: 9 (DW_TAG_member)
    <3e5c>   DW_AT_name        : (indirect string, offset: 0x71a): _IO_write_end
    <3e60>   DW_AT_decl_file   : 4
    <3e61>   DW_AT_decl_line   : 59
    <3e62>   DW_AT_decl_column : 9
    <3e63>   DW_AT_type        : <0x3dee>
    <3e67>   DW_AT_data_member_location: 48
 <2><3e68>: Abbrev Number: 9 (DW_TAG_member)
    <3e69>   DW_AT_name        : (indirect string, offset: 0x76e): _IO_buf_base
    <3e6d>   DW_AT_decl_file   : 4
    <3e6e>   DW_AT_decl_line   : 60
    <3e6f>   DW_AT_decl_column : 9
    <3e70>   DW_AT_type        : <0x3dee>
    <3e74>   DW_AT_data_member_location: 56
 <2><3e75>: Abbrev Number: 9 (DW_TAG_member)
    <3e76>   DW_AT_name        : (indirect string, offset: 0xa01): _IO_buf_end
    <3e7a>   DW_AT_decl_file   : 4
    <3e7b>   DW_AT_decl_line   : 61
    <3e7c>   DW_AT_decl_column : 9
    <3e7d>   DW_AT_type        : <0x3dee>
    <3e81>   DW_AT_data_member_location: 64
 <2><3e82>: Abbrev Number: 9 (DW_TAG_member)
    <3e83>   DW_AT_name        : (indirect string, offset: 0x143): _IO_save_base
    <3e87>   DW_AT_decl_file   : 4
    <3e88>   DW_AT_decl_line   : 64
    <3e89>   DW_AT_decl_column : 9
    <3e8a>   DW_AT_type        : <0x3dee>
    <3e8e>   DW_AT_data_member_location: 72
 <2><3e8f>: Abbrev Number: 9 (DW_TAG_member)
    <3e90>   DW_AT_name        : (indirect string, offset: 0x98f): _IO_backup_base
    <3e94>   DW_AT_decl_file   : 4
    <3e95>   DW_AT_decl_line   : 65
    <3e96>   DW_AT_decl_column : 9
    <3e97>   DW_AT_type        : <0x3dee>
    <3e9b>   DW_AT_data_member_location: 80
 <2><3e9c>: Abbrev Number: 9 (DW_TAG_member)
    <3e9d>   DW_AT_name        : (indirect string, offset: 0xba): _IO_save_end
    <3ea1>   DW_AT_decl_file   : 4
    <3ea2>   DW_AT_decl_line   : 66
    <3ea3>   DW_AT_decl_column : 9
    <3ea4>   DW_AT_type        : <0x3dee>
    <3ea8>   DW_AT_data_member_location: 88
 <2><3ea9>: Abbrev Number: 9 (DW_TAG_member)
    <3eaa>   DW_AT_name        : (indirect string, offset: 0x4bb): _markers
    <3eae>   DW_AT_decl_file   : 4
    <3eaf>   DW_AT_decl_line   : 68
    <3eb0>   DW_AT_decl_column : 22
    <3eb1>   DW_AT_type        : <0x3fa0>
    <3eb5>   DW_AT_data_member_location: 96
 <2><3eb6>: Abbrev Number: 9 (DW_TAG_member)
    <3eb7>   DW_AT_name        : (indirect string, offset: 0x189): _chain
    <3ebb>   DW_AT_decl_file   : 4
    <3ebc>   DW_AT_decl_line   : 70
    <3ebd>   DW_AT_decl_column : 20
    <3ebe>   DW_AT_type        : <0x3fa6>
    <3ec2>   DW_AT_data_member_location: 104
 <2><3ec3>: Abbrev Number: 9 (DW_TAG_member)
    <3ec4>   DW_AT_name        : (indirect string, offset: 0xbb0): _fileno
    <3ec8>   DW_AT_decl_file   : 4
    <3ec9>   DW_AT_decl_line   : 72
    <3eca>   DW_AT_decl_column : 7
    <3ecb>   DW_AT_type        : <0x3d9c>
    <3ecf>   DW_AT_data_member_location: 112
 <2><3ed0>: Abbrev Number: 9 (DW_TAG_member)
    <3ed1>   DW_AT_name        : (indirect string, offset: 0x5df): _flags2
    <3ed5>   DW_AT_decl_file   : 4
    <3ed6>   DW_AT_decl_line   : 73
    <3ed7>   DW_AT_decl_column : 7
    <3ed8>   DW_AT_type        : <0x3d9c>
    <3edc>   DW_AT_data_member_location: 116
 <2><3edd>: Abbrev Number: 9 (DW_TAG_member)
    <3ede>   DW_AT_name        : (indirect string, offset: 0x64e): _old_offset
    <3ee2>   DW_AT_decl_file   : 4
    <3ee3>   DW_AT_decl_line   : 74
    <3ee4>   DW_AT_decl_column : 11
    <3ee5>   DW_AT_type        : <0x3dd6>
    <3ee9>   DW_AT_data_member_location: 120
 <2><3eea>: Abbrev Number: 9 (DW_TAG_member)
    <3eeb>   DW_AT_name        : (indirect string, offset: 0x190): _cur_column
    <3eef>   DW_AT_decl_file   : 4
    <3ef0>   DW_AT_decl_line   : 77
    <3ef1>   DW_AT_decl_column : 18
    <3ef2>   DW_AT_type        : <0x3dc1>
    <3ef6>   DW_AT_data_member_location: 128
 <2><3ef7>: Abbrev Number: 9 (DW_TAG_member)
    <3ef8>   DW_AT_name        : (indirect string, offset: 0xaea): _vtable_offset
    <3efc>   DW_AT_decl_file   : 4
    <3efd>   DW_AT_decl_line   : 78
    <3efe>   DW_AT_decl_column : 15
    <3eff>   DW_AT_type        : <0x3dc8>
    <3f03>   DW_AT_data_member_location: 130
 <2><3f04>: Abbrev Number: 9 (DW_TAG_member)
    <3f05>   DW_AT_name        : (indirect string, offset: 0x9a9): _shortbuf
    <3f09>   DW_AT_decl_file   : 4
    <3f0a>   DW_AT_decl_line   : 79
    <3f0b>   DW_AT_decl_column : 8
    <3f0c>   DW_AT_type        : <0x3fac>
    <3f10>   DW_AT_data_member_location: 131
 <2><3f11>: Abbrev Number: 9 (DW_TAG_member)
    <3f12>   DW_AT_name        : (indirect string, offset: 0xfb): _lock
    <3f16>   DW_AT_decl_file   : 4
    <3f17>   DW_AT_decl_line   : 81
    <3f18>   DW_AT_decl_column : 15
    <3f19>   DW_AT_type        : <0x3fbc>
    <3f1d>   DW_AT_data_member_location: 136
 <2><3f1e>: Abbrev Number: 9 (DW_TAG_member)
    <3f1f>   DW_AT_name        : (indirect string, offset: 0x652): _offset
    <3f23>   DW_AT_decl_file   : 4
    <3f24>   DW_AT_decl_line   : 89
    <3f25>   DW_AT_decl_column : 13
    <3f26>   DW_AT_type        : <0x3de2>
    <3f2a>   DW_AT_data_member_location: 144
 <2><3f2b>: Abbrev Number: 9 (DW_TAG_member)
    <3f2c>   DW_AT_name        : (indirect string, offset: 0x7a): _codecvt
    <3f30>   DW_AT_decl_file   : 4
    <3f31>   DW_AT_decl_line   : 91
    <3f32>   DW_AT_decl_column : 23
    <3f33>   DW_AT_type        : <0x3fc7>
    <3f37>   DW_AT_data_member_location: 152
 <2><3f38>: Abbrev Number: 9 (DW_TAG_member)
    <3f39>   DW_AT_name        : (indirect string, offset: 0x231): _wide_data
    <3f3d>   DW_AT_decl_file   : 4
    <3f3e>   DW_AT_decl_line   : 92
    <3f3f>   DW_AT_decl_column : 25
    <3f40>   DW_AT_type        : <0x3fd2>
    <3f44>   DW_AT_data_member_location: 160
 <2><3f45>: Abbrev Number: 9 (DW_TAG_member)
    <3f46>   DW_AT_name        : (indirect string, offset: 0x25f): _freeres_list
    <3f4a>   DW_AT_decl_file   : 4
    <3f4b>   DW_AT_decl_line   : 93
    <3f4c>   DW_AT_decl_column : 20
    <3f4d>   DW_AT_type        : <0x3fa6>
    <3f51>   DW_AT_data_member_location: 168
 <2><3f52>: Abbrev Number: 9 (DW_TAG_member)
    <3f53>   DW_AT_name        : (indirect string, offset: 0x944): _freeres_buf
    <3f57>   DW_AT_decl_file   : 4
    <3f58>   DW_AT_decl_line   : 94
    <3f59>   DW_AT_decl_column : 9
    <3f5a>   DW_AT_type        : <0x3db8>
    <3f5e>   DW_AT_data_member_location: 176
 <2><3f5f>: Abbrev Number: 9 (DW_TAG_member)
    <3f60>   DW_AT_name        : (indirect string, offset: 0x7c6): __pad5
    <3f64>   DW_AT_decl_file   : 4
    <3f65>   DW_AT_decl_line   : 95
    <3f66>   DW_AT_decl_column : 10
    <3f67>   DW_AT_type        : <0x3d89>
    <3f6b>   DW_AT_data_member_location: 184
 <2><3f6c>: Abbrev Number: 9 (DW_TAG_member)
    <3f6d>   DW_AT_name        : (indirect string, offset: 0x818): _mode
    <3f71>   DW_AT_decl_file   : 4
    <3f72>   DW_AT_decl_line   : 96
    <3f73>   DW_AT_decl_column : 7
    <3f74>   DW_AT_type        : <0x3d9c>
    <3f78>   DW_AT_data_member_location: 192
 <2><3f79>: Abbrev Number: 9 (DW_TAG_member)
    <3f7a>   DW_AT_name        : (indirect string, offset: 0x60e): _unused2
    <3f7e>   DW_AT_decl_file   : 4
    <3f7f>   DW_AT_decl_line   : 98
    <3f80>   DW_AT_decl_column : 8
    <3f81>   DW_AT_type        : <0x3fd8>
    <3f85>   DW_AT_data_member_location: 196
 <2><3f86>: Abbrev Number: 0
 <1><3f87>: Abbrev Number: 2 (DW_TAG_typedef)
    <3f88>   DW_AT_name        : (indirect string, offset: 0x229): FILE
    <3f8c>   DW_AT_decl_file   : 5
    <3f8d>   DW_AT_decl_line   : 7
    <3f8e>   DW_AT_decl_column : 25
    <3f8f>   DW_AT_type        : <0x3e00>
 <1><3f93>: Abbrev Number: 10 (DW_TAG_typedef)
    <3f94>   DW_AT_name        : (indirect string, offset: 0x3ed): _IO_lock_t
    <3f98>   DW_AT_decl_file   : 4
    <3f99>   DW_AT_decl_line   : 43
    <3f9a>   DW_AT_decl_column : 14
 <1><3f9b>: Abbrev Number: 11 (DW_TAG_structure_type)
    <3f9c>   DW_AT_name        : (indirect string, offset: 0x1e5): _IO_marker
    <3fa0>   DW_AT_declaration : 1
 <1><3fa0>: Abbrev Number: 6 (DW_TAG_pointer_type)
    <3fa1>   DW_AT_byte_size   : 8
    <3fa2>   DW_AT_type        : <0x3f9b>
 <1><3fa6>: Abbrev Number: 6 (DW_TAG_pointer_type)
    <3fa7>   DW_AT_byte_size   : 8
    <3fa8>   DW_AT_type        : <0x3e00>
 <1><3fac>: Abbrev Number: 12 (DW_TAG_array_type)
    <3fad>   DW_AT_type        : <0x3df4>
    <3fb1>   DW_AT_sibling     : <0x3fbc>
 <2><3fb5>: Abbrev Number: 13 (DW_TAG_subrange_type)
    <3fb6>   DW_AT_type        : <0x3d95>
    <3fba>   DW_AT_upper_bound : 0
 <2><3fbb>: Abbrev Number: 0
 <1><3fbc>: Abbrev Number: 6 (DW_TAG_pointer_type)
    <3fbd>   DW_AT_byte_size   : 8
    <3fbe>   DW_AT_type        : <0x3f93>
 <1><3fc2>: Abbrev Number: 11 (DW_TAG_structure_type)
    <3fc3>   DW_AT_name        : (indirect string, offset: 0x77): _IO_codecvt
    <3fc7>   DW_AT_declaration : 1
 <1><3fc7>: Abbrev Number: 6 (DW_TAG_pointer_type)
    <3fc8>   DW_AT_byte_size   : 8
    <3fc9>   DW_AT_type        : <0x3fc2>
 <1><3fcd>: Abbrev Number: 11 (DW_TAG_structure_type)
    <3fce>   DW_AT_name        : (indirect string, offset: 0x22e): _IO_wide_data
    <3fd2>   DW_AT_declaration : 1
 <1><3fd2>: Abbrev Number: 6 (DW_TAG_pointer_type)
    <3fd3>   DW_AT_byte_size   : 8
    <3fd4>   DW_AT_type        : <0x3fcd>
 <1><3fd8>: Abbrev Number: 12 (DW_TAG_array_type)
    <3fd9>   DW_AT_type        : <0x3df4>
    <3fdd>   DW_AT_sibling     : <0x3fe8>
 <2><3fe1>: Abbrev Number: 13 (DW_TAG_subrange_type)
    <3fe2>   DW_AT_type        : <0x3d95>
    <3fe6>   DW_AT_upper_bound : 19
 <2><3fe7>: Abbrev Number: 0
 <1><3fe8>: Abbrev Number: 6 (DW_TAG_pointer_type)
    <3fe9>   DW_AT_byte_size   : 8
    <3fea>   DW_AT_type        : <0x3dfb>
 <1><3fee>: Abbrev Number: 7 (DW_TAG_const_type)
    <3fef>   DW_AT_type        : <0x3fe8>
 <1><3ff3>: Abbrev Number: 14 (DW_TAG_restrict_type)
    <3ff4>   DW_AT_type        : <0x3fe8>
 <1><3ff8>: Abbrev Number: 6 (DW_TAG_pointer_type)
    <3ff9>   DW_AT_byte_size   : 8
    <3ffa>   DW_AT_type        : <0x3f87>
 <1><3ffe>: Abbrev Number: 14 (DW_TAG_restrict_type)
    <3fff>   DW_AT_type        : <0x3ff8>
 <1><4003>: Abbrev Number: 15 (DW_TAG_variable)
    <4004>   DW_AT_name        : (indirect string, offset: 0xa65): stderr
    <4008>   DW_AT_decl_file   : 7
    <4009>   DW_AT_decl_line   : 139
    <400a>   DW_AT_decl_column : 14
    <400b>   DW_AT_type        : <0x3ff8>
    <400f>   DW_AT_external    : 1
    <400f>   DW_AT_declaration : 1
 <1><400f>: Abbrev Number: 3 (DW_TAG_base_type)
    <4010>   DW_AT_byte_size   : 8
    <4011>   DW_AT_encoding    : 7	(unsigned)
    <4012>   DW_AT_name        : (indirect string, offset: 0x8cc): long long unsigned int
 <1><4016>: Abbrev Number: 6 (DW_TAG_pointer_type)
    <4017>   DW_AT_byte_size   : 8
    <4018>   DW_AT_type        : <0x401c>
 <1><401c>: Abbrev Number: 16 (DW_TAG_const_type)
 <1><401d>: Abbrev Number: 2 (DW_TAG_typedef)
    <401e>   DW_AT_name        : (indirect string, offset: 0xcc4): argmatch_exit_fn
    <4022>   DW_AT_decl_file   : 6
    <4023>   DW_AT_decl_line   : 67
    <4024>   DW_AT_decl_column : 16
    <4025>   DW_AT_type        : <0x4029>
 <1><4029>: Abbrev Number: 6 (DW_TAG_pointer_type)
    <402a>   DW_AT_byte_size   : 8
    <402b>   DW_AT_type        : <0x402f>
 <1><402f>: Abbrev Number: 17 (DW_TAG_subroutine_type)
    <4030>   DW_AT_prototyped  : 1
 <1><4030>: Abbrev Number: 15 (DW_TAG_variable)
    <4031>   DW_AT_name        : (indirect string, offset: 0x12dc): argmatch_die
    <4035>   DW_AT_decl_file   : 6
    <4036>   DW_AT_decl_line   : 68
    <4037>   DW_AT_decl_column : 25
    <4038>   DW_AT_type        : <0x401d>
    <403c>   DW_AT_external    : 1
    <403c>   DW_AT_declaration : 1
 <1><403c>: Abbrev Number: 18 (DW_TAG_enumeration_type)
    <403d>   DW_AT_name        : (indirect string, offset: 0x6e4): quoting_style
    <4041>   DW_AT_encoding    : 7	(unsigned)
    <4042>   DW_AT_byte_size   : 4
    <4043>   DW_AT_type        : <0x3db1>
    <4047>   DW_AT_decl_file   : 9
    <4048>   DW_AT_decl_line   : 32
    <4049>   DW_AT_decl_column : 6
    <404a>   DW_AT_sibling     : <0x4091>
 <2><404e>: Abbrev Number: 19 (DW_TAG_enumerator)
    <404f>   DW_AT_name        : (indirect string, offset: 0x7b0): literal_quoting_style
    <4053>   DW_AT_const_value : 0
 <2><4054>: Abbrev Number: 19 (DW_TAG_enumerator)
    <4055>   DW_AT_name        : (indirect string, offset: 0x66f): shell_quoting_style
    <4059>   DW_AT_const_value : 1
 <2><405a>: Abbrev Number: 19 (DW_TAG_enumerator)
    <405b>   DW_AT_name        : (indirect string, offset: 0x9cd): shell_always_quoting_style
    <405f>   DW_AT_const_value : 2
 <2><4060>: Abbrev Number: 19 (DW_TAG_enumerator)
    <4061>   DW_AT_name        : (indirect string, offset: 0xaac): shell_escape_quoting_style
    <4065>   DW_AT_const_value : 3
 <2><4066>: Abbrev Number: 19 (DW_TAG_enumerator)
    <4067>   DW_AT_name        : (indirect string, offset: 0x42b): shell_escape_always_quoting_style
    <406b>   DW_AT_const_value : 4
 <2><406c>: Abbrev Number: 19 (DW_TAG_enumerator)
    <406d>   DW_AT_name        : (indirect string, offset: 0x6e2): c_quoting_style
    <4071>   DW_AT_const_value : 5
 <2><4072>: Abbrev Number: 19 (DW_TAG_enumerator)
    <4073>   DW_AT_name        : (indirect string, offset: 0x514): c_maybe_quoting_style
    <4077>   DW_AT_const_value : 6
 <2><4078>: Abbrev Number: 19 (DW_TAG_enumerator)
    <4079>   DW_AT_name        : (indirect string, offset: 0xab2): escape_quoting_style
    <407d>   DW_AT_const_value : 7
 <2><407e>: Abbrev Number: 19 (DW_TAG_enumerator)
    <407f>   DW_AT_name        : (indirect string, offset: 0x5c1): locale_quoting_style
    <4083>   DW_AT_const_value : 8
 <2><4084>: Abbrev Number: 19 (DW_TAG_enumerator)
    <4085>   DW_AT_name        : (indirect string, offset: 0x5c0): clocale_quoting_style
    <4089>   DW_AT_const_value : 9
 <2><408a>: Abbrev Number: 19 (DW_TAG_enumerator)
    <408b>   DW_AT_name        : (indirect string, offset: 0xcd5): custom_quoting_style
    <408f>   DW_AT_const_value : 10
 <2><4090>: Abbrev Number: 0
 <1><4091>: Abbrev Number: 20 (DW_TAG_variable)
    <4092>   DW_AT_specification: <0x4030>
    <4096>   DW_AT_decl_file   : 1
    <4097>   DW_AT_decl_line   : 67
    <4098>   DW_AT_decl_column : 18
    <4099>   DW_AT_location    : 9 byte block: 3 e8 20 3 0 0 0 0 0 	(DW_OP_addr: 320e8)
 <1><40a3>: Abbrev Number: 21 (DW_TAG_subprogram)
    <40a4>   DW_AT_external    : 1
    <40a4>   DW_AT_name        : (indirect string, offset: 0x1335): putc_unlocked
    <40a8>   DW_AT_decl_file   : 7
    <40a9>   DW_AT_decl_line   : 545
    <40ab>   DW_AT_decl_column : 12
    <40ac>   DW_AT_prototyped  : 1
    <40ac>   DW_AT_type        : <0x3d9c>
    <40b0>   DW_AT_declaration : 1
    <40b0>   DW_AT_sibling     : <0x40bf>
 <2><40b4>: Abbrev Number: 22 (DW_TAG_formal_parameter)
    <40b5>   DW_AT_type        : <0x3d9c>
 <2><40b9>: Abbrev Number: 22 (DW_TAG_formal_parameter)
    <40ba>   DW_AT_type        : <0x3ff8>
 <2><40be>: Abbrev Number: 0
 <1><40bf>: Abbrev Number: 21 (DW_TAG_subprogram)
    <40c0>   DW_AT_external    : 1
    <40c0>   DW_AT_name        : (indirect string, offset: 0xa0d): fprintf
    <40c4>   DW_AT_decl_file   : 7
    <40c5>   DW_AT_decl_line   : 326
    <40c7>   DW_AT_decl_column : 12
    <40c8>   DW_AT_prototyped  : 1
    <40c8>   DW_AT_type        : <0x3d9c>
    <40cc>   DW_AT_declaration : 1
    <40cc>   DW_AT_sibling     : <0x40dc>
 <2><40d0>: Abbrev Number: 22 (DW_TAG_formal_parameter)
    <40d1>   DW_AT_type        : <0x3ffe>
 <2><40d5>: Abbrev Number: 22 (DW_TAG_formal_parameter)
    <40d6>   DW_AT_type        : <0x3ff3>
 <2><40da>: Abbrev Number: 23 (DW_TAG_unspecified_parameters)
 <2><40db>: Abbrev Number: 0
 <1><40dc>: Abbrev Number: 24 (DW_TAG_subprogram)
    <40dd>   DW_AT_external    : 1
    <40dd>   DW_AT_name        : (indirect string, offset: 0x1ce0): quote
    <40e1>   DW_AT_decl_file   : 8
    <40e2>   DW_AT_decl_line   : 44
    <40e3>   DW_AT_decl_column : 13
    <40e4>   DW_AT_prototyped  : 1
    <40e4>   DW_AT_type        : <0x3fe8>
    <40e8>   DW_AT_declaration : 1
    <40e8>   DW_AT_sibling     : <0x40f2>
 <2><40ec>: Abbrev Number: 22 (DW_TAG_formal_parameter)
    <40ed>   DW_AT_type        : <0x3fe8>
 <2><40f1>: Abbrev Number: 0
 <1><40f2>: Abbrev Number: 21 (DW_TAG_subprogram)
    <40f3>   DW_AT_external    : 1
    <40f3>   DW_AT_name        : (indirect string, offset: 0x554): fputs_unlocked
    <40f7>   DW_AT_decl_file   : 7
    <40f8>   DW_AT_decl_line   : 662
    <40fa>   DW_AT_decl_column : 12
    <40fb>   DW_AT_prototyped  : 1
    <40fb>   DW_AT_type        : <0x3d9c>
    <40ff>   DW_AT_declaration : 1
    <40ff>   DW_AT_sibling     : <0x410e>
 <2><4103>: Abbrev Number: 22 (DW_TAG_formal_parameter)
    <4104>   DW_AT_type        : <0x3ff3>
 <2><4108>: Abbrev Number: 22 (DW_TAG_formal_parameter)
    <4109>   DW_AT_type        : <0x3ffe>
 <2><410d>: Abbrev Number: 0
 <1><410e>: Abbrev Number: 25 (DW_TAG_subprogram)
    <410f>   DW_AT_external    : 1
    <410f>   DW_AT_name        : (indirect string, offset: 0x136c): error
    <4113>   DW_AT_decl_file   : 12
    <4114>   DW_AT_decl_line   : 33
    <4115>   DW_AT_decl_column : 13
    <4116>   DW_AT_prototyped  : 1
    <4116>   DW_AT_declaration : 1
    <4116>   DW_AT_sibling     : <0x412b>
 <2><411a>: Abbrev Number: 22 (DW_TAG_formal_parameter)
    <411b>   DW_AT_type        : <0x3d9c>
 <2><411f>: Abbrev Number: 22 (DW_TAG_formal_parameter)
    <4120>   DW_AT_type        : <0x3d9c>
 <2><4124>: Abbrev Number: 22 (DW_TAG_formal_parameter)
    <4125>   DW_AT_type        : <0x3fe8>
 <2><4129>: Abbrev Number: 23 (DW_TAG_unspecified_parameters)
 <2><412a>: Abbrev Number: 0
 <1><412b>: Abbrev Number: 21 (DW_TAG_subprogram)
    <412c>   DW_AT_external    : 1
    <412c>   DW_AT_name        : (indirect string, offset: 0x1280): quotearg_n_style
    <4130>   DW_AT_decl_file   : 9
    <4131>   DW_AT_decl_line   : 374
    <4133>   DW_AT_decl_column : 7
    <4134>   DW_AT_prototyped  : 1
    <4134>   DW_AT_type        : <0x3dee>
    <4138>   DW_AT_declaration : 1
    <4138>   DW_AT_sibling     : <0x414c>
 <2><413c>: Abbrev Number: 22 (DW_TAG_formal_parameter)
    <413d>   DW_AT_type        : <0x3d9c>
 <2><4141>: Abbrev Number: 22 (DW_TAG_formal_parameter)
    <4142>   DW_AT_type        : <0x403c>
 <2><4146>: Abbrev Number: 22 (DW_TAG_formal_parameter)
    <4147>   DW_AT_type        : <0x3fe8>
 <2><414b>: Abbrev Number: 0
 <1><414c>: Abbrev Number: 24 (DW_TAG_subprogram)
    <414d>   DW_AT_external    : 1
    <414d>   DW_AT_name        : (indirect string, offset: 0x1343): quote_n
    <4151>   DW_AT_decl_file   : 8
    <4152>   DW_AT_decl_line   : 40
    <4153>   DW_AT_decl_column : 13
    <4154>   DW_AT_prototyped  : 1
    <4154>   DW_AT_type        : <0x3fe8>
    <4158>   DW_AT_declaration : 1
    <4158>   DW_AT_sibling     : <0x4167>
 <2><415c>: Abbrev Number: 22 (DW_TAG_formal_parameter)
    <415d>   DW_AT_type        : <0x3d9c>
 <2><4161>: Abbrev Number: 22 (DW_TAG_formal_parameter)
    <4162>   DW_AT_type        : <0x3fe8>
 <2><4166>: Abbrev Number: 0
 <1><4167>: Abbrev Number: 24 (DW_TAG_subprogram)
    <4168>   DW_AT_external    : 1
    <4168>   DW_AT_name        : (indirect string, offset: 0x618): gettext
    <416c>   DW_AT_decl_file   : 10
    <416d>   DW_AT_decl_line   : 39
    <416e>   DW_AT_decl_column : 14
    <416f>   DW_AT_prototyped  : 1
    <416f>   DW_AT_type        : <0x3dee>
    <4173>   DW_AT_declaration : 1
    <4173>   DW_AT_sibling     : <0x417d>
 <2><4177>: Abbrev Number: 22 (DW_TAG_formal_parameter)
    <4178>   DW_AT_type        : <0x3fe8>
 <2><417c>: Abbrev Number: 0
 <1><417d>: Abbrev Number: 24 (DW_TAG_subprogram)
    <417e>   DW_AT_external    : 1
    <417e>   DW_AT_name        : (indirect string, offset: 0x48d): strcmp
    <4182>   DW_AT_decl_file   : 11
    <4183>   DW_AT_decl_line   : 137
    <4184>   DW_AT_decl_column : 12
    <4185>   DW_AT_prototyped  : 1
    <4185>   DW_AT_type        : <0x3d9c>
    <4189>   DW_AT_declaration : 1
    <4189>   DW_AT_sibling     : <0x4198>
 <2><418d>: Abbrev Number: 22 (DW_TAG_formal_parameter)
    <418e>   DW_AT_type        : <0x3fe8>
 <2><4192>: Abbrev Number: 22 (DW_TAG_formal_parameter)
    <4193>   DW_AT_type        : <0x3fe8>
 <2><4197>: Abbrev Number: 0
 <1><4198>: Abbrev Number: 24 (DW_TAG_subprogram)
    <4199>   DW_AT_external    : 1
    <4199>   DW_AT_name        : (indirect string, offset: 0x1317): memcmp
    <419d>   DW_AT_decl_file   : 11
    <419e>   DW_AT_decl_line   : 64
    <419f>   DW_AT_decl_column : 12
    <41a0>   DW_AT_prototyped  : 1
    <41a0>   DW_AT_type        : <0x3d9c>
    <41a4>   DW_AT_declaration : 1
    <41a4>   DW_AT_sibling     : <0x41b8>
 <2><41a8>: Abbrev Number: 22 (DW_TAG_formal_parameter)
    <41a9>   DW_AT_type        : <0x4016>
 <2><41ad>: Abbrev Number: 22 (DW_TAG_formal_parameter)
    <41ae>   DW_AT_type        : <0x4016>
 <2><41b2>: Abbrev Number: 22 (DW_TAG_formal_parameter)
    <41b3>   DW_AT_type        : <0x3d89>
 <2><41b7>: Abbrev Number: 0
 <1><41b8>: Abbrev Number: 24 (DW_TAG_subprogram)
    <41b9>   DW_AT_external    : 1
    <41b9>   DW_AT_name        : (indirect string, offset: 0xf3): strncmp
    <41bd>   DW_AT_decl_file   : 11
    <41be>   DW_AT_decl_line   : 140
    <41bf>   DW_AT_decl_column : 12
    <41c0>   DW_AT_prototyped  : 1
    <41c0>   DW_AT_type        : <0x3d9c>
    <41c4>   DW_AT_declaration : 1
    <41c4>   DW_AT_sibling     : <0x41d8>
 <2><41c8>: Abbrev Number: 22 (DW_TAG_formal_parameter)
    <41c9>   DW_AT_type        : <0x3fe8>
 <2><41cd>: Abbrev Number: 22 (DW_TAG_formal_parameter)
    <41ce>   DW_AT_type        : <0x3fe8>
 <2><41d2>: Abbrev Number: 22 (DW_TAG_formal_parameter)
    <41d3>   DW_AT_type        : <0x3d89>
 <2><41d7>: Abbrev Number: 0
 <1><41d8>: Abbrev Number: 21 (DW_TAG_subprogram)
    <41d9>   DW_AT_external    : 1
    <41d9>   DW_AT_name        : (indirect string, offset: 0xb2d): strlen
    <41dd>   DW_AT_decl_file   : 11
    <41de>   DW_AT_decl_line   : 385
    <41e0>   DW_AT_decl_column : 15
    <41e1>   DW_AT_prototyped  : 1
    <41e1>   DW_AT_type        : <0x3d89>
    <41e5>   DW_AT_declaration : 1
    <41e5>   DW_AT_sibling     : <0x41ef>
 <2><41e9>: Abbrev Number: 22 (DW_TAG_formal_parameter)
    <41ea>   DW_AT_type        : <0x3fe8>
 <2><41ee>: Abbrev Number: 0
 <1><41ef>: Abbrev Number: 25 (DW_TAG_subprogram)
    <41f0>   DW_AT_external    : 1
    <41f0>   DW_AT_name        : (indirect string, offset: 0xa9f): usage
    <41f4>   DW_AT_decl_file   : 1
    <41f5>   DW_AT_decl_line   : 56
    <41f6>   DW_AT_decl_column : 1
    <41f7>   DW_AT_prototyped  : 1
    <41f7>   DW_AT_declaration : 1
    <41f7>   DW_AT_sibling     : <0x4201>
 <2><41fb>: Abbrev Number: 22 (DW_TAG_formal_parameter)
    <41fc>   DW_AT_type        : <0x3d9c>
 <2><4200>: Abbrev Number: 0
 <1><4201>: Abbrev Number: 26 (DW_TAG_subprogram)
    <4202>   DW_AT_external    : 1
    <4202>   DW_AT_name        : (indirect string, offset: 0x12e9): argmatch_to_argument
    <4206>   DW_AT_decl_file   : 1
    <4207>   DW_AT_decl_line   : 217
    <4208>   DW_AT_decl_column : 1
    <4209>   DW_AT_prototyped  : 1
    <4209>   DW_AT_type        : <0x3fe8>
    <420d>   DW_AT_low_pc      : 0xc4d6
    <4215>   DW_AT_high_pc     : 0x90
    <421d>   DW_AT_frame_base  : 1 byte block: 9c 	(DW_OP_call_frame_cfa)
    <421f>   DW_AT_GNU_all_tail_call_sites: 1
    <421f>   DW_AT_sibling     : <0x426d>
 <2><4223>: Abbrev Number: 27 (DW_TAG_formal_parameter)
    <4224>   DW_AT_name        : (indirect string, offset: 0x1ee3): value
    <4228>   DW_AT_decl_file   : 1
    <4229>   DW_AT_decl_line   : 217
    <422a>   DW_AT_decl_column : 35
    <422b>   DW_AT_type        : <0x4016>
    <422f>   DW_AT_location    : 2 byte block: 91 58 	(DW_OP_fbreg: -40)
 <2><4232>: Abbrev Number: 27 (DW_TAG_formal_parameter)
    <4233>   DW_AT_name        : (indirect string, offset: 0x12bc): arglist
    <4237>   DW_AT_decl_file   : 1
    <4238>   DW_AT_decl_line   : 218
    <4239>   DW_AT_decl_column : 42
    <423a>   DW_AT_type        : <0x426d>
    <423e>   DW_AT_location    : 2 byte block: 91 50 	(DW_OP_fbreg: -48)
 <2><4241>: Abbrev Number: 27 (DW_TAG_formal_parameter)
    <4242>   DW_AT_name        : (indirect string, offset: 0x12a3): vallist
    <4246>   DW_AT_decl_file   : 1
    <4247>   DW_AT_decl_line   : 219
    <4248>   DW_AT_decl_column : 35
    <4249>   DW_AT_type        : <0x4016>
    <424d>   DW_AT_location    : 2 byte block: 91 48 	(DW_OP_fbreg: -56)
 <2><4250>: Abbrev Number: 27 (DW_TAG_formal_parameter)
    <4251>   DW_AT_name        : (indirect string, offset: 0x12b4): valsize
    <4255>   DW_AT_decl_file   : 1
    <4256>   DW_AT_decl_line   : 219
    <4257>   DW_AT_decl_column : 51
    <4258>   DW_AT_type        : <0x3d89>
    <425c>   DW_AT_location    : 2 byte block: 91 40 	(DW_OP_fbreg: -64)
 <2><425f>: Abbrev Number: 28 (DW_TAG_variable)
    <4260>   DW_AT_name        : i
    <4262>   DW_AT_decl_file   : 1
    <4263>   DW_AT_decl_line   : 221
    <4264>   DW_AT_decl_column : 10
    <4265>   DW_AT_type        : <0x3d89>
    <4269>   DW_AT_location    : 2 byte block: 91 68 	(DW_OP_fbreg: -24)
 <2><426c>: Abbrev Number: 0
 <1><426d>: Abbrev Number: 6 (DW_TAG_pointer_type)
    <426e>   DW_AT_byte_size   : 8
    <426f>   DW_AT_type        : <0x3fee>
 <1><4273>: Abbrev Number: 26 (DW_TAG_subprogram)
    <4274>   DW_AT_external    : 1
    <4274>   DW_AT_name        : (indirect string, offset: 0x698): __xargmatch_internal
    <4278>   DW_AT_decl_file   : 1
    <4279>   DW_AT_decl_line   : 189
    <427a>   DW_AT_decl_column : 1
    <427b>   DW_AT_prototyped  : 1
    <427b>   DW_AT_type        : <0x3d76>
    <427f>   DW_AT_low_pc      : 0xc427
    <4287>   DW_AT_high_pc     : 0xaf
    <428f>   DW_AT_frame_base  : 1 byte block: 9c 	(DW_OP_call_frame_cfa)
    <4291>   DW_AT_GNU_all_tail_call_sites: 1
    <4291>   DW_AT_sibling     : <0x4311>
 <2><4295>: Abbrev Number: 27 (DW_TAG_formal_parameter)
    <4296>   DW_AT_name        : (indirect string, offset: 0x131e): context
    <429a>   DW_AT_decl_file   : 1
    <429b>   DW_AT_decl_line   : 189
    <429c>   DW_AT_decl_column : 35
    <429d>   DW_AT_type        : <0x3fe8>
    <42a1>   DW_AT_location    : 2 byte block: 91 58 	(DW_OP_fbreg: -40)
 <2><42a4>: Abbrev Number: 29 (DW_TAG_formal_parameter)
    <42a5>   DW_AT_name        : arg
    <42a9>   DW_AT_decl_file   : 1
    <42aa>   DW_AT_decl_line   : 190
    <42ab>   DW_AT_decl_column : 35
    <42ac>   DW_AT_type        : <0x3fe8>
    <42b0>   DW_AT_location    : 2 byte block: 91 50 	(DW_OP_fbreg: -48)
 <2><42b3>: Abbrev Number: 27 (DW_TAG_formal_parameter)
    <42b4>   DW_AT_name        : (indirect string, offset: 0x12bc): arglist
    <42b8>   DW_AT_decl_file   : 1
    <42b9>   DW_AT_decl_line   : 190
    <42ba>   DW_AT_decl_column : 59
    <42bb>   DW_AT_type        : <0x426d>
    <42bf>   DW_AT_location    : 2 byte block: 91 48 	(DW_OP_fbreg: -56)
 <2><42c2>: Abbrev Number: 27 (DW_TAG_formal_parameter)
    <42c3>   DW_AT_name        : (indirect string, offset: 0x12a3): vallist
    <42c7>   DW_AT_decl_file   : 1
    <42c8>   DW_AT_decl_line   : 191
    <42c9>   DW_AT_decl_column : 35
    <42ca>   DW_AT_type        : <0x4016>
    <42ce>   DW_AT_location    : 2 byte block: 91 40 	(DW_OP_fbreg: -64)
 <2><42d1>: Abbrev Number: 27 (DW_TAG_formal_parameter)
    <42d2>   DW_AT_name        : (indirect string, offset: 0x12b4): valsize
    <42d6>   DW_AT_decl_file   : 1
    <42d7>   DW_AT_decl_line   : 191
    <42d8>   DW_AT_decl_column : 51
    <42d9>   DW_AT_type        : <0x3d89>
    <42dd>   DW_AT_location    : 3 byte block: 91 b8 7f 	(DW_OP_fbreg: -72)
 <2><42e1>: Abbrev Number: 27 (DW_TAG_formal_parameter)
    <42e2>   DW_AT_name        : (indirect string, offset: 0xccd): exit_fn
    <42e6>   DW_AT_decl_file   : 1
    <42e7>   DW_AT_decl_line   : 192
    <42e8>   DW_AT_decl_column : 40
    <42e9>   DW_AT_type        : <0x401d>
    <42ed>   DW_AT_location    : 3 byte block: 91 b0 7f 	(DW_OP_fbreg: -80)
 <2><42f1>: Abbrev Number: 27 (DW_TAG_formal_parameter)
    <42f2>   DW_AT_name        : (indirect string, offset: 0x1263): allow_abbreviation
    <42f6>   DW_AT_decl_file   : 1
    <42f7>   DW_AT_decl_line   : 193
    <42f8>   DW_AT_decl_column : 28
    <42f9>   DW_AT_type        : <0x4311>
    <42fd>   DW_AT_location    : 3 byte block: 91 ac 7f 	(DW_OP_fbreg: -84)
 <2><4301>: Abbrev Number: 28 (DW_TAG_variable)
    <4302>   DW_AT_name        : res
    <4306>   DW_AT_decl_file   : 1
    <4307>   DW_AT_decl_line   : 195
    <4308>   DW_AT_decl_column : 13
    <4309>   DW_AT_type        : <0x3d76>
    <430d>   DW_AT_location    : 2 byte block: 91 68 	(DW_OP_fbreg: -24)
 <2><4310>: Abbrev Number: 0
 <1><4311>: Abbrev Number: 3 (DW_TAG_base_type)
    <4312>   DW_AT_byte_size   : 1
    <4313>   DW_AT_encoding    : 2	(boolean)
    <4314>   DW_AT_name        : (indirect string, offset: 0x36e): _Bool
 <1><4318>: Abbrev Number: 30 (DW_TAG_subprogram)
    <4319>   DW_AT_external    : 1
    <4319>   DW_AT_name        : (indirect string, offset: 0x1326): argmatch_valid
    <431d>   DW_AT_decl_file   : 1
    <431e>   DW_AT_decl_line   : 159
    <431f>   DW_AT_decl_column : 1
    <4320>   DW_AT_prototyped  : 1
    <4320>   DW_AT_low_pc      : 0xc2d0
    <4328>   DW_AT_high_pc     : 0x157
    <4330>   DW_AT_frame_base  : 1 byte block: 9c 	(DW_OP_call_frame_cfa)
    <4332>   DW_AT_GNU_all_tail_call_sites: 1
    <4332>   DW_AT_sibling     : <0x4381>
 <2><4336>: Abbrev Number: 27 (DW_TAG_formal_parameter)
    <4337>   DW_AT_name        : (indirect string, offset: 0x12bc): arglist
    <433b>   DW_AT_decl_file   : 1
    <433c>   DW_AT_decl_line   : 159
    <433d>   DW_AT_decl_column : 36
    <433e>   DW_AT_type        : <0x426d>
    <4342>   DW_AT_location    : 2 byte block: 91 48 	(DW_OP_fbreg: -56)
 <2><4345>: Abbrev Number: 27 (DW_TAG_formal_parameter)
    <4346>   DW_AT_name        : (indirect string, offset: 0x12a3): vallist
    <434a>   DW_AT_decl_file   : 1
    <434b>   DW_AT_decl_line   : 160
    <434c>   DW_AT_decl_column : 29
    <434d>   DW_AT_type        : <0x4016>
    <4351>   DW_AT_location    : 2 byte block: 91 40 	(DW_OP_fbreg: -64)
 <2><4354>: Abbrev Number: 27 (DW_TAG_formal_parameter)
    <4355>   DW_AT_name        : (indirect string, offset: 0x12b4): valsize
    <4359>   DW_AT_decl_file   : 1
    <435a>   DW_AT_decl_line   : 160
    <435b>   DW_AT_decl_column : 45
    <435c>   DW_AT_type        : <0x3d89>
    <4360>   DW_AT_location    : 3 byte block: 91 b8 7f 	(DW_OP_fbreg: -72)
 <2><4364>: Abbrev Number: 28 (DW_TAG_variable)
    <4365>   DW_AT_name        : i
    <4367>   DW_AT_decl_file   : 1
    <4368>   DW_AT_decl_line   : 162
    <4369>   DW_AT_decl_column : 10
    <436a>   DW_AT_type        : <0x3d89>
    <436e>   DW_AT_location    : 2 byte block: 91 50 	(DW_OP_fbreg: -48)
 <2><4371>: Abbrev Number: 31 (DW_TAG_variable)
    <4372>   DW_AT_name        : (indirect string, offset: 0x1291): last_val
    <4376>   DW_AT_decl_file   : 1
    <4377>   DW_AT_decl_line   : 163
    <4378>   DW_AT_decl_column : 15
    <4379>   DW_AT_type        : <0x3fe8>
    <437d>   DW_AT_location    : 2 byte block: 91 58 	(DW_OP_fbreg: -40)
 <2><4380>: Abbrev Number: 0
 <1><4381>: Abbrev Number: 30 (DW_TAG_subprogram)
    <4382>   DW_AT_external    : 1
    <4382>   DW_AT_name        : (indirect string, offset: 0x1306): argmatch_invalid
    <4386>   DW_AT_decl_file   : 1
    <4387>   DW_AT_decl_line   : 144
    <4388>   DW_AT_decl_column : 1
    <4389>   DW_AT_prototyped  : 1
    <4389>   DW_AT_low_pc      : 0xc237
    <4391>   DW_AT_high_pc     : 0x99
    <4399>   DW_AT_frame_base  : 1 byte block: 9c 	(DW_OP_call_frame_cfa)
    <439b>   DW_AT_GNU_all_tail_call_sites: 1
    <439b>   DW_AT_sibling     : <0x43dd>
 <2><439f>: Abbrev Number: 27 (DW_TAG_formal_parameter)
    <43a0>   DW_AT_name        : (indirect string, offset: 0x131e): context
    <43a4>   DW_AT_decl_file   : 1
    <43a5>   DW_AT_decl_line   : 144
    <43a6>   DW_AT_decl_column : 31
    <43a7>   DW_AT_type        : <0x3fe8>
    <43ab>   DW_AT_location    : 2 byte block: 91 48 	(DW_OP_fbreg: -56)
 <2><43ae>: Abbrev Number: 27 (DW_TAG_formal_parameter)
    <43af>   DW_AT_name        : (indirect string, offset: 0x1ee3): value
    <43b3>   DW_AT_decl_file   : 1
    <43b4>   DW_AT_decl_line   : 144
    <43b5>   DW_AT_decl_column : 52
    <43b6>   DW_AT_type        : <0x3fe8>
    <43ba>   DW_AT_location    : 2 byte block: 91 40 	(DW_OP_fbreg: -64)
 <2><43bd>: Abbrev Number: 27 (DW_TAG_formal_parameter)
    <43be>   DW_AT_name        : (indirect string, offset: 0x12fe): problem
    <43c2>   DW_AT_decl_file   : 1
    <43c3>   DW_AT_decl_line   : 144
    <43c4>   DW_AT_decl_column : 69
    <43c5>   DW_AT_type        : <0x3d76>
    <43c9>   DW_AT_location    : 3 byte block: 91 b8 7f 	(DW_OP_fbreg: -72)
 <2><43cd>: Abbrev Number: 31 (DW_TAG_variable)
    <43ce>   DW_AT_name        : (indirect string, offset: 0x4b4): format
    <43d2>   DW_AT_decl_file   : 1
    <43d3>   DW_AT_decl_line   : 146
    <43d4>   DW_AT_decl_column : 15
    <43d5>   DW_AT_type        : <0x3fe8>
    <43d9>   DW_AT_location    : 2 byte block: 91 58 	(DW_OP_fbreg: -40)
 <2><43dc>: Abbrev Number: 0
 <1><43dd>: Abbrev Number: 26 (DW_TAG_subprogram)
    <43de>   DW_AT_external    : 1
    <43de>   DW_AT_name        : (indirect string, offset: 0x89e): argmatch_exact
    <43e2>   DW_AT_decl_file   : 1
    <43e3>   DW_AT_decl_line   : 124
    <43e4>   DW_AT_decl_column : 1
    <43e5>   DW_AT_prototyped  : 1
    <43e5>   DW_AT_type        : <0x3d76>
    <43e9>   DW_AT_low_pc      : 0xc1c1
    <43f1>   DW_AT_high_pc     : 0x76
    <43f9>   DW_AT_frame_base  : 1 byte block: 9c 	(DW_OP_call_frame_cfa)
    <43fb>   DW_AT_GNU_all_tail_call_sites: 1
    <43fb>   DW_AT_sibling     : <0x442b>
 <2><43ff>: Abbrev Number: 29 (DW_TAG_formal_parameter)
    <4400>   DW_AT_name        : arg
    <4404>   DW_AT_decl_file   : 1
    <4405>   DW_AT_decl_line   : 124
    <4406>   DW_AT_decl_column : 29
    <4407>   DW_AT_type        : <0x3fe8>
    <440b>   DW_AT_location    : 2 byte block: 91 58 	(DW_OP_fbreg: -40)
 <2><440e>: Abbrev Number: 27 (DW_TAG_formal_parameter)
    <440f>   DW_AT_name        : (indirect string, offset: 0x12bc): arglist
    <4413>   DW_AT_decl_file   : 1
    <4414>   DW_AT_decl_line   : 124
    <4415>   DW_AT_decl_column : 53
    <4416>   DW_AT_type        : <0x426d>
    <441a>   DW_AT_location    : 2 byte block: 91 50 	(DW_OP_fbreg: -48)
 <2><441d>: Abbrev Number: 28 (DW_TAG_variable)
    <441e>   DW_AT_name        : i
    <4420>   DW_AT_decl_file   : 1
    <4421>   DW_AT_decl_line   : 126
    <4422>   DW_AT_decl_column : 10
    <4423>   DW_AT_type        : <0x3d89>
    <4427>   DW_AT_location    : 2 byte block: 91 68 	(DW_OP_fbreg: -24)
 <2><442a>: Abbrev Number: 0
 <1><442b>: Abbrev Number: 26 (DW_TAG_subprogram)
    <442c>   DW_AT_external    : 1
    <442c>   DW_AT_name        : (indirect string, offset: 0x129a): argmatch
    <4430>   DW_AT_decl_file   : 1
    <4431>   DW_AT_decl_line   : 82
    <4432>   DW_AT_decl_column : 1
    <4433>   DW_AT_prototyped  : 1
    <4433>   DW_AT_type        : <0x3d76>
    <4437>   DW_AT_low_pc      : 0xc08e
    <443f>   DW_AT_high_pc     : 0x133
    <4447>   DW_AT_frame_base  : 1 byte block: 9c 	(DW_OP_call_frame_cfa)
    <4449>   DW_AT_GNU_all_tail_call_sites: 1
    <4449>   DW_AT_sibling     : <0x44c6>
 <2><444d>: Abbrev Number: 29 (DW_TAG_formal_parameter)
    <444e>   DW_AT_name        : arg
    <4452>   DW_AT_decl_file   : 1
    <4453>   DW_AT_decl_line   : 82
    <4454>   DW_AT_decl_column : 23
    <4455>   DW_AT_type        : <0x3fe8>
    <4459>   DW_AT_location    : 2 byte block: 91 48 	(DW_OP_fbreg: -56)
 <2><445c>: Abbrev Number: 27 (DW_TAG_formal_parameter)
    <445d>   DW_AT_name        : (indirect string, offset: 0x12bc): arglist
    <4461>   DW_AT_decl_file   : 1
    <4462>   DW_AT_decl_line   : 82
    <4463>   DW_AT_decl_column : 47
    <4464>   DW_AT_type        : <0x426d>
    <4468>   DW_AT_location    : 2 byte block: 91 40 	(DW_OP_fbreg: -64)
 <2><446b>: Abbrev Number: 27 (DW_TAG_formal_parameter)
    <446c>   DW_AT_name        : (indirect string, offset: 0x12a3): vallist
    <4470>   DW_AT_decl_file   : 1
    <4471>   DW_AT_decl_line   : 83
    <4472>   DW_AT_decl_column : 23
    <4473>   DW_AT_type        : <0x4016>
    <4477>   DW_AT_location    : 3 byte block: 91 b8 7f 	(DW_OP_fbreg: -72)
 <2><447b>: Abbrev Number: 27 (DW_TAG_formal_parameter)
    <447c>   DW_AT_name        : (indirect string, offset: 0x12b4): valsize
    <4480>   DW_AT_decl_file   : 1
    <4481>   DW_AT_decl_line   : 83
    <4482>   DW_AT_decl_column : 39
    <4483>   DW_AT_type        : <0x3d89>
    <4487>   DW_AT_location    : 3 byte block: 91 b0 7f 	(DW_OP_fbreg: -80)
 <2><448b>: Abbrev Number: 28 (DW_TAG_variable)
    <448c>   DW_AT_name        : i
    <448e>   DW_AT_decl_file   : 1
    <448f>   DW_AT_decl_line   : 85
    <4490>   DW_AT_decl_column : 10
    <4491>   DW_AT_type        : <0x3d89>
    <4495>   DW_AT_location    : 2 byte block: 91 58 	(DW_OP_fbreg: -40)
 <2><4498>: Abbrev Number: 31 (DW_TAG_variable)
    <4499>   DW_AT_name        : (indirect string, offset: 0x12d3): arglen
    <449d>   DW_AT_decl_file   : 1
    <449e>   DW_AT_decl_line   : 86
    <449f>   DW_AT_decl_column : 10
    <44a0>   DW_AT_type        : <0x3d89>
    <44a4>   DW_AT_location    : 2 byte block: 91 68 	(DW_OP_fbreg: -24)
 <2><44a7>: Abbrev Number: 31 (DW_TAG_variable)
    <44a8>   DW_AT_name        : (indirect string, offset: 0x12ab): matchind
    <44ac>   DW_AT_decl_file   : 1
    <44ad>   DW_AT_decl_line   : 87
    <44ae>   DW_AT_decl_column : 13
    <44af>   DW_AT_type        : <0x3d76>
    <44b3>   DW_AT_location    : 2 byte block: 91 60 	(DW_OP_fbreg: -32)
 <2><44b6>: Abbrev Number: 31 (DW_TAG_variable)
    <44b7>   DW_AT_name        : (indirect string, offset: 0x1276): ambiguous
    <44bb>   DW_AT_decl_file   : 1
    <44bc>   DW_AT_decl_line   : 88
    <44bd>   DW_AT_decl_column : 8
    <44be>   DW_AT_type        : <0x4311>
    <44c2>   DW_AT_location    : 2 byte block: 91 57 	(DW_OP_fbreg: -41)
 <2><44c5>: Abbrev Number: 0
 <1><44c6>: Abbrev Number: 32 (DW_TAG_subprogram)
    <44c7>   DW_AT_name        : (indirect string, offset: 0x12da): __argmatch_die
    <44cb>   DW_AT_decl_file   : 1
    <44cc>   DW_AT_decl_line   : 60
    <44cd>   DW_AT_decl_column : 1
    <44ce>   DW_AT_prototyped  : 1
    <44ce>   DW_AT_low_pc      : 0xc079
    <44d6>   DW_AT_high_pc     : 0x15
    <44de>   DW_AT_frame_base  : 1 byte block: 9c 	(DW_OP_call_frame_cfa)
    <44e0>   DW_AT_GNU_all_tail_call_sites: 1
 <1><44e0>: Abbrev Number: 0
  Compilation Unit @ offset 0x44e1:
   Length:        0x431 (32-bit)
   Version:       4
   Abbrev Offset: 0xe09
   Pointer Size:  8
 <0><44ec>: Abbrev Number: 1 (DW_TAG_compile_unit)
    <44ed>   DW_AT_producer    : (indirect string, offset: 0x2c7): GNU C17 11.1.0 -mtune=generic -march=x86-64 -g -O0 -fasynchronous-unwind-tables -fstack-protector-strong -fstack-clash-protection -fcf-protection
    <44f1>   DW_AT_language    : 12	(ANSI C99)
    <44f2>   DW_AT_name        : (indirect string, offset: 0x13c4): lib/closeout.c
    <44f6>   DW_AT_comp_dir    : (indirect string, offset: 0xa27): /home/jacekline/dev/research/programs/coreutils-9.1
    <44fa>   DW_AT_low_pc      : 0xc566
    <4502>   DW_AT_high_pc     : 0x12c
    <450a>   DW_AT_stmt_list   : 0x1f7c
 <1><450e>: Abbrev Number: 2 (DW_TAG_pointer_type)
    <450f>   DW_AT_byte_size   : 8
    <4510>   DW_AT_type        : <0x4514>
 <1><4514>: Abbrev Number: 3 (DW_TAG_base_type)
    <4515>   DW_AT_byte_size   : 1
    <4516>   DW_AT_encoding    : 6	(signed char)
    <4517>   DW_AT_name        : (indirect string, offset: 0x25a): char
 <1><451b>: Abbrev Number: 4 (DW_TAG_const_type)
    <451c>   DW_AT_type        : <0x4514>
 <1><4520>: Abbrev Number: 5 (DW_TAG_base_type)
    <4521>   DW_AT_byte_size   : 4
    <4522>   DW_AT_encoding    : 5	(signed)
    <4523>   DW_AT_name        : int
 <1><4527>: Abbrev Number: 6 (DW_TAG_volatile_type)
    <4528>   DW_AT_type        : <0x4520>
 <1><452c>: Abbrev Number: 7 (DW_TAG_typedef)
    <452d>   DW_AT_name        : (indirect string, offset: 0x70): size_t
    <4531>   DW_AT_decl_file   : 2
    <4532>   DW_AT_decl_line   : 209
    <4533>   DW_AT_decl_column : 23
    <4534>   DW_AT_type        : <0x4538>
 <1><4538>: Abbrev Number: 3 (DW_TAG_base_type)
    <4539>   DW_AT_byte_size   : 8
    <453a>   DW_AT_encoding    : 7	(unsigned)
    <453b>   DW_AT_name        : (indirect string, offset: 0x8d1): long unsigned int
 <1><453f>: Abbrev Number: 3 (DW_TAG_base_type)
    <4540>   DW_AT_byte_size   : 4
    <4541>   DW_AT_encoding    : 7	(unsigned)
    <4542>   DW_AT_name        : (indirect string, offset: 0x8d6): unsigned int
 <1><4546>: Abbrev Number: 8 (DW_TAG_pointer_type)
    <4547>   DW_AT_byte_size   : 8
 <1><4548>: Abbrev Number: 3 (DW_TAG_base_type)
    <4549>   DW_AT_byte_size   : 1
    <454a>   DW_AT_encoding    : 8	(unsigned char)
    <454b>   DW_AT_name        : (indirect string, offset: 0x251): unsigned char
 <1><454f>: Abbrev Number: 3 (DW_TAG_base_type)
    <4550>   DW_AT_byte_size   : 2
    <4551>   DW_AT_encoding    : 7	(unsigned)
    <4552>   DW_AT_name        : (indirect string, offset: 0xbd5): short unsigned int
 <1><4556>: Abbrev Number: 3 (DW_TAG_base_type)
    <4557>   DW_AT_byte_size   : 1
    <4558>   DW_AT_encoding    : 6	(signed char)
    <4559>   DW_AT_name        : (indirect string, offset: 0x253): signed char
 <1><455d>: Abbrev Number: 3 (DW_TAG_base_type)
    <455e>   DW_AT_byte_size   : 2
    <455f>   DW_AT_encoding    : 5	(signed)
    <4560>   DW_AT_name        : (indirect string, offset: 0xa6c): short int
 <1><4564>: Abbrev Number: 3 (DW_TAG_base_type)
    <4565>   DW_AT_byte_size   : 8
    <4566>   DW_AT_encoding    : 5	(signed)
    <4567>   DW_AT_name        : (indirect string, offset: 0x6bd): long int
 <1><456b>: Abbrev Number: 7 (DW_TAG_typedef)
    <456c>   DW_AT_name        : (indirect string, offset: 0x904): __off_t
    <4570>   DW_AT_decl_file   : 3
    <4571>   DW_AT_decl_line   : 152
    <4572>   DW_AT_decl_column : 25
    <4573>   DW_AT_type        : <0x4564>
 <1><4577>: Abbrev Number: 7 (DW_TAG_typedef)
    <4578>   DW_AT_name        : (indirect string, offset: 0x9e8): __off64_t
    <457c>   DW_AT_decl_file   : 3
    <457d>   DW_AT_decl_line   : 153
    <457e>   DW_AT_decl_column : 27
    <457f>   DW_AT_type        : <0x4564>
 <1><4583>: Abbrev Number: 9 (DW_TAG_structure_type)
    <4584>   DW_AT_name        : (indirect string, offset: 0x225): _IO_FILE
    <4588>   DW_AT_byte_size   : 216
    <4589>   DW_AT_decl_file   : 4
    <458a>   DW_AT_decl_line   : 49
    <458b>   DW_AT_decl_column : 8
    <458c>   DW_AT_sibling     : <0x470a>
 <2><4590>: Abbrev Number: 10 (DW_TAG_member)
    <4591>   DW_AT_name        : (indirect string, offset: 0x1e86): _flags
    <4595>   DW_AT_decl_file   : 4
    <4596>   DW_AT_decl_line   : 51
    <4597>   DW_AT_decl_column : 7
    <4598>   DW_AT_type        : <0x4520>
    <459c>   DW_AT_data_member_location: 0
 <2><459d>: Abbrev Number: 10 (DW_TAG_member)
    <459e>   DW_AT_name        : (indirect string, offset: 0x462): _IO_read_ptr
    <45a2>   DW_AT_decl_file   : 4
    <45a3>   DW_AT_decl_line   : 54
    <45a4>   DW_AT_decl_column : 9
    <45a5>   DW_AT_type        : <0x450e>
    <45a9>   DW_AT_data_member_location: 8
 <2><45aa>: Abbrev Number: 10 (DW_TAG_member)
    <45ab>   DW_AT_name        : (indirect string, offset: 0xb53): _IO_read_end
    <45af>   DW_AT_decl_file   : 4
    <45b0>   DW_AT_decl_line   : 55
    <45b1>   DW_AT_decl_column : 9
    <45b2>   DW_AT_type        : <0x450e>
    <45b6>   DW_AT_data_member_location: 16
 <2><45b7>: Abbrev Number: 10 (DW_TAG_member)
    <45b8>   DW_AT_name        : (indirect string, offset: 0x5f9): _IO_read_base
    <45bc>   DW_AT_decl_file   : 4
    <45bd>   DW_AT_decl_line   : 56
    <45be>   DW_AT_decl_column : 9
    <45bf>   DW_AT_type        : <0x450e>
    <45c3>   DW_AT_data_member_location: 24
 <2><45c4>: Abbrev Number: 10 (DW_TAG_member)
    <45c5>   DW_AT_name        : (indirect string, offset: 0xe4): _IO_write_base
    <45c9>   DW_AT_decl_file   : 4
    <45ca>   DW_AT_decl_line   : 57
    <45cb>   DW_AT_decl_column : 9
    <45cc>   DW_AT_type        : <0x450e>
    <45d0>   DW_AT_data_member_location: 32
 <2><45d1>: Abbrev Number: 10 (DW_TAG_member)
    <45d2>   DW_AT_name        : (indirect string, offset: 0xc0a): _IO_write_ptr
    <45d6>   DW_AT_decl_file   : 4
    <45d7>   DW_AT_decl_line   : 58
    <45d8>   DW_AT_decl_column : 9
    <45d9>   DW_AT_type        : <0x450e>
    <45dd>   DW_AT_data_member_location: 40
 <2><45de>: Abbrev Number: 10 (DW_TAG_member)
    <45df>   DW_AT_name        : (indirect string, offset: 0x71a): _IO_write_end
    <45e3>   DW_AT_decl_file   : 4
    <45e4>   DW_AT_decl_line   : 59
    <45e5>   DW_AT_decl_column : 9
    <45e6>   DW_AT_type        : <0x450e>
    <45ea>   DW_AT_data_member_location: 48
 <2><45eb>: Abbrev Number: 10 (DW_TAG_member)
    <45ec>   DW_AT_name        : (indirect string, offset: 0x76e): _IO_buf_base
    <45f0>   DW_AT_decl_file   : 4
    <45f1>   DW_AT_decl_line   : 60
    <45f2>   DW_AT_decl_column : 9
    <45f3>   DW_AT_type        : <0x450e>
    <45f7>   DW_AT_data_member_location: 56
 <2><45f8>: Abbrev Number: 10 (DW_TAG_member)
    <45f9>   DW_AT_name        : (indirect string, offset: 0xa01): _IO_buf_end
    <45fd>   DW_AT_decl_file   : 4
    <45fe>   DW_AT_decl_line   : 61
    <45ff>   DW_AT_decl_column : 9
    <4600>   DW_AT_type        : <0x450e>
    <4604>   DW_AT_data_member_location: 64
 <2><4605>: Abbrev Number: 10 (DW_TAG_member)
    <4606>   DW_AT_name        : (indirect string, offset: 0x143): _IO_save_base
    <460a>   DW_AT_decl_file   : 4
    <460b>   DW_AT_decl_line   : 64
    <460c>   DW_AT_decl_column : 9
    <460d>   DW_AT_type        : <0x450e>
