
date_O0_debug:     file format elf64-x86-64

Contents of the .eh_frame section (loaded from date_O0_debug):


00000000 0000000000000014 00000000 CIE
  Version:               1
  Augmentation:          "zR"
  Code alignment factor: 1
  Data alignment factor: -8
  Return address column: 16
  Augmentation data:     1b
  DW_CFA_def_cfa: r7 (rsp) ofs 8
  DW_CFA_offset: r16 (rip) at cfa-8
  DW_CFA_nop
  DW_CFA_nop

00000018 0000000000000014 0000001c FDE cie=00000000 pc=00000000000038a0..00000000000038cf
  DW_CFA_advance_loc: 4 to 00000000000038a4
  DW_CFA_undefined: r16 (rip)
  DW_CFA_nop
  DW_CFA_nop
  DW_CFA_nop
  DW_CFA_nop

00000030 0000000000000024 00000034 FDE cie=00000000 pc=0000000000003020..0000000000003450
  DW_CFA_def_cfa_offset: 16
  DW_CFA_advance_loc: 6 to 0000000000003026
  DW_CFA_def_cfa_offset: 24
  DW_CFA_advance_loc: 10 to 0000000000003030
  DW_CFA_def_cfa_expression (DW_OP_breg7 (rsp): 8; DW_OP_breg16 (rip): 0; DW_OP_lit15; DW_OP_and; DW_OP_lit10; DW_OP_ge; DW_OP_lit3; DW_OP_shl; DW_OP_plus)
  DW_CFA_nop
  DW_CFA_nop
  DW_CFA_nop
  DW_CFA_nop

00000058 0000000000000014 0000005c FDE cie=00000000 pc=0000000000003450..0000000000003480
  DW_CFA_nop
  DW_CFA_nop
  DW_CFA_nop
  DW_CFA_nop
  DW_CFA_nop
  DW_CFA_nop
  DW_CFA_nop

00000070 0000000000000014 00000074 FDE cie=00000000 pc=0000000000003480..00000000000038a0
  DW_CFA_nop
  DW_CFA_nop
  DW_CFA_nop
  DW_CFA_nop
  DW_CFA_nop
  DW_CFA_nop
  DW_CFA_nop

00000088 000000000000001c 0000008c FDE cie=00000000 pc=0000000000003989..00000000000039ba
  DW_CFA_advance_loc: 1 to 000000000000398a
  DW_CFA_def_cfa_offset: 16
  DW_CFA_offset: r6 (rbp) at cfa-16
  DW_CFA_advance_loc: 3 to 000000000000398d
  DW_CFA_def_cfa_register: r6 (rbp)
  DW_CFA_advance_loc: 5 to 0000000000003992
  DW_CFA_offset: r3 (rbx) at cfa-24
  DW_CFA_advance_loc: 39 to 00000000000039b9
  DW_CFA_def_cfa: r7 (rsp) ofs 8

000000a8 0000000000000020 000000ac FDE cie=00000000 pc=00000000000039ba..0000000000003c51
  DW_CFA_advance_loc: 1 to 00000000000039bb
  DW_CFA_def_cfa_offset: 16
  DW_CFA_offset: r6 (rbp) at cfa-16
  DW_CFA_advance_loc: 3 to 00000000000039be
  DW_CFA_def_cfa_register: r6 (rbp)
  DW_CFA_advance_loc: 8 to 00000000000039c6
  DW_CFA_offset: r3 (rbx) at cfa-24
  DW_CFA_advance_loc2: 650 to 0000000000003c50
  DW_CFA_def_cfa: r7 (rsp) ofs 8
  DW_CFA_nop
  DW_CFA_nop

000000cc 000000000000001c 000000d0 FDE cie=00000000 pc=0000000000003c51..0000000000003c76
  DW_CFA_advance_loc: 1 to 0000000000003c52
  DW_CFA_def_cfa_offset: 16
  DW_CFA_offset: r6 (rbp) at cfa-16
  DW_CFA_advance_loc: 3 to 0000000000003c55
  DW_CFA_def_cfa_register: r6 (rbp)
  DW_CFA_advance_loc: 32 to 0000000000003c75
  DW_CFA_def_cfa: r7 (rsp) ofs 8
  DW_CFA_nop
  DW_CFA_nop
  DW_CFA_nop

000000ec 000000000000001c 000000f0 FDE cie=00000000 pc=0000000000003c76..0000000000003c84
  DW_CFA_advance_loc: 1 to 0000000000003c77
  DW_CFA_def_cfa_offset: 16
  DW_CFA_offset: r6 (rbp) at cfa-16
  DW_CFA_advance_loc: 3 to 0000000000003c7a
  DW_CFA_def_cfa_register: r6 (rbp)
  DW_CFA_advance_loc: 9 to 0000000000003c83
  DW_CFA_def_cfa: r7 (rsp) ofs 8
  DW_CFA_nop
  DW_CFA_nop
  DW_CFA_nop

0000010c 000000000000001c 00000110 FDE cie=00000000 pc=0000000000003c84..000000000000407c
  DW_CFA_advance_loc: 5 to 0000000000003c89
  DW_CFA_def_cfa_offset: 16
  DW_CFA_offset: r6 (rbp) at cfa-16
  DW_CFA_advance_loc: 3 to 0000000000003c8c
  DW_CFA_def_cfa_register: r6 (rbp)
  DW_CFA_advance_loc: 7 to 0000000000003c93
  DW_CFA_offset: r12 (r12) at cfa-24
  DW_CFA_offset: r3 (rbx) at cfa-32
  DW_CFA_nop
  DW_CFA_nop

0000012c 000000000000001c 00000130 FDE cie=00000000 pc=000000000000407c..00000000000040c1
  DW_CFA_advance_loc: 5 to 0000000000004081
  DW_CFA_def_cfa_offset: 16
  DW_CFA_offset: r6 (rbp) at cfa-16
  DW_CFA_advance_loc: 3 to 0000000000004084
  DW_CFA_def_cfa_register: r6 (rbp)
  DW_CFA_advance_loc: 60 to 00000000000040c0
  DW_CFA_def_cfa: r7 (rsp) ofs 8
  DW_CFA_nop
  DW_CFA_nop
  DW_CFA_nop

0000014c 000000000000001c 00000150 FDE cie=00000000 pc=00000000000040c1..0000000000004186
  DW_CFA_advance_loc: 5 to 00000000000040c6
  DW_CFA_def_cfa_offset: 16
  DW_CFA_offset: r6 (rbp) at cfa-16
  DW_CFA_advance_loc: 3 to 00000000000040c9
  DW_CFA_def_cfa_register: r6 (rbp)
  DW_CFA_advance_loc1: 188 to 0000000000004185
  DW_CFA_def_cfa: r7 (rsp) ofs 8
  DW_CFA_nop
  DW_CFA_nop

0000016c 0000000000000020 00000170 FDE cie=00000000 pc=0000000000004186..00000000000043c2
  DW_CFA_advance_loc: 5 to 000000000000418b
  DW_CFA_def_cfa_offset: 16
  DW_CFA_offset: r6 (rbp) at cfa-16
  DW_CFA_advance_loc: 3 to 000000000000418e
  DW_CFA_def_cfa_register: r6 (rbp)
  DW_CFA_advance_loc: 5 to 0000000000004193
  DW_CFA_offset: r3 (rbx) at cfa-24
  DW_CFA_advance_loc2: 558 to 00000000000043c1
  DW_CFA_def_cfa: r7 (rsp) ofs 8
  DW_CFA_nop
  DW_CFA_nop

00000190 0000000000000020 00000194 FDE cie=00000000 pc=00000000000043c2..0000000000004dc9
  DW_CFA_advance_loc: 5 to 00000000000043c7
  DW_CFA_def_cfa_offset: 16
  DW_CFA_offset: r6 (rbp) at cfa-16
  DW_CFA_advance_loc: 3 to 00000000000043ca
  DW_CFA_def_cfa_register: r6 (rbp)
  DW_CFA_advance_loc: 8 to 00000000000043d2
  DW_CFA_offset: r3 (rbx) at cfa-24
  DW_CFA_advance_loc2: 2550 to 0000000000004dc8
  DW_CFA_def_cfa: r7 (rsp) ofs 8
  DW_CFA_nop
  DW_CFA_nop

000001b4 0000000000000020 000001b8 FDE cie=00000000 pc=0000000000004dc9..0000000000004f5c
  DW_CFA_advance_loc: 5 to 0000000000004dce
  DW_CFA_def_cfa_offset: 16
  DW_CFA_offset: r6 (rbp) at cfa-16
  DW_CFA_advance_loc: 3 to 0000000000004dd1
  DW_CFA_def_cfa_register: r6 (rbp)
  DW_CFA_advance_loc: 8 to 0000000000004dd9
  DW_CFA_offset: r3 (rbx) at cfa-24
  DW_CFA_advance_loc2: 386 to 0000000000004f5b
  DW_CFA_def_cfa: r7 (rsp) ofs 8
  DW_CFA_nop
  DW_CFA_nop

000001d8 000000000000001c 000001dc FDE cie=00000000 pc=0000000000004f5c..0000000000004f71
  DW_CFA_advance_loc: 5 to 0000000000004f61
  DW_CFA_def_cfa_offset: 16
  DW_CFA_offset: r6 (rbp) at cfa-16
  DW_CFA_advance_loc: 3 to 0000000000004f64
  DW_CFA_def_cfa_register: r6 (rbp)
  DW_CFA_advance_loc: 12 to 0000000000004f70
  DW_CFA_def_cfa: r7 (rsp) ofs 8
  DW_CFA_nop
  DW_CFA_nop
  DW_CFA_nop

000001f8 000000000000001c 000001fc FDE cie=00000000 pc=0000000000004f71..00000000000050a4
  DW_CFA_advance_loc: 5 to 0000000000004f76
  DW_CFA_def_cfa_offset: 16
  DW_CFA_offset: r6 (rbp) at cfa-16
  DW_CFA_advance_loc: 3 to 0000000000004f79
  DW_CFA_def_cfa_register: r6 (rbp)
  DW_CFA_advance_loc2: 298 to 00000000000050a3
  DW_CFA_def_cfa: r7 (rsp) ofs 8
  DW_CFA_nop

00000218 000000000000001c 0000021c FDE cie=00000000 pc=00000000000050a4..000000000000511a
  DW_CFA_advance_loc: 5 to 00000000000050a9
  DW_CFA_def_cfa_offset: 16
  DW_CFA_offset: r6 (rbp) at cfa-16
  DW_CFA_advance_loc: 3 to 00000000000050ac
  DW_CFA_def_cfa_register: r6 (rbp)
  DW_CFA_advance_loc1: 109 to 0000000000005119
  DW_CFA_def_cfa: r7 (rsp) ofs 8
  DW_CFA_nop
  DW_CFA_nop

00000238 0000000000000020 0000023c FDE cie=00000000 pc=000000000000511a..00000000000051b3
  DW_CFA_advance_loc: 5 to 000000000000511f
  DW_CFA_def_cfa_offset: 16
  DW_CFA_offset: r6 (rbp) at cfa-16
  DW_CFA_advance_loc: 3 to 0000000000005122
  DW_CFA_def_cfa_register: r6 (rbp)
  DW_CFA_advance_loc: 5 to 0000000000005127
  DW_CFA_offset: r3 (rbx) at cfa-24
  DW_CFA_advance_loc1: 139 to 00000000000051b2
  DW_CFA_def_cfa: r7 (rsp) ofs 8
  DW_CFA_nop
  DW_CFA_nop
  DW_CFA_nop

0000025c 0000000000000020 00000260 FDE cie=00000000 pc=00000000000051b3..000000000000530a
  DW_CFA_advance_loc: 5 to 00000000000051b8
  DW_CFA_def_cfa_offset: 16
  DW_CFA_offset: r6 (rbp) at cfa-16
  DW_CFA_advance_loc: 3 to 00000000000051bb
  DW_CFA_def_cfa_register: r6 (rbp)
  DW_CFA_advance_loc: 5 to 00000000000051c0
  DW_CFA_offset: r3 (rbx) at cfa-24
  DW_CFA_advance_loc2: 329 to 0000000000005309
  DW_CFA_def_cfa: r7 (rsp) ofs 8
  DW_CFA_nop
  DW_CFA_nop

00000280 000000000000001c 00000284 FDE cie=00000000 pc=000000000000530a..00000000000053b9
  DW_CFA_advance_loc: 5 to 000000000000530f
  DW_CFA_def_cfa_offset: 16
  DW_CFA_offset: r6 (rbp) at cfa-16
  DW_CFA_advance_loc: 3 to 0000000000005312
  DW_CFA_def_cfa_register: r6 (rbp)
  DW_CFA_advance_loc1: 166 to 00000000000053b8
  DW_CFA_def_cfa: r7 (rsp) ofs 8
  DW_CFA_nop
  DW_CFA_nop

000002a0 000000000000001c 000002a4 FDE cie=00000000 pc=00000000000053b9..0000000000005449
  DW_CFA_advance_loc: 5 to 00000000000053be
  DW_CFA_def_cfa_offset: 16
  DW_CFA_offset: r6 (rbp) at cfa-16
  DW_CFA_advance_loc: 3 to 00000000000053c1
  DW_CFA_def_cfa_register: r6 (rbp)
  DW_CFA_advance_loc1: 135 to 0000000000005448
  DW_CFA_def_cfa: r7 (rsp) ofs 8
  DW_CFA_nop
  DW_CFA_nop

000002c0 000000000000001c 000002c4 FDE cie=00000000 pc=0000000000005449..0000000000005463
  DW_CFA_advance_loc: 5 to 000000000000544e
  DW_CFA_def_cfa_offset: 16
  DW_CFA_offset: r6 (rbp) at cfa-16
  DW_CFA_advance_loc: 3 to 0000000000005451
  DW_CFA_def_cfa_register: r6 (rbp)
  DW_CFA_advance_loc: 17 to 0000000000005462
  DW_CFA_def_cfa: r7 (rsp) ofs 8
  DW_CFA_nop
  DW_CFA_nop
  DW_CFA_nop

000002e0 000000000000001c 000002e4 FDE cie=00000000 pc=0000000000005463..000000000000547d
  DW_CFA_advance_loc: 5 to 0000000000005468
  DW_CFA_def_cfa_offset: 16
  DW_CFA_offset: r6 (rbp) at cfa-16
  DW_CFA_advance_loc: 3 to 000000000000546b
  DW_CFA_def_cfa_register: r6 (rbp)
  DW_CFA_advance_loc: 17 to 000000000000547c
  DW_CFA_def_cfa: r7 (rsp) ofs 8
  DW_CFA_nop
  DW_CFA_nop
  DW_CFA_nop

00000300 0000000000000024 00000304 FDE cie=00000000 pc=000000000000547d..0000000000005575
  DW_CFA_advance_loc: 5 to 0000000000005482
  DW_CFA_def_cfa_offset: 16
  DW_CFA_offset: r6 (rbp) at cfa-16
  DW_CFA_advance_loc: 3 to 0000000000005485
  DW_CFA_def_cfa_register: r6 (rbp)
  DW_CFA_advance_loc: 5 to 000000000000548a
  DW_CFA_offset: r3 (rbx) at cfa-24
  DW_CFA_advance_loc1: 234 to 0000000000005574
  DW_CFA_def_cfa: r7 (rsp) ofs 8
  DW_CFA_nop
  DW_CFA_nop
  DW_CFA_nop
  DW_CFA_nop
  DW_CFA_nop
  DW_CFA_nop
  DW_CFA_nop

00000328 000000000000001c 0000032c FDE cie=00000000 pc=0000000000005575..000000000000562e
  DW_CFA_advance_loc: 5 to 000000000000557a
  DW_CFA_def_cfa_offset: 16
  DW_CFA_offset: r6 (rbp) at cfa-16
  DW_CFA_advance_loc: 3 to 000000000000557d
  DW_CFA_def_cfa_register: r6 (rbp)
  DW_CFA_advance_loc1: 176 to 000000000000562d
  DW_CFA_def_cfa: r7 (rsp) ofs 8
  DW_CFA_nop
  DW_CFA_nop

00000348 000000000000001c 0000034c FDE cie=00000000 pc=000000000000562e..0000000000005666
  DW_CFA_advance_loc: 5 to 0000000000005633
  DW_CFA_def_cfa_offset: 16
  DW_CFA_offset: r6 (rbp) at cfa-16
  DW_CFA_advance_loc: 3 to 0000000000005636
  DW_CFA_def_cfa_register: r6 (rbp)
  DW_CFA_advance_loc: 47 to 0000000000005665
  DW_CFA_def_cfa: r7 (rsp) ofs 8
  DW_CFA_nop
  DW_CFA_nop
  DW_CFA_nop

00000368 000000000000001c 0000036c FDE cie=00000000 pc=0000000000005666..00000000000056b5
  DW_CFA_advance_loc: 5 to 000000000000566b
  DW_CFA_def_cfa_offset: 16
  DW_CFA_offset: r6 (rbp) at cfa-16
  DW_CFA_advance_loc: 3 to 000000000000566e
  DW_CFA_def_cfa_register: r6 (rbp)
  DW_CFA_advance_loc1: 70 to 00000000000056b4
  DW_CFA_def_cfa: r7 (rsp) ofs 8
  DW_CFA_nop
  DW_CFA_nop

00000388 000000000000001c 0000038c FDE cie=00000000 pc=00000000000056b5..000000000000570a
  DW_CFA_advance_loc: 5 to 00000000000056ba
  DW_CFA_def_cfa_offset: 16
  DW_CFA_offset: r6 (rbp) at cfa-16
  DW_CFA_advance_loc: 3 to 00000000000056bd
  DW_CFA_def_cfa_register: r6 (rbp)
  DW_CFA_advance_loc1: 76 to 0000000000005709
  DW_CFA_def_cfa: r7 (rsp) ofs 8
  DW_CFA_nop
  DW_CFA_nop

000003a8 000000000000001c 000003ac FDE cie=00000000 pc=000000000000570a..000000000000575f
  DW_CFA_advance_loc: 5 to 000000000000570f
  DW_CFA_def_cfa_offset: 16
  DW_CFA_offset: r6 (rbp) at cfa-16
  DW_CFA_advance_loc: 3 to 0000000000005712
  DW_CFA_def_cfa_register: r6 (rbp)
  DW_CFA_advance_loc1: 76 to 000000000000575e
  DW_CFA_def_cfa: r7 (rsp) ofs 8
  DW_CFA_nop
  DW_CFA_nop

000003c8 000000000000001c 000003cc FDE cie=00000000 pc=000000000000575f..00000000000057af
  DW_CFA_advance_loc: 1 to 0000000000005760
  DW_CFA_def_cfa_offset: 16
  DW_CFA_offset: r6 (rbp) at cfa-16
  DW_CFA_advance_loc: 3 to 0000000000005763
  DW_CFA_def_cfa_register: r6 (rbp)
  DW_CFA_advance_loc1: 75 to 00000000000057ae
  DW_CFA_def_cfa: r7 (rsp) ofs 8
  DW_CFA_nop
  DW_CFA_nop

000003e8 000000000000001c 000003ec FDE cie=00000000 pc=00000000000057af..0000000000005831
  DW_CFA_advance_loc: 5 to 00000000000057b4
  DW_CFA_def_cfa_offset: 16
  DW_CFA_offset: r6 (rbp) at cfa-16
  DW_CFA_advance_loc: 3 to 00000000000057b7
  DW_CFA_def_cfa_register: r6 (rbp)
  DW_CFA_advance_loc1: 121 to 0000000000005830
  DW_CFA_def_cfa: r7 (rsp) ofs 8
  DW_CFA_nop
  DW_CFA_nop

00000408 0000000000000024 0000040c FDE cie=00000000 pc=0000000000005831..0000000000008263
  DW_CFA_advance_loc: 5 to 0000000000005836
  DW_CFA_def_cfa_offset: 16
  DW_CFA_offset: r6 (rbp) at cfa-16
  DW_CFA_advance_loc: 3 to 0000000000005839
  DW_CFA_def_cfa_register: r6 (rbp)
  DW_CFA_advance_loc: 8 to 0000000000005841
  DW_CFA_offset: r3 (rbx) at cfa-24
  DW_CFA_advance_loc2: 10785 to 0000000000008262
  DW_CFA_def_cfa: r7 (rsp) ofs 8
  DW_CFA_nop
  DW_CFA_nop
  DW_CFA_nop
  DW_CFA_nop
  DW_CFA_nop
  DW_CFA_nop

00000430 0000000000000024 00000434 FDE cie=00000000 pc=0000000000008263..00000000000082e6
  DW_CFA_advance_loc: 5 to 0000000000008268
  DW_CFA_def_cfa_offset: 16
  DW_CFA_offset: r6 (rbp) at cfa-16
  DW_CFA_advance_loc: 3 to 000000000000826b
  DW_CFA_def_cfa_register: r6 (rbp)
  DW_CFA_advance_loc: 5 to 0000000000008270
  DW_CFA_offset: r3 (rbx) at cfa-24
  DW_CFA_advance_loc1: 117 to 00000000000082e5
  DW_CFA_def_cfa: r7 (rsp) ofs 8
  DW_CFA_nop
  DW_CFA_nop
  DW_CFA_nop
  DW_CFA_nop
  DW_CFA_nop
  DW_CFA_nop
  DW_CFA_nop

00000458 000000000000001c 0000045c FDE cie=00000000 pc=00000000000082e6..00000000000083a4
  DW_CFA_advance_loc: 5 to 00000000000082eb
  DW_CFA_def_cfa_offset: 16
  DW_CFA_offset: r6 (rbp) at cfa-16
  DW_CFA_advance_loc: 3 to 00000000000082ee
  DW_CFA_def_cfa_register: r6 (rbp)
  DW_CFA_advance_loc1: 181 to 00000000000083a3
  DW_CFA_def_cfa: r7 (rsp) ofs 8
  DW_CFA_nop
  DW_CFA_nop

00000478 000000000000001c 0000047c FDE cie=00000000 pc=00000000000083a4..00000000000083c8
  DW_CFA_advance_loc: 5 to 00000000000083a9
  DW_CFA_def_cfa_offset: 16
  DW_CFA_offset: r6 (rbp) at cfa-16
  DW_CFA_advance_loc: 3 to 00000000000083ac
  DW_CFA_def_cfa_register: r6 (rbp)
  DW_CFA_advance_loc: 27 to 00000000000083c7
  DW_CFA_def_cfa: r7 (rsp) ofs 8
  DW_CFA_nop
  DW_CFA_nop
  DW_CFA_nop

00000498 000000000000001c 0000049c FDE cie=00000000 pc=00000000000083c8..000000000000840d
  DW_CFA_advance_loc: 5 to 00000000000083cd
  DW_CFA_def_cfa_offset: 16
  DW_CFA_offset: r6 (rbp) at cfa-16
  DW_CFA_advance_loc: 3 to 00000000000083d0
  DW_CFA_def_cfa_register: r6 (rbp)
  DW_CFA_advance_loc: 60 to 000000000000840c
  DW_CFA_def_cfa: r7 (rsp) ofs 8
  DW_CFA_nop
  DW_CFA_nop
  DW_CFA_nop

000004b8 000000000000001c 000004bc FDE cie=00000000 pc=000000000000840d..000000000000844a
  DW_CFA_advance_loc: 5 to 0000000000008412
  DW_CFA_def_cfa_offset: 16
  DW_CFA_offset: r6 (rbp) at cfa-16
  DW_CFA_advance_loc: 3 to 0000000000008415
  DW_CFA_def_cfa_register: r6 (rbp)
  DW_CFA_advance_loc: 52 to 0000000000008449
  DW_CFA_def_cfa: r7 (rsp) ofs 8
  DW_CFA_nop
  DW_CFA_nop
  DW_CFA_nop

000004d8 000000000000001c 000004dc FDE cie=00000000 pc=000000000000844a..00000000000084fc
  DW_CFA_advance_loc: 5 to 000000000000844f
  DW_CFA_def_cfa_offset: 16
  DW_CFA_offset: r6 (rbp) at cfa-16
  DW_CFA_advance_loc: 3 to 0000000000008452
  DW_CFA_def_cfa_register: r6 (rbp)
  DW_CFA_advance_loc1: 169 to 00000000000084fb
  DW_CFA_def_cfa: r7 (rsp) ofs 8
  DW_CFA_nop
  DW_CFA_nop

000004f8 000000000000001c 000004fc FDE cie=00000000 pc=00000000000084fc..000000000000863a
  DW_CFA_advance_loc: 5 to 0000000000008501
  DW_CFA_def_cfa_offset: 16
  DW_CFA_offset: r6 (rbp) at cfa-16
  DW_CFA_advance_loc: 3 to 0000000000008504
  DW_CFA_def_cfa_register: r6 (rbp)
  DW_CFA_advance_loc2: 309 to 0000000000008639
  DW_CFA_def_cfa: r7 (rsp) ofs 8
  DW_CFA_nop

00000518 000000000000001c 0000051c FDE cie=00000000 pc=000000000000863a..000000000000864d
  DW_CFA_advance_loc: 5 to 000000000000863f
  DW_CFA_def_cfa_offset: 16
  DW_CFA_offset: r6 (rbp) at cfa-16
  DW_CFA_advance_loc: 3 to 0000000000008642
  DW_CFA_def_cfa_register: r6 (rbp)
  DW_CFA_advance_loc: 10 to 000000000000864c
  DW_CFA_def_cfa: r7 (rsp) ofs 8
  DW_CFA_nop
  DW_CFA_nop
  DW_CFA_nop

00000538 000000000000001c 0000053c FDE cie=00000000 pc=000000000000864d..0000000000008660
  DW_CFA_advance_loc: 5 to 0000000000008652
  DW_CFA_def_cfa_offset: 16
  DW_CFA_offset: r6 (rbp) at cfa-16
  DW_CFA_advance_loc: 3 to 0000000000008655
  DW_CFA_def_cfa_register: r6 (rbp)
  DW_CFA_advance_loc: 10 to 000000000000865f
  DW_CFA_def_cfa: r7 (rsp) ofs 8
  DW_CFA_nop
  DW_CFA_nop
  DW_CFA_nop

00000558 000000000000001c 0000055c FDE cie=00000000 pc=0000000000008660..0000000000008759
  DW_CFA_advance_loc: 5 to 0000000000008665
  DW_CFA_def_cfa_offset: 16
  DW_CFA_offset: r6 (rbp) at cfa-16
  DW_CFA_advance_loc: 3 to 0000000000008668
  DW_CFA_def_cfa_register: r6 (rbp)
  DW_CFA_advance_loc1: 240 to 0000000000008758
  DW_CFA_def_cfa: r7 (rsp) ofs 8
  DW_CFA_nop
  DW_CFA_nop

00000578 000000000000001c 0000057c FDE cie=00000000 pc=0000000000008759..0000000000008772
  DW_CFA_advance_loc: 5 to 000000000000875e
  DW_CFA_def_cfa_offset: 16
  DW_CFA_offset: r6 (rbp) at cfa-16
  DW_CFA_advance_loc: 3 to 0000000000008761
  DW_CFA_def_cfa_register: r6 (rbp)
  DW_CFA_advance_loc: 16 to 0000000000008771
  DW_CFA_def_cfa: r7 (rsp) ofs 8
  DW_CFA_nop
  DW_CFA_nop
  DW_CFA_nop

00000598 000000000000001c 0000059c FDE cie=00000000 pc=0000000000008772..0000000000008a04
  DW_CFA_advance_loc: 5 to 0000000000008777
  DW_CFA_def_cfa_offset: 16
  DW_CFA_offset: r6 (rbp) at cfa-16
  DW_CFA_advance_loc: 3 to 000000000000877a
  DW_CFA_def_cfa_register: r6 (rbp)
  DW_CFA_advance_loc2: 649 to 0000000000008a03
  DW_CFA_def_cfa: r7 (rsp) ofs 8
  DW_CFA_nop

000005b8 000000000000001c 000005bc FDE cie=00000000 pc=0000000000008a04..0000000000008cf9
  DW_CFA_advance_loc: 5 to 0000000000008a09
  DW_CFA_def_cfa_offset: 16
  DW_CFA_offset: r6 (rbp) at cfa-16
  DW_CFA_advance_loc: 3 to 0000000000008a0c
  DW_CFA_def_cfa_register: r6 (rbp)
  DW_CFA_advance_loc2: 748 to 0000000000008cf8
  DW_CFA_def_cfa: r7 (rsp) ofs 8
  DW_CFA_nop

000005d8 000000000000001c 000005dc FDE cie=00000000 pc=0000000000008cf9..0000000000008d4a
  DW_CFA_advance_loc: 5 to 0000000000008cfe
  DW_CFA_def_cfa_offset: 16
  DW_CFA_offset: r6 (rbp) at cfa-16
  DW_CFA_advance_loc: 3 to 0000000000008d01
  DW_CFA_def_cfa_register: r6 (rbp)
  DW_CFA_advance_loc1: 72 to 0000000000008d49
  DW_CFA_def_cfa: r7 (rsp) ofs 8
  DW_CFA_nop
  DW_CFA_nop

000005f8 000000000000001c 000005fc FDE cie=00000000 pc=0000000000008d4a..0000000000008e94
  DW_CFA_advance_loc: 5 to 0000000000008d4f
  DW_CFA_def_cfa_offset: 16
  DW_CFA_offset: r6 (rbp) at cfa-16
  DW_CFA_advance_loc: 3 to 0000000000008d52
  DW_CFA_def_cfa_register: r6 (rbp)
  DW_CFA_advance_loc2: 321 to 0000000000008e93
  DW_CFA_def_cfa: r7 (rsp) ofs 8
  DW_CFA_nop

00000618 000000000000001c 0000061c FDE cie=00000000 pc=0000000000008e94..00000000000090a3
  DW_CFA_advance_loc: 5 to 0000000000008e99
  DW_CFA_def_cfa_offset: 16
  DW_CFA_offset: r6 (rbp) at cfa-16
  DW_CFA_advance_loc: 3 to 0000000000008e9c
  DW_CFA_def_cfa_register: r6 (rbp)
  DW_CFA_advance_loc2: 518 to 00000000000090a2
  DW_CFA_def_cfa: r7 (rsp) ofs 8
  DW_CFA_nop

00000638 0000000000000024 0000063c FDE cie=00000000 pc=00000000000090a3..00000000000095e4
  DW_CFA_advance_loc: 5 to 00000000000090a8
  DW_CFA_def_cfa_offset: 16
  DW_CFA_offset: r6 (rbp) at cfa-16
  DW_CFA_advance_loc: 3 to 00000000000090ab
  DW_CFA_def_cfa_register: r6 (rbp)
  DW_CFA_advance_loc: 12 to 00000000000090b7
  DW_CFA_offset: r13 (r13) at cfa-24
  DW_CFA_offset: r12 (r12) at cfa-32
  DW_CFA_offset: r3 (rbx) at cfa-40
  DW_CFA_advance_loc2: 1324 to 00000000000095e3
  DW_CFA_def_cfa: r7 (rsp) ofs 8
  DW_CFA_nop
  DW_CFA_nop

00000660 000000000000001c 00000664 FDE cie=00000000 pc=00000000000095e4..0000000000009644
  DW_CFA_advance_loc: 5 to 00000000000095e9
  DW_CFA_def_cfa_offset: 16
  DW_CFA_offset: r6 (rbp) at cfa-16
  DW_CFA_advance_loc: 3 to 00000000000095ec
  DW_CFA_def_cfa_register: r6 (rbp)
  DW_CFA_advance_loc1: 87 to 0000000000009643
  DW_CFA_def_cfa: r7 (rsp) ofs 8
  DW_CFA_nop
  DW_CFA_nop

00000680 0000000000000020 00000684 FDE cie=00000000 pc=0000000000009644..000000000000982d
  DW_CFA_advance_loc: 5 to 0000000000009649
  DW_CFA_def_cfa_offset: 16
  DW_CFA_offset: r6 (rbp) at cfa-16
  DW_CFA_advance_loc: 3 to 000000000000964c
  DW_CFA_def_cfa_register: r6 (rbp)
  DW_CFA_advance_loc: 5 to 0000000000009651
  DW_CFA_offset: r3 (rbx) at cfa-24
  DW_CFA_advance_loc2: 475 to 000000000000982c
  DW_CFA_def_cfa: r7 (rsp) ofs 8
  DW_CFA_nop
  DW_CFA_nop

000006a4 000000000000001c 000006a8 FDE cie=00000000 pc=000000000000982d..0000000000009859
  DW_CFA_advance_loc: 5 to 0000000000009832
  DW_CFA_def_cfa_offset: 16
  DW_CFA_offset: r6 (rbp) at cfa-16
  DW_CFA_advance_loc: 3 to 0000000000009835
  DW_CFA_def_cfa_register: r6 (rbp)
  DW_CFA_advance_loc: 35 to 0000000000009858
  DW_CFA_def_cfa: r7 (rsp) ofs 8
  DW_CFA_nop
  DW_CFA_nop
  DW_CFA_nop

000006c4 0000000000000020 000006c8 FDE cie=00000000 pc=0000000000009859..000000000000bda8
  DW_CFA_advance_loc: 5 to 000000000000985e
  DW_CFA_def_cfa_offset: 16
  DW_CFA_offset: r6 (rbp) at cfa-16
  DW_CFA_advance_loc: 3 to 0000000000009861
  DW_CFA_def_cfa_register: r6 (rbp)
  DW_CFA_advance_loc: 8 to 0000000000009869
  DW_CFA_offset: r3 (rbx) at cfa-24
  DW_CFA_advance_loc2: 9534 to 000000000000bda7
  DW_CFA_def_cfa: r7 (rsp) ofs 8
  DW_CFA_nop
  DW_CFA_nop

000006e8 000000000000001c 000006ec FDE cie=00000000 pc=000000000000bda8..000000000000bf71
  DW_CFA_advance_loc: 5 to 000000000000bdad
  DW_CFA_def_cfa_offset: 16
  DW_CFA_offset: r6 (rbp) at cfa-16
  DW_CFA_advance_loc: 3 to 000000000000bdb0
  DW_CFA_def_cfa_register: r6 (rbp)
  DW_CFA_advance_loc2: 448 to 000000000000bf70
  DW_CFA_def_cfa: r7 (rsp) ofs 8
  DW_CFA_nop

00000708 000000000000001c 0000070c FDE cie=00000000 pc=000000000000bf71..000000000000bffc
  DW_CFA_advance_loc: 5 to 000000000000bf76
  DW_CFA_def_cfa_offset: 16
  DW_CFA_offset: r6 (rbp) at cfa-16
  DW_CFA_advance_loc: 3 to 000000000000bf79
  DW_CFA_def_cfa_register: r6 (rbp)
  DW_CFA_advance_loc1: 130 to 000000000000bffb
  DW_CFA_def_cfa: r7 (rsp) ofs 8
  DW_CFA_nop
  DW_CFA_nop

00000728 000000000000001c 0000072c FDE cie=00000000 pc=000000000000bffc..000000000000c091
  DW_CFA_advance_loc: 5 to 000000000000c001
  DW_CFA_def_cfa_offset: 16
  DW_CFA_offset: r6 (rbp) at cfa-16
  DW_CFA_advance_loc: 3 to 000000000000c004
  DW_CFA_def_cfa_register: r6 (rbp)
  DW_CFA_advance_loc1: 140 to 000000000000c090
  DW_CFA_def_cfa: r7 (rsp) ofs 8
  DW_CFA_nop
  DW_CFA_nop

00000748 0000000000000020 0000074c FDE cie=00000000 pc=000000000000c091..000000000000c1b6
  DW_CFA_advance_loc: 5 to 000000000000c096
  DW_CFA_def_cfa_offset: 16
  DW_CFA_offset: r6 (rbp) at cfa-16
  DW_CFA_advance_loc: 3 to 000000000000c099
  DW_CFA_def_cfa_register: r6 (rbp)
  DW_CFA_advance_loc: 5 to 000000000000c09e
  DW_CFA_offset: r3 (rbx) at cfa-24
  DW_CFA_advance_loc2: 279 to 000000000000c1b5
  DW_CFA_def_cfa: r7 (rsp) ofs 8
  DW_CFA_nop
  DW_CFA_nop

0000076c 000000000000001c 00000770 FDE cie=00000000 pc=000000000000c1b6..000000000000c291
  DW_CFA_advance_loc: 5 to 000000000000c1bb
  DW_CFA_def_cfa_offset: 16
  DW_CFA_offset: r6 (rbp) at cfa-16
  DW_CFA_advance_loc: 3 to 000000000000c1be
  DW_CFA_def_cfa_register: r6 (rbp)
  DW_CFA_advance_loc1: 210 to 000000000000c290
  DW_CFA_def_cfa: r7 (rsp) ofs 8
  DW_CFA_nop
  DW_CFA_nop

0000078c 000000000000001c 00000790 FDE cie=00000000 pc=000000000000c291..000000000000c5d8
  DW_CFA_advance_loc: 5 to 000000000000c296
  DW_CFA_def_cfa_offset: 16
  DW_CFA_offset: r6 (rbp) at cfa-16
  DW_CFA_advance_loc: 3 to 000000000000c299
  DW_CFA_def_cfa_register: r6 (rbp)
  DW_CFA_advance_loc2: 830 to 000000000000c5d7
  DW_CFA_def_cfa: r7 (rsp) ofs 8
  DW_CFA_nop

000007ac 000000000000001c 000007b0 FDE cie=00000000 pc=000000000000c5d8..000000000000caa7
  DW_CFA_advance_loc: 5 to 000000000000c5dd
  DW_CFA_def_cfa_offset: 16
  DW_CFA_offset: r6 (rbp) at cfa-16
  DW_CFA_advance_loc: 3 to 000000000000c5e0
  DW_CFA_def_cfa_register: r6 (rbp)
  DW_CFA_advance_loc2: 1222 to 000000000000caa6
  DW_CFA_def_cfa: r7 (rsp) ofs 8
  DW_CFA_nop

000007cc 000000000000001c 000007d0 FDE cie=00000000 pc=000000000000caa7..000000000000cabe
  DW_CFA_advance_loc: 5 to 000000000000caac
  DW_CFA_def_cfa_offset: 16
  DW_CFA_offset: r6 (rbp) at cfa-16
  DW_CFA_advance_loc: 3 to 000000000000caaf
  DW_CFA_def_cfa_register: r6 (rbp)
  DW_CFA_advance_loc: 14 to 000000000000cabd
  DW_CFA_def_cfa: r7 (rsp) ofs 8
  DW_CFA_nop
  DW_CFA_nop
  DW_CFA_nop

000007ec 000000000000001c 000007f0 FDE cie=00000000 pc=000000000000cabe..000000000000cb51
  DW_CFA_advance_loc: 5 to 000000000000cac3
  DW_CFA_def_cfa_offset: 16
  DW_CFA_offset: r6 (rbp) at cfa-16
  DW_CFA_advance_loc: 3 to 000000000000cac6
  DW_CFA_def_cfa_register: r6 (rbp)
  DW_CFA_advance_loc1: 138 to 000000000000cb50
  DW_CFA_def_cfa: r7 (rsp) ofs 8
  DW_CFA_nop
  DW_CFA_nop

0000080c 000000000000001c 00000810 FDE cie=00000000 pc=000000000000cb51..000000000000cc68
  DW_CFA_advance_loc: 5 to 000000000000cb56
  DW_CFA_def_cfa_offset: 16
  DW_CFA_offset: r6 (rbp) at cfa-16
  DW_CFA_advance_loc: 3 to 000000000000cb59
  DW_CFA_def_cfa_register: r6 (rbp)
  DW_CFA_advance_loc2: 270 to 000000000000cc67
  DW_CFA_def_cfa: r7 (rsp) ofs 8
  DW_CFA_nop

0000082c 0000000000000020 00000830 FDE cie=00000000 pc=000000000000cc68..000000000000cd03
  DW_CFA_advance_loc: 5 to 000000000000cc6d
  DW_CFA_def_cfa_offset: 16
  DW_CFA_offset: r6 (rbp) at cfa-16
  DW_CFA_advance_loc: 3 to 000000000000cc70
  DW_CFA_def_cfa_register: r6 (rbp)
  DW_CFA_advance_loc: 7 to 000000000000cc77
  DW_CFA_offset: r12 (r12) at cfa-24
  DW_CFA_offset: r3 (rbx) at cfa-32
  DW_CFA_advance_loc1: 139 to 000000000000cd02
  DW_CFA_def_cfa: r7 (rsp) ofs 8
  DW_CFA_nop

00000850 000000000000001c 00000854 FDE cie=00000000 pc=000000000000cd03..000000000000cd5a
  DW_CFA_advance_loc: 5 to 000000000000cd08
  DW_CFA_def_cfa_offset: 16
  DW_CFA_offset: r6 (rbp) at cfa-16
  DW_CFA_advance_loc: 3 to 000000000000cd0b
  DW_CFA_def_cfa_register: r6 (rbp)
  DW_CFA_advance_loc1: 78 to 000000000000cd59
  DW_CFA_def_cfa: r7 (rsp) ofs 8
  DW_CFA_nop
  DW_CFA_nop

00000870 0000000000000020 00000874 FDE cie=00000000 pc=000000000000cd5a..000000000000d188
  DW_CFA_advance_loc: 5 to 000000000000cd5f
  DW_CFA_def_cfa_offset: 16
  DW_CFA_offset: r6 (rbp) at cfa-16
  DW_CFA_advance_loc: 3 to 000000000000cd62
  DW_CFA_def_cfa_register: r6 (rbp)
  DW_CFA_advance_loc: 8 to 000000000000cd6a
  DW_CFA_offset: r3 (rbx) at cfa-24
  DW_CFA_advance_loc2: 1053 to 000000000000d187
  DW_CFA_def_cfa: r7 (rsp) ofs 8
  DW_CFA_nop
  DW_CFA_nop

00000894 0000000000000024 00000898 FDE cie=00000000 pc=000000000000d188..000000000000f105
  DW_CFA_advance_loc: 5 to 000000000000d18d
  DW_CFA_def_cfa_offset: 16
  DW_CFA_offset: r6 (rbp) at cfa-16
  DW_CFA_advance_loc: 3 to 000000000000d190
  DW_CFA_def_cfa_register: r6 (rbp)
  DW_CFA_advance_loc: 14 to 000000000000d19e
  DW_CFA_offset: r14 (r14) at cfa-24
  DW_CFA_offset: r13 (r13) at cfa-32
  DW_CFA_offset: r12 (r12) at cfa-40
  DW_CFA_offset: r3 (rbx) at cfa-48
  DW_CFA_advance_loc2: 8038 to 000000000000f104
  DW_CFA_def_cfa: r7 (rsp) ofs 8

000008bc 000000000000001c 000008c0 FDE cie=00000000 pc=000000000000f105..000000000000f14f
  DW_CFA_advance_loc: 5 to 000000000000f10a
  DW_CFA_def_cfa_offset: 16
  DW_CFA_offset: r6 (rbp) at cfa-16
  DW_CFA_advance_loc: 3 to 000000000000f10d
  DW_CFA_def_cfa_register: r6 (rbp)
  DW_CFA_advance_loc1: 65 to 000000000000f14e
  DW_CFA_def_cfa: r7 (rsp) ofs 8
  DW_CFA_nop
  DW_CFA_nop

000008dc 0000000000000020 000008e0 FDE cie=00000000 pc=000000000000f14f..000000000000f1d4
  DW_CFA_advance_loc: 5 to 000000000000f154
  DW_CFA_def_cfa_offset: 16
  DW_CFA_offset: r6 (rbp) at cfa-16
  DW_CFA_advance_loc: 3 to 000000000000f157
  DW_CFA_def_cfa_register: r6 (rbp)
  DW_CFA_advance_loc1: 124 to 000000000000f1d3
  DW_CFA_def_cfa: r7 (rsp) ofs 8
  DW_CFA_nop
  DW_CFA_nop
  DW_CFA_nop
  DW_CFA_nop
  DW_CFA_nop
  DW_CFA_nop

00000900 000000000000001c 00000904 FDE cie=00000000 pc=000000000000f1d4..000000000000f2f6
  DW_CFA_advance_loc: 5 to 000000000000f1d9
  DW_CFA_def_cfa_offset: 16
  DW_CFA_offset: r6 (rbp) at cfa-16
  DW_CFA_advance_loc: 3 to 000000000000f1dc
  DW_CFA_def_cfa_register: r6 (rbp)
  DW_CFA_advance_loc2: 281 to 000000000000f2f5
  DW_CFA_def_cfa: r7 (rsp) ofs 8
  DW_CFA_nop

00000920 000000000000001c 00000924 FDE cie=00000000 pc=000000000000f2f6..000000000000f5eb
  DW_CFA_advance_loc: 5 to 000000000000f2fb
  DW_CFA_def_cfa_offset: 16
  DW_CFA_offset: r6 (rbp) at cfa-16
  DW_CFA_advance_loc: 3 to 000000000000f2fe
  DW_CFA_def_cfa_register: r6 (rbp)
  DW_CFA_advance_loc2: 748 to 000000000000f5ea
  DW_CFA_def_cfa: r7 (rsp) ofs 8
  DW_CFA_nop

00000940 000000000000001c 00000944 FDE cie=00000000 pc=000000000000f5eb..000000000000f76e
  DW_CFA_advance_loc: 5 to 000000000000f5f0
  DW_CFA_def_cfa_offset: 16
  DW_CFA_offset: r6 (rbp) at cfa-16
  DW_CFA_advance_loc: 3 to 000000000000f5f3
  DW_CFA_def_cfa_register: r6 (rbp)
  DW_CFA_advance_loc2: 378 to 000000000000f76d
  DW_CFA_def_cfa: r7 (rsp) ofs 8
  DW_CFA_nop

00000960 000000000000001c 00000964 FDE cie=00000000 pc=000000000000f76e..000000000000f863
  DW_CFA_advance_loc: 5 to 000000000000f773
  DW_CFA_def_cfa_offset: 16
  DW_CFA_offset: r6 (rbp) at cfa-16
  DW_CFA_advance_loc: 3 to 000000000000f776
  DW_CFA_def_cfa_register: r6 (rbp)
  DW_CFA_advance_loc1: 236 to 000000000000f862
  DW_CFA_def_cfa: r7 (rsp) ofs 8
  DW_CFA_nop
  DW_CFA_nop

00000980 000000000000001c 00000984 FDE cie=00000000 pc=000000000000f863..000000000000f8b2
  DW_CFA_advance_loc: 5 to 000000000000f868
  DW_CFA_def_cfa_offset: 16
  DW_CFA_offset: r6 (rbp) at cfa-16
  DW_CFA_advance_loc: 3 to 000000000000f86b
  DW_CFA_def_cfa_register: r6 (rbp)
  DW_CFA_advance_loc1: 70 to 000000000000f8b1
  DW_CFA_def_cfa: r7 (rsp) ofs 8
  DW_CFA_nop
  DW_CFA_nop

000009a0 000000000000001c 000009a4 FDE cie=00000000 pc=000000000000f8b2..000000000000f8d6
  DW_CFA_advance_loc: 5 to 000000000000f8b7
  DW_CFA_def_cfa_offset: 16
  DW_CFA_offset: r6 (rbp) at cfa-16
  DW_CFA_advance_loc: 3 to 000000000000f8ba
  DW_CFA_def_cfa_register: r6 (rbp)
  DW_CFA_advance_loc: 27 to 000000000000f8d5
  DW_CFA_def_cfa: r7 (rsp) ofs 8
  DW_CFA_nop
  DW_CFA_nop
  DW_CFA_nop

000009c0 000000000000001c 000009c4 FDE cie=00000000 pc=000000000000f8d6..000000000000f901
  DW_CFA_advance_loc: 5 to 000000000000f8db
  DW_CFA_def_cfa_offset: 16
  DW_CFA_offset: r6 (rbp) at cfa-16
  DW_CFA_advance_loc: 3 to 000000000000f8de
  DW_CFA_def_cfa_register: r6 (rbp)
  DW_CFA_advance_loc: 34 to 000000000000f900
  DW_CFA_def_cfa: r7 (rsp) ofs 8
  DW_CFA_nop
  DW_CFA_nop
  DW_CFA_nop

000009e0 000000000000001c 000009e4 FDE cie=00000000 pc=000000000000f901..000000000000f991
  DW_CFA_advance_loc: 5 to 000000000000f906
  DW_CFA_def_cfa_offset: 16
  DW_CFA_offset: r6 (rbp) at cfa-16
  DW_CFA_advance_loc: 3 to 000000000000f909
  DW_CFA_def_cfa_register: r6 (rbp)
  DW_CFA_advance_loc1: 135 to 000000000000f990
  DW_CFA_def_cfa: r7 (rsp) ofs 8
  DW_CFA_nop
  DW_CFA_nop

00000a00 000000000000001c 00000a04 FDE cie=00000000 pc=000000000000f991..000000000000f9cb
  DW_CFA_advance_loc: 5 to 000000000000f996
  DW_CFA_def_cfa_offset: 16
  DW_CFA_offset: r6 (rbp) at cfa-16
  DW_CFA_advance_loc: 3 to 000000000000f999
  DW_CFA_def_cfa_register: r6 (rbp)
  DW_CFA_advance_loc: 49 to 000000000000f9ca
  DW_CFA_def_cfa: r7 (rsp) ofs 8
  DW_CFA_nop
  DW_CFA_nop
  DW_CFA_nop

00000a20 000000000000001c 00000a24 FDE cie=00000000 pc=000000000000f9cb..000000000000fa2d
  DW_CFA_advance_loc: 5 to 000000000000f9d0
  DW_CFA_def_cfa_offset: 16
  DW_CFA_offset: r6 (rbp) at cfa-16
  DW_CFA_advance_loc: 3 to 000000000000f9d3
  DW_CFA_def_cfa_register: r6 (rbp)
  DW_CFA_advance_loc1: 89 to 000000000000fa2c
  DW_CFA_def_cfa: r7 (rsp) ofs 8
  DW_CFA_nop
  DW_CFA_nop

00000a40 0000000000000020 00000a44 FDE cie=00000000 pc=000000000000fa2d..000000000000faf2
  DW_CFA_advance_loc: 5 to 000000000000fa32
  DW_CFA_def_cfa_offset: 16
  DW_CFA_offset: r6 (rbp) at cfa-16
  DW_CFA_advance_loc: 3 to 000000000000fa35
  DW_CFA_def_cfa_register: r6 (rbp)
  DW_CFA_advance_loc: 5 to 000000000000fa3a
  DW_CFA_offset: r3 (rbx) at cfa-24
  DW_CFA_advance_loc1: 183 to 000000000000faf1
  DW_CFA_def_cfa: r7 (rsp) ofs 8
  DW_CFA_nop
  DW_CFA_nop
  DW_CFA_nop

00000a64 000000000000001c 00000a68 FDE cie=00000000 pc=000000000000faf2..000000000000fbb7
  DW_CFA_advance_loc: 5 to 000000000000faf7
  DW_CFA_def_cfa_offset: 16
  DW_CFA_offset: r6 (rbp) at cfa-16
  DW_CFA_advance_loc: 3 to 000000000000fafa
  DW_CFA_def_cfa_register: r6 (rbp)
  DW_CFA_advance_loc1: 188 to 000000000000fbb6
  DW_CFA_def_cfa: r7 (rsp) ofs 8
  DW_CFA_nop
  DW_CFA_nop

00000a84 0000000000000020 00000a88 FDE cie=00000000 pc=000000000000fbb7..0000000000010c78
  DW_CFA_advance_loc: 5 to 000000000000fbbc
  DW_CFA_def_cfa_offset: 16
  DW_CFA_offset: r6 (rbp) at cfa-16
  DW_CFA_advance_loc: 3 to 000000000000fbbf
  DW_CFA_def_cfa_register: r6 (rbp)
  DW_CFA_advance_loc: 8 to 000000000000fbc7
  DW_CFA_offset: r3 (rbx) at cfa-24
  DW_CFA_advance_loc2: 4272 to 0000000000010c77
  DW_CFA_def_cfa: r7 (rsp) ofs 8
  DW_CFA_nop
  DW_CFA_nop

00000aa8 000000000000001c 00000aac FDE cie=00000000 pc=0000000000010c78..0000000000010d20
  DW_CFA_advance_loc: 5 to 0000000000010c7d
  DW_CFA_def_cfa_offset: 16
  DW_CFA_offset: r6 (rbp) at cfa-16
  DW_CFA_advance_loc: 3 to 0000000000010c80
  DW_CFA_def_cfa_register: r6 (rbp)
  DW_CFA_advance_loc1: 159 to 0000000000010d1f
  DW_CFA_def_cfa: r7 (rsp) ofs 8
  DW_CFA_nop
  DW_CFA_nop

00000ac8 000000000000001c 00000acc FDE cie=00000000 pc=0000000000010d20..0000000000010d56
  DW_CFA_advance_loc: 5 to 0000000000010d25
  DW_CFA_def_cfa_offset: 16
  DW_CFA_offset: r6 (rbp) at cfa-16
  DW_CFA_advance_loc: 3 to 0000000000010d28
  DW_CFA_def_cfa_register: r6 (rbp)
  DW_CFA_advance_loc: 45 to 0000000000010d55
  DW_CFA_def_cfa: r7 (rsp) ofs 8
  DW_CFA_nop
  DW_CFA_nop
  DW_CFA_nop

00000ae8 000000000000001c 00000aec FDE cie=00000000 pc=0000000000010d56..0000000000010e82
  DW_CFA_advance_loc: 5 to 0000000000010d5b
  DW_CFA_def_cfa_offset: 16
  DW_CFA_offset: r6 (rbp) at cfa-16
  DW_CFA_advance_loc: 3 to 0000000000010d5e
  DW_CFA_def_cfa_register: r6 (rbp)
  DW_CFA_advance_loc2: 291 to 0000000000010e81
  DW_CFA_def_cfa: r7 (rsp) ofs 8
  DW_CFA_nop

00000b08 000000000000001c 00000b0c FDE cie=00000000 pc=0000000000010e82..0000000000010f41
  DW_CFA_advance_loc: 5 to 0000000000010e87
  DW_CFA_def_cfa_offset: 16
  DW_CFA_offset: r6 (rbp) at cfa-16
  DW_CFA_advance_loc: 3 to 0000000000010e8a
  DW_CFA_def_cfa_register: r6 (rbp)
  DW_CFA_advance_loc1: 182 to 0000000000010f40
  DW_CFA_def_cfa: r7 (rsp) ofs 8
  DW_CFA_nop
  DW_CFA_nop

00000b28 000000000000001c 00000b2c FDE cie=00000000 pc=0000000000010f41..00000000000111f0
  DW_CFA_advance_loc: 5 to 0000000000010f46
  DW_CFA_def_cfa_offset: 16
  DW_CFA_offset: r6 (rbp) at cfa-16
  DW_CFA_advance_loc: 3 to 0000000000010f49
  DW_CFA_def_cfa_register: r6 (rbp)
  DW_CFA_advance_loc2: 678 to 00000000000111ef
  DW_CFA_def_cfa: r7 (rsp) ofs 8
  DW_CFA_nop

00000b48 000000000000001c 00000b4c FDE cie=00000000 pc=00000000000111f0..0000000000011224
  DW_CFA_advance_loc: 5 to 00000000000111f5
  DW_CFA_def_cfa_offset: 16
  DW_CFA_offset: r6 (rbp) at cfa-16
  DW_CFA_advance_loc: 3 to 00000000000111f8
  DW_CFA_def_cfa_register: r6 (rbp)
  DW_CFA_advance_loc: 43 to 0000000000011223
  DW_CFA_def_cfa: r7 (rsp) ofs 8
  DW_CFA_nop
  DW_CFA_nop
  DW_CFA_nop

00000b68 000000000000001c 00000b6c FDE cie=00000000 pc=0000000000011224..0000000000011256
  DW_CFA_advance_loc: 5 to 0000000000011229
  DW_CFA_def_cfa_offset: 16
  DW_CFA_offset: r6 (rbp) at cfa-16
  DW_CFA_advance_loc: 3 to 000000000001122c
  DW_CFA_def_cfa_register: r6 (rbp)
  DW_CFA_advance_loc: 41 to 0000000000011255
  DW_CFA_def_cfa: r7 (rsp) ofs 8
  DW_CFA_nop
  DW_CFA_nop
  DW_CFA_nop

00000b88 000000000000001c 00000b8c FDE cie=00000000 pc=0000000000011256..0000000000011279
  DW_CFA_advance_loc: 5 to 000000000001125b
  DW_CFA_def_cfa_offset: 16
  DW_CFA_offset: r6 (rbp) at cfa-16
  DW_CFA_advance_loc: 3 to 000000000001125e
  DW_CFA_def_cfa_register: r6 (rbp)
  DW_CFA_advance_loc: 26 to 0000000000011278
  DW_CFA_def_cfa: r7 (rsp) ofs 8
  DW_CFA_nop
  DW_CFA_nop
  DW_CFA_nop

00000ba8 000000000000001c 00000bac FDE cie=00000000 pc=0000000000011279..00000000000112a4
  DW_CFA_advance_loc: 5 to 000000000001127e
  DW_CFA_def_cfa_offset: 16
  DW_CFA_offset: r6 (rbp) at cfa-16
  DW_CFA_advance_loc: 3 to 0000000000011281
  DW_CFA_def_cfa_register: r6 (rbp)
  DW_CFA_advance_loc: 34 to 00000000000112a3
  DW_CFA_def_cfa: r7 (rsp) ofs 8
  DW_CFA_nop
  DW_CFA_nop
  DW_CFA_nop

00000bc8 000000000000001c 00000bcc FDE cie=00000000 pc=00000000000112a4..000000000001130c
  DW_CFA_advance_loc: 5 to 00000000000112a9
  DW_CFA_def_cfa_offset: 16
  DW_CFA_offset: r6 (rbp) at cfa-16
  DW_CFA_advance_loc: 3 to 00000000000112ac
  DW_CFA_def_cfa_register: r6 (rbp)
  DW_CFA_advance_loc1: 95 to 000000000001130b
  DW_CFA_def_cfa: r7 (rsp) ofs 8
  DW_CFA_nop
  DW_CFA_nop

00000be8 000000000000001c 00000bec FDE cie=00000000 pc=000000000001130c..0000000000011372
  DW_CFA_advance_loc: 5 to 0000000000011311
  DW_CFA_def_cfa_offset: 16
  DW_CFA_offset: r6 (rbp) at cfa-16
  DW_CFA_advance_loc: 3 to 0000000000011314
  DW_CFA_def_cfa_register: r6 (rbp)
  DW_CFA_advance_loc1: 93 to 0000000000011371
  DW_CFA_def_cfa: r7 (rsp) ofs 8
  DW_CFA_nop
  DW_CFA_nop

00000c08 000000000000001c 00000c0c FDE cie=00000000 pc=0000000000011372..000000000001139a
  DW_CFA_advance_loc: 5 to 0000000000011377
  DW_CFA_def_cfa_offset: 16
  DW_CFA_offset: r6 (rbp) at cfa-16
  DW_CFA_advance_loc: 3 to 000000000001137a
  DW_CFA_def_cfa_register: r6 (rbp)
  DW_CFA_advance_loc: 31 to 0000000000011399
  DW_CFA_def_cfa: r7 (rsp) ofs 8
  DW_CFA_nop
  DW_CFA_nop
  DW_CFA_nop

00000c28 000000000000001c 00000c2c FDE cie=00000000 pc=000000000001139a..00000000000113ca
  DW_CFA_advance_loc: 5 to 000000000001139f
  DW_CFA_def_cfa_offset: 16
  DW_CFA_offset: r6 (rbp) at cfa-16
  DW_CFA_advance_loc: 3 to 00000000000113a2
  DW_CFA_def_cfa_register: r6 (rbp)
  DW_CFA_advance_loc: 39 to 00000000000113c9
  DW_CFA_def_cfa: r7 (rsp) ofs 8
  DW_CFA_nop
  DW_CFA_nop
  DW_CFA_nop

00000c48 000000000000001c 00000c4c FDE cie=00000000 pc=00000000000113ca..0000000000011485
  DW_CFA_advance_loc: 5 to 00000000000113cf
  DW_CFA_def_cfa_offset: 16
  DW_CFA_offset: r6 (rbp) at cfa-16
  DW_CFA_advance_loc: 3 to 00000000000113d2
  DW_CFA_def_cfa_register: r6 (rbp)
  DW_CFA_advance_loc1: 178 to 0000000000011484
  DW_CFA_def_cfa: r7 (rsp) ofs 8
  DW_CFA_nop
  DW_CFA_nop

00000c68 000000000000001c 00000c6c FDE cie=00000000 pc=0000000000011485..00000000000114b3
  DW_CFA_advance_loc: 5 to 000000000001148a
  DW_CFA_def_cfa_offset: 16
  DW_CFA_offset: r6 (rbp) at cfa-16
  DW_CFA_advance_loc: 3 to 000000000001148d
  DW_CFA_def_cfa_register: r6 (rbp)
  DW_CFA_advance_loc: 37 to 00000000000114b2
  DW_CFA_def_cfa: r7 (rsp) ofs 8
  DW_CFA_nop
  DW_CFA_nop
  DW_CFA_nop

00000c88 000000000000001c 00000c8c FDE cie=00000000 pc=00000000000114b3..00000000000114d6
  DW_CFA_advance_loc: 5 to 00000000000114b8
  DW_CFA_def_cfa_offset: 16
  DW_CFA_offset: r6 (rbp) at cfa-16
  DW_CFA_advance_loc: 3 to 00000000000114bb
  DW_CFA_def_cfa_register: r6 (rbp)
  DW_CFA_advance_loc: 26 to 00000000000114d5
  DW_CFA_def_cfa: r7 (rsp) ofs 8
  DW_CFA_nop
  DW_CFA_nop
  DW_CFA_nop

00000ca8 000000000000001c 00000cac FDE cie=00000000 pc=00000000000114d6..0000000000011504
  DW_CFA_advance_loc: 5 to 00000000000114db
  DW_CFA_def_cfa_offset: 16
  DW_CFA_offset: r6 (rbp) at cfa-16
  DW_CFA_advance_loc: 3 to 00000000000114de
  DW_CFA_def_cfa_register: r6 (rbp)
  DW_CFA_advance_loc: 37 to 0000000000011503
  DW_CFA_def_cfa: r7 (rsp) ofs 8
  DW_CFA_nop
  DW_CFA_nop
  DW_CFA_nop

00000cc8 000000000000001c 00000ccc FDE cie=00000000 pc=0000000000011504..00000000000115c6
  DW_CFA_advance_loc: 5 to 0000000000011509
  DW_CFA_def_cfa_offset: 16
  DW_CFA_offset: r6 (rbp) at cfa-16
  DW_CFA_advance_loc: 3 to 000000000001150c
  DW_CFA_def_cfa_register: r6 (rbp)
  DW_CFA_advance_loc1: 185 to 00000000000115c5
  DW_CFA_def_cfa: r7 (rsp) ofs 8
  DW_CFA_nop
  DW_CFA_nop

00000ce8 000000000000001c 00000cec FDE cie=00000000 pc=00000000000115c6..0000000000011600
  DW_CFA_advance_loc: 5 to 00000000000115cb
  DW_CFA_def_cfa_offset: 16
  DW_CFA_offset: r6 (rbp) at cfa-16
  DW_CFA_advance_loc: 3 to 00000000000115ce
  DW_CFA_def_cfa_register: r6 (rbp)
  DW_CFA_advance_loc: 49 to 00000000000115ff
  DW_CFA_def_cfa: r7 (rsp) ofs 8
  DW_CFA_nop
  DW_CFA_nop
  DW_CFA_nop

00000d08 000000000000001c 00000d0c FDE cie=00000000 pc=0000000000011600..00000000000116be
  DW_CFA_advance_loc: 5 to 0000000000011605
  DW_CFA_def_cfa_offset: 16
  DW_CFA_offset: r6 (rbp) at cfa-16
  DW_CFA_advance_loc: 3 to 0000000000011608
  DW_CFA_def_cfa_register: r6 (rbp)
  DW_CFA_advance_loc1: 181 to 00000000000116bd
  DW_CFA_def_cfa: r7 (rsp) ofs 8
  DW_CFA_nop
  DW_CFA_nop

00000d28 000000000000001c 00000d2c FDE cie=00000000 pc=00000000000116be..00000000000116f1
  DW_CFA_advance_loc: 5 to 00000000000116c3
  DW_CFA_def_cfa_offset: 16
  DW_CFA_offset: r6 (rbp) at cfa-16
  DW_CFA_advance_loc: 3 to 00000000000116c6
  DW_CFA_def_cfa_register: r6 (rbp)
  DW_CFA_advance_loc: 42 to 00000000000116f0
  DW_CFA_def_cfa: r7 (rsp) ofs 8
  DW_CFA_nop
  DW_CFA_nop
  DW_CFA_nop

00000d48 000000000000001c 00000d4c FDE cie=00000000 pc=00000000000116f1..000000000001172f
  DW_CFA_advance_loc: 5 to 00000000000116f6
  DW_CFA_def_cfa_offset: 16
  DW_CFA_offset: r6 (rbp) at cfa-16
  DW_CFA_advance_loc: 3 to 00000000000116f9
  DW_CFA_def_cfa_register: r6 (rbp)
  DW_CFA_advance_loc: 53 to 000000000001172e
  DW_CFA_def_cfa: r7 (rsp) ofs 8
  DW_CFA_nop
  DW_CFA_nop
  DW_CFA_nop

00000d68 000000000000001c 00000d6c FDE cie=00000000 pc=000000000001172f..0000000000011761
  DW_CFA_advance_loc: 5 to 0000000000011734
  DW_CFA_def_cfa_offset: 16
  DW_CFA_offset: r6 (rbp) at cfa-16
  DW_CFA_advance_loc: 3 to 0000000000011737
  DW_CFA_def_cfa_register: r6 (rbp)
  DW_CFA_advance_loc: 41 to 0000000000011760
  DW_CFA_def_cfa: r7 (rsp) ofs 8
  DW_CFA_nop
  DW_CFA_nop
  DW_CFA_nop

00000d88 000000000000001c 00000d8c FDE cie=00000000 pc=0000000000011761..000000000001178c
  DW_CFA_advance_loc: 5 to 0000000000011766
  DW_CFA_def_cfa_offset: 16
  DW_CFA_offset: r6 (rbp) at cfa-16
  DW_CFA_advance_loc: 3 to 0000000000011769
  DW_CFA_def_cfa_register: r6 (rbp)
  DW_CFA_advance_loc: 34 to 000000000001178b
  DW_CFA_def_cfa: r7 (rsp) ofs 8
  DW_CFA_nop
  DW_CFA_nop
  DW_CFA_nop

00000da8 000000000000001c 00000dac FDE cie=00000000 pc=000000000001178c..00000000000117b9
  DW_CFA_advance_loc: 5 to 0000000000011791
  DW_CFA_def_cfa_offset: 16
  DW_CFA_offset: r6 (rbp) at cfa-16
  DW_CFA_advance_loc: 3 to 0000000000011794
  DW_CFA_def_cfa_register: r6 (rbp)
  DW_CFA_advance_loc: 36 to 00000000000117b8
  DW_CFA_def_cfa: r7 (rsp) ofs 8
  DW_CFA_nop
  DW_CFA_nop
  DW_CFA_nop

00000dc8 000000000000001c 00000dcc FDE cie=00000000 pc=00000000000117b9..00000000000117dc
  DW_CFA_advance_loc: 5 to 00000000000117be
  DW_CFA_def_cfa_offset: 16
  DW_CFA_offset: r6 (rbp) at cfa-16
  DW_CFA_advance_loc: 3 to 00000000000117c1
  DW_CFA_def_cfa_register: r6 (rbp)
  DW_CFA_advance_loc: 26 to 00000000000117db
  DW_CFA_def_cfa: r7 (rsp) ofs 8
  DW_CFA_nop
  DW_CFA_nop
  DW_CFA_nop

00000de8 000000000000001c 00000dec FDE cie=00000000 pc=00000000000117dc..0000000000011885
  DW_CFA_advance_loc: 5 to 00000000000117e1
  DW_CFA_def_cfa_offset: 16
  DW_CFA_offset: r6 (rbp) at cfa-16
  DW_CFA_advance_loc: 3 to 00000000000117e4
  DW_CFA_def_cfa_register: r6 (rbp)
  DW_CFA_advance_loc1: 160 to 0000000000011884
  DW_CFA_def_cfa: r7 (rsp) ofs 8
  DW_CFA_nop
  DW_CFA_nop

00000e08 000000000000001c 00000e0c FDE cie=00000000 pc=0000000000011885..000000000001189b
  DW_CFA_advance_loc: 5 to 000000000001188a
  DW_CFA_def_cfa_offset: 16
  DW_CFA_offset: r6 (rbp) at cfa-16
  DW_CFA_advance_loc: 3 to 000000000001188d
  DW_CFA_def_cfa_register: r6 (rbp)
  DW_CFA_advance_loc: 13 to 000000000001189a
  DW_CFA_def_cfa: r7 (rsp) ofs 8
  DW_CFA_nop
  DW_CFA_nop
  DW_CFA_nop

00000e28 000000000000001c 00000e2c FDE cie=00000000 pc=000000000001189b..00000000000118b1
  DW_CFA_advance_loc: 5 to 00000000000118a0
  DW_CFA_def_cfa_offset: 16
  DW_CFA_offset: r6 (rbp) at cfa-16
  DW_CFA_advance_loc: 3 to 00000000000118a3
  DW_CFA_def_cfa_register: r6 (rbp)
  DW_CFA_advance_loc: 13 to 00000000000118b0
  DW_CFA_def_cfa: r7 (rsp) ofs 8
  DW_CFA_nop
  DW_CFA_nop
  DW_CFA_nop

00000e48 000000000000001c 00000e4c FDE cie=00000000 pc=00000000000118b1..00000000000118c7
  DW_CFA_advance_loc: 5 to 00000000000118b6
  DW_CFA_def_cfa_offset: 16
  DW_CFA_offset: r6 (rbp) at cfa-16
  DW_CFA_advance_loc: 3 to 00000000000118b9
  DW_CFA_def_cfa_register: r6 (rbp)
  DW_CFA_advance_loc: 13 to 00000000000118c6
  DW_CFA_def_cfa: r7 (rsp) ofs 8
  DW_CFA_nop
  DW_CFA_nop
  DW_CFA_nop

00000e68 000000000000001c 00000e6c FDE cie=00000000 pc=00000000000118c7..00000000000118da
  DW_CFA_advance_loc: 5 to 00000000000118cc
  DW_CFA_def_cfa_offset: 16
  DW_CFA_offset: r6 (rbp) at cfa-16
  DW_CFA_advance_loc: 3 to 00000000000118cf
  DW_CFA_def_cfa_register: r6 (rbp)
  DW_CFA_advance_loc: 10 to 00000000000118d9
  DW_CFA_def_cfa: r7 (rsp) ofs 8
  DW_CFA_nop
  DW_CFA_nop
  DW_CFA_nop

00000e88 000000000000001c 00000e8c FDE cie=00000000 pc=00000000000118da..00000000000118f4
  DW_CFA_advance_loc: 5 to 00000000000118df
  DW_CFA_def_cfa_offset: 16
  DW_CFA_offset: r6 (rbp) at cfa-16
  DW_CFA_advance_loc: 3 to 00000000000118e2
  DW_CFA_def_cfa_register: r6 (rbp)
  DW_CFA_advance_loc: 17 to 00000000000118f3
  DW_CFA_def_cfa: r7 (rsp) ofs 8
  DW_CFA_nop
  DW_CFA_nop
  DW_CFA_nop

00000ea8 000000000000001c 00000eac FDE cie=00000000 pc=00000000000118f4..000000000001190e
  DW_CFA_advance_loc: 5 to 00000000000118f9
  DW_CFA_def_cfa_offset: 16
  DW_CFA_offset: r6 (rbp) at cfa-16
  DW_CFA_advance_loc: 3 to 00000000000118fc
  DW_CFA_def_cfa_register: r6 (rbp)
  DW_CFA_advance_loc: 17 to 000000000001190d
  DW_CFA_def_cfa: r7 (rsp) ofs 8
  DW_CFA_nop
  DW_CFA_nop
  DW_CFA_nop

00000ec8 000000000000001c 00000ecc FDE cie=00000000 pc=000000000001190e..0000000000011928
  DW_CFA_advance_loc: 5 to 0000000000011913
  DW_CFA_def_cfa_offset: 16
  DW_CFA_offset: r6 (rbp) at cfa-16
  DW_CFA_advance_loc: 3 to 0000000000011916
  DW_CFA_def_cfa_register: r6 (rbp)
  DW_CFA_advance_loc: 17 to 0000000000011927
  DW_CFA_def_cfa: r7 (rsp) ofs 8
  DW_CFA_nop
  DW_CFA_nop
  DW_CFA_nop

00000ee8 000000000000001c 00000eec FDE cie=00000000 pc=0000000000011928..000000000001194e
  DW_CFA_advance_loc: 5 to 000000000001192d
  DW_CFA_def_cfa_offset: 16
  DW_CFA_offset: r6 (rbp) at cfa-16
  DW_CFA_advance_loc: 3 to 0000000000011930
  DW_CFA_def_cfa_register: r6 (rbp)
  DW_CFA_advance_loc: 29 to 000000000001194d
  DW_CFA_def_cfa: r7 (rsp) ofs 8
  DW_CFA_nop
  DW_CFA_nop
  DW_CFA_nop

00000f08 000000000000001c 00000f0c FDE cie=00000000 pc=000000000001194e..0000000000011962
  DW_CFA_advance_loc: 5 to 0000000000011953
  DW_CFA_def_cfa_offset: 16
  DW_CFA_offset: r6 (rbp) at cfa-16
  DW_CFA_advance_loc: 3 to 0000000000011956
  DW_CFA_def_cfa_register: r6 (rbp)
  DW_CFA_advance_loc: 11 to 0000000000011961
  DW_CFA_def_cfa: r7 (rsp) ofs 8
  DW_CFA_nop
  DW_CFA_nop
  DW_CFA_nop

00000f28 000000000000001c 00000f2c FDE cie=00000000 pc=0000000000011962..00000000000119a2
  DW_CFA_advance_loc: 5 to 0000000000011967
  DW_CFA_def_cfa_offset: 16
  DW_CFA_offset: r6 (rbp) at cfa-16
  DW_CFA_advance_loc: 3 to 000000000001196a
  DW_CFA_def_cfa_register: r6 (rbp)
  DW_CFA_advance_loc: 55 to 00000000000119a1
  DW_CFA_def_cfa: r7 (rsp) ofs 8
  DW_CFA_nop
  DW_CFA_nop
  DW_CFA_nop

00000f48 000000000000001c 00000f4c FDE cie=00000000 pc=00000000000119a2..0000000000011a57
  DW_CFA_advance_loc: 5 to 00000000000119a7
  DW_CFA_def_cfa_offset: 16
  DW_CFA_offset: r6 (rbp) at cfa-16
  DW_CFA_advance_loc: 3 to 00000000000119aa
  DW_CFA_def_cfa_register: r6 (rbp)
  DW_CFA_advance_loc1: 172 to 0000000000011a56
  DW_CFA_def_cfa: r7 (rsp) ofs 8
  DW_CFA_nop
  DW_CFA_nop

00000f68 000000000000001c 00000f6c FDE cie=00000000 pc=0000000000011a57..0000000000011bfb
  DW_CFA_advance_loc: 5 to 0000000000011a5c
  DW_CFA_def_cfa_offset: 16
  DW_CFA_offset: r6 (rbp) at cfa-16
  DW_CFA_advance_loc: 3 to 0000000000011a5f
  DW_CFA_def_cfa_register: r6 (rbp)
  DW_CFA_advance_loc2: 411 to 0000000000011bfa
  DW_CFA_def_cfa: r7 (rsp) ofs 8
  DW_CFA_nop

00000f88 000000000000001c 00000f8c FDE cie=00000000 pc=0000000000011bfb..0000000000011c41
  DW_CFA_advance_loc: 5 to 0000000000011c00
  DW_CFA_def_cfa_offset: 16
  DW_CFA_offset: r6 (rbp) at cfa-16
  DW_CFA_advance_loc: 3 to 0000000000011c03
  DW_CFA_def_cfa_register: r6 (rbp)
  DW_CFA_advance_loc: 61 to 0000000000011c40
  DW_CFA_def_cfa: r7 (rsp) ofs 8
  DW_CFA_nop
  DW_CFA_nop
  DW_CFA_nop

00000fa8 000000000000001c 00000fac FDE cie=00000000 pc=0000000000011c41..0000000000011c5a
  DW_CFA_advance_loc: 5 to 0000000000011c46
  DW_CFA_def_cfa_offset: 16
  DW_CFA_offset: r6 (rbp) at cfa-16
  DW_CFA_advance_loc: 3 to 0000000000011c49
  DW_CFA_def_cfa_register: r6 (rbp)
  DW_CFA_advance_loc: 16 to 0000000000011c59
  DW_CFA_def_cfa: r7 (rsp) ofs 8
  DW_CFA_nop
  DW_CFA_nop
  DW_CFA_nop

00000fc8 000000000000001c 00000fcc FDE cie=00000000 pc=0000000000011c5a..0000000000011c9f
  DW_CFA_advance_loc: 5 to 0000000000011c5f
  DW_CFA_def_cfa_offset: 16
  DW_CFA_offset: r6 (rbp) at cfa-16
  DW_CFA_advance_loc: 3 to 0000000000011c62
  DW_CFA_def_cfa_register: r6 (rbp)
  DW_CFA_advance_loc: 60 to 0000000000011c9e
  DW_CFA_def_cfa: r7 (rsp) ofs 8
  DW_CFA_nop
  DW_CFA_nop
  DW_CFA_nop

00000fe8 000000000000001c 00000fec FDE cie=00000000 pc=0000000000011c9f..0000000000011ce9
  DW_CFA_advance_loc: 5 to 0000000000011ca4
  DW_CFA_def_cfa_offset: 16
  DW_CFA_offset: r6 (rbp) at cfa-16
  DW_CFA_advance_loc: 3 to 0000000000011ca7
  DW_CFA_def_cfa_register: r6 (rbp)
  DW_CFA_advance_loc1: 65 to 0000000000011ce8
  DW_CFA_def_cfa: r7 (rsp) ofs 8
  DW_CFA_nop
  DW_CFA_nop

00001008 000000000000001c 0000100c FDE cie=00000000 pc=0000000000011ce9..0000000000011db6
  DW_CFA_advance_loc: 5 to 0000000000011cee
  DW_CFA_def_cfa_offset: 16
  DW_CFA_offset: r6 (rbp) at cfa-16
  DW_CFA_advance_loc: 3 to 0000000000011cf1
  DW_CFA_def_cfa_register: r6 (rbp)
  DW_CFA_advance_loc1: 196 to 0000000000011db5
  DW_CFA_def_cfa: r7 (rsp) ofs 8
  DW_CFA_nop
  DW_CFA_nop

00001028 000000000000001c 0000102c FDE cie=00000000 pc=0000000000011db6..0000000000011e22
  DW_CFA_advance_loc: 5 to 0000000000011dbb
  DW_CFA_def_cfa_offset: 16
  DW_CFA_offset: r6 (rbp) at cfa-16
  DW_CFA_advance_loc: 3 to 0000000000011dbe
  DW_CFA_def_cfa_register: r6 (rbp)
  DW_CFA_advance_loc1: 99 to 0000000000011e21
  DW_CFA_def_cfa: r7 (rsp) ofs 8
  DW_CFA_nop
  DW_CFA_nop

00001048 000000000000001c 0000104c FDE cie=00000000 pc=0000000000011e22..0000000000011ed2
  DW_CFA_advance_loc: 5 to 0000000000011e27
  DW_CFA_def_cfa_offset: 16
  DW_CFA_offset: r6 (rbp) at cfa-16
  DW_CFA_advance_loc: 3 to 0000000000011e2a
  DW_CFA_def_cfa_register: r6 (rbp)
  DW_CFA_advance_loc1: 167 to 0000000000011ed1
  DW_CFA_def_cfa: r7 (rsp) ofs 8
  DW_CFA_nop
  DW_CFA_nop

00001068 0000000000000024 0000106c FDE cie=00000000 pc=0000000000011ed2..0000000000012038
  DW_CFA_advance_loc: 5 to 0000000000011ed7
  DW_CFA_def_cfa_offset: 16
  DW_CFA_offset: r6 (rbp) at cfa-16
  DW_CFA_advance_loc: 3 to 0000000000011eda
  DW_CFA_def_cfa_register: r6 (rbp)
  DW_CFA_advance_loc: 5 to 0000000000011edf
  DW_CFA_offset: r3 (rbx) at cfa-24
  DW_CFA_advance_loc2: 344 to 0000000000012037
  DW_CFA_def_cfa: r7 (rsp) ofs 8
  DW_CFA_nop
  DW_CFA_nop
  DW_CFA_nop
  DW_CFA_nop
  DW_CFA_nop
  DW_CFA_nop

00001090 000000000000001c 00001094 FDE cie=00000000 pc=0000000000012038..0000000000012072
  DW_CFA_advance_loc: 5 to 000000000001203d
  DW_CFA_def_cfa_offset: 16
  DW_CFA_offset: r6 (rbp) at cfa-16
  DW_CFA_advance_loc: 3 to 0000000000012040
  DW_CFA_def_cfa_register: r6 (rbp)
  DW_CFA_advance_loc: 49 to 0000000000012071
  DW_CFA_def_cfa: r7 (rsp) ofs 8
  DW_CFA_nop
  DW_CFA_nop
  DW_CFA_nop

000010b0 0000000000000028 000010b4 FDE cie=00000000 pc=0000000000012072..0000000000012664
  DW_CFA_advance_loc: 5 to 0000000000012077
  DW_CFA_def_cfa_offset: 16
  DW_CFA_offset: r6 (rbp) at cfa-16
  DW_CFA_advance_loc: 3 to 000000000001207a
  DW_CFA_def_cfa_register: r6 (rbp)
  DW_CFA_advance_loc: 13 to 0000000000012087
  DW_CFA_offset: r15 (r15) at cfa-24
  DW_CFA_offset: r14 (r14) at cfa-32
  DW_CFA_offset: r13 (r13) at cfa-40
  DW_CFA_offset: r12 (r12) at cfa-48
  DW_CFA_offset: r3 (rbx) at cfa-56
  DW_CFA_advance_loc2: 1500 to 0000000000012663
  DW_CFA_def_cfa: r7 (rsp) ofs 8
  DW_CFA_nop
  DW_CFA_nop

000010dc 000000000000001c 000010e0 FDE cie=00000000 pc=0000000000012664..00000000000126d7
  DW_CFA_advance_loc: 5 to 0000000000012669
  DW_CFA_def_cfa_offset: 16
  DW_CFA_offset: r6 (rbp) at cfa-16
  DW_CFA_advance_loc: 3 to 000000000001266c
  DW_CFA_def_cfa_register: r6 (rbp)
  DW_CFA_advance_loc1: 106 to 00000000000126d6
  DW_CFA_def_cfa: r7 (rsp) ofs 8
  DW_CFA_nop
  DW_CFA_nop

000010fc 000000000000001c 00001100 FDE cie=00000000 pc=00000000000126d7..00000000000127dd
  DW_CFA_advance_loc: 5 to 00000000000126dc
  DW_CFA_def_cfa_offset: 16
  DW_CFA_offset: r6 (rbp) at cfa-16
  DW_CFA_advance_loc: 3 to 00000000000126df
  DW_CFA_def_cfa_register: r6 (rbp)
  DW_CFA_advance_loc1: 253 to 00000000000127dc
  DW_CFA_def_cfa: r7 (rsp) ofs 8
  DW_CFA_nop
  DW_CFA_nop

0000111c 000000000000001c 00001120 FDE cie=00000000 pc=00000000000127dd..00000000000128c1
  DW_CFA_advance_loc: 5 to 00000000000127e2
  DW_CFA_def_cfa_offset: 16
  DW_CFA_offset: r6 (rbp) at cfa-16
  DW_CFA_advance_loc: 3 to 00000000000127e5
  DW_CFA_def_cfa_register: r6 (rbp)
  DW_CFA_advance_loc1: 219 to 00000000000128c0
  DW_CFA_def_cfa: r7 (rsp) ofs 8
  DW_CFA_nop
  DW_CFA_nop

0000113c 0000000000000020 00001140 FDE cie=00000000 pc=00000000000128c1..0000000000012965
  DW_CFA_advance_loc: 5 to 00000000000128c6
  DW_CFA_def_cfa_offset: 16
  DW_CFA_offset: r6 (rbp) at cfa-16
  DW_CFA_advance_loc: 3 to 00000000000128c9
  DW_CFA_def_cfa_register: r6 (rbp)
  DW_CFA_advance_loc1: 155 to 0000000000012964
  DW_CFA_def_cfa: r7 (rsp) ofs 8
  DW_CFA_nop
  DW_CFA_nop
  DW_CFA_nop
  DW_CFA_nop
  DW_CFA_nop
  DW_CFA_nop

00001160 000000000000001c 00001164 FDE cie=00000000 pc=0000000000012965..0000000000012996
  DW_CFA_advance_loc: 5 to 000000000001296a
  DW_CFA_def_cfa_offset: 16
  DW_CFA_offset: r6 (rbp) at cfa-16
  DW_CFA_advance_loc: 3 to 000000000001296d
  DW_CFA_def_cfa_register: r6 (rbp)
  DW_CFA_advance_loc: 40 to 0000000000012995
  DW_CFA_def_cfa: r7 (rsp) ofs 8
  DW_CFA_nop
  DW_CFA_nop
  DW_CFA_nop

00001180 000000000000001c 00001184 FDE cie=00000000 pc=0000000000012996..00000000000129b8
  DW_CFA_advance_loc: 5 to 000000000001299b
  DW_CFA_def_cfa_offset: 16
  DW_CFA_offset: r6 (rbp) at cfa-16
  DW_CFA_advance_loc: 3 to 000000000001299e
  DW_CFA_def_cfa_register: r6 (rbp)
  DW_CFA_advance_loc: 25 to 00000000000129b7
  DW_CFA_def_cfa: r7 (rsp) ofs 8
  DW_CFA_nop
  DW_CFA_nop
  DW_CFA_nop

000011a0 000000000000001c 000011a4 FDE cie=00000000 pc=00000000000129b8..00000000000129de
  DW_CFA_advance_loc: 5 to 00000000000129bd
  DW_CFA_def_cfa_offset: 16
  DW_CFA_offset: r6 (rbp) at cfa-16
  DW_CFA_advance_loc: 3 to 00000000000129c0
  DW_CFA_def_cfa_register: r6 (rbp)
  DW_CFA_advance_loc: 29 to 00000000000129dd
  DW_CFA_def_cfa: r7 (rsp) ofs 8
  DW_CFA_nop
  DW_CFA_nop
  DW_CFA_nop

000011c0 000000000000001c 000011c4 FDE cie=00000000 pc=00000000000129de..0000000000012a04
  DW_CFA_advance_loc: 5 to 00000000000129e3
  DW_CFA_def_cfa_offset: 16
  DW_CFA_offset: r6 (rbp) at cfa-16
  DW_CFA_advance_loc: 3 to 00000000000129e6
  DW_CFA_def_cfa_register: r6 (rbp)
  DW_CFA_advance_loc: 29 to 0000000000012a03
  DW_CFA_def_cfa: r7 (rsp) ofs 8
  DW_CFA_nop
  DW_CFA_nop
  DW_CFA_nop

000011e0 000000000000001c 000011e4 FDE cie=00000000 pc=0000000000012a04..0000000000012a22
  DW_CFA_advance_loc: 5 to 0000000000012a09
  DW_CFA_def_cfa_offset: 16
  DW_CFA_offset: r6 (rbp) at cfa-16
  DW_CFA_advance_loc: 3 to 0000000000012a0c
  DW_CFA_def_cfa_register: r6 (rbp)
  DW_CFA_advance_loc: 21 to 0000000000012a21
  DW_CFA_def_cfa: r7 (rsp) ofs 8
  DW_CFA_nop
  DW_CFA_nop
  DW_CFA_nop

00001200 000000000000001c 00001204 FDE cie=00000000 pc=0000000000012a22..0000000000012a6d
  DW_CFA_advance_loc: 5 to 0000000000012a27
  DW_CFA_def_cfa_offset: 16
  DW_CFA_offset: r6 (rbp) at cfa-16
  DW_CFA_advance_loc: 3 to 0000000000012a2a
  DW_CFA_def_cfa_register: r6 (rbp)
  DW_CFA_advance_loc1: 66 to 0000000000012a6c
  DW_CFA_def_cfa: r7 (rsp) ofs 8
  DW_CFA_nop
  DW_CFA_nop

00001220 000000000000001c 00001224 FDE cie=00000000 pc=0000000000012a6d..0000000000012a9e
  DW_CFA_advance_loc: 5 to 0000000000012a72
  DW_CFA_def_cfa_offset: 16
  DW_CFA_offset: r6 (rbp) at cfa-16
  DW_CFA_advance_loc: 3 to 0000000000012a75
  DW_CFA_def_cfa_register: r6 (rbp)
  DW_CFA_advance_loc: 40 to 0000000000012a9d
  DW_CFA_def_cfa: r7 (rsp) ofs 8
  DW_CFA_nop
  DW_CFA_nop
  DW_CFA_nop

00001240 000000000000001c 00001244 FDE cie=00000000 pc=0000000000012a9e..0000000000012af8
  DW_CFA_advance_loc: 5 to 0000000000012aa3
  DW_CFA_def_cfa_offset: 16
  DW_CFA_offset: r6 (rbp) at cfa-16
  DW_CFA_advance_loc: 3 to 0000000000012aa6
  DW_CFA_def_cfa_register: r6 (rbp)
  DW_CFA_advance_loc1: 81 to 0000000000012af7
  DW_CFA_def_cfa: r7 (rsp) ofs 8
  DW_CFA_nop
  DW_CFA_nop

00001260 000000000000001c 00001264 FDE cie=00000000 pc=0000000000012af8..0000000000012b31
  DW_CFA_advance_loc: 5 to 0000000000012afd
  DW_CFA_def_cfa_offset: 16
  DW_CFA_offset: r6 (rbp) at cfa-16
  DW_CFA_advance_loc: 3 to 0000000000012b00
  DW_CFA_def_cfa_register: r6 (rbp)
  DW_CFA_advance_loc: 48 to 0000000000012b30
  DW_CFA_def_cfa: r7 (rsp) ofs 8
  DW_CFA_nop
  DW_CFA_nop
  DW_CFA_nop

00001280 000000000000001c 00001284 FDE cie=00000000 pc=0000000000012b31..0000000000012b5c
  DW_CFA_advance_loc: 5 to 0000000000012b36
  DW_CFA_def_cfa_offset: 16
  DW_CFA_offset: r6 (rbp) at cfa-16
  DW_CFA_advance_loc: 3 to 0000000000012b39
  DW_CFA_def_cfa_register: r6 (rbp)
  DW_CFA_advance_loc: 34 to 0000000000012b5b
  DW_CFA_def_cfa: r7 (rsp) ofs 8
  DW_CFA_nop
  DW_CFA_nop
  DW_CFA_nop

000012a0 000000000000001c 000012a4 FDE cie=00000000 pc=0000000000012b5c..0000000000012b87
  DW_CFA_advance_loc: 5 to 0000000000012b61
  DW_CFA_def_cfa_offset: 16
  DW_CFA_offset: r6 (rbp) at cfa-16
  DW_CFA_advance_loc: 3 to 0000000000012b64
  DW_CFA_def_cfa_register: r6 (rbp)
  DW_CFA_advance_loc: 34 to 0000000000012b86
  DW_CFA_def_cfa: r7 (rsp) ofs 8
  DW_CFA_nop
  DW_CFA_nop
  DW_CFA_nop

000012c0 000000000000001c 000012c4 FDE cie=00000000 pc=0000000000012b87..0000000000012bb5
  DW_CFA_advance_loc: 5 to 0000000000012b8c
  DW_CFA_def_cfa_offset: 16
  DW_CFA_offset: r6 (rbp) at cfa-16
  DW_CFA_advance_loc: 3 to 0000000000012b8f
  DW_CFA_def_cfa_register: r6 (rbp)
  DW_CFA_advance_loc: 37 to 0000000000012bb4
  DW_CFA_def_cfa: r7 (rsp) ofs 8
  DW_CFA_nop
  DW_CFA_nop
  DW_CFA_nop

000012e0 000000000000001c 000012e4 FDE cie=00000000 pc=0000000000012bb5..0000000000012c94
  DW_CFA_advance_loc: 5 to 0000000000012bba
  DW_CFA_def_cfa_offset: 16
  DW_CFA_offset: r6 (rbp) at cfa-16
  DW_CFA_advance_loc: 3 to 0000000000012bbd
  DW_CFA_def_cfa_register: r6 (rbp)
  DW_CFA_advance_loc1: 214 to 0000000000012c93
  DW_CFA_def_cfa: r7 (rsp) ofs 8
  DW_CFA_nop
  DW_CFA_nop

00001300 000000000000001c 00001304 FDE cie=00000000 pc=0000000000012c94..0000000000012e50
  DW_CFA_advance_loc: 5 to 0000000000012c99
  DW_CFA_def_cfa_offset: 16
  DW_CFA_offset: r6 (rbp) at cfa-16
  DW_CFA_advance_loc: 3 to 0000000000012c9c
  DW_CFA_def_cfa_register: r6 (rbp)
  DW_CFA_advance_loc2: 435 to 0000000000012e4f
  DW_CFA_def_cfa: r7 (rsp) ofs 8
  DW_CFA_nop

00001320 000000000000001c 00001324 FDE cie=00000000 pc=0000000000012e50..0000000000012e73
  DW_CFA_advance_loc: 5 to 0000000000012e55
  DW_CFA_def_cfa_offset: 16
  DW_CFA_offset: r6 (rbp) at cfa-16
  DW_CFA_advance_loc: 3 to 0000000000012e58
  DW_CFA_def_cfa_register: r6 (rbp)
  DW_CFA_advance_loc: 26 to 0000000000012e72
  DW_CFA_def_cfa: r7 (rsp) ofs 8
  DW_CFA_nop
  DW_CFA_nop
  DW_CFA_nop

00001340 000000000000001c 00001344 FDE cie=00000000 pc=0000000000012e73..0000000000012e96
  DW_CFA_advance_loc: 5 to 0000000000012e78
  DW_CFA_def_cfa_offset: 16
  DW_CFA_offset: r6 (rbp) at cfa-16
  DW_CFA_advance_loc: 3 to 0000000000012e7b
  DW_CFA_def_cfa_register: r6 (rbp)
  DW_CFA_advance_loc: 26 to 0000000000012e95
  DW_CFA_def_cfa: r7 (rsp) ofs 8
  DW_CFA_nop
  DW_CFA_nop
  DW_CFA_nop

00001360 000000000000001c 00001364 FDE cie=00000000 pc=0000000000012e96..0000000000012ec7
  DW_CFA_advance_loc: 5 to 0000000000012e9b
  DW_CFA_def_cfa_offset: 16
  DW_CFA_offset: r6 (rbp) at cfa-16
  DW_CFA_advance_loc: 3 to 0000000000012e9e
  DW_CFA_def_cfa_register: r6 (rbp)
  DW_CFA_advance_loc: 40 to 0000000000012ec6
  DW_CFA_def_cfa: r7 (rsp) ofs 8
  DW_CFA_nop
  DW_CFA_nop
  DW_CFA_nop

00001380 000000000000001c 00001384 FDE cie=00000000 pc=0000000000012ec7..0000000000012ef8
  DW_CFA_advance_loc: 5 to 0000000000012ecc
  DW_CFA_def_cfa_offset: 16
  DW_CFA_offset: r6 (rbp) at cfa-16
  DW_CFA_advance_loc: 3 to 0000000000012ecf
  DW_CFA_def_cfa_register: r6 (rbp)
  DW_CFA_advance_loc: 40 to 0000000000012ef7
  DW_CFA_def_cfa: r7 (rsp) ofs 8
  DW_CFA_nop
  DW_CFA_nop
  DW_CFA_nop

000013a0 000000000000001c 000013a4 FDE cie=00000000 pc=0000000000012ef8..0000000000012f30
  DW_CFA_advance_loc: 5 to 0000000000012efd
  DW_CFA_def_cfa_offset: 16
  DW_CFA_offset: r6 (rbp) at cfa-16
  DW_CFA_advance_loc: 3 to 0000000000012f00
  DW_CFA_def_cfa_register: r6 (rbp)
  DW_CFA_advance_loc: 47 to 0000000000012f2f
  DW_CFA_def_cfa: r7 (rsp) ofs 8
  DW_CFA_nop
  DW_CFA_nop
  DW_CFA_nop

000013c0 000000000000001c 000013c4 FDE cie=00000000 pc=0000000000012f30..0000000000012f70
  DW_CFA_advance_loc: 5 to 0000000000012f35
  DW_CFA_def_cfa_offset: 16
  DW_CFA_offset: r6 (rbp) at cfa-16
  DW_CFA_advance_loc: 3 to 0000000000012f38
  DW_CFA_def_cfa_register: r6 (rbp)
  DW_CFA_advance_loc: 5 to 0000000000012f3d
  DW_CFA_offset: r3 (rbx) at cfa-24
  DW_CFA_advance_loc: 50 to 0000000000012f6f
  DW_CFA_def_cfa: r7 (rsp) ofs 8

000013e0 000000000000001c 000013e4 FDE cie=00000000 pc=0000000000012f70..0000000000012fbf
  DW_CFA_advance_loc: 5 to 0000000000012f75
  DW_CFA_def_cfa_offset: 16
  DW_CFA_offset: r6 (rbp) at cfa-16
  DW_CFA_advance_loc: 3 to 0000000000012f78
  DW_CFA_def_cfa_register: r6 (rbp)
  DW_CFA_advance_loc1: 70 to 0000000000012fbe
  DW_CFA_def_cfa: r7 (rsp) ofs 8
  DW_CFA_nop
  DW_CFA_nop

00001400 000000000000001c 00001404 FDE cie=00000000 pc=0000000000012fbf..0000000000012ff0
  DW_CFA_advance_loc: 5 to 0000000000012fc4
  DW_CFA_def_cfa_offset: 16
  DW_CFA_offset: r6 (rbp) at cfa-16
  DW_CFA_advance_loc: 3 to 0000000000012fc7
  DW_CFA_def_cfa_register: r6 (rbp)
  DW_CFA_advance_loc: 40 to 0000000000012fef
  DW_CFA_def_cfa: r7 (rsp) ofs 8
  DW_CFA_nop
  DW_CFA_nop
  DW_CFA_nop

00001420 000000000000001c 00001424 FDE cie=00000000 pc=0000000000012ff0..0000000000013030
  DW_CFA_advance_loc: 5 to 0000000000012ff5
  DW_CFA_def_cfa_offset: 16
  DW_CFA_offset: r6 (rbp) at cfa-16
  DW_CFA_advance_loc: 3 to 0000000000012ff8
  DW_CFA_def_cfa_register: r6 (rbp)
  DW_CFA_nop
  DW_CFA_nop
  DW_CFA_nop
  DW_CFA_nop
  DW_CFA_nop
  DW_CFA_nop
  DW_CFA_nop

00001440 000000000000001c 00001444 FDE cie=00000000 pc=0000000000013030..0000000000013040
  DW_CFA_advance_loc: 5 to 0000000000013035
  DW_CFA_def_cfa_offset: 16
  DW_CFA_offset: r6 (rbp) at cfa-16
  DW_CFA_advance_loc: 3 to 0000000000013038
  DW_CFA_def_cfa_register: r6 (rbp)
  DW_CFA_advance_loc: 7 to 000000000001303f
  DW_CFA_def_cfa: r7 (rsp) ofs 8
  DW_CFA_nop
  DW_CFA_nop
  DW_CFA_nop

00001460 000000000000001c 00001464 FDE cie=00000000 pc=0000000000013040..00000000000130b7
  DW_CFA_advance_loc: 5 to 0000000000013045
  DW_CFA_def_cfa_offset: 16
  DW_CFA_offset: r6 (rbp) at cfa-16
  DW_CFA_advance_loc: 3 to 0000000000013048
  DW_CFA_def_cfa_register: r6 (rbp)
  DW_CFA_advance_loc1: 110 to 00000000000130b6
  DW_CFA_def_cfa: r7 (rsp) ofs 8
  DW_CFA_nop
  DW_CFA_nop

00001480 000000000000001c 00001484 FDE cie=00000000 pc=00000000000130b7..0000000000013160
  DW_CFA_advance_loc: 5 to 00000000000130bc
  DW_CFA_def_cfa_offset: 16
  DW_CFA_offset: r6 (rbp) at cfa-16
  DW_CFA_advance_loc: 3 to 00000000000130bf
  DW_CFA_def_cfa_register: r6 (rbp)
  DW_CFA_advance_loc1: 160 to 000000000001315f
  DW_CFA_def_cfa: r7 (rsp) ofs 8
  DW_CFA_nop
  DW_CFA_nop

000014a0 000000000000001c 000014a4 FDE cie=00000000 pc=0000000000013160..000000000001319f
  DW_CFA_advance_loc: 5 to 0000000000013165
  DW_CFA_def_cfa_offset: 16
  DW_CFA_offset: r6 (rbp) at cfa-16
  DW_CFA_advance_loc: 3 to 0000000000013168
  DW_CFA_def_cfa_register: r6 (rbp)
  DW_CFA_advance_loc: 54 to 000000000001319e
  DW_CFA_def_cfa: r7 (rsp) ofs 8
  DW_CFA_nop
  DW_CFA_nop
  DW_CFA_nop

000014c0 0000000000000020 000014c4 FDE cie=00000000 pc=000000000001319f..00000000000133c2
  DW_CFA_advance_loc: 5 to 00000000000131a4
  DW_CFA_def_cfa_offset: 16
  DW_CFA_offset: r6 (rbp) at cfa-16
  DW_CFA_advance_loc: 3 to 00000000000131a7
  DW_CFA_def_cfa_register: r6 (rbp)
  DW_CFA_advance_loc: 5 to 00000000000131ac
  DW_CFA_offset: r3 (rbx) at cfa-24
  DW_CFA_advance_loc2: 533 to 00000000000133c1
  DW_CFA_def_cfa: r7 (rsp) ofs 8
  DW_CFA_nop
  DW_CFA_nop

000014e4 0000000000000020 000014e8 FDE cie=00000000 pc=00000000000133c2..0000000000013414
  DW_CFA_advance_loc: 5 to 00000000000133c7
  DW_CFA_def_cfa_offset: 16
  DW_CFA_offset: r6 (rbp) at cfa-16
  DW_CFA_advance_loc: 3 to 00000000000133ca
  DW_CFA_def_cfa_register: r6 (rbp)
  DW_CFA_advance_loc: 5 to 00000000000133cf
  DW_CFA_offset: r3 (rbx) at cfa-24
  DW_CFA_advance_loc1: 68 to 0000000000013413
  DW_CFA_def_cfa: r7 (rsp) ofs 8
  DW_CFA_nop
  DW_CFA_nop
  DW_CFA_nop

00001508 0000000000000020 0000150c FDE cie=00000000 pc=0000000000013414..000000000001348d
  DW_CFA_advance_loc: 5 to 0000000000013419
  DW_CFA_def_cfa_offset: 16
  DW_CFA_offset: r6 (rbp) at cfa-16
  DW_CFA_advance_loc: 3 to 000000000001341c
  DW_CFA_def_cfa_register: r6 (rbp)
  DW_CFA_advance_loc: 5 to 0000000000013421
  DW_CFA_offset: r3 (rbx) at cfa-24
  DW_CFA_advance_loc1: 107 to 000000000001348c
  DW_CFA_def_cfa: r7 (rsp) ofs 8
  DW_CFA_nop
  DW_CFA_nop
  DW_CFA_nop

0000152c 000000000000001c 00001530 FDE cie=00000000 pc=000000000001348d..00000000000134e6
  DW_CFA_advance_loc: 5 to 0000000000013492
  DW_CFA_def_cfa_offset: 16
  DW_CFA_offset: r6 (rbp) at cfa-16
  DW_CFA_advance_loc: 3 to 0000000000013495
  DW_CFA_def_cfa_register: r6 (rbp)
  DW_CFA_advance_loc1: 80 to 00000000000134e5
  DW_CFA_def_cfa: r7 (rsp) ofs 8
  DW_CFA_nop
  DW_CFA_nop

0000154c 0000000000000020 00001550 FDE cie=00000000 pc=00000000000134e6..00000000000136e2
  DW_CFA_advance_loc: 5 to 00000000000134eb
  DW_CFA_def_cfa_offset: 16
  DW_CFA_offset: r6 (rbp) at cfa-16
  DW_CFA_advance_loc: 3 to 00000000000134ee
  DW_CFA_def_cfa_register: r6 (rbp)
  DW_CFA_advance_loc: 8 to 00000000000134f6
  DW_CFA_offset: r3 (rbx) at cfa-24
  DW_CFA_advance_loc2: 491 to 00000000000136e1
  DW_CFA_def_cfa: r7 (rsp) ofs 8
  DW_CFA_nop
  DW_CFA_nop

00001570 0000000000000020 00001574 FDE cie=00000000 pc=00000000000136e2..0000000000013f00
  DW_CFA_advance_loc: 5 to 00000000000136e7
  DW_CFA_def_cfa_offset: 16
  DW_CFA_offset: r6 (rbp) at cfa-16
  DW_CFA_advance_loc: 3 to 00000000000136ea
  DW_CFA_def_cfa_register: r6 (rbp)
  DW_CFA_advance_loc: 8 to 00000000000136f2
  DW_CFA_offset: r3 (rbx) at cfa-24
  DW_CFA_advance_loc2: 2061 to 0000000000013eff
  DW_CFA_def_cfa: r7 (rsp) ofs 8
  DW_CFA_nop
  DW_CFA_nop

00001594 0000000000000020 00001598 FDE cie=00000000 pc=0000000000013f00..0000000000013f34
  DW_CFA_advance_loc: 5 to 0000000000013f05
  DW_CFA_def_cfa_offset: 16
  DW_CFA_offset: r6 (rbp) at cfa-16
  DW_CFA_advance_loc: 3 to 0000000000013f08
  DW_CFA_def_cfa_register: r6 (rbp)
  DW_CFA_advance_loc: 43 to 0000000000013f33
  DW_CFA_def_cfa: r7 (rsp) ofs 8
  DW_CFA_nop
  DW_CFA_nop
  DW_CFA_nop
  DW_CFA_nop
  DW_CFA_nop
  DW_CFA_nop
  DW_CFA_nop

000015b8 000000000000001c 000015bc FDE cie=00000000 pc=0000000000013f34..000000000001408a
  DW_CFA_advance_loc: 5 to 0000000000013f39
  DW_CFA_def_cfa_offset: 16
  DW_CFA_offset: r6 (rbp) at cfa-16
  DW_CFA_advance_loc: 3 to 0000000000013f3c
  DW_CFA_def_cfa_register: r6 (rbp)
  DW_CFA_advance_loc2: 333 to 0000000000014089
  DW_CFA_def_cfa: r7 (rsp) ofs 8
  DW_CFA_nop

000015d8 000000000000001c 000015dc FDE cie=00000000 pc=000000000001408a..00000000000140c8
  DW_CFA_advance_loc: 5 to 000000000001408f
  DW_CFA_def_cfa_offset: 16
  DW_CFA_offset: r6 (rbp) at cfa-16
  DW_CFA_advance_loc: 3 to 0000000000014092
  DW_CFA_def_cfa_register: r6 (rbp)
  DW_CFA_advance_loc: 53 to 00000000000140c7
  DW_CFA_def_cfa: r7 (rsp) ofs 8
  DW_CFA_nop
  DW_CFA_nop
  DW_CFA_nop

000015f8 000000000000001c 000015fc FDE cie=00000000 pc=00000000000140c8..00000000000140fa
  DW_CFA_advance_loc: 5 to 00000000000140cd
  DW_CFA_def_cfa_offset: 16
  DW_CFA_offset: r6 (rbp) at cfa-16
  DW_CFA_advance_loc: 3 to 00000000000140d0
  DW_CFA_def_cfa_register: r6 (rbp)
  DW_CFA_advance_loc: 41 to 00000000000140f9
  DW_CFA_def_cfa: r7 (rsp) ofs 8
  DW_CFA_nop
  DW_CFA_nop
  DW_CFA_nop

00001618 000000000000001c 0000161c FDE cie=00000000 pc=00000000000140fa..000000000001411b
  DW_CFA_advance_loc: 5 to 00000000000140ff
  DW_CFA_def_cfa_offset: 16
  DW_CFA_offset: r6 (rbp) at cfa-16
  DW_CFA_advance_loc: 3 to 0000000000014102
  DW_CFA_def_cfa_register: r6 (rbp)
  DW_CFA_advance_loc: 24 to 000000000001411a
  DW_CFA_def_cfa: r7 (rsp) ofs 8
  DW_CFA_nop
  DW_CFA_nop
  DW_CFA_nop

00001638 000000000000001c 0000163c FDE cie=00000000 pc=000000000001411b..0000000000014143
  DW_CFA_advance_loc: 5 to 0000000000014120
  DW_CFA_def_cfa_offset: 16
  DW_CFA_offset: r6 (rbp) at cfa-16
  DW_CFA_advance_loc: 3 to 0000000000014123
  DW_CFA_def_cfa_register: r6 (rbp)
  DW_CFA_advance_loc: 31 to 0000000000014142
  DW_CFA_def_cfa: r7 (rsp) ofs 8
  DW_CFA_nop
  DW_CFA_nop
  DW_CFA_nop

00001658 000000000000001c 0000165c FDE cie=00000000 pc=0000000000014143..0000000000014170
  DW_CFA_advance_loc: 5 to 0000000000014148
  DW_CFA_def_cfa_offset: 16
  DW_CFA_offset: r6 (rbp) at cfa-16
  DW_CFA_advance_loc: 3 to 000000000001414b
  DW_CFA_def_cfa_register: r6 (rbp)
  DW_CFA_advance_loc: 36 to 000000000001416f
  DW_CFA_def_cfa: r7 (rsp) ofs 8
  DW_CFA_nop
  DW_CFA_nop
  DW_CFA_nop

00001678 000000000000001c 0000167c FDE cie=00000000 pc=0000000000014170..0000000000014194
  DW_CFA_advance_loc: 5 to 0000000000014175
  DW_CFA_def_cfa_offset: 16
  DW_CFA_offset: r6 (rbp) at cfa-16
  DW_CFA_advance_loc: 3 to 0000000000014178
  DW_CFA_def_cfa_register: r6 (rbp)
  DW_CFA_advance_loc: 27 to 0000000000014193
  DW_CFA_def_cfa: r7 (rsp) ofs 8
  DW_CFA_nop
  DW_CFA_nop
  DW_CFA_nop

00001698 000000000000001c 0000169c FDE cie=00000000 pc=0000000000014194..00000000000141b8
  DW_CFA_advance_loc: 5 to 0000000000014199
  DW_CFA_def_cfa_offset: 16
  DW_CFA_offset: r6 (rbp) at cfa-16
  DW_CFA_advance_loc: 3 to 000000000001419c
  DW_CFA_def_cfa_register: r6 (rbp)
  DW_CFA_advance_loc: 27 to 00000000000141b7
  DW_CFA_def_cfa: r7 (rsp) ofs 8
  DW_CFA_nop
  DW_CFA_nop
  DW_CFA_nop

000016b8 000000000000001c 000016bc FDE cie=00000000 pc=00000000000141b8..00000000000141dc
  DW_CFA_advance_loc: 5 to 00000000000141bd
  DW_CFA_def_cfa_offset: 16
  DW_CFA_offset: r6 (rbp) at cfa-16
  DW_CFA_advance_loc: 3 to 00000000000141c0
  DW_CFA_def_cfa_register: r6 (rbp)
  DW_CFA_advance_loc: 27 to 00000000000141db
  DW_CFA_def_cfa: r7 (rsp) ofs 8
  DW_CFA_nop
  DW_CFA_nop
  DW_CFA_nop

000016d8 000000000000001c 000016dc FDE cie=00000000 pc=00000000000141dc..0000000000014200
  DW_CFA_advance_loc: 5 to 00000000000141e1
  DW_CFA_def_cfa_offset: 16
  DW_CFA_offset: r6 (rbp) at cfa-16
  DW_CFA_advance_loc: 3 to 00000000000141e4
  DW_CFA_def_cfa_register: r6 (rbp)
  DW_CFA_advance_loc: 27 to 00000000000141ff
  DW_CFA_def_cfa: r7 (rsp) ofs 8
  DW_CFA_nop
  DW_CFA_nop
  DW_CFA_nop

000016f8 000000000000001c 000016fc FDE cie=00000000 pc=0000000000014200..000000000001424a
  DW_CFA_advance_loc: 5 to 0000000000014205
  DW_CFA_def_cfa_offset: 16
  DW_CFA_offset: r6 (rbp) at cfa-16
  DW_CFA_advance_loc: 3 to 0000000000014208
  DW_CFA_def_cfa_register: r6 (rbp)
  DW_CFA_advance_loc1: 65 to 0000000000014249
  DW_CFA_def_cfa: r7 (rsp) ofs 8
  DW_CFA_nop
  DW_CFA_nop

00001718 000000000000001c 0000171c FDE cie=00000000 pc=000000000001424a..0000000000014277
  DW_CFA_advance_loc: 5 to 000000000001424f
  DW_CFA_def_cfa_offset: 16
  DW_CFA_offset: r6 (rbp) at cfa-16
  DW_CFA_advance_loc: 3 to 0000000000014252
  DW_CFA_def_cfa_register: r6 (rbp)
  DW_CFA_advance_loc: 36 to 0000000000014276
  DW_CFA_def_cfa: r7 (rsp) ofs 8
  DW_CFA_nop
  DW_CFA_nop
  DW_CFA_nop

00001738 000000000000001c 0000173c FDE cie=00000000 pc=0000000000014277..000000000001429b
  DW_CFA_advance_loc: 5 to 000000000001427c
  DW_CFA_def_cfa_offset: 16
  DW_CFA_offset: r6 (rbp) at cfa-16
  DW_CFA_advance_loc: 3 to 000000000001427f
  DW_CFA_def_cfa_register: r6 (rbp)
  DW_CFA_advance_loc: 27 to 000000000001429a
  DW_CFA_def_cfa: r7 (rsp) ofs 8
  DW_CFA_nop
  DW_CFA_nop
  DW_CFA_nop

00001758 000000000000001c 0000175c FDE cie=00000000 pc=000000000001429b..00000000000142e3
  DW_CFA_advance_loc: 5 to 00000000000142a0
  DW_CFA_def_cfa_offset: 16
  DW_CFA_offset: r6 (rbp) at cfa-16
  DW_CFA_advance_loc: 3 to 00000000000142a3
  DW_CFA_def_cfa_register: r6 (rbp)
  DW_CFA_advance_loc: 63 to 00000000000142e2
  DW_CFA_def_cfa: r7 (rsp) ofs 8
  DW_CFA_nop
  DW_CFA_nop
  DW_CFA_nop

00001778 000000000000001c 0000177c FDE cie=00000000 pc=00000000000142e3..0000000000014306
  DW_CFA_advance_loc: 5 to 00000000000142e8
  DW_CFA_def_cfa_offset: 16
  DW_CFA_offset: r6 (rbp) at cfa-16
  DW_CFA_advance_loc: 3 to 00000000000142eb
  DW_CFA_def_cfa_register: r6 (rbp)
  DW_CFA_advance_loc: 26 to 0000000000014305
  DW_CFA_def_cfa: r7 (rsp) ofs 8
  DW_CFA_nop
  DW_CFA_nop
  DW_CFA_nop

00001798 000000000000001c 0000179c FDE cie=00000000 pc=0000000000014306..0000000000014329
  DW_CFA_advance_loc: 5 to 000000000001430b
  DW_CFA_def_cfa_offset: 16
  DW_CFA_offset: r6 (rbp) at cfa-16
  DW_CFA_advance_loc: 3 to 000000000001430e
  DW_CFA_def_cfa_register: r6 (rbp)
  DW_CFA_advance_loc: 26 to 0000000000014328
  DW_CFA_def_cfa: r7 (rsp) ofs 8
  DW_CFA_nop
  DW_CFA_nop
  DW_CFA_nop

000017b8 0000000000000024 000017bc FDE cie=00000000 pc=0000000000014329..00000000000143a3
  DW_CFA_advance_loc: 5 to 000000000001432e
  DW_CFA_def_cfa_offset: 16
  DW_CFA_offset: r6 (rbp) at cfa-16
  DW_CFA_advance_loc: 3 to 0000000000014331
  DW_CFA_def_cfa_register: r6 (rbp)
  DW_CFA_advance_loc: 7 to 0000000000014338
  DW_CFA_offset: r12 (r12) at cfa-24
  DW_CFA_offset: r3 (rbx) at cfa-32
  DW_CFA_advance_loc1: 106 to 00000000000143a2
  DW_CFA_def_cfa: r7 (rsp) ofs 8
  DW_CFA_nop
  DW_CFA_nop
  DW_CFA_nop
  DW_CFA_nop
  DW_CFA_nop

000017e0 000000000000001c 000017e4 FDE cie=00000000 pc=00000000000143a3..0000000000014432
  DW_CFA_advance_loc: 5 to 00000000000143a8
  DW_CFA_def_cfa_offset: 16
  DW_CFA_offset: r6 (rbp) at cfa-16
  DW_CFA_advance_loc: 3 to 00000000000143ab
  DW_CFA_def_cfa_register: r6 (rbp)
  DW_CFA_advance_loc1: 134 to 0000000000014431
  DW_CFA_def_cfa: r7 (rsp) ofs 8
  DW_CFA_nop
  DW_CFA_nop

00001800 000000000000001c 00001804 FDE cie=00000000 pc=0000000000014432..0000000000014452
  DW_CFA_advance_loc: 5 to 0000000000014437
  DW_CFA_def_cfa_offset: 16
  DW_CFA_offset: r6 (rbp) at cfa-16
  DW_CFA_advance_loc: 3 to 000000000001443a
  DW_CFA_def_cfa_register: r6 (rbp)
  DW_CFA_advance_loc: 23 to 0000000000014451
  DW_CFA_def_cfa: r7 (rsp) ofs 8
  DW_CFA_nop
  DW_CFA_nop
  DW_CFA_nop

00001820 000000000000001c 00001824 FDE cie=00000000 pc=0000000000014452..000000000001446c
  DW_CFA_advance_loc: 5 to 0000000000014457
  DW_CFA_def_cfa_offset: 16
  DW_CFA_offset: r6 (rbp) at cfa-16
  DW_CFA_advance_loc: 3 to 000000000001445a
  DW_CFA_def_cfa_register: r6 (rbp)
  DW_CFA_advance_loc: 17 to 000000000001446b
  DW_CFA_def_cfa: r7 (rsp) ofs 8
  DW_CFA_nop
  DW_CFA_nop
  DW_CFA_nop

00001840 000000000000001c 00001844 FDE cie=00000000 pc=000000000001446c..000000000001448a
  DW_CFA_advance_loc: 5 to 0000000000014471
  DW_CFA_def_cfa_offset: 16
  DW_CFA_offset: r6 (rbp) at cfa-16
  DW_CFA_advance_loc: 3 to 0000000000014474
  DW_CFA_def_cfa_register: r6 (rbp)
  DW_CFA_advance_loc: 21 to 0000000000014489
  DW_CFA_def_cfa: r7 (rsp) ofs 8
  DW_CFA_nop
  DW_CFA_nop
  DW_CFA_nop

00001860 000000000000001c 00001864 FDE cie=00000000 pc=000000000001448a..00000000000144c1
  DW_CFA_advance_loc: 5 to 000000000001448f
  DW_CFA_def_cfa_offset: 16
  DW_CFA_offset: r6 (rbp) at cfa-16
  DW_CFA_advance_loc: 3 to 0000000000014492
  DW_CFA_def_cfa_register: r6 (rbp)
  DW_CFA_advance_loc: 46 to 00000000000144c0
  DW_CFA_def_cfa: r7 (rsp) ofs 8
  DW_CFA_nop
  DW_CFA_nop
  DW_CFA_nop

00001880 000000000000001c 00001884 FDE cie=00000000 pc=00000000000144c1..00000000000144ea
  DW_CFA_advance_loc: 5 to 00000000000144c6
  DW_CFA_def_cfa_offset: 16
  DW_CFA_offset: r6 (rbp) at cfa-16
  DW_CFA_advance_loc: 3 to 00000000000144c9
  DW_CFA_def_cfa_register: r6 (rbp)
  DW_CFA_advance_loc: 32 to 00000000000144e9
  DW_CFA_def_cfa: r7 (rsp) ofs 8
  DW_CFA_nop
  DW_CFA_nop
  DW_CFA_nop

000018a0 000000000000001c 000018a4 FDE cie=00000000 pc=00000000000144ea..0000000000014539
  DW_CFA_advance_loc: 5 to 00000000000144ef
  DW_CFA_def_cfa_offset: 16
  DW_CFA_offset: r6 (rbp) at cfa-16
  DW_CFA_advance_loc: 3 to 00000000000144f2
  DW_CFA_def_cfa_register: r6 (rbp)
  DW_CFA_advance_loc1: 70 to 0000000000014538
  DW_CFA_def_cfa: r7 (rsp) ofs 8
  DW_CFA_nop
  DW_CFA_nop

000018c0 000000000000001c 000018c4 FDE cie=00000000 pc=0000000000014539..0000000000014581
  DW_CFA_advance_loc: 5 to 000000000001453e
  DW_CFA_def_cfa_offset: 16
  DW_CFA_offset: r6 (rbp) at cfa-16
  DW_CFA_advance_loc: 3 to 0000000000014541
  DW_CFA_def_cfa_register: r6 (rbp)
  DW_CFA_advance_loc: 63 to 0000000000014580
  DW_CFA_def_cfa: r7 (rsp) ofs 8
  DW_CFA_nop
  DW_CFA_nop
  DW_CFA_nop

000018e0 000000000000001c 000018e4 FDE cie=00000000 pc=0000000000014581..000000000001462b
  DW_CFA_advance_loc: 5 to 0000000000014586
  DW_CFA_def_cfa_offset: 16
  DW_CFA_offset: r6 (rbp) at cfa-16
  DW_CFA_advance_loc: 3 to 0000000000014589
  DW_CFA_def_cfa_register: r6 (rbp)
  DW_CFA_advance_loc1: 161 to 000000000001462a
  DW_CFA_def_cfa: r7 (rsp) ofs 8
  DW_CFA_nop
  DW_CFA_nop

00001900 000000000000001c 00001904 FDE cie=00000000 pc=000000000001462b..0000000000014683
  DW_CFA_advance_loc: 5 to 0000000000014630
  DW_CFA_def_cfa_offset: 16
  DW_CFA_offset: r6 (rbp) at cfa-16
  DW_CFA_advance_loc: 3 to 0000000000014633
  DW_CFA_def_cfa_register: r6 (rbp)
  DW_CFA_advance_loc1: 79 to 0000000000014682
  DW_CFA_def_cfa: r7 (rsp) ofs 8
  DW_CFA_nop
  DW_CFA_nop

00001920 000000000000001c 00001924 FDE cie=00000000 pc=0000000000014683..00000000000146db
  DW_CFA_advance_loc: 5 to 0000000000014688
  DW_CFA_def_cfa_offset: 16
  DW_CFA_offset: r6 (rbp) at cfa-16
  DW_CFA_advance_loc: 3 to 000000000001468b
  DW_CFA_def_cfa_register: r6 (rbp)
  DW_CFA_advance_loc1: 79 to 00000000000146da
  DW_CFA_def_cfa: r7 (rsp) ofs 8
  DW_CFA_nop
  DW_CFA_nop

00001940 000000000000001c 00001944 FDE cie=00000000 pc=00000000000146db..000000000001472b
  DW_CFA_advance_loc: 1 to 00000000000146dc
  DW_CFA_def_cfa_offset: 16
  DW_CFA_offset: r6 (rbp) at cfa-16
  DW_CFA_advance_loc: 3 to 00000000000146df
  DW_CFA_def_cfa_register: r6 (rbp)
  DW_CFA_advance_loc1: 75 to 000000000001472a
  DW_CFA_def_cfa: r7 (rsp) ofs 8
  DW_CFA_nop
  DW_CFA_nop

00001960 000000000000001c 00001964 FDE cie=00000000 pc=000000000001472b..00000000000147ae
  DW_CFA_advance_loc: 5 to 0000000000014730
  DW_CFA_def_cfa_offset: 16
  DW_CFA_offset: r6 (rbp) at cfa-16
  DW_CFA_advance_loc: 3 to 0000000000014733
  DW_CFA_def_cfa_register: r6 (rbp)
  DW_CFA_advance_loc1: 122 to 00000000000147ad
  DW_CFA_def_cfa: r7 (rsp) ofs 8
  DW_CFA_nop
  DW_CFA_nop

00001980 0000000000000024 00001984 FDE cie=00000000 pc=00000000000147ae..000000000001702b
  DW_CFA_advance_loc: 5 to 00000000000147b3
  DW_CFA_def_cfa_offset: 16
  DW_CFA_offset: r6 (rbp) at cfa-16
  DW_CFA_advance_loc: 3 to 00000000000147b6
  DW_CFA_def_cfa_register: r6 (rbp)
  DW_CFA_advance_loc: 8 to 00000000000147be
  DW_CFA_offset: r3 (rbx) at cfa-24
  DW_CFA_advance_loc2: 10348 to 000000000001702a
  DW_CFA_def_cfa: r7 (rsp) ofs 8
  DW_CFA_nop
  DW_CFA_nop
  DW_CFA_nop
  DW_CFA_nop
  DW_CFA_nop
  DW_CFA_nop

000019a8 0000000000000024 000019ac FDE cie=00000000 pc=000000000001702b..0000000000019a75
  DW_CFA_advance_loc: 5 to 0000000000017030
  DW_CFA_def_cfa_offset: 16
  DW_CFA_offset: r6 (rbp) at cfa-16
  DW_CFA_advance_loc: 3 to 0000000000017033
  DW_CFA_def_cfa_register: r6 (rbp)
  DW_CFA_advance_loc: 8 to 000000000001703b
  DW_CFA_offset: r3 (rbx) at cfa-24
  DW_CFA_advance_loc2: 10809 to 0000000000019a74
  DW_CFA_def_cfa: r7 (rsp) ofs 8
  DW_CFA_nop
  DW_CFA_nop
  DW_CFA_nop
  DW_CFA_nop
  DW_CFA_nop
  DW_CFA_nop

000019d0 000000000000001c 000019d4 FDE cie=00000000 pc=0000000000019a75..0000000000019b1f
  DW_CFA_advance_loc: 5 to 0000000000019a7a
  DW_CFA_def_cfa_offset: 16
  DW_CFA_offset: r6 (rbp) at cfa-16
  DW_CFA_advance_loc: 3 to 0000000000019a7d
  DW_CFA_def_cfa_register: r6 (rbp)
  DW_CFA_advance_loc1: 161 to 0000000000019b1e
  DW_CFA_def_cfa: r7 (rsp) ofs 8
  DW_CFA_nop
  DW_CFA_nop

000019f0 000000000000001c 000019f4 FDE cie=00000000 pc=0000000000019b1f..0000000000019b47
  DW_CFA_advance_loc: 5 to 0000000000019b24
  DW_CFA_def_cfa_offset: 16
  DW_CFA_offset: r6 (rbp) at cfa-16
  DW_CFA_advance_loc: 3 to 0000000000019b27
  DW_CFA_def_cfa_register: r6 (rbp)
  DW_CFA_advance_loc: 31 to 0000000000019b46
  DW_CFA_def_cfa: r7 (rsp) ofs 8
  DW_CFA_nop
  DW_CFA_nop
  DW_CFA_nop

00001a10 000000000000001c 00001a14 FDE cie=00000000 pc=0000000000019b47..0000000000019bff
  DW_CFA_advance_loc: 5 to 0000000000019b4c
  DW_CFA_def_cfa_offset: 16
  DW_CFA_offset: r6 (rbp) at cfa-16
  DW_CFA_advance_loc: 3 to 0000000000019b4f
  DW_CFA_def_cfa_register: r6 (rbp)
  DW_CFA_advance_loc1: 175 to 0000000000019bfe
  DW_CFA_def_cfa: r7 (rsp) ofs 8
  DW_CFA_nop
  DW_CFA_nop

00001a30 000000000000001c 00001a34 FDE cie=00000000 pc=0000000000019bff..0000000000019c2d
  DW_CFA_advance_loc: 5 to 0000000000019c04
  DW_CFA_def_cfa_offset: 16
  DW_CFA_offset: r6 (rbp) at cfa-16
  DW_CFA_advance_loc: 3 to 0000000000019c07
  DW_CFA_def_cfa_register: r6 (rbp)
  DW_CFA_advance_loc: 37 to 0000000000019c2c
  DW_CFA_def_cfa: r7 (rsp) ofs 8
  DW_CFA_nop
  DW_CFA_nop
  DW_CFA_nop

00001a50 000000000000001c 00001a54 FDE cie=00000000 pc=0000000000019c2d..0000000000019c48
  DW_CFA_advance_loc: 5 to 0000000000019c32
  DW_CFA_def_cfa_offset: 16
  DW_CFA_offset: r6 (rbp) at cfa-16
  DW_CFA_advance_loc: 3 to 0000000000019c35
  DW_CFA_def_cfa_register: r6 (rbp)
  DW_CFA_advance_loc: 18 to 0000000000019c47
  DW_CFA_def_cfa: r7 (rsp) ofs 8
  DW_CFA_nop
  DW_CFA_nop
  DW_CFA_nop

00001a70 000000000000001c 00001a74 FDE cie=00000000 pc=0000000000019c48..0000000000019c80
  DW_CFA_advance_loc: 5 to 0000000000019c4d
  DW_CFA_def_cfa_offset: 16
  DW_CFA_offset: r6 (rbp) at cfa-16
  DW_CFA_advance_loc: 3 to 0000000000019c50
  DW_CFA_def_cfa_register: r6 (rbp)
  DW_CFA_advance_loc: 47 to 0000000000019c7f
  DW_CFA_def_cfa: r7 (rsp) ofs 8
  DW_CFA_nop
  DW_CFA_nop
  DW_CFA_nop

00001a90 000000000000001c 00001a94 FDE cie=00000000 pc=0000000000019c80..0000000000019cbf
  DW_CFA_advance_loc: 5 to 0000000000019c85
  DW_CFA_def_cfa_offset: 16
  DW_CFA_offset: r6 (rbp) at cfa-16
  DW_CFA_advance_loc: 3 to 0000000000019c88
  DW_CFA_def_cfa_register: r6 (rbp)
  DW_CFA_advance_loc: 54 to 0000000000019cbe
  DW_CFA_def_cfa: r7 (rsp) ofs 8
  DW_CFA_nop
  DW_CFA_nop
  DW_CFA_nop

00001ab0 000000000000001c 00001ab4 FDE cie=00000000 pc=0000000000019cbf..0000000000019d14
  DW_CFA_advance_loc: 5 to 0000000000019cc4
  DW_CFA_def_cfa_offset: 16
  DW_CFA_offset: r6 (rbp) at cfa-16
  DW_CFA_advance_loc: 3 to 0000000000019cc7
  DW_CFA_def_cfa_register: r6 (rbp)
  DW_CFA_advance_loc1: 76 to 0000000000019d13
  DW_CFA_def_cfa: r7 (rsp) ofs 8
  DW_CFA_nop
  DW_CFA_nop

00001ad0 000000000000001c 00001ad4 FDE cie=00000000 pc=0000000000019d14..0000000000019d35
  DW_CFA_advance_loc: 5 to 0000000000019d19
  DW_CFA_def_cfa_offset: 16
  DW_CFA_offset: r6 (rbp) at cfa-16
  DW_CFA_advance_loc: 3 to 0000000000019d1c
  DW_CFA_def_cfa_register: r6 (rbp)
  DW_CFA_advance_loc: 24 to 0000000000019d34
  DW_CFA_def_cfa: r7 (rsp) ofs 8
  DW_CFA_nop
  DW_CFA_nop
  DW_CFA_nop

00001af0 000000000000001c 00001af4 FDE cie=00000000 pc=0000000000019d35..000000000001a4f2
  DW_CFA_advance_loc: 5 to 0000000000019d3a
  DW_CFA_def_cfa_offset: 16
  DW_CFA_offset: r6 (rbp) at cfa-16
  DW_CFA_advance_loc: 3 to 0000000000019d3d
  DW_CFA_def_cfa_register: r6 (rbp)
  DW_CFA_advance_loc2: 1972 to 000000000001a4f1
  DW_CFA_def_cfa: r7 (rsp) ofs 8
  DW_CFA_nop

00001b10 000000000000001c 00001b14 FDE cie=00000000 pc=000000000001a4f2..000000000001ba04
  DW_CFA_advance_loc: 5 to 000000000001a4f7
  DW_CFA_def_cfa_offset: 16
  DW_CFA_offset: r6 (rbp) at cfa-16
  DW_CFA_advance_loc: 3 to 000000000001a4fa
  DW_CFA_def_cfa_register: r6 (rbp)
  DW_CFA_advance_loc2: 5385 to 000000000001ba03
  DW_CFA_def_cfa: r7 (rsp) ofs 8
  DW_CFA_nop

00001b30 0000000000000044 00001b34 FDE cie=00000000 pc=000000000001ba10..000000000001ba75
  DW_CFA_advance_loc: 6 to 000000000001ba16
  DW_CFA_def_cfa_offset: 16
  DW_CFA_offset: r15 (r15) at cfa-16
  DW_CFA_advance_loc: 9 to 000000000001ba1f
  DW_CFA_def_cfa_offset: 24
  DW_CFA_offset: r14 (r14) at cfa-24
  DW_CFA_advance_loc: 5 to 000000000001ba24
  DW_CFA_def_cfa_offset: 32
  DW_CFA_offset: r13 (r13) at cfa-32
  DW_CFA_advance_loc: 5 to 000000000001ba29
  DW_CFA_def_cfa_offset: 40
  DW_CFA_offset: r12 (r12) at cfa-40
  DW_CFA_advance_loc: 4 to 000000000001ba2d
  DW_CFA_def_cfa_offset: 48
  DW_CFA_offset: r6 (rbp) at cfa-48
  DW_CFA_advance_loc: 8 to 000000000001ba35
  DW_CFA_def_cfa_offset: 56
  DW_CFA_offset: r3 (rbx) at cfa-56
  DW_CFA_advance_loc: 7 to 000000000001ba3c
  DW_CFA_def_cfa_offset: 64
  DW_CFA_advance_loc: 46 to 000000000001ba6a
  DW_CFA_def_cfa_offset: 56
  DW_CFA_advance_loc: 1 to 000000000001ba6b
  DW_CFA_def_cfa_offset: 48
  DW_CFA_advance_loc: 1 to 000000000001ba6c
  DW_CFA_def_cfa_offset: 40
  DW_CFA_advance_loc: 2 to 000000000001ba6e
  DW_CFA_def_cfa_offset: 32
  DW_CFA_advance_loc: 2 to 000000000001ba70
  DW_CFA_def_cfa_offset: 24
  DW_CFA_advance_loc: 2 to 000000000001ba72
  DW_CFA_def_cfa_offset: 16
  DW_CFA_advance_loc: 2 to 000000000001ba74
  DW_CFA_def_cfa_offset: 8
  DW_CFA_nop

00001b78 0000000000000014 00001b7c FDE cie=00000000 pc=000000000001ba80..000000000001ba85
  DW_CFA_nop
  DW_CFA_nop
  DW_CFA_nop
  DW_CFA_nop
  DW_CFA_nop
  DW_CFA_nop
  DW_CFA_nop

00001b90 0000000000000014 00001b94 FDE cie=00000000 pc=000000000001ba90..000000000001baa2
  DW_CFA_nop
  DW_CFA_nop
  DW_CFA_nop
  DW_CFA_nop
  DW_CFA_nop
  DW_CFA_nop
  DW_CFA_nop

00001ba8 0000000000000010 00001bac FDE cie=00000000 pc=000000000001bab0..000000000001bac4
  DW_CFA_nop
  DW_CFA_nop
  DW_CFA_nop

00001bbc ZERO terminator


Contents of the .debug_aranges section (loaded from date_O0_debug):

  Length:                   44
  Version:                  2
  Offset into .debug_info:  0x0
  Pointer Size:             8
  Segment Size:             0

    Address            Length
    0000000000003989 00000000000015d3 
    0000000000000000 0000000000000000 
  Length:                   28
  Version:                  2
  Offset into .debug_info:  0x1fbd
  Pointer Size:             8
  Segment Size:             0

    Address            Length
    0000000000000000 0000000000000000 
  Length:                   44
  Version:                  2
  Offset into .debug_info:  0x2003
  Pointer Size:             8
  Segment Size:             0

    Address            Length
    0000000000004f5c 00000000000004ed 
    0000000000000000 0000000000000000 
  Length:                   44
  Version:                  2
  Offset into .debug_info:  0x279b
  Pointer Size:             8
  Segment Size:             0

    Address            Length
    0000000000005449 000000000000012c 
    0000000000000000 0000000000000000 
  Length:                   28
  Version:                  2
  Offset into .debug_info:  0x2bd0
  Pointer Size:             8
  Segment Size:             0

    Address            Length
    0000000000000000 0000000000000000 
  Length:                   44
  Version:                  2
  Offset into .debug_info:  0x2c65
  Pointer Size:             8
  Segment Size:             0

    Address            Length
    0000000000005575 00000000000000b9 
    0000000000000000 0000000000000000 
  Length:                   44
  Version:                  2
  Offset into .debug_info:  0x2fe8
  Pointer Size:             8
  Segment Size:             0

    Address            Length
    000000000000562e 0000000000000087 
    0000000000000000 0000000000000000 
  Length:                   44
  Version:                  2
  Offset into .debug_info:  0x3339
  Pointer Size:             8
  Segment Size:             0

    Address            Length
    00000000000056b5 0000000000002bae 
    0000000000000000 0000000000000000 
  Length:                   44
  Version:                  2
  Offset into .debug_info:  0x4850
  Pointer Size:             8
  Segment Size:             0

    Address            Length
    0000000000008263 0000000000000083 
    0000000000000000 0000000000000000 
  Length:                   44
  Version:                  2
  Offset into .debug_info:  0x4941
  Pointer Size:             8
  Segment Size:             0

    Address            Length
    00000000000082e6 00000000000000be 
    0000000000000000 0000000000000000 
  Length:                   44
  Version:                  2
  Offset into .debug_info:  0x4cae
  Pointer Size:             8
  Segment Size:             0

    Address            Length
    00000000000083a4 0000000000000069 
    0000000000000000 0000000000000000 
  Length:                   44
  Version:                  2
  Offset into .debug_info:  0x4e03
  Pointer Size:             8
  Segment Size:             0

    Address            Length
    000000000000840d 00000000000000ef 
    0000000000000000 0000000000000000 
  Length:                   44
  Version:                  2
  Offset into .debug_info:  0x5003
  Pointer Size:             8
  Segment Size:             0

    Address            Length
    00000000000084fc 000000000000013e 
    0000000000000000 0000000000000000 
  Length:                   44
  Version:                  2
  Offset into .debug_info:  0x50e4
  Pointer Size:             8
  Segment Size:             0

    Address            Length
    000000000000863a 0000000000006b9a 
    0000000000000000 0000000000000000 
  Length:                   44
  Version:                  2
  Offset into .debug_info:  0x76ca
  Pointer Size:             8
  Segment Size:             0

    Address            Length
    000000000000f1d4 000000000000059a 
    0000000000000000 0000000000000000 
  Length:                   44
  Version:                  2
  Offset into .debug_info:  0x7b05
  Pointer Size:             8
  Segment Size:             0

    Address            Length
    000000000000f76e 00000000000000f5 
    0000000000000000 0000000000000000 
  Length:                   44
  Version:                  2
  Offset into .debug_info:  0x7e7a
  Pointer Size:             8
  Segment Size:             0

    Address            Length
    000000000000f863 0000000000001f79 
    0000000000000000 0000000000000000 
  Length:                   44
  Version:                  2
  Offset into .debug_info:  0x9332
  Pointer Size:             8
  Segment Size:             0

    Address            Length
    00000000000117dc 00000000000000a9 
    0000000000000000 0000000000000000 
  Length:                   44
  Version:                  2
  Offset into .debug_info:  0x9542
  Pointer Size:             8
  Segment Size:             0

    Address            Length
    0000000000011885 00000000000000dd 
    0000000000000000 0000000000000000 
  Length:                   44
  Version:                  2
  Offset into .debug_info:  0x9933
  Pointer Size:             8
  Segment Size:             0

    Address            Length
    0000000000011962 00000000000006d6 
    0000000000000000 0000000000000000 
  Length:                   44
  Version:                  2
  Offset into .debug_info:  0xa0be
  Pointer Size:             8
  Segment Size:             0

    Address            Length
    0000000000012038 000000000000003a 
    0000000000000000 0000000000000000 
  Length:                   44
  Version:                  2
  Offset into .debug_info:  0xa2be
  Pointer Size:             8
  Segment Size:             0

    Address            Length
    0000000000012072 00000000000008f3 
    0000000000000000 0000000000000000 
  Length:                   28
  Version:                  2
  Offset into .debug_info:  0xa895
  Pointer Size:             8
  Segment Size:             0

    Address            Length
    0000000000000000 0000000000000000 
  Length:                   44
  Version:                  2
  Offset into .debug_info:  0xa953
  Pointer Size:             8
  Segment Size:             0

    Address            Length
    0000000000012965 000000000000068b 
    0000000000000000 0000000000000000 
  Length:                   44
  Version:                  2
  Offset into .debug_info:  0xb168
  Pointer Size:             8
  Segment Size:             0

    Address            Length
    0000000000012ff0 0000000000000040 
    0000000000000000 0000000000000000 
  Length:                   44
  Version:                  2
  Offset into .debug_info:  0xb262
  Pointer Size:             8
  Segment Size:             0

    Address            Length
    0000000000013030 0000000000000f04 
    0000000000000000 0000000000000000 
  Length:                   44
  Version:                  2
  Offset into .debug_info:  0xbc3f
  Pointer Size:             8
  Segment Size:             0

    Address            Length
    0000000000013f34 0000000000000156 
    0000000000000000 0000000000000000 
  Length:                   44
  Version:                  2
  Offset into .debug_info:  0xc066
  Pointer Size:             8
  Segment Size:             0

    Address            Length
    000000000001408a 000000000000029f 
    0000000000000000 0000000000000000 
  Length:                   44
  Version:                  2
  Offset into .debug_info:  0xc37e
  Pointer Size:             8
  Segment Size:             0

    Address            Length
    0000000000014329 000000000000007a 
    0000000000000000 0000000000000000 
  Length:                   44
  Version:                  2
  Offset into .debug_info:  0xc481
  Pointer Size:             8
  Segment Size:             0

    Address            Length
    00000000000143a3 000000000000008f 
    0000000000000000 0000000000000000 
  Length:                   44
  Version:                  2
  Offset into .debug_info:  0xc7de
  Pointer Size:             8
  Segment Size:             0

    Address            Length
    0000000000014432 0000000000000020 
    0000000000000000 0000000000000000 
  Length:                   44
  Version:                  2
  Offset into .debug_info:  0xcaa3
  Pointer Size:             8
  Segment Size:             0

    Address            Length
    0000000000014452 00000000000000e7 
    0000000000000000 0000000000000000 
  Length:                   44
  Version:                  2
  Offset into .debug_info:  0xccdf
  Pointer Size:             8
  Segment Size:             0

    Address            Length
    0000000000014539 0000000000000048 
    0000000000000000 0000000000000000 
  Length:                   44
  Version:                  2
  Offset into .debug_info:  0xda43
  Pointer Size:             8
  Segment Size:             0

    Address            Length
    0000000000014581 00000000000000aa 
    0000000000000000 0000000000000000 
  Length:                   44
  Version:                  2
  Offset into .debug_info:  0xdc3a
  Pointer Size:             8
  Segment Size:             0

    Address            Length
    000000000001462b 0000000000002a00 
    0000000000000000 0000000000000000 
  Length:                   44
  Version:                  2
  Offset into .debug_info:  0xebd3
  Pointer Size:             8
  Segment Size:             0

    Address            Length
    000000000001702b 0000000000002a4a 
    0000000000000000 0000000000000000 
  Length:                   44
  Version:                  2
  Offset into .debug_info:  0xf868
  Pointer Size:             8
  Segment Size:             0

    Address            Length
    0000000000019a75 00000000000000aa 
    0000000000000000 0000000000000000 
  Length:                   44
  Version:                  2
  Offset into .debug_info:  0xf976
  Pointer Size:             8
  Segment Size:             0

    Address            Length
    0000000000019b1f 0000000000000129 
    0000000000000000 0000000000000000 
  Length:                   44
  Version:                  2
  Offset into .debug_info:  0xfbb5
  Pointer Size:             8
  Segment Size:             0

    Address            Length
    0000000000019c48 00000000000000ed 
    0000000000000000 0000000000000000 
  Length:                   44
  Version:                  2
  Offset into .debug_info:  0xfd78
  Pointer Size:             8
  Segment Size:             0

    Address            Length
    0000000000019d35 00000000000007bd 
    0000000000000000 0000000000000000 
  Length:                   44
  Version:                  2
  Offset into .debug_info:  0x10187
  Pointer Size:             8
  Segment Size:             0

    Address            Length
    000000000001a4f2 0000000000001512 
    0000000000000000 0000000000000000 

Contents of the .debug_info section (loaded from date_O0_debug):

  Compilation Unit @ offset 0x0:
   Length:        0x1fb9 (32-bit)
   Version:       4
   Abbrev Offset: 0x0
   Pointer Size:  8
 <0><b>: Abbrev Number: 1 (DW_TAG_compile_unit)
    <c>   DW_AT_producer    : (indirect string, offset: 0x81e): GNU C17 11.1.0 -mtune=generic -march=x86-64 -g -O0 -fasynchronous-unwind-tables -fstack-protector-strong -fstack-clash-protection -fcf-protection
    <10>   DW_AT_language    : 12	(ANSI C99)
    <11>   DW_AT_name        : (indirect string, offset: 0x1145): src/date.c
    <15>   DW_AT_comp_dir    : (indirect string, offset: 0xb3f): /home/jacekline/dev/research/programs/coreutils-9.1
    <19>   DW_AT_low_pc      : 0x3989
    <21>   DW_AT_high_pc     : 0x15d3
    <29>   DW_AT_stmt_list   : 0x0
 <1><2d>: Abbrev Number: 2 (DW_TAG_typedef)
    <2e>   DW_AT_name        : (indirect string, offset: 0x1155): size_t
    <32>   DW_AT_decl_file   : 3
    <33>   DW_AT_decl_line   : 209
    <34>   DW_AT_decl_column : 23
    <35>   DW_AT_type        : <0x39>
 <1><39>: Abbrev Number: 3 (DW_TAG_base_type)
    <3a>   DW_AT_byte_size   : 8
    <3b>   DW_AT_encoding    : 7	(unsigned)
    <3c>   DW_AT_name        : (indirect string, offset: 0x1bf6): long unsigned int
 <1><40>: Abbrev Number: 3 (DW_TAG_base_type)
    <41>   DW_AT_byte_size   : 4
    <42>   DW_AT_encoding    : 7	(unsigned)
    <43>   DW_AT_name        : (indirect string, offset: 0x1bfb): unsigned int
 <1><47>: Abbrev Number: 4 (DW_TAG_pointer_type)
    <48>   DW_AT_byte_size   : 8
 <1><49>: Abbrev Number: 3 (DW_TAG_base_type)
    <4a>   DW_AT_byte_size   : 1
    <4b>   DW_AT_encoding    : 8	(unsigned char)
    <4c>   DW_AT_name        : (indirect string, offset: 0x7bf): unsigned char
 <1><50>: Abbrev Number: 3 (DW_TAG_base_type)
    <51>   DW_AT_byte_size   : 2
    <52>   DW_AT_encoding    : 7	(unsigned)
    <53>   DW_AT_name        : (indirect string, offset: 0x1116): short unsigned int
 <1><57>: Abbrev Number: 3 (DW_TAG_base_type)
    <58>   DW_AT_byte_size   : 1
    <59>   DW_AT_encoding    : 6	(signed char)
    <5a>   DW_AT_name        : (indirect string, offset: 0x7c1): signed char
 <1><5e>: Abbrev Number: 3 (DW_TAG_base_type)
    <5f>   DW_AT_byte_size   : 2
    <60>   DW_AT_encoding    : 5	(signed)
    <61>   DW_AT_name        : (indirect string, offset: 0x21d3): short int
 <1><65>: Abbrev Number: 5 (DW_TAG_base_type)
    <66>   DW_AT_byte_size   : 4
    <67>   DW_AT_encoding    : 5	(signed)
    <68>   DW_AT_name        : int
 <1><6c>: Abbrev Number: 3 (DW_TAG_base_type)
    <6d>   DW_AT_byte_size   : 8
    <6e>   DW_AT_encoding    : 5	(signed)
    <6f>   DW_AT_name        : (indirect string, offset: 0x1ea4): long int
 <1><73>: Abbrev Number: 2 (DW_TAG_typedef)
    <74>   DW_AT_name        : (indirect string, offset: 0x169a): __intmax_t
    <78>   DW_AT_decl_file   : 4
    <79>   DW_AT_decl_line   : 72
    <7a>   DW_AT_decl_column : 18
    <7b>   DW_AT_type        : <0x6c>
 <1><7f>: Abbrev Number: 2 (DW_TAG_typedef)
    <80>   DW_AT_name        : (indirect string, offset: 0x1671): __dev_t
    <84>   DW_AT_decl_file   : 4
    <85>   DW_AT_decl_line   : 145
    <86>   DW_AT_decl_column : 25
    <87>   DW_AT_type        : <0x39>
 <1><8b>: Abbrev Number: 2 (DW_TAG_typedef)
    <8c>   DW_AT_name        : (indirect string, offset: 0x6ac): __uid_t
    <90>   DW_AT_decl_file   : 4
    <91>   DW_AT_decl_line   : 146
    <92>   DW_AT_decl_column : 25
    <93>   DW_AT_type        : <0x40>
 <1><97>: Abbrev Number: 2 (DW_TAG_typedef)
    <98>   DW_AT_name        : (indirect string, offset: 0x1b85): __gid_t
    <9c>   DW_AT_decl_file   : 4
    <9d>   DW_AT_decl_line   : 147
    <9e>   DW_AT_decl_column : 25
    <9f>   DW_AT_type        : <0x40>
 <1><a3>: Abbrev Number: 2 (DW_TAG_typedef)
    <a4>   DW_AT_name        : (indirect string, offset: 0x1f60): __ino_t
    <a8>   DW_AT_decl_file   : 4
    <a9>   DW_AT_decl_line   : 148
    <aa>   DW_AT_decl_column : 25
    <ab>   DW_AT_type        : <0x39>
 <1><af>: Abbrev Number: 2 (DW_TAG_typedef)
    <b0>   DW_AT_name        : (indirect string, offset: 0x925): __mode_t
    <b4>   DW_AT_decl_file   : 4
    <b5>   DW_AT_decl_line   : 150
    <b6>   DW_AT_decl_column : 26
    <b7>   DW_AT_type        : <0x40>
 <1><bb>: Abbrev Number: 2 (DW_TAG_typedef)
    <bc>   DW_AT_name        : (indirect string, offset: 0xc88): __nlink_t
    <c0>   DW_AT_decl_file   : 4
    <c1>   DW_AT_decl_line   : 151
    <c2>   DW_AT_decl_column : 27
    <c3>   DW_AT_type        : <0x39>
 <1><c7>: Abbrev Number: 2 (DW_TAG_typedef)
    <c8>   DW_AT_name        : (indirect string, offset: 0x2c5): __off_t
    <cc>   DW_AT_decl_file   : 4
    <cd>   DW_AT_decl_line   : 152
    <ce>   DW_AT_decl_column : 25
    <cf>   DW_AT_type        : <0x6c>
 <1><d3>: Abbrev Number: 2 (DW_TAG_typedef)
    <d4>   DW_AT_name        : (indirect string, offset: 0x120c): __off64_t
    <d8>   DW_AT_decl_file   : 4
    <d9>   DW_AT_decl_line   : 153
    <da>   DW_AT_decl_column : 27
    <db>   DW_AT_type        : <0x6c>
 <1><df>: Abbrev Number: 2 (DW_TAG_typedef)
    <e0>   DW_AT_name        : (indirect string, offset: 0x104a): __time_t
    <e4>   DW_AT_decl_file   : 4
    <e5>   DW_AT_decl_line   : 160
    <e6>   DW_AT_decl_column : 26
    <e7>   DW_AT_type        : <0x6c>
 <1><eb>: Abbrev Number: 2 (DW_TAG_typedef)
    <ec>   DW_AT_name        : (indirect string, offset: 0x1150): __blksize_t
    <f0>   DW_AT_decl_file   : 4
    <f1>   DW_AT_decl_line   : 174
    <f2>   DW_AT_decl_column : 29
    <f3>   DW_AT_type        : <0x6c>
 <1><f7>: Abbrev Number: 2 (DW_TAG_typedef)
    <f8>   DW_AT_name        : (indirect string, offset: 0x808): __blkcnt_t
    <fc>   DW_AT_decl_file   : 4
    <fd>   DW_AT_decl_line   : 179
    <fe>   DW_AT_decl_column : 28
    <ff>   DW_AT_type        : <0x6c>
 <1><103>: Abbrev Number: 2 (DW_TAG_typedef)
    <104>   DW_AT_name        : (indirect string, offset: 0xe2b): __ssize_t
    <108>   DW_AT_decl_file   : 4
    <109>   DW_AT_decl_line   : 193
    <10a>   DW_AT_decl_column : 27
    <10b>   DW_AT_type        : <0x6c>
 <1><10f>: Abbrev Number: 2 (DW_TAG_typedef)
    <110>   DW_AT_name        : (indirect string, offset: 0x46b): __syscall_slong_t
    <114>   DW_AT_decl_file   : 4
    <115>   DW_AT_decl_line   : 196
    <116>   DW_AT_decl_column : 33
    <117>   DW_AT_type        : <0x6c>
 <1><11b>: Abbrev Number: 6 (DW_TAG_pointer_type)
    <11c>   DW_AT_byte_size   : 8
    <11d>   DW_AT_type        : <0x126>
 <1><121>: Abbrev Number: 7 (DW_TAG_const_type)
    <122>   DW_AT_type        : <0x11b>
 <1><126>: Abbrev Number: 3 (DW_TAG_base_type)
    <127>   DW_AT_byte_size   : 1
    <128>   DW_AT_encoding    : 6	(signed char)
    <129>   DW_AT_name        : (indirect string, offset: 0x7c8): char
 <1><12d>: Abbrev Number: 7 (DW_TAG_const_type)
    <12e>   DW_AT_type        : <0x126>
 <1><132>: Abbrev Number: 8 (DW_TAG_structure_type)
    <133>   DW_AT_name        : (indirect string, offset: 0x16c9): _IO_FILE
    <137>   DW_AT_byte_size   : 216
    <138>   DW_AT_decl_file   : 5
    <139>   DW_AT_decl_line   : 49
    <13a>   DW_AT_decl_column : 8
    <13b>   DW_AT_sibling     : <0x2b9>
 <2><13f>: Abbrev Number: 9 (DW_TAG_member)
    <140>   DW_AT_name        : (indirect string, offset: 0x160b): _flags
    <144>   DW_AT_decl_file   : 5
    <145>   DW_AT_decl_line   : 51
    <146>   DW_AT_decl_column : 7
    <147>   DW_AT_type        : <0x65>
    <14b>   DW_AT_data_member_location: 0
 <2><14c>: Abbrev Number: 9 (DW_TAG_member)
    <14d>   DW_AT_name        : (indirect string, offset: 0x1cf2): _IO_read_ptr
    <151>   DW_AT_decl_file   : 5
    <152>   DW_AT_decl_line   : 54
    <153>   DW_AT_decl_column : 9
    <154>   DW_AT_type        : <0x11b>
    <158>   DW_AT_data_member_location: 8
 <2><159>: Abbrev Number: 9 (DW_TAG_member)
    <15a>   DW_AT_name        : (indirect string, offset: 0x16a5): _IO_read_end
    <15e>   DW_AT_decl_file   : 5
    <15f>   DW_AT_decl_line   : 55
    <160>   DW_AT_decl_column : 9
    <161>   DW_AT_type        : <0x11b>
    <165>   DW_AT_data_member_location: 16
 <2><166>: Abbrev Number: 9 (DW_TAG_member)
    <167>   DW_AT_name        : (indirect string, offset: 0x123b): _IO_read_base
    <16b>   DW_AT_decl_file   : 5
    <16c>   DW_AT_decl_line   : 56
    <16d>   DW_AT_decl_column : 9
    <16e>   DW_AT_type        : <0x11b>
    <172>   DW_AT_data_member_location: 24
 <2><173>: Abbrev Number: 9 (DW_TAG_member)
    <174>   DW_AT_name        : (indirect string, offset: 0x12dd): _IO_write_base
    <178>   DW_AT_decl_file   : 5
    <179>   DW_AT_decl_line   : 57
    <17a>   DW_AT_decl_column : 9
    <17b>   DW_AT_type        : <0x11b>
    <17f>   DW_AT_data_member_location: 32
 <2><180>: Abbrev Number: 9 (DW_TAG_member)
    <181>   DW_AT_name        : (indirect string, offset: 0x9ba): _IO_write_ptr
    <185>   DW_AT_decl_file   : 5
    <186>   DW_AT_decl_line   : 58
    <187>   DW_AT_decl_column : 9
    <188>   DW_AT_type        : <0x11b>
    <18c>   DW_AT_data_member_location: 40
 <2><18d>: Abbrev Number: 9 (DW_TAG_member)
    <18e>   DW_AT_name        : (indirect string, offset: 0x4b3): _IO_write_end
    <192>   DW_AT_decl_file   : 5
    <193>   DW_AT_decl_line   : 59
    <194>   DW_AT_decl_column : 9
    <195>   DW_AT_type        : <0x11b>
    <199>   DW_AT_data_member_location: 48
 <2><19a>: Abbrev Number: 9 (DW_TAG_member)
    <19b>   DW_AT_name        : (indirect string, offset: 0x163e): _IO_buf_base
    <19f>   DW_AT_decl_file   : 5
    <1a0>   DW_AT_decl_line   : 60
    <1a1>   DW_AT_decl_column : 9
    <1a2>   DW_AT_type        : <0x11b>
    <1a6>   DW_AT_data_member_location: 56
 <2><1a7>: Abbrev Number: 9 (DW_TAG_member)
    <1a8>   DW_AT_name        : (indirect string, offset: 0x1276): _IO_buf_end
    <1ac>   DW_AT_decl_file   : 5
    <1ad>   DW_AT_decl_line   : 61
    <1ae>   DW_AT_decl_column : 9
    <1af>   DW_AT_type        : <0x11b>
    <1b3>   DW_AT_data_member_location: 64
 <2><1b4>: Abbrev Number: 9 (DW_TAG_member)
    <1b5>   DW_AT_name        : (indirect string, offset: 0xbe6): _IO_save_base
    <1b9>   DW_AT_decl_file   : 5
    <1ba>   DW_AT_decl_line   : 64
    <1bb>   DW_AT_decl_column : 9
    <1bc>   DW_AT_type        : <0x11b>
    <1c0>   DW_AT_data_member_location: 72
 <2><1c1>: Abbrev Number: 9 (DW_TAG_member)
    <1c2>   DW_AT_name        : (indirect string, offset: 0x1ccd): _IO_backup_base
    <1c6>   DW_AT_decl_file   : 5
    <1c7>   DW_AT_decl_line   : 65
    <1c8>   DW_AT_decl_column : 9
    <1c9>   DW_AT_type        : <0x11b>
    <1cd>   DW_AT_data_member_location: 80
 <2><1ce>: Abbrev Number: 9 (DW_TAG_member)
    <1cf>   DW_AT_name        : (indirect string, offset: 0xf91): _IO_save_end
    <1d3>   DW_AT_decl_file   : 5
    <1d4>   DW_AT_decl_line   : 66
    <1d5>   DW_AT_decl_column : 9
    <1d6>   DW_AT_type        : <0x11b>
    <1da>   DW_AT_data_member_location: 88
 <2><1db>: Abbrev Number: 9 (DW_TAG_member)
    <1dc>   DW_AT_name        : (indirect string, offset: 0x18dd): _markers
    <1e0>   DW_AT_decl_file   : 5
    <1e1>   DW_AT_decl_line   : 68
    <1e2>   DW_AT_decl_column : 22
    <1e3>   DW_AT_type        : <0x2d2>
    <1e7>   DW_AT_data_member_location: 96
 <2><1e8>: Abbrev Number: 9 (DW_TAG_member)
    <1e9>   DW_AT_name        : (indirect string, offset: 0x76d): _chain
    <1ed>   DW_AT_decl_file   : 5
    <1ee>   DW_AT_decl_line   : 70
    <1ef>   DW_AT_decl_column : 20
    <1f0>   DW_AT_type        : <0x2d8>
    <1f4>   DW_AT_data_member_location: 104
 <2><1f5>: Abbrev Number: 9 (DW_TAG_member)
    <1f6>   DW_AT_name        : (indirect string, offset: 0x41): _fileno
    <1fa>   DW_AT_decl_file   : 5
    <1fb>   DW_AT_decl_line   : 72
    <1fc>   DW_AT_decl_column : 7
    <1fd>   DW_AT_type        : <0x65>
    <201>   DW_AT_data_member_location: 112
 <2><202>: Abbrev Number: 9 (DW_TAG_member)
    <203>   DW_AT_name        : (indirect string, offset: 0x1ead): _flags2
    <207>   DW_AT_decl_file   : 5
    <208>   DW_AT_decl_line   : 73
    <209>   DW_AT_decl_column : 7
    <20a>   DW_AT_type        : <0x65>
    <20e>   DW_AT_data_member_location: 116
 <2><20f>: Abbrev Number: 9 (DW_TAG_member)
    <210>   DW_AT_name        : (indirect string, offset: 0x1e2c): _old_offset
    <214>   DW_AT_decl_file   : 5
    <215>   DW_AT_decl_line   : 74
    <216>   DW_AT_decl_column : 11
    <217>   DW_AT_type        : <0xc7>
    <21b>   DW_AT_data_member_location: 120
 <2><21c>: Abbrev Number: 9 (DW_TAG_member)
    <21d>   DW_AT_name        : (indirect string, offset: 0x1c21): _cur_column
    <221>   DW_AT_decl_file   : 5
    <222>   DW_AT_decl_line   : 77
    <223>   DW_AT_decl_column : 18
    <224>   DW_AT_type        : <0x50>
    <228>   DW_AT_data_member_location: 128
 <2><229>: Abbrev Number: 9 (DW_TAG_member)
    <22a>   DW_AT_name        : (indirect string, offset: 0x2217): _vtable_offset
    <22e>   DW_AT_decl_file   : 5
    <22f>   DW_AT_decl_line   : 78
    <230>   DW_AT_decl_column : 15
    <231>   DW_AT_type        : <0x57>
    <235>   DW_AT_data_member_location: 130
 <2><236>: Abbrev Number: 9 (DW_TAG_member)
    <237>   DW_AT_name        : (indirect string, offset: 0x22a): _shortbuf
    <23b>   DW_AT_decl_file   : 5
    <23c>   DW_AT_decl_line   : 79
    <23d>   DW_AT_decl_column : 8
    <23e>   DW_AT_type        : <0x2de>
    <242>   DW_AT_data_member_location: 131
 <2><243>: Abbrev Number: 9 (DW_TAG_member)
    <244>   DW_AT_name        : (indirect string, offset: 0x311): _lock
    <248>   DW_AT_decl_file   : 5
    <249>   DW_AT_decl_line   : 81
    <24a>   DW_AT_decl_column : 15
    <24b>   DW_AT_type        : <0x2ee>
    <24f>   DW_AT_data_member_location: 136
 <2><250>: Abbrev Number: 9 (DW_TAG_member)
    <251>   DW_AT_name        : (indirect string, offset: 0x1e30): _offset
    <255>   DW_AT_decl_file   : 5
    <256>   DW_AT_decl_line   : 89
    <257>   DW_AT_decl_column : 13
    <258>   DW_AT_type        : <0xd3>
    <25c>   DW_AT_data_member_location: 144
 <2><25d>: Abbrev Number: 9 (DW_TAG_member)
    <25e>   DW_AT_name        : (indirect string, offset: 0x14c2): _codecvt
    <262>   DW_AT_decl_file   : 5
    <263>   DW_AT_decl_line   : 91
    <264>   DW_AT_decl_column : 23
    <265>   DW_AT_type        : <0x2f9>
    <269>   DW_AT_data_member_location: 152
 <2><26a>: Abbrev Number: 9 (DW_TAG_member)
    <26b>   DW_AT_name        : (indirect string, offset: 0x16d5): _wide_data
    <26f>   DW_AT_decl_file   : 5
    <270>   DW_AT_decl_line   : 92
    <271>   DW_AT_decl_column : 25
    <272>   DW_AT_type        : <0x304>
    <276>   DW_AT_data_member_location: 160
 <2><277>: Abbrev Number: 9 (DW_TAG_member)
    <278>   DW_AT_name        : (indirect string, offset: 0x1d57): _freeres_list
    <27c>   DW_AT_decl_file   : 5
    <27d>   DW_AT_decl_line   : 93
    <27e>   DW_AT_decl_column : 20
    <27f>   DW_AT_type        : <0x2d8>
    <283>   DW_AT_data_member_location: 168
 <2><284>: Abbrev Number: 9 (DW_TAG_member)
    <285>   DW_AT_name        : (indirect string, offset: 0x1bbb): _freeres_buf
    <289>   DW_AT_decl_file   : 5
    <28a>   DW_AT_decl_line   : 94
    <28b>   DW_AT_decl_column : 9
    <28c>   DW_AT_type        : <0x47>
    <290>   DW_AT_data_member_location: 176
 <2><291>: Abbrev Number: 9 (DW_TAG_member)
    <292>   DW_AT_name        : (indirect string, offset: 0x187b): __pad5
    <296>   DW_AT_decl_file   : 5
    <297>   DW_AT_decl_line   : 95
    <298>   DW_AT_decl_column : 10
    <299>   DW_AT_type        : <0x2d>
    <29d>   DW_AT_data_member_location: 184
 <2><29e>: Abbrev Number: 9 (DW_TAG_member)
    <29f>   DW_AT_name        : (indirect string, offset: 0x150): _mode
    <2a3>   DW_AT_decl_file   : 5
    <2a4>   DW_AT_decl_line   : 96
    <2a5>   DW_AT_decl_column : 7
    <2a6>   DW_AT_type        : <0x65>
    <2aa>   DW_AT_data_member_location: 192
 <2><2ab>: Abbrev Number: 9 (DW_TAG_member)
    <2ac>   DW_AT_name        : (indirect string, offset: 0x17): _unused2
    <2b0>   DW_AT_decl_file   : 5
    <2b1>   DW_AT_decl_line   : 98
    <2b2>   DW_AT_decl_column : 8
    <2b3>   DW_AT_type        : <0x30a>
    <2b7>   DW_AT_data_member_location: 196
 <2><2b8>: Abbrev Number: 0
 <1><2b9>: Abbrev Number: 2 (DW_TAG_typedef)
    <2ba>   DW_AT_name        : (indirect string, offset: 0x16cd): FILE
    <2be>   DW_AT_decl_file   : 6
    <2bf>   DW_AT_decl_line   : 7
    <2c0>   DW_AT_decl_column : 25
    <2c1>   DW_AT_type        : <0x132>
 <1><2c5>: Abbrev Number: 10 (DW_TAG_typedef)
    <2c6>   DW_AT_name        : (indirect string, offset: 0x813): _IO_lock_t
    <2ca>   DW_AT_decl_file   : 5
    <2cb>   DW_AT_decl_line   : 43
    <2cc>   DW_AT_decl_column : 14
 <1><2cd>: Abbrev Number: 11 (DW_TAG_structure_type)
    <2ce>   DW_AT_name        : (indirect string, offset: 0x143e): _IO_marker
    <2d2>   DW_AT_declaration : 1
 <1><2d2>: Abbrev Number: 6 (DW_TAG_pointer_type)
    <2d3>   DW_AT_byte_size   : 8
    <2d4>   DW_AT_type        : <0x2cd>
 <1><2d8>: Abbrev Number: 6 (DW_TAG_pointer_type)
    <2d9>   DW_AT_byte_size   : 8
    <2da>   DW_AT_type        : <0x132>
 <1><2de>: Abbrev Number: 12 (DW_TAG_array_type)
    <2df>   DW_AT_type        : <0x126>
    <2e3>   DW_AT_sibling     : <0x2ee>
 <2><2e7>: Abbrev Number: 13 (DW_TAG_subrange_type)
    <2e8>   DW_AT_type        : <0x39>
    <2ec>   DW_AT_upper_bound : 0
 <2><2ed>: Abbrev Number: 0
 <1><2ee>: Abbrev Number: 6 (DW_TAG_pointer_type)
    <2ef>   DW_AT_byte_size   : 8
    <2f0>   DW_AT_type        : <0x2c5>
 <1><2f4>: Abbrev Number: 11 (DW_TAG_structure_type)
    <2f5>   DW_AT_name        : (indirect string, offset: 0x14bf): _IO_codecvt
    <2f9>   DW_AT_declaration : 1
 <1><2f9>: Abbrev Number: 6 (DW_TAG_pointer_type)
    <2fa>   DW_AT_byte_size   : 8
    <2fb>   DW_AT_type        : <0x2f4>
 <1><2ff>: Abbrev Number: 11 (DW_TAG_structure_type)
    <300>   DW_AT_name        : (indirect string, offset: 0x16d2): _IO_wide_data
    <304>   DW_AT_declaration : 1
 <1><304>: Abbrev Number: 6 (DW_TAG_pointer_type)
    <305>   DW_AT_byte_size   : 8
    <306>   DW_AT_type        : <0x2ff>
 <1><30a>: Abbrev Number: 12 (DW_TAG_array_type)
    <30b>   DW_AT_type        : <0x126>
    <30f>   DW_AT_sibling     : <0x31a>
 <2><313>: Abbrev Number: 13 (DW_TAG_subrange_type)
    <314>   DW_AT_type        : <0x39>
    <318>   DW_AT_upper_bound : 19
 <2><319>: Abbrev Number: 0
 <1><31a>: Abbrev Number: 6 (DW_TAG_pointer_type)
    <31b>   DW_AT_byte_size   : 8
    <31c>   DW_AT_type        : <0x12d>
 <1><320>: Abbrev Number: 7 (DW_TAG_const_type)
    <321>   DW_AT_type        : <0x31a>
 <1><325>: Abbrev Number: 14 (DW_TAG_restrict_type)
    <326>   DW_AT_type        : <0x31a>
 <1><32a>: Abbrev Number: 2 (DW_TAG_typedef)
    <32b>   DW_AT_name        : (indirect string, offset: 0xe2d): ssize_t
    <32f>   DW_AT_decl_file   : 7
    <330>   DW_AT_decl_line   : 77
    <331>   DW_AT_decl_column : 19
    <332>   DW_AT_type        : <0x103>
 <1><336>: Abbrev Number: 15 (DW_TAG_variable)
    <337>   DW_AT_name        : (indirect string, offset: 0x1638): stdin
    <33b>   DW_AT_decl_file   : 7
    <33c>   DW_AT_decl_line   : 137
    <33d>   DW_AT_decl_column : 14
    <33e>   DW_AT_type        : <0x342>
    <342>   DW_AT_external    : 1
    <342>   DW_AT_declaration : 1
 <1><342>: Abbrev Number: 6 (DW_TAG_pointer_type)
    <343>   DW_AT_byte_size   : 8
    <344>   DW_AT_type        : <0x2b9>
 <1><348>: Abbrev Number: 14 (DW_TAG_restrict_type)
    <349>   DW_AT_type        : <0x342>
 <1><34d>: Abbrev Number: 15 (DW_TAG_variable)
    <34e>   DW_AT_name        : (indirect string, offset: 0x1228): stdout
    <352>   DW_AT_decl_file   : 7
    <353>   DW_AT_decl_line   : 138
    <354>   DW_AT_decl_column : 14
    <355>   DW_AT_type        : <0x342>
    <359>   DW_AT_external    : 1
    <359>   DW_AT_declaration : 1
 <1><359>: Abbrev Number: 15 (DW_TAG_variable)
    <35a>   DW_AT_name        : (indirect string, offset: 0xf6d): stderr
    <35e>   DW_AT_decl_file   : 7
    <35f>   DW_AT_decl_line   : 139
    <360>   DW_AT_decl_column : 14
    <361>   DW_AT_type        : <0x342>
    <365>   DW_AT_external    : 1
    <365>   DW_AT_declaration : 1
 <1><365>: Abbrev Number: 2 (DW_TAG_typedef)
    <366>   DW_AT_name        : (indirect string, offset: 0x11a3): ptrdiff_t
    <36a>   DW_AT_decl_file   : 3
    <36b>   DW_AT_decl_line   : 143
    <36c>   DW_AT_decl_column : 26
    <36d>   DW_AT_type        : <0x6c>
 <1><371>: Abbrev Number: 3 (DW_TAG_base_type)
    <372>   DW_AT_byte_size   : 8
    <373>   DW_AT_encoding    : 5	(signed)
    <374>   DW_AT_name        : (indirect string, offset: 0x1e9f): long long int
 <1><378>: Abbrev Number: 3 (DW_TAG_base_type)
    <379>   DW_AT_byte_size   : 16
    <37a>   DW_AT_encoding    : 4	(float)
    <37b>   DW_AT_name        : (indirect string, offset: 0x1507): long double
 <1><37f>: Abbrev Number: 2 (DW_TAG_typedef)
    <380>   DW_AT_name        : (indirect string, offset: 0x104c): time_t
    <384>   DW_AT_decl_file   : 8
    <385>   DW_AT_decl_line   : 7
    <386>   DW_AT_decl_column : 18
    <387>   DW_AT_type        : <0xdf>
 <1><38b>: Abbrev Number: 7 (DW_TAG_const_type)
    <38c>   DW_AT_type        : <0x37f>
 <1><390>: Abbrev Number: 8 (DW_TAG_structure_type)
    <391>   DW_AT_name        : (indirect string, offset: 0x2d7d): timespec
    <395>   DW_AT_byte_size   : 16
    <396>   DW_AT_decl_file   : 9
    <397>   DW_AT_decl_line   : 10
    <398>   DW_AT_decl_column : 8
    <399>   DW_AT_sibling     : <0x3b8>
 <2><39d>: Abbrev Number: 9 (DW_TAG_member)
    <39e>   DW_AT_name        : (indirect string, offset: 0x1bc8): tv_sec
    <3a2>   DW_AT_decl_file   : 9
    <3a3>   DW_AT_decl_line   : 12
    <3a4>   DW_AT_decl_column : 12
    <3a5>   DW_AT_type        : <0xdf>
    <3a9>   DW_AT_data_member_location: 0
 <2><3aa>: Abbrev Number: 9 (DW_TAG_member)
    <3ab>   DW_AT_name        : (indirect string, offset: 0x1edc): tv_nsec
    <3af>   DW_AT_decl_file   : 9
    <3b0>   DW_AT_decl_line   : 16
    <3b1>   DW_AT_decl_column : 21
    <3b2>   DW_AT_type        : <0x10f>
    <3b6>   DW_AT_data_member_location: 8
 <2><3b7>: Abbrev Number: 0
 <1><3b8>: Abbrev Number: 7 (DW_TAG_const_type)
    <3b9>   DW_AT_type        : <0x390>
 <1><3bd>: Abbrev Number: 3 (DW_TAG_base_type)
    <3be>   DW_AT_byte_size   : 8
    <3bf>   DW_AT_encoding    : 7	(unsigned)
    <3c0>   DW_AT_name        : (indirect string, offset: 0x1bf1): long long unsigned int
 <1><3c4>: Abbrev Number: 15 (DW_TAG_variable)
    <3c5>   DW_AT_name        : (indirect string, offset: 0x63b): optarg
    <3c9>   DW_AT_decl_file   : 10
    <3ca>   DW_AT_decl_line   : 36
    <3cb>   DW_AT_decl_column : 14
    <3cc>   DW_AT_type        : <0x11b>
    <3d0>   DW_AT_external    : 1
    <3d0>   DW_AT_declaration : 1
 <1><3d0>: Abbrev Number: 15 (DW_TAG_variable)
    <3d1>   DW_AT_name        : (indirect string, offset: 0x1e98): optind
    <3d5>   DW_AT_decl_file   : 10
    <3d6>   DW_AT_decl_line   : 50
    <3d7>   DW_AT_decl_column : 12
    <3d8>   DW_AT_type        : <0x65>
    <3dc>   DW_AT_external    : 1
    <3dc>   DW_AT_declaration : 1
 <1><3dc>: Abbrev Number: 8 (DW_TAG_structure_type)
    <3dd>   DW_AT_name        : (indirect string, offset: 0x1f04): option
    <3e1>   DW_AT_byte_size   : 32
    <3e2>   DW_AT_decl_file   : 11
    <3e3>   DW_AT_decl_line   : 50
    <3e4>   DW_AT_decl_column : 8
    <3e5>   DW_AT_sibling     : <0x41e>
 <2><3e9>: Abbrev Number: 9 (DW_TAG_member)
    <3ea>   DW_AT_name        : (indirect string, offset: 0x3d1e): name
    <3ee>   DW_AT_decl_file   : 11
    <3ef>   DW_AT_decl_line   : 52
    <3f0>   DW_AT_decl_column : 15
    <3f1>   DW_AT_type        : <0x31a>
    <3f5>   DW_AT_data_member_location: 0
 <2><3f6>: Abbrev Number: 9 (DW_TAG_member)
    <3f7>   DW_AT_name        : (indirect string, offset: 0x363): has_arg
    <3fb>   DW_AT_decl_file   : 11
    <3fc>   DW_AT_decl_line   : 55
    <3fd>   DW_AT_decl_column : 7
    <3fe>   DW_AT_type        : <0x65>
    <402>   DW_AT_data_member_location: 8
 <2><403>: Abbrev Number: 9 (DW_TAG_member)
    <404>   DW_AT_name        : (indirect string, offset: 0xfcd): flag
    <408>   DW_AT_decl_file   : 11
    <409>   DW_AT_decl_line   : 56
    <40a>   DW_AT_decl_column : 8
    <40b>   DW_AT_type        : <0x423>
    <40f>   DW_AT_data_member_location: 16
 <2><410>: Abbrev Number: 16 (DW_TAG_member)
    <411>   DW_AT_name        : val
    <415>   DW_AT_decl_file   : 11
    <416>   DW_AT_decl_line   : 57
    <417>   DW_AT_decl_column : 7
    <418>   DW_AT_type        : <0x65>
    <41c>   DW_AT_data_member_location: 24
 <2><41d>: Abbrev Number: 0
 <1><41e>: Abbrev Number: 7 (DW_TAG_const_type)
    <41f>   DW_AT_type        : <0x3dc>
 <1><423>: Abbrev Number: 6 (DW_TAG_pointer_type)
    <424>   DW_AT_byte_size   : 8
    <425>   DW_AT_type        : <0x65>
 <1><429>: Abbrev Number: 2 (DW_TAG_typedef)
    <42a>   DW_AT_name        : (indirect string, offset: 0x56e): nl_item
    <42e>   DW_AT_decl_file   : 12
    <42f>   DW_AT_decl_line   : 36
    <430>   DW_AT_decl_column : 13
    <431>   DW_AT_type        : <0x65>
 <1><435>: Abbrev Number: 17 (DW_TAG_enumeration_type)
    <436>   DW_AT_encoding    : 7	(unsigned)
    <437>   DW_AT_byte_size   : 4
    <438>   DW_AT_type        : <0x40>
    <43c>   DW_AT_decl_file   : 18
    <43d>   DW_AT_decl_line   : 42
    <43e>   DW_AT_decl_column : 1
    <43f>   DW_AT_sibling     : <0x10b3>
 <2><443>: Abbrev Number: 18 (DW_TAG_enumerator)
    <444>   DW_AT_name        : (indirect string, offset: 0xfb8): ABDAY_1
    <448>   DW_AT_const_value : 0x20000
 <2><44c>: Abbrev Number: 18 (DW_TAG_enumerator)
    <44d>   DW_AT_name        : (indirect string, offset: 0xfc5): ABDAY_2
    <451>   DW_AT_const_value : 0x20001
 <2><455>: Abbrev Number: 18 (DW_TAG_enumerator)
    <456>   DW_AT_name        : (indirect string, offset: 0xb37): ABDAY_3
    <45a>   DW_AT_const_value : 0x20002
 <2><45e>: Abbrev Number: 18 (DW_TAG_enumerator)
    <45f>   DW_AT_name        : (indirect string, offset: 0xfd7): ABDAY_4
    <463>   DW_AT_const_value : 0x20003
 <2><467>: Abbrev Number: 18 (DW_TAG_enumerator)
    <468>   DW_AT_name        : (indirect string, offset: 0xfe4): ABDAY_5
    <46c>   DW_AT_const_value : 0x20004
 <2><470>: Abbrev Number: 18 (DW_TAG_enumerator)
    <471>   DW_AT_name        : (indirect string, offset: 0xff1): ABDAY_6
    <475>   DW_AT_const_value : 0x20005
 <2><479>: Abbrev Number: 18 (DW_TAG_enumerator)
    <47a>   DW_AT_name        : (indirect string, offset: 0xffe): ABDAY_7
    <47e>   DW_AT_const_value : 0x20006
 <2><482>: Abbrev Number: 18 (DW_TAG_enumerator)
    <483>   DW_AT_name        : (indirect string, offset: 0xfba): DAY_1
    <487>   DW_AT_const_value : 0x20007
 <2><48b>: Abbrev Number: 18 (DW_TAG_enumerator)
    <48c>   DW_AT_name        : (indirect string, offset: 0xfc7): DAY_2
    <490>   DW_AT_const_value : 0x20008
 <2><494>: Abbrev Number: 18 (DW_TAG_enumerator)
    <495>   DW_AT_name        : (indirect string, offset: 0xb39): DAY_3
    <499>   DW_AT_const_value : 0x20009
 <2><49d>: Abbrev Number: 18 (DW_TAG_enumerator)
    <49e>   DW_AT_name        : (indirect string, offset: 0xfd9): DAY_4
    <4a2>   DW_AT_const_value : 0x2000a
 <2><4a6>: Abbrev Number: 18 (DW_TAG_enumerator)
    <4a7>   DW_AT_name        : (indirect string, offset: 0xfe6): DAY_5
    <4ab>   DW_AT_const_value : 0x2000b
 <2><4af>: Abbrev Number: 18 (DW_TAG_enumerator)
    <4b0>   DW_AT_name        : (indirect string, offset: 0xff3): DAY_6
    <4b4>   DW_AT_const_value : 0x2000c
 <2><4b8>: Abbrev Number: 18 (DW_TAG_enumerator)
    <4b9>   DW_AT_name        : (indirect string, offset: 0x1000): DAY_7
    <4bd>   DW_AT_const_value : 0x2000d
 <2><4c1>: Abbrev Number: 18 (DW_TAG_enumerator)
    <4c2>   DW_AT_name        : (indirect string, offset: 0xde): ABMON_1
    <4c6>   DW_AT_const_value : 0x2000e
 <2><4ca>: Abbrev Number: 18 (DW_TAG_enumerator)
    <4cb>   DW_AT_name        : (indirect string, offset: 0xeb): ABMON_2
    <4cf>   DW_AT_const_value : 0x2000f
 <2><4d3>: Abbrev Number: 18 (DW_TAG_enumerator)
    <4d4>   DW_AT_name        : (indirect string, offset: 0xf8): ABMON_3
    <4d8>   DW_AT_const_value : 0x20010
 <2><4dc>: Abbrev Number: 18 (DW_TAG_enumerator)
    <4dd>   DW_AT_name        : (indirect string, offset: 0x105): ABMON_4
    <4e1>   DW_AT_const_value : 0x20011
 <2><4e5>: Abbrev Number: 18 (DW_TAG_enumerator)
    <4e6>   DW_AT_name        : (indirect string, offset: 0x112): ABMON_5
    <4ea>   DW_AT_const_value : 0x20012
 <2><4ee>: Abbrev Number: 18 (DW_TAG_enumerator)
    <4ef>   DW_AT_name        : (indirect string, offset: 0x11f): ABMON_6
    <4f3>   DW_AT_const_value : 0x20013
 <2><4f7>: Abbrev Number: 18 (DW_TAG_enumerator)
    <4f8>   DW_AT_name        : (indirect string, offset: 0x12c): ABMON_7
    <4fc>   DW_AT_const_value : 0x20014
 <2><500>: Abbrev Number: 18 (DW_TAG_enumerator)
    <501>   DW_AT_name        : (indirect string, offset: 0x139): ABMON_8
    <505>   DW_AT_const_value : 0x20015
 <2><509>: Abbrev Number: 18 (DW_TAG_enumerator)
    <50a>   DW_AT_name        : (indirect string, offset: 0x146): ABMON_9
    <50e>   DW_AT_const_value : 0x20016
 <2><512>: Abbrev Number: 18 (DW_TAG_enumerator)
    <513>   DW_AT_name        : (indirect string, offset: 0x17f): ABMON_10
    <517>   DW_AT_const_value : 0x20017
 <2><51b>: Abbrev Number: 18 (DW_TAG_enumerator)
    <51c>   DW_AT_name        : (indirect string, offset: 0x18d): ABMON_11
    <520>   DW_AT_const_value : 0x20018
 <2><524>: Abbrev Number: 18 (DW_TAG_enumerator)
    <525>   DW_AT_name        : (indirect string, offset: 0x19b): ABMON_12
    <529>   DW_AT_const_value : 0x20019
 <2><52d>: Abbrev Number: 18 (DW_TAG_enumerator)
    <52e>   DW_AT_name        : (indirect string, offset: 0xe0): MON_1
    <532>   DW_AT_const_value : 0x2001a
 <2><536>: Abbrev Number: 18 (DW_TAG_enumerator)
    <537>   DW_AT_name        : (indirect string, offset: 0xed): MON_2
    <53b>   DW_AT_const_value : 0x2001b
 <2><53f>: Abbrev Number: 18 (DW_TAG_enumerator)
    <540>   DW_AT_name        : (indirect string, offset: 0xfa): MON_3
    <544>   DW_AT_const_value : 0x2001c
 <2><548>: Abbrev Number: 18 (DW_TAG_enumerator)
    <549>   DW_AT_name        : (indirect string, offset: 0x107): MON_4
    <54d>   DW_AT_const_value : 0x2001d
 <2><551>: Abbrev Number: 18 (DW_TAG_enumerator)
    <552>   DW_AT_name        : (indirect string, offset: 0x114): MON_5
    <556>   DW_AT_const_value : 0x2001e
 <2><55a>: Abbrev Number: 18 (DW_TAG_enumerator)
    <55b>   DW_AT_name        : (indirect string, offset: 0x121): MON_6
    <55f>   DW_AT_const_value : 0x2001f
 <2><563>: Abbrev Number: 18 (DW_TAG_enumerator)
    <564>   DW_AT_name        : (indirect string, offset: 0x12e): MON_7
    <568>   DW_AT_const_value : 0x20020
 <2><56c>: Abbrev Number: 18 (DW_TAG_enumerator)
    <56d>   DW_AT_name        : (indirect string, offset: 0x13b): MON_8
    <571>   DW_AT_const_value : 0x20021
 <2><575>: Abbrev Number: 18 (DW_TAG_enumerator)
    <576>   DW_AT_name        : (indirect string, offset: 0x148): MON_9
    <57a>   DW_AT_const_value : 0x20022
 <2><57e>: Abbrev Number: 18 (DW_TAG_enumerator)
    <57f>   DW_AT_name        : (indirect string, offset: 0x181): MON_10
    <583>   DW_AT_const_value : 0x20023
 <2><587>: Abbrev Number: 18 (DW_TAG_enumerator)
    <588>   DW_AT_name        : (indirect string, offset: 0x18f): MON_11
    <58c>   DW_AT_const_value : 0x20024
 <2><590>: Abbrev Number: 18 (DW_TAG_enumerator)
    <591>   DW_AT_name        : (indirect string, offset: 0x19d): MON_12
    <595>   DW_AT_const_value : 0x20025
 <2><599>: Abbrev Number: 18 (DW_TAG_enumerator)
    <59a>   DW_AT_name        : (indirect string, offset: 0xe05): AM_STR
    <59e>   DW_AT_const_value : 0x20026
 <2><5a2>: Abbrev Number: 18 (DW_TAG_enumerator)
    <5a3>   DW_AT_name        : (indirect string, offset: 0xcfd): PM_STR
    <5a7>   DW_AT_const_value : 0x20027
 <2><5ab>: Abbrev Number: 18 (DW_TAG_enumerator)
    <5ac>   DW_AT_name        : (indirect string, offset: 0xe3a): D_T_FMT
    <5b0>   DW_AT_const_value : 0x20028
 <2><5b4>: Abbrev Number: 18 (DW_TAG_enumerator)
    <5b5>   DW_AT_name        : (indirect string, offset: 0x5af): D_FMT
    <5b9>   DW_AT_const_value : 0x20029
 <2><5bd>: Abbrev Number: 18 (DW_TAG_enumerator)
    <5be>   DW_AT_name        : (indirect string, offset: 0x2e1): T_FMT
    <5c2>   DW_AT_const_value : 0x2002a
 <2><5c6>: Abbrev Number: 18 (DW_TAG_enumerator)
    <5c7>   DW_AT_name        : (indirect string, offset: 0x156d): T_FMT_AMPM
    <5cb>   DW_AT_const_value : 0x2002b
 <2><5cf>: Abbrev Number: 19 (DW_TAG_enumerator)
    <5d0>   DW_AT_name        : ERA
    <5d4>   DW_AT_const_value : 0x2002c
 <2><5d8>: Abbrev Number: 18 (DW_TAG_enumerator)
    <5d9>   DW_AT_name        : (indirect string, offset: 0xbb6): __ERA_YEAR
    <5dd>   DW_AT_const_value : 0x2002d
 <2><5e1>: Abbrev Number: 18 (DW_TAG_enumerator)
    <5e2>   DW_AT_name        : (indirect string, offset: 0x1287): ERA_D_FMT
    <5e6>   DW_AT_const_value : 0x2002e
 <2><5ea>: Abbrev Number: 18 (DW_TAG_enumerator)
    <5eb>   DW_AT_name        : (indirect string, offset: 0x1afa): ALT_DIGITS
    <5ef>   DW_AT_const_value : 0x2002f
 <2><5f3>: Abbrev Number: 18 (DW_TAG_enumerator)
    <5f4>   DW_AT_name        : (indirect string, offset: 0x1d6a): ERA_D_T_FMT
    <5f8>   DW_AT_const_value : 0x20030
 <2><5fc>: Abbrev Number: 18 (DW_TAG_enumerator)
    <5fd>   DW_AT_name        : (indirect string, offset: 0x12bf): ERA_T_FMT
    <601>   DW_AT_const_value : 0x20031
 <2><605>: Abbrev Number: 18 (DW_TAG_enumerator)
    <606>   DW_AT_name        : (indirect string, offset: 0x1710): _NL_TIME_ERA_NUM_ENTRIES
    <60a>   DW_AT_const_value : 0x20032
 <2><60e>: Abbrev Number: 18 (DW_TAG_enumerator)
    <60f>   DW_AT_name        : (indirect string, offset: 0x11ad): _NL_TIME_ERA_ENTRIES
    <613>   DW_AT_const_value : 0x20033
 <2><617>: Abbrev Number: 18 (DW_TAG_enumerator)
    <618>   DW_AT_name        : (indirect string, offset: 0xfb3): _NL_WABDAY_1
    <61c>   DW_AT_const_value : 0x20034
 <2><620>: Abbrev Number: 18 (DW_TAG_enumerator)
    <621>   DW_AT_name        : (indirect string, offset: 0xfc0): _NL_WABDAY_2
    <625>   DW_AT_const_value : 0x20035
 <2><629>: Abbrev Number: 18 (DW_TAG_enumerator)
    <62a>   DW_AT_name        : (indirect string, offset: 0xb32): _NL_WABDAY_3
    <62e>   DW_AT_const_value : 0x20036
 <2><632>: Abbrev Number: 18 (DW_TAG_enumerator)
    <633>   DW_AT_name        : (indirect string, offset: 0xfd2): _NL_WABDAY_4
    <637>   DW_AT_const_value : 0x20037
 <2><63b>: Abbrev Number: 18 (DW_TAG_enumerator)
    <63c>   DW_AT_name        : (indirect string, offset: 0xfdf): _NL_WABDAY_5
    <640>   DW_AT_const_value : 0x20038
 <2><644>: Abbrev Number: 18 (DW_TAG_enumerator)
    <645>   DW_AT_name        : (indirect string, offset: 0xfec): _NL_WABDAY_6
    <649>   DW_AT_const_value : 0x20039
 <2><64d>: Abbrev Number: 18 (DW_TAG_enumerator)
    <64e>   DW_AT_name        : (indirect string, offset: 0xff9): _NL_WABDAY_7
    <652>   DW_AT_const_value : 0x2003a
 <2><656>: Abbrev Number: 18 (DW_TAG_enumerator)
    <657>   DW_AT_name        : (indirect string, offset: 0x1b15): _NL_WDAY_1
    <65b>   DW_AT_const_value : 0x2003b
 <2><65f>: Abbrev Number: 18 (DW_TAG_enumerator)
    <660>   DW_AT_name        : (indirect string, offset: 0x1b20): _NL_WDAY_2
    <664>   DW_AT_const_value : 0x2003c
 <2><668>: Abbrev Number: 18 (DW_TAG_enumerator)
    <669>   DW_AT_name        : (indirect string, offset: 0x1b2b): _NL_WDAY_3
    <66d>   DW_AT_const_value : 0x2003d
 <2><671>: Abbrev Number: 18 (DW_TAG_enumerator)
    <672>   DW_AT_name        : (indirect string, offset: 0x1b36): _NL_WDAY_4
    <676>   DW_AT_const_value : 0x2003e
 <2><67a>: Abbrev Number: 18 (DW_TAG_enumerator)
    <67b>   DW_AT_name        : (indirect string, offset: 0x1b41): _NL_WDAY_5
    <67f>   DW_AT_const_value : 0x2003f
 <2><683>: Abbrev Number: 18 (DW_TAG_enumerator)
    <684>   DW_AT_name        : (indirect string, offset: 0x1b4c): _NL_WDAY_6
    <688>   DW_AT_const_value : 0x20040
 <2><68c>: Abbrev Number: 18 (DW_TAG_enumerator)
    <68d>   DW_AT_name        : (indirect string, offset: 0x1b57): _NL_WDAY_7
    <691>   DW_AT_const_value : 0x20041
 <2><695>: Abbrev Number: 18 (DW_TAG_enumerator)
    <696>   DW_AT_name        : (indirect string, offset: 0xd9): _NL_WABMON_1
    <69a>   DW_AT_const_value : 0x20042
 <2><69e>: Abbrev Number: 18 (DW_TAG_enumerator)
    <69f>   DW_AT_name        : (indirect string, offset: 0xe6): _NL_WABMON_2
    <6a3>   DW_AT_const_value : 0x20043
 <2><6a7>: Abbrev Number: 18 (DW_TAG_enumerator)
    <6a8>   DW_AT_name        : (indirect string, offset: 0xf3): _NL_WABMON_3
    <6ac>   DW_AT_const_value : 0x20044
 <2><6b0>: Abbrev Number: 18 (DW_TAG_enumerator)
    <6b1>   DW_AT_name        : (indirect string, offset: 0x100): _NL_WABMON_4
    <6b5>   DW_AT_const_value : 0x20045
 <2><6b9>: Abbrev Number: 18 (DW_TAG_enumerator)
    <6ba>   DW_AT_name        : (indirect string, offset: 0x10d): _NL_WABMON_5
    <6be>   DW_AT_const_value : 0x20046
 <2><6c2>: Abbrev Number: 18 (DW_TAG_enumerator)
    <6c3>   DW_AT_name        : (indirect string, offset: 0x11a): _NL_WABMON_6
    <6c7>   DW_AT_const_value : 0x20047
 <2><6cb>: Abbrev Number: 18 (DW_TAG_enumerator)
    <6cc>   DW_AT_name        : (indirect string, offset: 0x127): _NL_WABMON_7
    <6d0>   DW_AT_const_value : 0x20048
 <2><6d4>: Abbrev Number: 18 (DW_TAG_enumerator)
    <6d5>   DW_AT_name        : (indirect string, offset: 0x134): _NL_WABMON_8
    <6d9>   DW_AT_const_value : 0x20049
 <2><6dd>: Abbrev Number: 18 (DW_TAG_enumerator)
    <6de>   DW_AT_name        : (indirect string, offset: 0x141): _NL_WABMON_9
    <6e2>   DW_AT_const_value : 0x2004a
 <2><6e6>: Abbrev Number: 18 (DW_TAG_enumerator)
    <6e7>   DW_AT_name        : (indirect string, offset: 0x17a): _NL_WABMON_10
    <6eb>   DW_AT_const_value : 0x2004b
 <2><6ef>: Abbrev Number: 18 (DW_TAG_enumerator)
    <6f0>   DW_AT_name        : (indirect string, offset: 0x188): _NL_WABMON_11
    <6f4>   DW_AT_const_value : 0x2004c
 <2><6f8>: Abbrev Number: 18 (DW_TAG_enumerator)
    <6f9>   DW_AT_name        : (indirect string, offset: 0x196): _NL_WABMON_12
    <6fd>   DW_AT_const_value : 0x2004d
 <2><701>: Abbrev Number: 18 (DW_TAG_enumerator)
    <702>   DW_AT_name        : (indirect string, offset: 0x9f7): _NL_WMON_1
    <706>   DW_AT_const_value : 0x2004e
 <2><70a>: Abbrev Number: 18 (DW_TAG_enumerator)
    <70b>   DW_AT_name        : (indirect string, offset: 0xa02): _NL_WMON_2
    <70f>   DW_AT_const_value : 0x2004f
 <2><713>: Abbrev Number: 18 (DW_TAG_enumerator)
    <714>   DW_AT_name        : (indirect string, offset: 0xa0d): _NL_WMON_3
    <718>   DW_AT_const_value : 0x20050
 <2><71c>: Abbrev Number: 18 (DW_TAG_enumerator)
    <71d>   DW_AT_name        : (indirect string, offset: 0xa18): _NL_WMON_4
    <721>   DW_AT_const_value : 0x20051
 <2><725>: Abbrev Number: 18 (DW_TAG_enumerator)
    <726>   DW_AT_name        : (indirect string, offset: 0xa23): _NL_WMON_5
    <72a>   DW_AT_const_value : 0x20052
 <2><72e>: Abbrev Number: 18 (DW_TAG_enumerator)
    <72f>   DW_AT_name        : (indirect string, offset: 0xa2e): _NL_WMON_6
    <733>   DW_AT_const_value : 0x20053
 <2><737>: Abbrev Number: 18 (DW_TAG_enumerator)
    <738>   DW_AT_name        : (indirect string, offset: 0xa39): _NL_WMON_7
    <73c>   DW_AT_const_value : 0x20054
 <2><740>: Abbrev Number: 18 (DW_TAG_enumerator)
    <741>   DW_AT_name        : (indirect string, offset: 0xa44): _NL_WMON_8
    <745>   DW_AT_const_value : 0x20055
 <2><749>: Abbrev Number: 18 (DW_TAG_enumerator)
    <74a>   DW_AT_name        : (indirect string, offset: 0xa4f): _NL_WMON_9
    <74e>   DW_AT_const_value : 0x20056
 <2><752>: Abbrev Number: 18 (DW_TAG_enumerator)
    <753>   DW_AT_name        : (indirect string, offset: 0x156): _NL_WMON_10
    <757>   DW_AT_const_value : 0x20057
 <2><75b>: Abbrev Number: 18 (DW_TAG_enumerator)
    <75c>   DW_AT_name        : (indirect string, offset: 0x162): _NL_WMON_11
    <760>   DW_AT_const_value : 0x20058
 <2><764>: Abbrev Number: 18 (DW_TAG_enumerator)
    <765>   DW_AT_name        : (indirect string, offset: 0x16e): _NL_WMON_12
    <769>   DW_AT_const_value : 0x20059
 <2><76d>: Abbrev Number: 18 (DW_TAG_enumerator)
    <76e>   DW_AT_name        : (indirect string, offset: 0xe00): _NL_WAM_STR
    <772>   DW_AT_const_value : 0x2005a
 <2><776>: Abbrev Number: 18 (DW_TAG_enumerator)
    <777>   DW_AT_name        : (indirect string, offset: 0xcf8): _NL_WPM_STR
    <77b>   DW_AT_const_value : 0x2005b
 <2><77f>: Abbrev Number: 18 (DW_TAG_enumerator)
    <780>   DW_AT_name        : (indirect string, offset: 0xe35): _NL_WD_T_FMT
    <784>   DW_AT_const_value : 0x2005c
 <2><788>: Abbrev Number: 18 (DW_TAG_enumerator)
    <789>   DW_AT_name        : (indirect string, offset: 0x5aa): _NL_WD_FMT
    <78d>   DW_AT_const_value : 0x2005d
 <2><791>: Abbrev Number: 18 (DW_TAG_enumerator)
    <792>   DW_AT_name        : (indirect string, offset: 0x5ce): _NL_WT_FMT
    <796>   DW_AT_const_value : 0x2005e
 <2><79a>: Abbrev Number: 18 (DW_TAG_enumerator)
    <79b>   DW_AT_name        : (indirect string, offset: 0x1568): _NL_WT_FMT_AMPM
    <79f>   DW_AT_const_value : 0x2005f
 <2><7a3>: Abbrev Number: 18 (DW_TAG_enumerator)
    <7a4>   DW_AT_name        : (indirect string, offset: 0x1be3): _NL_WERA_YEAR
    <7a8>   DW_AT_const_value : 0x20060
 <2><7ac>: Abbrev Number: 18 (DW_TAG_enumerator)
    <7ad>   DW_AT_name        : (indirect string, offset: 0x1282): _NL_WERA_D_FMT
    <7b1>   DW_AT_const_value : 0x20061
 <2><7b5>: Abbrev Number: 18 (DW_TAG_enumerator)
    <7b6>   DW_AT_name        : (indirect string, offset: 0x1af5): _NL_WALT_DIGITS
    <7ba>   DW_AT_const_value : 0x20062
 <2><7be>: Abbrev Number: 18 (DW_TAG_enumerator)
    <7bf>   DW_AT_name        : (indirect string, offset: 0x1d65): _NL_WERA_D_T_FMT
    <7c3>   DW_AT_const_value : 0x20063
 <2><7c7>: Abbrev Number: 18 (DW_TAG_enumerator)
    <7c8>   DW_AT_name        : (indirect string, offset: 0x12ba): _NL_WERA_T_FMT
    <7cc>   DW_AT_const_value : 0x20064
 <2><7d0>: Abbrev Number: 18 (DW_TAG_enumerator)
    <7d1>   DW_AT_name        : (indirect string, offset: 0x13f5): _NL_TIME_WEEK_NDAYS
    <7d5>   DW_AT_const_value : 0x20065
 <2><7d9>: Abbrev Number: 18 (DW_TAG_enumerator)
    <7da>   DW_AT_name        : (indirect string, offset: 0x1da): _NL_TIME_WEEK_1STDAY
    <7de>   DW_AT_const_value : 0x20066
 <2><7e2>: Abbrev Number: 18 (DW_TAG_enumerator)
    <7e3>   DW_AT_name        : (indirect string, offset: 0xa5a): _NL_TIME_WEEK_1STWEEK
    <7e7>   DW_AT_const_value : 0x20067
 <2><7eb>: Abbrev Number: 18 (DW_TAG_enumerator)
    <7ec>   DW_AT_name        : (indirect string, offset: 0xd3e): _NL_TIME_FIRST_WEEKDAY
    <7f0>   DW_AT_const_value : 0x20068
 <2><7f4>: Abbrev Number: 18 (DW_TAG_enumerator)
    <7f5>   DW_AT_name        : (indirect string, offset: 0x158f): _NL_TIME_FIRST_WORKDAY
    <7f9>   DW_AT_const_value : 0x20069
 <2><7fd>: Abbrev Number: 18 (DW_TAG_enumerator)
    <7fe>   DW_AT_name        : (indirect string, offset: 0x20): _NL_TIME_CAL_DIRECTION
    <802>   DW_AT_const_value : 0x2006a
 <2><806>: Abbrev Number: 18 (DW_TAG_enumerator)
    <807>   DW_AT_name        : (indirect string, offset: 0xf39): _NL_TIME_TIMEZONE
    <80b>   DW_AT_const_value : 0x2006b
 <2><80f>: Abbrev Number: 18 (DW_TAG_enumerator)
    <810>   DW_AT_name        : (indirect string, offset: 0x13cf): _DATE_FMT
    <814>   DW_AT_const_value : 0x2006c
 <2><818>: Abbrev Number: 18 (DW_TAG_enumerator)
    <819>   DW_AT_name        : (indirect string, offset: 0x13ca): _NL_W_DATE_FMT
    <81d>   DW_AT_const_value : 0x2006d
 <2><821>: Abbrev Number: 18 (DW_TAG_enumerator)
    <822>   DW_AT_name        : (indirect string, offset: 0x16f7): _NL_TIME_CODESET
    <826>   DW_AT_const_value : 0x2006e
 <2><82a>: Abbrev Number: 18 (DW_TAG_enumerator)
    <82b>   DW_AT_name        : (indirect string, offset: 0x1a87): __ALTMON_1
    <82f>   DW_AT_const_value : 0x2006f
 <2><833>: Abbrev Number: 18 (DW_TAG_enumerator)
    <834>   DW_AT_name        : (indirect string, offset: 0x1a92): __ALTMON_2
    <838>   DW_AT_const_value : 0x20070
 <2><83c>: Abbrev Number: 18 (DW_TAG_enumerator)
    <83d>   DW_AT_name        : (indirect string, offset: 0x1a9d): __ALTMON_3
    <841>   DW_AT_const_value : 0x20071
 <2><845>: Abbrev Number: 18 (DW_TAG_enumerator)
    <846>   DW_AT_name        : (indirect string, offset: 0x1aa8): __ALTMON_4
    <84a>   DW_AT_const_value : 0x20072
 <2><84e>: Abbrev Number: 18 (DW_TAG_enumerator)
    <84f>   DW_AT_name        : (indirect string, offset: 0x1ab3): __ALTMON_5
    <853>   DW_AT_const_value : 0x20073
 <2><857>: Abbrev Number: 18 (DW_TAG_enumerator)
    <858>   DW_AT_name        : (indirect string, offset: 0x1abe): __ALTMON_6
    <85c>   DW_AT_const_value : 0x20074
 <2><860>: Abbrev Number: 18 (DW_TAG_enumerator)
    <861>   DW_AT_name        : (indirect string, offset: 0x1ac9): __ALTMON_7
    <865>   DW_AT_const_value : 0x20075
 <2><869>: Abbrev Number: 18 (DW_TAG_enumerator)
    <86a>   DW_AT_name        : (indirect string, offset: 0x1ad4): __ALTMON_8
    <86e>   DW_AT_const_value : 0x20076
 <2><872>: Abbrev Number: 18 (DW_TAG_enumerator)
    <873>   DW_AT_name        : (indirect string, offset: 0x1adf): __ALTMON_9
    <877>   DW_AT_const_value : 0x20077
 <2><87b>: Abbrev Number: 18 (DW_TAG_enumerator)
    <87c>   DW_AT_name        : (indirect string, offset: 0x789): __ALTMON_10
    <880>   DW_AT_const_value : 0x20078
 <2><884>: Abbrev Number: 18 (DW_TAG_enumerator)
    <885>   DW_AT_name        : (indirect string, offset: 0x795): __ALTMON_11
    <889>   DW_AT_const_value : 0x20079
 <2><88d>: Abbrev Number: 18 (DW_TAG_enumerator)
    <88e>   DW_AT_name        : (indirect string, offset: 0x7a1): __ALTMON_12
    <892>   DW_AT_const_value : 0x2007a
 <2><896>: Abbrev Number: 18 (DW_TAG_enumerator)
    <897>   DW_AT_name        : (indirect string, offset: 0xa70): _NL_WALTMON_1
    <89b>   DW_AT_const_value : 0x2007b
 <2><89f>: Abbrev Number: 18 (DW_TAG_enumerator)
    <8a0>   DW_AT_name        : (indirect string, offset: 0xa7e): _NL_WALTMON_2
    <8a4>   DW_AT_const_value : 0x2007c
 <2><8a8>: Abbrev Number: 18 (DW_TAG_enumerator)
    <8a9>   DW_AT_name        : (indirect string, offset: 0xa8c): _NL_WALTMON_3
    <8ad>   DW_AT_const_value : 0x2007d
 <2><8b1>: Abbrev Number: 18 (DW_TAG_enumerator)
    <8b2>   DW_AT_name        : (indirect string, offset: 0xa9a): _NL_WALTMON_4
    <8b6>   DW_AT_const_value : 0x2007e
 <2><8ba>: Abbrev Number: 18 (DW_TAG_enumerator)
    <8bb>   DW_AT_name        : (indirect string, offset: 0xaa8): _NL_WALTMON_5
    <8bf>   DW_AT_const_value : 0x2007f
 <2><8c3>: Abbrev Number: 18 (DW_TAG_enumerator)
    <8c4>   DW_AT_name        : (indirect string, offset: 0xab6): _NL_WALTMON_6
    <8c8>   DW_AT_const_value : 0x20080
 <2><8cc>: Abbrev Number: 18 (DW_TAG_enumerator)
    <8cd>   DW_AT_name        : (indirect string, offset: 0xac4): _NL_WALTMON_7
    <8d1>   DW_AT_const_value : 0x20081
 <2><8d5>: Abbrev Number: 18 (DW_TAG_enumerator)
    <8d6>   DW_AT_name        : (indirect string, offset: 0xad2): _NL_WALTMON_8
    <8da>   DW_AT_const_value : 0x20082
 <2><8de>: Abbrev Number: 18 (DW_TAG_enumerator)
    <8df>   DW_AT_name        : (indirect string, offset: 0xae0): _NL_WALTMON_9
    <8e3>   DW_AT_const_value : 0x20083
 <2><8e7>: Abbrev Number: 18 (DW_TAG_enumerator)
    <8e8>   DW_AT_name        : (indirect string, offset: 0x18b0): _NL_WALTMON_10
    <8ec>   DW_AT_const_value : 0x20084
 <2><8f0>: Abbrev Number: 18 (DW_TAG_enumerator)
    <8f1>   DW_AT_name        : (indirect string, offset: 0x18bf): _NL_WALTMON_11
    <8f5>   DW_AT_const_value : 0x20085
 <2><8f9>: Abbrev Number: 18 (DW_TAG_enumerator)
    <8fa>   DW_AT_name        : (indirect string, offset: 0x18ce): _NL_WALTMON_12
    <8fe>   DW_AT_const_value : 0x20086
 <2><902>: Abbrev Number: 18 (DW_TAG_enumerator)
    <903>   DW_AT_name        : (indirect string, offset: 0x49): _NL_ABALTMON_1
    <907>   DW_AT_const_value : 0x20087
 <2><90b>: Abbrev Number: 18 (DW_TAG_enumerator)
    <90c>   DW_AT_name        : (indirect string, offset: 0x58): _NL_ABALTMON_2
    <910>   DW_AT_const_value : 0x20088
 <2><914>: Abbrev Number: 18 (DW_TAG_enumerator)
    <915>   DW_AT_name        : (indirect string, offset: 0x67): _NL_ABALTMON_3
    <919>   DW_AT_const_value : 0x20089
 <2><91d>: Abbrev Number: 18 (DW_TAG_enumerator)
    <91e>   DW_AT_name        : (indirect string, offset: 0x76): _NL_ABALTMON_4
    <922>   DW_AT_const_value : 0x2008a
 <2><926>: Abbrev Number: 18 (DW_TAG_enumerator)
    <927>   DW_AT_name        : (indirect string, offset: 0x85): _NL_ABALTMON_5
    <92b>   DW_AT_const_value : 0x2008b
 <2><92f>: Abbrev Number: 18 (DW_TAG_enumerator)
    <930>   DW_AT_name        : (indirect string, offset: 0x94): _NL_ABALTMON_6
    <934>   DW_AT_const_value : 0x2008c
 <2><938>: Abbrev Number: 18 (DW_TAG_enumerator)
    <939>   DW_AT_name        : (indirect string, offset: 0xa3): _NL_ABALTMON_7
    <93d>   DW_AT_const_value : 0x2008d
 <2><941>: Abbrev Number: 18 (DW_TAG_enumerator)
    <942>   DW_AT_name        : (indirect string, offset: 0xb2): _NL_ABALTMON_8
    <946>   DW_AT_const_value : 0x2008e
 <2><94a>: Abbrev Number: 18 (DW_TAG_enumerator)
    <94b>   DW_AT_name        : (indirect string, offset: 0xc1): _NL_ABALTMON_9
    <94f>   DW_AT_const_value : 0x2008f
 <2><953>: Abbrev Number: 18 (DW_TAG_enumerator)
    <954>   DW_AT_name        : (indirect string, offset: 0x196e): _NL_ABALTMON_10
    <958>   DW_AT_const_value : 0x20090
 <2><95c>: Abbrev Number: 18 (DW_TAG_enumerator)
    <95d>   DW_AT_name        : (indirect string, offset: 0x197e): _NL_ABALTMON_11
    <961>   DW_AT_const_value : 0x20091
 <2><965>: Abbrev Number: 18 (DW_TAG_enumerator)
    <966>   DW_AT_name        : (indirect string, offset: 0x198e): _NL_ABALTMON_12
    <96a>   DW_AT_const_value : 0x20092
 <2><96e>: Abbrev Number: 18 (DW_TAG_enumerator)
    <96f>   DW_AT_name        : (indirect string, offset: 0x173b): _NL_WABALTMON_1
    <973>   DW_AT_const_value : 0x20093
 <2><977>: Abbrev Number: 18 (DW_TAG_enumerator)
    <978>   DW_AT_name        : (indirect string, offset: 0x174b): _NL_WABALTMON_2
    <97c>   DW_AT_const_value : 0x20094
 <2><980>: Abbrev Number: 18 (DW_TAG_enumerator)
    <981>   DW_AT_name        : (indirect string, offset: 0x175b): _NL_WABALTMON_3
    <985>   DW_AT_const_value : 0x20095
 <2><989>: Abbrev Number: 18 (DW_TAG_enumerator)
    <98a>   DW_AT_name        : (indirect string, offset: 0x176b): _NL_WABALTMON_4
    <98e>   DW_AT_const_value : 0x20096
 <2><992>: Abbrev Number: 18 (DW_TAG_enumerator)
    <993>   DW_AT_name        : (indirect string, offset: 0x177b): _NL_WABALTMON_5
    <997>   DW_AT_const_value : 0x20097
 <2><99b>: Abbrev Number: 18 (DW_TAG_enumerator)
    <99c>   DW_AT_name        : (indirect string, offset: 0x178b): _NL_WABALTMON_6
    <9a0>   DW_AT_const_value : 0x20098
 <2><9a4>: Abbrev Number: 18 (DW_TAG_enumerator)
    <9a5>   DW_AT_name        : (indirect string, offset: 0x179b): _NL_WABALTMON_7
    <9a9>   DW_AT_const_value : 0x20099
 <2><9ad>: Abbrev Number: 18 (DW_TAG_enumerator)
    <9ae>   DW_AT_name        : (indirect string, offset: 0x17ab): _NL_WABALTMON_8
    <9b2>   DW_AT_const_value : 0x2009a
 <2><9b6>: Abbrev Number: 18 (DW_TAG_enumerator)
    <9b7>   DW_AT_name        : (indirect string, offset: 0x17bb): _NL_WABALTMON_9
    <9bb>   DW_AT_const_value : 0x2009b
 <2><9bf>: Abbrev Number: 18 (DW_TAG_enumerator)
    <9c0>   DW_AT_name        : (indirect string, offset: 0x133f): _NL_WABALTMON_10
    <9c4>   DW_AT_const_value : 0x2009c
 <2><9c8>: Abbrev Number: 18 (DW_TAG_enumerator)
    <9c9>   DW_AT_name        : (indirect string, offset: 0x1350): _NL_WABALTMON_11
    <9cd>   DW_AT_const_value : 0x2009d
 <2><9d1>: Abbrev Number: 18 (DW_TAG_enumerator)
    <9d2>   DW_AT_name        : (indirect string, offset: 0x1361): _NL_WABALTMON_12
    <9d6>   DW_AT_const_value : 0x2009e
 <2><9da>: Abbrev Number: 18 (DW_TAG_enumerator)
    <9db>   DW_AT_name        : (indirect string, offset: 0x1f50): _NL_NUM_LC_TIME
    <9df>   DW_AT_const_value : 0x2009f
 <2><9e3>: Abbrev Number: 18 (DW_TAG_enumerator)
    <9e4>   DW_AT_name        : (indirect string, offset: 0x15c2): _NL_COLLATE_NRULES
    <9e8>   DW_AT_const_value : 0x30000
 <2><9ec>: Abbrev Number: 18 (DW_TAG_enumerator)
    <9ed>   DW_AT_name        : (indirect string, offset: 0x748): _NL_COLLATE_RULESETS
    <9f1>   DW_AT_const_value : 0x30001
 <2><9f5>: Abbrev Number: 18 (DW_TAG_enumerator)
    <9f6>   DW_AT_name        : (indirect string, offset: 0x1532): _NL_COLLATE_TABLEMB
    <9fa>   DW_AT_const_value : 0x30002
 <2><9fe>: Abbrev Number: 18 (DW_TAG_enumerator)
    <9ff>   DW_AT_name        : (indirect string, offset: 0x1f92): _NL_COLLATE_WEIGHTMB
    <a03>   DW_AT_const_value : 0x30003
 <2><a07>: Abbrev Number: 18 (DW_TAG_enumerator)
    <a08>   DW_AT_name        : (indirect string, offset: 0x12c9): _NL_COLLATE_EXTRAMB
    <a0c>   DW_AT_const_value : 0x30004
 <2><a10>: Abbrev Number: 18 (DW_TAG_enumerator)
    <a11>   DW_AT_name        : (indirect string, offset: 0x504): _NL_COLLATE_INDIRECTMB
    <a15>   DW_AT_const_value : 0x30005
 <2><a19>: Abbrev Number: 18 (DW_TAG_enumerator)
    <a1a>   DW_AT_name        : (indirect string, offset: 0x2198): _NL_COLLATE_GAP1
    <a1e>   DW_AT_const_value : 0x30006
 <2><a22>: Abbrev Number: 18 (DW_TAG_enumerator)
    <a23>   DW_AT_name        : (indirect string, offset: 0x21a9): _NL_COLLATE_GAP2
    <a27>   DW_AT_const_value : 0x30007
 <2><a2b>: Abbrev Number: 18 (DW_TAG_enumerator)
    <a2c>   DW_AT_name        : (indirect string, offset: 0x21ba): _NL_COLLATE_GAP3
    <a30>   DW_AT_const_value : 0x30008
 <2><a34>: Abbrev Number: 18 (DW_TAG_enumerator)
    <a35>   DW_AT_name        : (indirect string, offset: 0x3bc): _NL_COLLATE_TABLEWC
    <a39>   DW_AT_const_value : 0x30009
 <2><a3d>: Abbrev Number: 18 (DW_TAG_enumerator)
    <a3e>   DW_AT_name        : (indirect string, offset: 0x328): _NL_COLLATE_WEIGHTWC
    <a42>   DW_AT_const_value : 0x3000a
 <2><a46>: Abbrev Number: 18 (DW_TAG_enumerator)
    <a47>   DW_AT_name        : (indirect string, offset: 0xf4b): _NL_COLLATE_EXTRAWC
    <a4b>   DW_AT_const_value : 0x3000b
 <2><a4f>: Abbrev Number: 18 (DW_TAG_enumerator)
    <a50>   DW_AT_name        : (indirect string, offset: 0x9e0): _NL_COLLATE_INDIRECTWC
    <a54>   DW_AT_const_value : 0x3000c
 <2><a58>: Abbrev Number: 18 (DW_TAG_enumerator)
    <a59>   DW_AT_name        : (indirect string, offset: 0x576): _NL_COLLATE_SYMB_HASH_SIZEMB
    <a5d>   DW_AT_const_value : 0x3000d
 <2><a61>: Abbrev Number: 18 (DW_TAG_enumerator)
    <a62>   DW_AT_name        : (indirect string, offset: 0x1390): _NL_COLLATE_SYMB_TABLEMB
    <a66>   DW_AT_const_value : 0x3000e
 <2><a6a>: Abbrev Number: 18 (DW_TAG_enumerator)
    <a6b>   DW_AT_name        : (indirect string, offset: 0x92e): _NL_COLLATE_SYMB_EXTRAMB
    <a6f>   DW_AT_const_value : 0x3000f
 <2><a73>: Abbrev Number: 18 (DW_TAG_enumerator)
    <a74>   DW_AT_name        : (indirect string, offset: 0x1428): _NL_COLLATE_COLLSEQMB
    <a78>   DW_AT_const_value : 0x30010
 <2><a7c>: Abbrev Number: 18 (DW_TAG_enumerator)
    <a7d>   DW_AT_name        : (indirect string, offset: 0x1a0b): _NL_COLLATE_COLLSEQWC
    <a81>   DW_AT_const_value : 0x30011
 <2><a85>: Abbrev Number: 18 (DW_TAG_enumerator)
    <a86>   DW_AT_name        : (indirect string, offset: 0x264): _NL_COLLATE_CODESET
    <a8a>   DW_AT_const_value : 0x30012
 <2><a8e>: Abbrev Number: 18 (DW_TAG_enumerator)
    <a8f>   DW_AT_name        : (indirect string, offset: 0x2085): _NL_NUM_LC_COLLATE
    <a93>   DW_AT_const_value : 0x30013
 <2><a97>: Abbrev Number: 20 (DW_TAG_enumerator)
    <a98>   DW_AT_name        : (indirect string, offset: 0x915): _NL_CTYPE_CLASS
    <a9c>   DW_AT_const_value : 0
 <2><a9d>: Abbrev Number: 20 (DW_TAG_enumerator)
    <a9e>   DW_AT_name        : (indirect string, offset: 0x722): _NL_CTYPE_TOUPPER
    <aa2>   DW_AT_const_value : 1
 <2><aa3>: Abbrev Number: 20 (DW_TAG_enumerator)
    <aa4>   DW_AT_name        : (indirect string, offset: 0xd6c): _NL_CTYPE_GAP1
    <aa8>   DW_AT_const_value : 2
 <2><aa9>: Abbrev Number: 20 (DW_TAG_enumerator)
    <aaa>   DW_AT_name        : (indirect string, offset: 0x132d): _NL_CTYPE_TOLOWER
    <aae>   DW_AT_const_value : 3
 <2><aaf>: Abbrev Number: 20 (DW_TAG_enumerator)
    <ab0>   DW_AT_name        : (indirect string, offset: 0xd7b): _NL_CTYPE_GAP2
    <ab4>   DW_AT_const_value : 4
 <2><ab5>: Abbrev Number: 20 (DW_TAG_enumerator)
    <ab6>   DW_AT_name        : (indirect string, offset: 0x1fa7): _NL_CTYPE_CLASS32
    <aba>   DW_AT_const_value : 5
 <2><abb>: Abbrev Number: 20 (DW_TAG_enumerator)
    <abc>   DW_AT_name        : (indirect string, offset: 0xd8a): _NL_CTYPE_GAP3
    <ac0>   DW_AT_const_value : 6
 <2><ac1>: Abbrev Number: 20 (DW_TAG_enumerator)
    <ac2>   DW_AT_name        : (indirect string, offset: 0xd99): _NL_CTYPE_GAP4
    <ac6>   DW_AT_const_value : 7
 <2><ac7>: Abbrev Number: 20 (DW_TAG_enumerator)
    <ac8>   DW_AT_name        : (indirect string, offset: 0xda8): _NL_CTYPE_GAP5
    <acc>   DW_AT_const_value : 8
 <2><acd>: Abbrev Number: 20 (DW_TAG_enumerator)
    <ace>   DW_AT_name        : (indirect string, offset: 0xdb7): _NL_CTYPE_GAP6
    <ad2>   DW_AT_const_value : 9
 <2><ad3>: Abbrev Number: 20 (DW_TAG_enumerator)
    <ad4>   DW_AT_name        : (indirect string, offset: 0x696): _NL_CTYPE_CLASS_NAMES
    <ad8>   DW_AT_const_value : 10
 <2><ad9>: Abbrev Number: 20 (DW_TAG_enumerator)
    <ada>   DW_AT_name        : (indirect string, offset: 0xaee): _NL_CTYPE_MAP_NAMES
    <ade>   DW_AT_const_value : 11
 <2><adf>: Abbrev Number: 20 (DW_TAG_enumerator)
    <ae0>   DW_AT_name        : (indirect string, offset: 0x1c11): _NL_CTYPE_WIDTH
    <ae4>   DW_AT_const_value : 12
 <2><ae5>: Abbrev Number: 20 (DW_TAG_enumerator)
    <ae6>   DW_AT_name        : (indirect string, offset: 0x655): _NL_CTYPE_MB_CUR_MAX
    <aea>   DW_AT_const_value : 13
 <2><aeb>: Abbrev Number: 20 (DW_TAG_enumerator)
    <aec>   DW_AT_name        : (indirect string, offset: 0xc06): _NL_CTYPE_CODESET_NAME
    <af0>   DW_AT_const_value : 14
 <2><af1>: Abbrev Number: 20 (DW_TAG_enumerator)
    <af2>   DW_AT_name        : (indirect string, offset: 0x17eb): CODESET
    <af6>   DW_AT_const_value : 14
 <2><af7>: Abbrev Number: 20 (DW_TAG_enumerator)
    <af8>   DW_AT_name        : (indirect string, offset: 0xbc1): _NL_CTYPE_TOUPPER32
    <afc>   DW_AT_const_value : 15
 <2><afd>: Abbrev Number: 20 (DW_TAG_enumerator)
    <afe>   DW_AT_name        : (indirect string, offset: 0x734): _NL_CTYPE_TOLOWER32
    <b02>   DW_AT_const_value : 16
 <2><b03>: Abbrev Number: 20 (DW_TAG_enumerator)
    <b04>   DW_AT_name        : (indirect string, offset: 0x1551): _NL_CTYPE_CLASS_OFFSET
    <b08>   DW_AT_const_value : 17
 <2><b09>: Abbrev Number: 20 (DW_TAG_enumerator)
    <b0a>   DW_AT_name        : (indirect string, offset: 0x1cdd): _NL_CTYPE_MAP_OFFSET
    <b0e>   DW_AT_const_value : 18
 <2><b0f>: Abbrev Number: 20 (DW_TAG_enumerator)
    <b10>   DW_AT_name        : (indirect string, offset: 0xc92): _NL_CTYPE_INDIGITS_MB_LEN
    <b14>   DW_AT_const_value : 19
 <2><b15>: Abbrev Number: 20 (DW_TAG_enumerator)
    <b16>   DW_AT_name        : (indirect string, offset: 0x1187): _NL_CTYPE_INDIGITS0_MB
    <b1a>   DW_AT_const_value : 20
 <2><b1b>: Abbrev Number: 20 (DW_TAG_enumerator)
    <b1c>   DW_AT_name        : (indirect string, offset: 0x1bd): _NL_CTYPE_INDIGITS1_MB
    <b20>   DW_AT_const_value : 21
 <2><b21>: Abbrev Number: 20 (DW_TAG_enumerator)
    <b22>   DW_AT_name        : (indirect string, offset: 0x1006): _NL_CTYPE_INDIGITS2_MB
    <b26>   DW_AT_const_value : 22
 <2><b27>: Abbrev Number: 20 (DW_TAG_enumerator)
    <b28>   DW_AT_name        : (indirect string, offset: 0x2293): _NL_CTYPE_INDIGITS3_MB
    <b2c>   DW_AT_const_value : 23
 <2><b2d>: Abbrev Number: 20 (DW_TAG_enumerator)
    <b2e>   DW_AT_name        : (indirect string, offset: 0xebe): _NL_CTYPE_INDIGITS4_MB
    <b32>   DW_AT_const_value : 24
 <2><b33>: Abbrev Number: 20 (DW_TAG_enumerator)
    <b34>   DW_AT_name        : (indirect string, offset: 0x206e): _NL_CTYPE_INDIGITS5_MB
    <b38>   DW_AT_const_value : 25
 <2><b39>: Abbrev Number: 20 (DW_TAG_enumerator)
    <b3a>   DW_AT_name        : (indirect string, offset: 0xe0c): _NL_CTYPE_INDIGITS6_MB
    <b3e>   DW_AT_const_value : 26
 <2><b3f>: Abbrev Number: 20 (DW_TAG_enumerator)
    <b40>   DW_AT_name        : (indirect string, offset: 0x1f39): _NL_CTYPE_INDIGITS7_MB
    <b44>   DW_AT_const_value : 27
 <2><b45>: Abbrev Number: 20 (DW_TAG_enumerator)
    <b46>   DW_AT_name        : (indirect string, offset: 0xcac): _NL_CTYPE_INDIGITS8_MB
    <b4a>   DW_AT_const_value : 28
 <2><b4b>: Abbrev Number: 20 (DW_TAG_enumerator)
    <b4c>   DW_AT_name        : (indirect string, offset: 0x1de3): _NL_CTYPE_INDIGITS9_MB
    <b50>   DW_AT_const_value : 29
 <2><b51>: Abbrev Number: 20 (DW_TAG_enumerator)
    <b52>   DW_AT_name        : (indirect string, offset: 0x1dc9): _NL_CTYPE_INDIGITS_WC_LEN
    <b56>   DW_AT_const_value : 30
 <2><b57>: Abbrev Number: 20 (DW_TAG_enumerator)
    <b58>   DW_AT_name        : (indirect string, offset: 0x16e0): _NL_CTYPE_INDIGITS0_WC
    <b5c>   DW_AT_const_value : 31
 <2><b5d>: Abbrev Number: 20 (DW_TAG_enumerator)
    <b5e>   DW_AT_name        : (indirect string, offset: 0x6d2): _NL_CTYPE_INDIGITS1_WC
    <b62>   DW_AT_const_value : 32
 <2><b63>: Abbrev Number: 20 (DW_TAG_enumerator)
    <b64>   DW_AT_name        : (indirect string, offset: 0x15e6): _NL_CTYPE_INDIGITS2_WC
    <b68>   DW_AT_const_value : 33
 <2><b69>: Abbrev Number: 20 (DW_TAG_enumerator)
    <b6a>   DW_AT_name        : (indirect string, offset: 0x593): _NL_CTYPE_INDIGITS3_WC
    <b6e>   DW_AT_const_value : 34
 <2><b6f>: Abbrev Number: 20 (DW_TAG_enumerator)
    <b70>   DW_AT_name        : (indirect string, offset: 0x1487): _NL_CTYPE_INDIGITS4_WC
    <b74>   DW_AT_const_value : 35
 <2><b75>: Abbrev Number: 20 (DW_TAG_enumerator)
    <b76>   DW_AT_name        : (indirect string, offset: 0x3dc): _NL_CTYPE_INDIGITS5_WC
    <b7a>   DW_AT_const_value : 36
 <2><b7b>: Abbrev Number: 20 (DW_TAG_enumerator)
    <b7c>   DW_AT_name        : (indirect string, offset: 0x1379): _NL_CTYPE_INDIGITS6_WC
    <b80>   DW_AT_const_value : 37
 <2><b81>: Abbrev Number: 20 (DW_TAG_enumerator)
    <b82>   DW_AT_name        : (indirect string, offset: 0x2fa): _NL_CTYPE_INDIGITS7_WC
    <b86>   DW_AT_const_value : 38
 <2><b87>: Abbrev Number: 20 (DW_TAG_enumerator)
    <b88>   DW_AT_name        : (indirect string, offset: 0x1249): _NL_CTYPE_INDIGITS8_WC
    <b8c>   DW_AT_const_value : 39
 <2><b8d>: Abbrev Number: 20 (DW_TAG_enumerator)
    <b8e>   DW_AT_name        : (indirect string, offset: 0x24d): _NL_CTYPE_INDIGITS9_WC
    <b92>   DW_AT_const_value : 40
 <2><b93>: Abbrev Number: 20 (DW_TAG_enumerator)
    <b94>   DW_AT_name        : (indirect string, offset: 0xf74): _NL_CTYPE_OUTDIGIT0_MB
    <b98>   DW_AT_const_value : 41
 <2><b99>: Abbrev Number: 20 (DW_TAG_enumerator)
    <b9a>   DW_AT_name        : (indirect string, offset: 0x21dd): _NL_CTYPE_OUTDIGIT1_MB
    <b9e>   DW_AT_const_value : 42
 <2><b9f>: Abbrev Number: 20 (DW_TAG_enumerator)
    <ba0>   DW_AT_name        : (indirect string, offset: 0xe5e): _NL_CTYPE_OUTDIGIT2_MB
    <ba4>   DW_AT_const_value : 43
 <2><ba5>: Abbrev Number: 20 (DW_TAG_enumerator)
    <ba6>   DW_AT_name        : (indirect string, offset: 0x1fc3): _NL_CTYPE_OUTDIGIT3_MB
    <baa>   DW_AT_const_value : 44
 <2><bab>: Abbrev Number: 20 (DW_TAG_enumerator)
    <bac>   DW_AT_name        : (indirect string, offset: 0xd55): _NL_CTYPE_OUTDIGIT4_MB
    <bb0>   DW_AT_const_value : 45
 <2><bb1>: Abbrev Number: 20 (DW_TAG_enumerator)
    <bb2>   DW_AT_name        : (indirect string, offset: 0x1eb5): _NL_CTYPE_OUTDIGIT5_MB
    <bb6>   DW_AT_const_value : 46
 <2><bb7>: Abbrev Number: 20 (DW_TAG_enumerator)
    <bb8>   DW_AT_name        : (indirect string, offset: 0xc58): _NL_CTYPE_OUTDIGIT6_MB
    <bbc>   DW_AT_const_value : 47
 <2><bbd>: Abbrev Number: 20 (DW_TAG_enumerator)
    <bbe>   DW_AT_name        : (indirect string, offset: 0x1d39): _NL_CTYPE_OUTDIGIT7_MB
    <bc2>   DW_AT_const_value : 48
 <2><bc3>: Abbrev Number: 20 (DW_TAG_enumerator)
    <bc4>   DW_AT_name        : (indirect string, offset: 0xb90): _NL_CTYPE_OUTDIGIT8_MB
    <bc8>   DW_AT_const_value : 49
 <2><bc9>: Abbrev Number: 20 (DW_TAG_enumerator)
    <bca>   DW_AT_name        : (indirect string, offset: 0x17f3): _NL_CTYPE_OUTDIGIT9_MB
    <bce>   DW_AT_const_value : 50
 <2><bcf>: Abbrev Number: 20 (DW_TAG_enumerator)
    <bd0>   DW_AT_name        : (indirect string, offset: 0x1578): _NL_CTYPE_OUTDIGIT0_WC
    <bd4>   DW_AT_const_value : 51
 <2><bd5>: Abbrev Number: 20 (DW_TAG_enumerator)
    <bd6>   DW_AT_name        : (indirect string, offset: 0x4d4): _NL_CTYPE_OUTDIGIT1_WC
    <bda>   DW_AT_const_value : 52
 <2><bdb>: Abbrev Number: 20 (DW_TAG_enumerator)
    <bdc>   DW_AT_name        : (indirect string, offset: 0x1451): _NL_CTYPE_OUTDIGIT2_WC
    <be0>   DW_AT_const_value : 53
 <2><be1>: Abbrev Number: 20 (DW_TAG_enumerator)
    <be2>   DW_AT_name        : (indirect string, offset: 0x388): _NL_CTYPE_OUTDIGIT3_WC
    <be6>   DW_AT_const_value : 54
 <2><be7>: Abbrev Number: 20 (DW_TAG_enumerator)
    <be8>   DW_AT_name        : (indirect string, offset: 0x1307): _NL_CTYPE_OUTDIGIT4_WC
    <bec>   DW_AT_const_value : 55
 <2><bed>: Abbrev Number: 20 (DW_TAG_enumerator)
    <bee>   DW_AT_name        : (indirect string, offset: 0x296): _NL_CTYPE_OUTDIGIT5_WC
    <bf2>   DW_AT_const_value : 56
 <2><bf3>: Abbrev Number: 20 (DW_TAG_enumerator)
    <bf4>   DW_AT_name        : (indirect string, offset: 0x11c2): _NL_CTYPE_OUTDIGIT6_WC
    <bf8>   DW_AT_const_value : 57
 <2><bf9>: Abbrev Number: 20 (DW_TAG_enumerator)
    <bfa>   DW_AT_name        : (indirect string, offset: 0x207): _NL_CTYPE_OUTDIGIT7_WC
    <bfe>   DW_AT_const_value : 58
 <2><bff>: Abbrev Number: 20 (DW_TAG_enumerator)
    <c00>   DW_AT_name        : (indirect string, offset: 0x1053): _NL_CTYPE_OUTDIGIT8_WC
    <c04>   DW_AT_const_value : 59
 <2><c05>: Abbrev Number: 20 (DW_TAG_enumerator)
    <c06>   DW_AT_name        : (indirect string, offset: 0x0): _NL_CTYPE_OUTDIGIT9_WC
    <c0a>   DW_AT_const_value : 60
 <2><c0b>: Abbrev Number: 20 (DW_TAG_enumerator)
    <c0c>   DW_AT_name        : (indirect string, offset: 0x15a6): _NL_CTYPE_TRANSLIT_TAB_SIZE
    <c10>   DW_AT_const_value : 61
 <2><c11>: Abbrev Number: 20 (DW_TAG_enumerator)
    <c12>   DW_AT_name        : (indirect string, offset: 0x1e10): _NL_CTYPE_TRANSLIT_FROM_IDX
    <c16>   DW_AT_const_value : 62
 <2><c17>: Abbrev Number: 20 (DW_TAG_enumerator)
    <c18>   DW_AT_name        : (indirect string, offset: 0x1f0b): _NL_CTYPE_TRANSLIT_FROM_TBL
    <c1c>   DW_AT_const_value : 63
 <2><c1d>: Abbrev Number: 20 (DW_TAG_enumerator)
    <c1e>   DW_AT_name        : (indirect string, offset: 0x1c75): _NL_CTYPE_TRANSLIT_TO_IDX
    <c22>   DW_AT_const_value : 64
 <2><c23>: Abbrev Number: 20 (DW_TAG_enumerator)
    <c24>   DW_AT_name        : (indirect string, offset: 0x1d93): _NL_CTYPE_TRANSLIT_TO_TBL
    <c28>   DW_AT_const_value : 65
 <2><c29>: Abbrev Number: 20 (DW_TAG_enumerator)
    <c2a>   DW_AT_name        : (indirect string, offset: 0x1938): _NL_CTYPE_TRANSLIT_DEFAULT_MISSING_LEN
    <c2e>   DW_AT_const_value : 66
 <2><c2f>: Abbrev Number: 20 (DW_TAG_enumerator)
    <c30>   DW_AT_name        : (indirect string, offset: 0x21f4): _NL_CTYPE_TRANSLIT_DEFAULT_MISSING
    <c34>   DW_AT_const_value : 67
 <2><c35>: Abbrev Number: 20 (DW_TAG_enumerator)
    <c36>   DW_AT_name        : (indirect string, offset: 0x199e): _NL_CTYPE_TRANSLIT_IGNORE_LEN
    <c3a>   DW_AT_const_value : 68
 <2><c3b>: Abbrev Number: 20 (DW_TAG_enumerator)
    <c3c>   DW_AT_name        : (indirect string, offset: 0x1a6d): _NL_CTYPE_TRANSLIT_IGNORE
    <c40>   DW_AT_const_value : 69
 <2><c41>: Abbrev Number: 20 (DW_TAG_enumerator)
    <c42>   DW_AT_name        : (indirect string, offset: 0xd04): _NL_CTYPE_MAP_TO_NONASCII
    <c46>   DW_AT_const_value : 70
 <2><c47>: Abbrev Number: 20 (DW_TAG_enumerator)
    <c48>   DW_AT_name        : (indirect string, offset: 0x67e): _NL_CTYPE_NONASCII_CASE
    <c4c>   DW_AT_const_value : 71
 <2><c4d>: Abbrev Number: 20 (DW_TAG_enumerator)
    <c4e>   DW_AT_name        : (indirect string, offset: 0x20c5): _NL_CTYPE_EXTRA_MAP_1
    <c52>   DW_AT_const_value : 72
 <2><c53>: Abbrev Number: 20 (DW_TAG_enumerator)
    <c54>   DW_AT_name        : (indirect string, offset: 0x51b): _NL_CTYPE_EXTRA_MAP_2
    <c58>   DW_AT_const_value : 73
 <2><c59>: Abbrev Number: 20 (DW_TAG_enumerator)
    <c5a>   DW_AT_name        : (indirect string, offset: 0x20db): _NL_CTYPE_EXTRA_MAP_3
    <c5e>   DW_AT_const_value : 74
 <2><c5f>: Abbrev Number: 20 (DW_TAG_enumerator)
    <c60>   DW_AT_name        : (indirect string, offset: 0x20f1): _NL_CTYPE_EXTRA_MAP_4
    <c64>   DW_AT_const_value : 75
 <2><c65>: Abbrev Number: 20 (DW_TAG_enumerator)
    <c66>   DW_AT_name        : (indirect string, offset: 0x2107): _NL_CTYPE_EXTRA_MAP_5
    <c6a>   DW_AT_const_value : 76
 <2><c6b>: Abbrev Number: 20 (DW_TAG_enumerator)
    <c6c>   DW_AT_name        : (indirect string, offset: 0x211d): _NL_CTYPE_EXTRA_MAP_6
    <c70>   DW_AT_const_value : 77
 <2><c71>: Abbrev Number: 20 (DW_TAG_enumerator)
    <c72>   DW_AT_name        : (indirect string, offset: 0x2133): _NL_CTYPE_EXTRA_MAP_7
    <c76>   DW_AT_const_value : 78
 <2><c77>: Abbrev Number: 20 (DW_TAG_enumerator)
    <c78>   DW_AT_name        : (indirect string, offset: 0x2149): _NL_CTYPE_EXTRA_MAP_8
    <c7c>   DW_AT_const_value : 79
 <2><c7d>: Abbrev Number: 20 (DW_TAG_enumerator)
    <c7e>   DW_AT_name        : (indirect string, offset: 0x215f): _NL_CTYPE_EXTRA_MAP_9
    <c82>   DW_AT_const_value : 80
 <2><c83>: Abbrev Number: 20 (DW_TAG_enumerator)
    <c84>   DW_AT_name        : (indirect string, offset: 0x1fda): _NL_CTYPE_EXTRA_MAP_10
    <c88>   DW_AT_const_value : 81
 <2><c89>: Abbrev Number: 20 (DW_TAG_enumerator)
    <c8a>   DW_AT_name        : (indirect string, offset: 0x1ff1): _NL_CTYPE_EXTRA_MAP_11
    <c8e>   DW_AT_const_value : 82
 <2><c8f>: Abbrev Number: 20 (DW_TAG_enumerator)
    <c90>   DW_AT_name        : (indirect string, offset: 0x2008): _NL_CTYPE_EXTRA_MAP_12
    <c94>   DW_AT_const_value : 83
 <2><c95>: Abbrev Number: 20 (DW_TAG_enumerator)
    <c96>   DW_AT_name        : (indirect string, offset: 0x201f): _NL_CTYPE_EXTRA_MAP_13
    <c9a>   DW_AT_const_value : 84
 <2><c9b>: Abbrev Number: 20 (DW_TAG_enumerator)
    <c9c>   DW_AT_name        : (indirect string, offset: 0x2036): _NL_CTYPE_EXTRA_MAP_14
    <ca0>   DW_AT_const_value : 85
 <2><ca1>: Abbrev Number: 20 (DW_TAG_enumerator)
    <ca2>   DW_AT_name        : (indirect string, offset: 0x1029): _NL_NUM_LC_CTYPE
    <ca6>   DW_AT_const_value : 86
 <2><ca7>: Abbrev Number: 18 (DW_TAG_enumerator)
    <ca8>   DW_AT_name        : (indirect string, offset: 0x7ad): __INT_CURR_SYMBOL
    <cac>   DW_AT_const_value : 0x40000
 <2><cb0>: Abbrev Number: 18 (DW_TAG_enumerator)
    <cb1>   DW_AT_name        : (indirect string, offset: 0xce6): __CURRENCY_SYMBOL
    <cb5>   DW_AT_const_value : 0x40001
 <2><cb9>: Abbrev Number: 18 (DW_TAG_enumerator)
    <cba>   DW_AT_name        : (indirect string, offset: 0x43e): __MON_DECIMAL_POINT
    <cbe>   DW_AT_const_value : 0x40002
 <2><cc2>: Abbrev Number: 18 (DW_TAG_enumerator)
    <cc3>   DW_AT_name        : (indirect string, offset: 0x1bcf): __MON_THOUSANDS_SEP
    <cc7>   DW_AT_const_value : 0x40003
 <2><ccb>: Abbrev Number: 18 (DW_TAG_enumerator)
    <ccc>   DW_AT_name        : (indirect string, offset: 0x1b62): __MON_GROUPING
    <cd0>   DW_AT_const_value : 0x40004
 <2><cd4>: Abbrev Number: 18 (DW_TAG_enumerator)
    <cd5>   DW_AT_name        : (indirect string, offset: 0x183a): __POSITIVE_SIGN
    <cd9>   DW_AT_const_value : 0x40005
 <2><cdd>: Abbrev Number: 18 (DW_TAG_enumerator)
    <cde>   DW_AT_name        : (indirect string, offset: 0x1a5d): __NEGATIVE_SIGN
    <ce2>   DW_AT_const_value : 0x40006
 <2><ce6>: Abbrev Number: 18 (DW_TAG_enumerator)
    <ce7>   DW_AT_name        : (indirect string, offset: 0x10aa): __INT_FRAC_DIGITS
    <ceb>   DW_AT_const_value : 0x40007
 <2><cef>: Abbrev Number: 18 (DW_TAG_enumerator)
    <cf0>   DW_AT_name        : (indirect string, offset: 0xfa5): __FRAC_DIGITS
    <cf4>   DW_AT_const_value : 0x40008
 <2><cf8>: Abbrev Number: 18 (DW_TAG_enumerator)
    <cf9>   DW_AT_name        : (indirect string, offset: 0x75d): __P_CS_PRECEDES
    <cfd>   DW_AT_const_value : 0x40009
 <2><d01>: Abbrev Number: 18 (DW_TAG_enumerator)
    <d02>   DW_AT_name        : (indirect string, offset: 0x1660): __P_SEP_BY_SPACE
    <d06>   DW_AT_const_value : 0x4000a
 <2><d0a>: Abbrev Number: 18 (DW_TAG_enumerator)
    <d0b>   DW_AT_name        : (indirect string, offset: 0x1c3d): __N_CS_PRECEDES
    <d0f>   DW_AT_const_value : 0x4000b
 <2><d13>: Abbrev Number: 18 (DW_TAG_enumerator)
    <d14>   DW_AT_name        : (indirect string, offset: 0x33d): __N_SEP_BY_SPACE
    <d18>   DW_AT_const_value : 0x4000c
 <2><d1c>: Abbrev Number: 18 (DW_TAG_enumerator)
    <d1d>   DW_AT_name        : (indirect string, offset: 0x5d9): __P_SIGN_POSN
    <d21>   DW_AT_const_value : 0x4000d
 <2><d25>: Abbrev Number: 18 (DW_TAG_enumerator)
    <d26>   DW_AT_name        : (indirect string, offset: 0x1c67): __N_SIGN_POSN
    <d2a>   DW_AT_const_value : 0x4000e
 <2><d2e>: Abbrev Number: 18 (DW_TAG_enumerator)
    <d2f>   DW_AT_name        : (indirect string, offset: 0x550): _NL_MONETARY_CRNCYSTR
    <d33>   DW_AT_const_value : 0x4000f
 <2><d37>: Abbrev Number: 18 (DW_TAG_enumerator)
    <d38>   DW_AT_name        : (indirect string, offset: 0x1b71): __INT_P_CS_PRECEDES
    <d3c>   DW_AT_const_value : 0x40010
 <2><d40>: Abbrev Number: 18 (DW_TAG_enumerator)
    <d41>   DW_AT_name        : (indirect string, offset: 0x3ff): __INT_P_SEP_BY_SPACE
    <d45>   DW_AT_const_value : 0x40011
 <2><d49>: Abbrev Number: 18 (DW_TAG_enumerator)
    <d4a>   DW_AT_name        : (indirect string, offset: 0x1d1c): __INT_N_CS_PRECEDES
    <d4e>   DW_AT_const_value : 0x40012
 <2><d52>: Abbrev Number: 18 (DW_TAG_enumerator)
    <d53>   DW_AT_name        : (indirect string, offset: 0x164b): __INT_N_SEP_BY_SPACE
    <d57>   DW_AT_const_value : 0x40013
 <2><d5b>: Abbrev Number: 18 (DW_TAG_enumerator)
    <d5c>   DW_AT_name        : (indirect string, offset: 0x18e6): __INT_P_SIGN_POSN
    <d60>   DW_AT_const_value : 0x40014
 <2><d64>: Abbrev Number: 18 (DW_TAG_enumerator)
    <d65>   DW_AT_name        : (indirect string, offset: 0xdc6): __INT_N_SIGN_POSN
    <d69>   DW_AT_const_value : 0x40015
 <2><d6d>: Abbrev Number: 18 (DW_TAG_enumerator)
    <d6e>   DW_AT_name        : (indirect string, offset: 0x1a3c): _NL_MONETARY_DUO_INT_CURR_SYMBOL
    <d72>   DW_AT_const_value : 0x40016
 <2><d76>: Abbrev Number: 18 (DW_TAG_enumerator)
    <d77>   DW_AT_name        : (indirect string, offset: 0x204d): _NL_MONETARY_DUO_CURRENCY_SYMBOL
    <d7b>   DW_AT_const_value : 0x40017
 <2><d7f>: Abbrev Number: 18 (DW_TAG_enumerator)
    <d80>   DW_AT_name        : (indirect string, offset: 0x149e): _NL_MONETARY_DUO_INT_FRAC_DIGITS
    <d84>   DW_AT_const_value : 0x40018
 <2><d88>: Abbrev Number: 18 (DW_TAG_enumerator)
    <d89>   DW_AT_name        : (indirect string, offset: 0x1cff): _NL_MONETARY_DUO_FRAC_DIGITS
    <d8d>   DW_AT_const_value : 0x40019
 <2><d91>: Abbrev Number: 18 (DW_TAG_enumerator)
    <d92>   DW_AT_name        : (indirect string, offset: 0x1513): _NL_MONETARY_DUO_P_CS_PRECEDES
    <d96>   DW_AT_const_value : 0x4001a
 <2><d9a>: Abbrev Number: 18 (DW_TAG_enumerator)
    <d9b>   DW_AT_name        : (indirect string, offset: 0x1291): _NL_MONETARY_DUO_P_SEP_BY_SPACE
    <d9f>   DW_AT_const_value : 0x4001b
 <2><da3>: Abbrev Number: 18 (DW_TAG_enumerator)
    <da4>   DW_AT_name        : (indirect string, offset: 0x1468): _NL_MONETARY_DUO_N_CS_PRECEDES
    <da8>   DW_AT_const_value : 0x4001c
 <2><dac>: Abbrev Number: 18 (DW_TAG_enumerator)
    <dad>   DW_AT_name        : (indirect string, offset: 0xd1e): _NL_MONETARY_DUO_N_SEP_BY_SPACE
    <db1>   DW_AT_const_value : 0x4001d
 <2><db5>: Abbrev Number: 18 (DW_TAG_enumerator)
    <db6>   DW_AT_name        : (indirect string, offset: 0x10f3): _NL_MONETARY_DUO_INT_P_CS_PRECEDES
    <dba>   DW_AT_const_value : 0x4001e
 <2><dbe>: Abbrev Number: 18 (DW_TAG_enumerator)
    <dbf>   DW_AT_name        : (indirect string, offset: 0x48f): _NL_MONETARY_DUO_INT_P_SEP_BY_SPACE
    <dc3>   DW_AT_const_value : 0x4001f
 <2><dc7>: Abbrev Number: 18 (DW_TAG_enumerator)
    <dc8>   DW_AT_name        : (indirect string, offset: 0x107f): _NL_MONETARY_DUO_INT_N_CS_PRECEDES
    <dcc>   DW_AT_const_value : 0x40020
 <2><dd0>: Abbrev Number: 18 (DW_TAG_enumerator)
    <dd1>   DW_AT_name        : (indirect string, offset: 0x115c): _NL_MONETARY_DUO_INT_N_SEP_BY_SPACE
    <dd5>   DW_AT_const_value : 0x40021
 <2><dd9>: Abbrev Number: 18 (DW_TAG_enumerator)
    <dda>   DW_AT_name        : (indirect string, offset: 0x10bc): _NL_MONETARY_DUO_P_SIGN_POSN
    <dde>   DW_AT_const_value : 0x40022
 <2><de2>: Abbrev Number: 18 (DW_TAG_enumerator)
    <de3>   DW_AT_name        : (indirect string, offset: 0x705): _NL_MONETARY_DUO_N_SIGN_POSN
    <de7>   DW_AT_const_value : 0x40023
 <2><deb>: Abbrev Number: 18 (DW_TAG_enumerator)
    <dec>   DW_AT_name        : (indirect string, offset: 0x98d): _NL_MONETARY_DUO_INT_P_SIGN_POSN
    <df0>   DW_AT_const_value : 0x40024
 <2><df4>: Abbrev Number: 18 (DW_TAG_enumerator)
    <df5>   DW_AT_name        : (indirect string, offset: 0x2226): _NL_MONETARY_DUO_INT_N_SIGN_POSN
    <df9>   DW_AT_const_value : 0x40025
 <2><dfd>: Abbrev Number: 18 (DW_TAG_enumerator)
    <dfe>   DW_AT_name        : (indirect string, offset: 0x1129): _NL_MONETARY_UNO_VALID_FROM
    <e02>   DW_AT_const_value : 0x40026
 <2><e06>: Abbrev Number: 18 (DW_TAG_enumerator)
    <e07>   DW_AT_name        : (indirect string, offset: 0x621): _NL_MONETARY_UNO_VALID_TO
    <e0b>   DW_AT_const_value : 0x40027
 <2><e0f>: Abbrev Number: 18 (DW_TAG_enumerator)
    <e10>   DW_AT_name        : (indirect string, offset: 0x13d9): _NL_MONETARY_DUO_VALID_FROM
    <e14>   DW_AT_const_value : 0x40028
 <2><e18>: Abbrev Number: 18 (DW_TAG_enumerator)
    <e19>   DW_AT_name        : (indirect string, offset: 0x180a): _NL_MONETARY_DUO_VALID_TO
    <e1d>   DW_AT_const_value : 0x40029
 <2><e21>: Abbrev Number: 18 (DW_TAG_enumerator)
    <e22>   DW_AT_name        : (indirect string, offset: 0x8da): _NL_MONETARY_CONVERSION_RATE
    <e26>   DW_AT_const_value : 0x4002a
 <2><e2a>: Abbrev Number: 18 (DW_TAG_enumerator)
    <e2b>   DW_AT_name        : (indirect string, offset: 0xde2): _NL_MONETARY_DECIMAL_POINT_WC
    <e2f>   DW_AT_const_value : 0x4002b
 <2><e33>: Abbrev Number: 18 (DW_TAG_enumerator)
    <e34>   DW_AT_name        : (indirect string, offset: 0x6b4): _NL_MONETARY_THOUSANDS_SEP_WC
    <e38>   DW_AT_const_value : 0x4002c
 <2><e3c>: Abbrev Number: 18 (DW_TAG_enumerator)
    <e3d>   DW_AT_name        : (indirect string, offset: 0x1409): _NL_MONETARY_CODESET
    <e41>   DW_AT_const_value : 0x4002d
 <2><e45>: Abbrev Number: 18 (DW_TAG_enumerator)
    <e46>   DW_AT_name        : (indirect string, offset: 0xe75): _NL_NUM_LC_MONETARY
    <e4a>   DW_AT_const_value : 0x4002e
 <2><e4e>: Abbrev Number: 18 (DW_TAG_enumerator)
    <e4f>   DW_AT_name        : (indirect string, offset: 0x1b05): __DECIMAL_POINT
    <e53>   DW_AT_const_value : 0x10000
 <2><e57>: Abbrev Number: 18 (DW_TAG_enumerator)
    <e58>   DW_AT_name        : (indirect string, offset: 0xdd8): RADIXCHAR
    <e5c>   DW_AT_const_value : 0x10000
 <2><e60>: Abbrev Number: 18 (DW_TAG_enumerator)
    <e61>   DW_AT_name        : (indirect string, offset: 0x103a): __THOUSANDS_SEP
    <e65>   DW_AT_const_value : 0x10001
 <2><e69>: Abbrev Number: 18 (DW_TAG_enumerator)
    <e6a>   DW_AT_name        : (indirect string, offset: 0x28e): THOUSEP
    <e6e>   DW_AT_const_value : 0x10001
 <2><e72>: Abbrev Number: 18 (DW_TAG_enumerator)
    <e73>   DW_AT_name        : (indirect string, offset: 0x2ef): __GROUPING
    <e77>   DW_AT_const_value : 0x10002
 <2><e7b>: Abbrev Number: 18 (DW_TAG_enumerator)
    <e7c>   DW_AT_name        : (indirect string, offset: 0x36b): _NL_NUMERIC_DECIMAL_POINT_WC
    <e80>   DW_AT_const_value : 0x10003
 <2><e84>: Abbrev Number: 18 (DW_TAG_enumerator)
    <e85>   DW_AT_name        : (indirect string, offset: 0x1d76): _NL_NUMERIC_THOUSANDS_SEP_WC
    <e89>   DW_AT_const_value : 0x10004
 <2><e8d>: Abbrev Number: 18 (DW_TAG_enumerator)
    <e8e>   DW_AT_name        : (indirect string, offset: 0x17df): _NL_NUMERIC_CODESET
    <e92>   DW_AT_const_value : 0x10005
 <2><e96>: Abbrev Number: 18 (DW_TAG_enumerator)
    <e97>   DW_AT_name        : (indirect string, offset: 0x1f7f): _NL_NUM_LC_NUMERIC
    <e9b>   DW_AT_const_value : 0x10006
 <2><e9f>: Abbrev Number: 18 (DW_TAG_enumerator)
    <ea0>   DW_AT_name        : (indirect string, offset: 0x141e): __YESEXPR
    <ea4>   DW_AT_const_value : 0x50000
 <2><ea8>: Abbrev Number: 18 (DW_TAG_enumerator)
    <ea9>   DW_AT_name        : (indirect string, offset: 0x1d30): __NOEXPR
    <ead>   DW_AT_const_value : 0x50001
 <2><eb1>: Abbrev Number: 18 (DW_TAG_enumerator)
    <eb2>   DW_AT_name        : (indirect string, offset: 0x234): __YESSTR
    <eb6>   DW_AT_const_value : 0x50002
 <2><eba>: Abbrev Number: 18 (DW_TAG_enumerator)
    <ebb>   DW_AT_name        : (indirect string, offset: 0x1449): __NOSTR
    <ebf>   DW_AT_const_value : 0x50003
 <2><ec3>: Abbrev Number: 18 (DW_TAG_enumerator)
    <ec4>   DW_AT_name        : (indirect string, offset: 0x2247): _NL_MESSAGES_CODESET
    <ec8>   DW_AT_const_value : 0x50004
 <2><ecc>: Abbrev Number: 18 (DW_TAG_enumerator)
    <ecd>   DW_AT_name        : (indirect string, offset: 0x17cb): _NL_NUM_LC_MESSAGES
    <ed1>   DW_AT_const_value : 0x50005
 <2><ed5>: Abbrev Number: 18 (DW_TAG_enumerator)
    <ed6>   DW_AT_name        : (indirect string, offset: 0x19cf): _NL_PAPER_HEIGHT
    <eda>   DW_AT_const_value : 0x70000
 <2><ede>: Abbrev Number: 18 (DW_TAG_enumerator)
    <edf>   DW_AT_name        : (indirect string, offset: 0x1c4d): _NL_PAPER_WIDTH
    <ee3>   DW_AT_const_value : 0x70001
 <2><ee7>: Abbrev Number: 18 (DW_TAG_enumerator)
    <ee8>   DW_AT_name        : (indirect string, offset: 0xee5): _NL_PAPER_CODESET
    <eec>   DW_AT_const_value : 0x70002
 <2><ef0>: Abbrev Number: 18 (DW_TAG_enumerator)
    <ef1>   DW_AT_name        : (indirect string, offset: 0xbd5): _NL_NUM_LC_PAPER
    <ef5>   DW_AT_const_value : 0x70003
 <2><ef9>: Abbrev Number: 18 (DW_TAG_enumerator)
    <efa>   DW_AT_name        : (indirect string, offset: 0xbf4): _NL_NAME_NAME_FMT
    <efe>   DW_AT_const_value : 0x80000
 <2><f02>: Abbrev Number: 18 (DW_TAG_enumerator)
    <f03>   DW_AT_name        : (indirect string, offset: 0xb15): _NL_NAME_NAME_GEN
    <f07>   DW_AT_const_value : 0x80001
 <2><f0b>: Abbrev Number: 18 (DW_TAG_enumerator)
    <f0c>   DW_AT_name        : (indirect string, offset: 0x22c5): _NL_NAME_NAME_MR
    <f10>   DW_AT_const_value : 0x80002
 <2><f14>: Abbrev Number: 18 (DW_TAG_enumerator)
    <f15>   DW_AT_name        : (indirect string, offset: 0x47d): _NL_NAME_NAME_MRS
    <f19>   DW_AT_const_value : 0x80003
 <2><f1d>: Abbrev Number: 18 (DW_TAG_enumerator)
    <f1e>   DW_AT_name        : (indirect string, offset: 0xb02): _NL_NAME_NAME_MISS
    <f22>   DW_AT_const_value : 0x80004
 <2><f26>: Abbrev Number: 18 (DW_TAG_enumerator)
    <f27>   DW_AT_name        : (indirect string, offset: 0x22d6): _NL_NAME_NAME_MS
    <f2b>   DW_AT_const_value : 0x80005
 <2><f2f>: Abbrev Number: 18 (DW_TAG_enumerator)
    <f30>   DW_AT_name        : (indirect string, offset: 0x317): _NL_NAME_CODESET
    <f34>   DW_AT_const_value : 0x80006
 <2><f38>: Abbrev Number: 18 (DW_TAG_enumerator)
    <f39>   DW_AT_name        : (indirect string, offset: 0x1c2d): _NL_NUM_LC_NAME
    <f3d>   DW_AT_const_value : 0x80007
 <2><f41>: Abbrev Number: 18 (DW_TAG_enumerator)
    <f42>   DW_AT_name        : (indirect string, offset: 0x1f68): _NL_ADDRESS_POSTAL_FMT
    <f46>   DW_AT_const_value : 0x90000
 <2><f4a>: Abbrev Number: 18 (DW_TAG_enumerator)
    <f4b>   DW_AT_name        : (indirect string, offset: 0x452): _NL_ADDRESS_COUNTRY_NAME
    <f4f>   DW_AT_const_value : 0x90001
 <2><f53>: Abbrev Number: 18 (DW_TAG_enumerator)
    <f54>   DW_AT_name        : (indirect string, offset: 0x11d9): _NL_ADDRESS_COUNTRY_POST
    <f58>   DW_AT_const_value : 0x90002
 <2><f5c>: Abbrev Number: 18 (DW_TAG_enumerator)
    <f5d>   DW_AT_name        : (indirect string, offset: 0xc1d): _NL_ADDRESS_COUNTRY_AB2
    <f61>   DW_AT_const_value : 0x90003
 <2><f65>: Abbrev Number: 18 (DW_TAG_enumerator)
    <f66>   DW_AT_name        : (indirect string, offset: 0xc35): _NL_ADDRESS_COUNTRY_AB3
    <f6a>   DW_AT_const_value : 0x90004
 <2><f6e>: Abbrev Number: 18 (DW_TAG_enumerator)
    <f6f>   DW_AT_name        : (indirect string, offset: 0x9c8): _NL_ADDRESS_COUNTRY_CAR
    <f73>   DW_AT_const_value : 0x90005
 <2><f77>: Abbrev Number: 18 (DW_TAG_enumerator)
    <f78>   DW_AT_name        : (indirect string, offset: 0x20ad): _NL_ADDRESS_COUNTRY_NUM
    <f7c>   DW_AT_const_value : 0x90006
 <2><f80>: Abbrev Number: 18 (DW_TAG_enumerator)
    <f81>   DW_AT_name        : (indirect string, offset: 0x947): _NL_ADDRESS_COUNTRY_ISBN
    <f85>   DW_AT_const_value : 0x90007
 <2><f89>: Abbrev Number: 18 (DW_TAG_enumerator)
    <f8a>   DW_AT_name        : (indirect string, offset: 0x8ff): _NL_ADDRESS_LANG_NAME
    <f8e>   DW_AT_const_value : 0x90008
 <2><f92>: Abbrev Number: 18 (DW_TAG_enumerator)
    <f93>   DW_AT_name        : (indirect string, offset: 0x1924): _NL_ADDRESS_LANG_AB
    <f97>   DW_AT_const_value : 0x90009
 <2><f9b>: Abbrev Number: 18 (DW_TAG_enumerator)
    <f9c>   DW_AT_name        : (indirect string, offset: 0x14db): _NL_ADDRESS_LANG_TERM
    <fa0>   DW_AT_const_value : 0x9000a
 <2><fa4>: Abbrev Number: 18 (DW_TAG_enumerator)
    <fa5>   DW_AT_name        : (indirect string, offset: 0x34e): _NL_ADDRESS_LANG_LIB
    <fa9>   DW_AT_const_value : 0x9000b
 <2><fad>: Abbrev Number: 18 (DW_TAG_enumerator)
    <fae>   DW_AT_name        : (indirect string, offset: 0x66a): _NL_ADDRESS_CODESET
    <fb2>   DW_AT_const_value : 0x9000c
 <2><fb6>: Abbrev Number: 18 (DW_TAG_enumerator)
    <fb7>   DW_AT_name        : (indirect string, offset: 0x4c1): _NL_NUM_LC_ADDRESS
    <fbb>   DW_AT_const_value : 0x9000d
 <2><fbf>: Abbrev Number: 18 (DW_TAG_enumerator)
    <fc0>   DW_AT_name        : (indirect string, offset: 0x2cd): _NL_TELEPHONE_TEL_INT_FMT
    <fc4>   DW_AT_const_value : 0xa0000
 <2><fc8>: Abbrev Number: 18 (DW_TAG_enumerator)
    <fc9>   DW_AT_name        : (indirect string, offset: 0x8c0): _NL_TELEPHONE_TEL_DOM_FMT
    <fcd>   DW_AT_const_value : 0xa0001
 <2><fd1>: Abbrev Number: 18 (DW_TAG_enumerator)
    <fd2>   DW_AT_name        : (indirect string, offset: 0x1e4f): _NL_TELEPHONE_INT_SELECT
    <fd6>   DW_AT_const_value : 0xa0002
 <2><fda>: Abbrev Number: 18 (DW_TAG_enumerator)
    <fdb>   DW_AT_name        : (indirect string, offset: 0xc6f): _NL_TELEPHONE_INT_PREFIX
    <fdf>   DW_AT_const_value : 0xa0003
 <2><fe3>: Abbrev Number: 18 (DW_TAG_enumerator)
    <fe4>   DW_AT_name        : (indirect string, offset: 0x189a): _NL_TELEPHONE_CODESET
    <fe8>   DW_AT_const_value : 0xa0004
 <2><fec>: Abbrev Number: 18 (DW_TAG_enumerator)
    <fed>   DW_AT_name        : (indirect string, offset: 0x106a): _NL_NUM_LC_TELEPHONE
    <ff1>   DW_AT_const_value : 0xa0005
 <2><ff5>: Abbrev Number: 18 (DW_TAG_enumerator)
    <ff6>   DW_AT_name        : (indirect string, offset: 0x1b9f): _NL_MEASUREMENT_MEASUREMENT
    <ffa>   DW_AT_const_value : 0xb0000
 <2><ffe>: Abbrev Number: 18 (DW_TAG_enumerator)
    <fff>   DW_AT_name        : (indirect string, offset: 0x2ad): _NL_MEASUREMENT_CODESET
    <1003>   DW_AT_const_value : 0xb0001
 <2><1007>: Abbrev Number: 18 (DW_TAG_enumerator)
    <1008>   DW_AT_name        : (indirect string, offset: 0x16b2): _NL_NUM_LC_MEASUREMENT
    <100c>   DW_AT_const_value : 0xb0002
 <2><1010>: Abbrev Number: 18 (DW_TAG_enumerator)
    <1011>   DW_AT_name        : (indirect string, offset: 0x1612): _NL_IDENTIFICATION_TITLE
    <1015>   DW_AT_const_value : 0xc0000
 <2><1019>: Abbrev Number: 18 (DW_TAG_enumerator)
    <101a>   DW_AT_name        : (indirect string, offset: 0x19ec): _NL_IDENTIFICATION_SOURCE
    <101e>   DW_AT_const_value : 0xc0001
 <2><1022>: Abbrev Number: 18 (DW_TAG_enumerator)
    <1023>   DW_AT_name        : (indirect string, offset: 0x414): _NL_IDENTIFICATION_ADDRESS
    <1027>   DW_AT_const_value : 0xc0002
 <2><102b>: Abbrev Number: 18 (DW_TAG_enumerator)
    <102c>   DW_AT_name        : (indirect string, offset: 0x12ec): _NL_IDENTIFICATION_CONTACT
    <1030>   DW_AT_const_value : 0xc0003
 <2><1034>: Abbrev Number: 18 (DW_TAG_enumerator)
    <1035>   DW_AT_name        : (indirect string, offset: 0x1a4): _NL_IDENTIFICATION_EMAIL
    <1039>   DW_AT_const_value : 0xc0004
 <2><103d>: Abbrev Number: 18 (DW_TAG_enumerator)
    <103e>   DW_AT_name        : (indirect string, offset: 0x1e38): _NL_IDENTIFICATION_TEL
    <1042>   DW_AT_const_value : 0xc0005
 <2><1046>: Abbrev Number: 18 (DW_TAG_enumerator)
    <1047>   DW_AT_name        : (indirect string, offset: 0xea7): _NL_IDENTIFICATION_FAX
    <104b>   DW_AT_const_value : 0xc0006
 <2><104f>: Abbrev Number: 18 (DW_TAG_enumerator)
    <1050>   DW_AT_name        : (indirect string, offset: 0xe42): _NL_IDENTIFICATION_LANGUAGE
    <1054>   DW_AT_const_value : 0xc0007
 <2><1058>: Abbrev Number: 18 (DW_TAG_enumerator)
    <1059>   DW_AT_name        : (indirect string, offset: 0x2265): _NL_IDENTIFICATION_TERRITORY
    <105d>   DW_AT_const_value : 0xc0008
 <2><1061>: Abbrev Number: 18 (DW_TAG_enumerator)
    <1062>   DW_AT_name        : (indirect string, offset: 0x2175): _NL_IDENTIFICATION_AUDIENCE
    <1066>   DW_AT_const_value : 0xc0009
 <2><106a>: Abbrev Number: 18 (DW_TAG_enumerator)
    <106b>   DW_AT_name        : (indirect string, offset: 0x531): _NL_IDENTIFICATION_APPLICATION
    <106f>   DW_AT_const_value : 0xc000a
 <2><1073>: Abbrev Number: 18 (DW_TAG_enumerator)
    <1074>   DW_AT_name        : (indirect string, offset: 0x7e8): _NL_IDENTIFICATION_ABBREVIATION
    <1078>   DW_AT_const_value : 0xc000b
 <2><107c>: Abbrev Number: 18 (DW_TAG_enumerator)
    <107d>   DW_AT_name        : (indirect string, offset: 0x6e9): _NL_IDENTIFICATION_REVISION
    <1081>   DW_AT_const_value : 0xc000c
 <2><1085>: Abbrev Number: 18 (DW_TAG_enumerator)
    <1086>   DW_AT_name        : (indirect string, offset: 0x1882): _NL_IDENTIFICATION_DATE
    <108a>   DW_AT_const_value : 0xc000d
 <2><108e>: Abbrev Number: 18 (DW_TAG_enumerator)
    <108f>   DW_AT_name        : (indirect string, offset: 0xf09): _NL_IDENTIFICATION_CATEGORY
    <1093>   DW_AT_const_value : 0xc000e
 <2><1097>: Abbrev Number: 18 (DW_TAG_enumerator)
    <1098>   DW_AT_name        : (indirect string, offset: 0x22aa): _NL_IDENTIFICATION_CODESET
    <109c>   DW_AT_const_value : 0xc000f
 <2><10a0>: Abbrev Number: 18 (DW_TAG_enumerator)
    <10a1>   DW_AT_name        : (indirect string, offset: 0x10d9): _NL_NUM_LC_IDENTIFICATION
    <10a5>   DW_AT_const_value : 0xc0010
 <2><10a9>: Abbrev Number: 18 (DW_TAG_enumerator)
    <10aa>   DW_AT_name        : (indirect string, offset: 0xb73): _NL_NUM
    <10ae>   DW_AT_const_value : 0xc0011
 <2><10b2>: Abbrev Number: 0
 <1><10b3>: Abbrev Number: 21 (DW_TAG_structure_type)
    <10b4>   DW_AT_name        : tm
    <10b7>   DW_AT_byte_size   : 56
    <10b8>   DW_AT_decl_file   : 13
    <10b9>   DW_AT_decl_line   : 7
    <10ba>   DW_AT_decl_column : 8
    <10bb>   DW_AT_sibling     : <0x114f>
 <2><10bf>: Abbrev Number: 9 (DW_TAG_member)
    <10c0>   DW_AT_name        : (indirect string, offset: 0x1180): tm_sec
    <10c4>   DW_AT_decl_file   : 13
    <10c5>   DW_AT_decl_line   : 9
    <10c6>   DW_AT_decl_column : 7
    <10c7>   DW_AT_type        : <0x65>
    <10cb>   DW_AT_data_member_location: 0
 <2><10cc>: Abbrev Number: 9 (DW_TAG_member)
    <10cd>   DW_AT_name        : (indirect string, offset: 0xf9e): tm_min
    <10d1>   DW_AT_decl_file   : 13
    <10d2>   DW_AT_decl_line   : 10
    <10d3>   DW_AT_decl_column : 7
    <10d4>   DW_AT_type        : <0x65>
    <10d8>   DW_AT_data_member_location: 4
 <2><10d9>: Abbrev Number: 9 (DW_TAG_member)
    <10da>   DW_AT_name        : (indirect string, offset: 0x1708): tm_hour
    <10de>   DW_AT_decl_file   : 13
    <10df>   DW_AT_decl_line   : 11
    <10e0>   DW_AT_decl_column : 7
    <10e1>   DW_AT_type        : <0x65>
    <10e5>   DW_AT_data_member_location: 8
 <2><10e6>: Abbrev Number: 9 (DW_TAG_member)
    <10e7>   DW_AT_name        : (indirect string, offset: 0x186c): tm_mday
    <10eb>   DW_AT_decl_file   : 13
    <10ec>   DW_AT_decl_line   : 12
    <10ed>   DW_AT_decl_column : 7
    <10ee>   DW_AT_type        : <0x65>
    <10f2>   DW_AT_data_member_location: 12
 <2><10f3>: Abbrev Number: 9 (DW_TAG_member)
    <10f4>   DW_AT_name        : (indirect string, offset: 0x1372): tm_mon
    <10f8>   DW_AT_decl_file   : 13
    <10f9>   DW_AT_decl_line   : 13
    <10fa>   DW_AT_decl_column : 7
    <10fb>   DW_AT_type        : <0x65>
    <10ff>   DW_AT_data_member_location: 16
 <2><1100>: Abbrev Number: 9 (DW_TAG_member)
    <1101>   DW_AT_name        : (indirect string, offset: 0x344a): tm_year
    <1105>   DW_AT_decl_file   : 13
    <1106>   DW_AT_decl_line   : 14
    <1107>   DW_AT_decl_column : 7
    <1108>   DW_AT_type        : <0x65>
    <110c>   DW_AT_data_member_location: 20
 <2><110d>: Abbrev Number: 9 (DW_TAG_member)
    <110e>   DW_AT_name        : (indirect string, offset: 0x1204): tm_wday
    <1112>   DW_AT_decl_file   : 13
    <1113>   DW_AT_decl_line   : 15
    <1114>   DW_AT_decl_column : 7
    <1115>   DW_AT_type        : <0x65>
    <1119>   DW_AT_data_member_location: 24
 <2><111a>: Abbrev Number: 9 (DW_TAG_member)
    <111b>   DW_AT_name        : (indirect string, offset: 0x10a2): tm_yday
    <111f>   DW_AT_decl_file   : 13
    <1120>   DW_AT_decl_line   : 16
    <1121>   DW_AT_decl_column : 7
    <1122>   DW_AT_type        : <0x65>
    <1126>   DW_AT_data_member_location: 28
 <2><1127>: Abbrev Number: 9 (DW_TAG_member)
    <1128>   DW_AT_name        : (indirect string, offset: 0x1c08): tm_isdst
    <112c>   DW_AT_decl_file   : 13
    <112d>   DW_AT_decl_line   : 17
    <112e>   DW_AT_decl_column : 7
    <112f>   DW_AT_type        : <0x65>
    <1133>   DW_AT_data_member_location: 32
 <2><1134>: Abbrev Number: 9 (DW_TAG_member)
    <1135>   DW_AT_name        : (indirect string, offset: 0x1cb2): tm_gmtoff
    <1139>   DW_AT_decl_file   : 13
    <113a>   DW_AT_decl_line   : 20
    <113b>   DW_AT_decl_column : 12
    <113c>   DW_AT_type        : <0x6c>
    <1140>   DW_AT_data_member_location: 40
 <2><1141>: Abbrev Number: 9 (DW_TAG_member)
    <1142>   DW_AT_name        : (indirect string, offset: 0x8f7): tm_zone
    <1146>   DW_AT_decl_file   : 13
    <1147>   DW_AT_decl_line   : 21
    <1148>   DW_AT_decl_column : 15
    <1149>   DW_AT_type        : <0x31a>
    <114d>   DW_AT_data_member_location: 48
 <2><114e>: Abbrev Number: 0
 <1><114f>: Abbrev Number: 7 (DW_TAG_const_type)
    <1150>   DW_AT_type        : <0x10b3>
 <1><1154>: Abbrev Number: 22 (DW_TAG_typedef)
    <1155>   DW_AT_name        : (indirect string, offset: 0x19c4): timezone_t
    <1159>   DW_AT_decl_file   : 14
    <115a>   DW_AT_decl_line   : 867
    <115c>   DW_AT_decl_column : 25
    <115d>   DW_AT_type        : <0x1161>
 <1><1161>: Abbrev Number: 6 (DW_TAG_pointer_type)
    <1162>   DW_AT_byte_size   : 8
    <1163>   DW_AT_type        : <0x1167>
 <1><1167>: Abbrev Number: 11 (DW_TAG_structure_type)
    <1168>   DW_AT_name        : (indirect string, offset: 0x8f7): tm_zone
    <116c>   DW_AT_declaration : 1
 <1><116c>: Abbrev Number: 8 (DW_TAG_structure_type)
    <116d>   DW_AT_name        : (indirect string, offset: 0x278): stat
    <1171>   DW_AT_byte_size   : 144
    <1172>   DW_AT_decl_file   : 15
    <1173>   DW_AT_decl_line   : 46
    <1174>   DW_AT_decl_column : 8
    <1175>   DW_AT_sibling     : <0x123d>
 <2><1179>: Abbrev Number: 9 (DW_TAG_member)
    <117a>   DW_AT_name        : (indirect string, offset: 0x19e5): st_dev
    <117e>   DW_AT_decl_file   : 15
    <117f>   DW_AT_decl_line   : 48
    <1180>   DW_AT_decl_column : 13
    <1181>   DW_AT_type        : <0x7f>
    <1185>   DW_AT_data_member_location: 0
 <2><1186>: Abbrev Number: 9 (DW_TAG_member)
    <1187>   DW_AT_name        : (indirect string, offset: 0xcdf): st_ino
    <118b>   DW_AT_decl_file   : 15
    <118c>   DW_AT_decl_line   : 53
    <118d>   DW_AT_decl_column : 13
    <118e>   DW_AT_type        : <0xa3>
    <1192>   DW_AT_data_member_location: 8
 <2><1193>: Abbrev Number: 9 (DW_TAG_member)
    <1194>   DW_AT_name        : (indirect string, offset: 0x4fb): st_nlink
    <1198>   DW_AT_decl_file   : 15
    <1199>   DW_AT_decl_line   : 61
    <119a>   DW_AT_decl_column : 15
    <119b>   DW_AT_type        : <0xbb>
    <119f>   DW_AT_data_member_location: 16
 <2><11a0>: Abbrev Number: 9 (DW_TAG_member)
    <11a1>   DW_AT_name        : (indirect string, offset: 0x14e): st_mode
    <11a5>   DW_AT_decl_file   : 15
    <11a6>   DW_AT_decl_line   : 62
    <11a7>   DW_AT_decl_column : 14
    <11a8>   DW_AT_type        : <0xaf>
    <11ac>   DW_AT_data_member_location: 24
 <2><11ad>: Abbrev Number: 9 (DW_TAG_member)
    <11ae>   DW_AT_name        : (indirect string, offset: 0xede): st_uid
    <11b2>   DW_AT_decl_file   : 15
    <11b3>   DW_AT_decl_line   : 64
    <11b4>   DW_AT_decl_column : 13
    <11b5>   DW_AT_type        : <0x8b>
    <11b9>   DW_AT_data_member_location: 28
 <2><11ba>: Abbrev Number: 9 (DW_TAG_member)
    <11bb>   DW_AT_name        : (indirect string, offset: 0x42f): st_gid
    <11bf>   DW_AT_decl_file   : 15
    <11c0>   DW_AT_decl_line   : 65
    <11c1>   DW_AT_decl_column : 13
    <11c2>   DW_AT_type        : <0x97>
    <11c6>   DW_AT_data_member_location: 32
 <2><11c7>: Abbrev Number: 9 (DW_TAG_member)
    <11c8>   DW_AT_name        : (indirect string, offset: 0x1874): __pad0
    <11cc>   DW_AT_decl_file   : 15
    <11cd>   DW_AT_decl_line   : 67
    <11ce>   DW_AT_decl_column : 9
    <11cf>   DW_AT_type        : <0x65>
    <11d3>   DW_AT_data_member_location: 36
 <2><11d4>: Abbrev Number: 9 (DW_TAG_member)
    <11d5>   DW_AT_name        : (indirect string, offset: 0x19bc): st_rdev
    <11d9>   DW_AT_decl_file   : 15
    <11da>   DW_AT_decl_line   : 69
    <11db>   DW_AT_decl_column : 13
    <11dc>   DW_AT_type        : <0x7f>
    <11e0>   DW_AT_data_member_location: 40
 <2><11e1>: Abbrev Number: 9 (DW_TAG_member)
    <11e2>   DW_AT_name        : (indirect string, offset: 0x2e7): st_size
    <11e6>   DW_AT_decl_file   : 15
    <11e7>   DW_AT_decl_line   : 74
    <11e8>   DW_AT_decl_column : 13
    <11e9>   DW_AT_type        : <0xc7>
    <11ed>   DW_AT_data_member_location: 48
 <2><11ee>: Abbrev Number: 9 (DW_TAG_member)
    <11ef>   DW_AT_name        : (indirect string, offset: 0x39f): st_blksize
    <11f3>   DW_AT_decl_file   : 15
    <11f4>   DW_AT_decl_line   : 78
    <11f5>   DW_AT_decl_column : 17
    <11f6>   DW_AT_type        : <0xeb>
    <11fa>   DW_AT_data_member_location: 56
 <2><11fb>: Abbrev Number: 9 (DW_TAG_member)
    <11fc>   DW_AT_name        : (indirect string, offset: 0x1c5d): st_blocks
    <1200>   DW_AT_decl_file   : 15
    <1201>   DW_AT_decl_line   : 80
    <1202>   DW_AT_decl_column : 16
    <1203>   DW_AT_type        : <0xf7>
    <1207>   DW_AT_data_member_location: 64
 <2><1208>: Abbrev Number: 9 (DW_TAG_member)
    <1209>   DW_AT_name        : (indirect string, offset: 0x619): st_atim
    <120d>   DW_AT_decl_file   : 15
    <120e>   DW_AT_decl_line   : 91
    <120f>   DW_AT_decl_column : 21
    <1210>   DW_AT_type        : <0x390>
    <1214>   DW_AT_data_member_location: 72
 <2><1215>: Abbrev Number: 9 (DW_TAG_member)
    <1216>   DW_AT_name        : (indirect string, offset: 0x21cb): st_mtim
    <121a>   DW_AT_decl_file   : 15
    <121b>   DW_AT_decl_line   : 92
    <121c>   DW_AT_decl_column : 21
    <121d>   DW_AT_type        : <0x390>
    <1221>   DW_AT_data_member_location: 88
 <2><1222>: Abbrev Number: 9 (DW_TAG_member)
    <1223>   DW_AT_name        : (indirect string, offset: 0x566): st_ctim
    <1227>   DW_AT_decl_file   : 15
    <1228>   DW_AT_decl_line   : 93
    <1229>   DW_AT_decl_column : 21
    <122a>   DW_AT_type        : <0x390>
    <122e>   DW_AT_data_member_location: 104
 <2><122f>: Abbrev Number: 9 (DW_TAG_member)
    <1230>   DW_AT_name        : (indirect string, offset: 0x1679): __glibc_reserved
    <1234>   DW_AT_decl_file   : 15
    <1235>   DW_AT_decl_line   : 106
    <1236>   DW_AT_decl_column : 23
    <1237>   DW_AT_type        : <0x1242>
    <123b>   DW_AT_data_member_location: 120
 <2><123c>: Abbrev Number: 0
 <1><123d>: Abbrev Number: 7 (DW_TAG_const_type)
    <123e>   DW_AT_type        : <0x116c>
 <1><1242>: Abbrev Number: 12 (DW_TAG_array_type)
    <1243>   DW_AT_type        : <0x10f>
    <1247>   DW_AT_sibling     : <0x1252>
 <2><124b>: Abbrev Number: 13 (DW_TAG_subrange_type)
    <124c>   DW_AT_type        : <0x39>
    <1250>   DW_AT_upper_bound : 2
 <2><1251>: Abbrev Number: 0
 <1><1252>: Abbrev Number: 23 (DW_TAG_subroutine_type)
    <1253>   DW_AT_prototyped  : 1
 <1><1253>: Abbrev Number: 6 (DW_TAG_pointer_type)
    <1254>   DW_AT_byte_size   : 8
    <1255>   DW_AT_type        : <0x1252>
 <1><1259>: Abbrev Number: 6 (DW_TAG_pointer_type)
    <125a>   DW_AT_byte_size   : 8
    <125b>   DW_AT_type        : <0x11b>
 <1><125f>: Abbrev Number: 14 (DW_TAG_restrict_type)
    <1260>   DW_AT_type        : <0x1259>
 <1><1264>: Abbrev Number: 6 (DW_TAG_pointer_type)
    <1265>   DW_AT_byte_size   : 8
    <1266>   DW_AT_type        : <0x126a>
 <1><126a>: Abbrev Number: 24 (DW_TAG_const_type)
 <1><126b>: Abbrev Number: 15 (DW_TAG_variable)
    <126c>   DW_AT_name        : (indirect string, offset: 0x8b8): Version
    <1270>   DW_AT_decl_file   : 16
    <1271>   DW_AT_decl_line   : 1
    <1272>   DW_AT_decl_column : 20
    <1273>   DW_AT_type        : <0x31a>
    <1277>   DW_AT_external    : 1
    <1277>   DW_AT_declaration : 1
 <1><1277>: Abbrev Number: 2 (DW_TAG_typedef)
    <1278>   DW_AT_name        : (indirect string, offset: 0x169c): intmax_t
    <127c>   DW_AT_decl_file   : 17
    <127d>   DW_AT_decl_line   : 101
    <127e>   DW_AT_decl_column : 21
    <127f>   DW_AT_type        : <0x73>
 <1><1283>: Abbrev Number: 17 (DW_TAG_enumeration_type)
    <1284>   DW_AT_encoding    : 7	(unsigned)
    <1285>   DW_AT_byte_size   : 4
    <1286>   DW_AT_type        : <0x40>
    <128a>   DW_AT_decl_file   : 19
    <128b>   DW_AT_decl_line   : 41
    <128c>   DW_AT_decl_column : 6
    <128d>   DW_AT_sibling     : <0x129b>
 <2><1291>: Abbrev Number: 18 (DW_TAG_enumerator)
    <1292>   DW_AT_name        : (indirect string, offset: 0x172f): TIMESPEC_HZ
    <1296>   DW_AT_const_value : 0x3b9aca00
 <2><129a>: Abbrev Number: 0
 <1><129b>: Abbrev Number: 17 (DW_TAG_enumeration_type)
    <129c>   DW_AT_encoding    : 7	(unsigned)
    <129d>   DW_AT_byte_size   : 4
    <129e>   DW_AT_type        : <0x40>
    <12a2>   DW_AT_decl_file   : 19
    <12a3>   DW_AT_decl_line   : 42
    <12a4>   DW_AT_decl_column : 6
    <12a5>   DW_AT_sibling     : <0x12b0>
 <2><12a9>: Abbrev Number: 20 (DW_TAG_enumerator)
    <12aa>   DW_AT_name        : (indirect string, offset: 0x1729): LOG10_TIMESPEC_HZ
    <12ae>   DW_AT_const_value : 9
 <2><12af>: Abbrev Number: 0
 <1><12b0>: Abbrev Number: 25 (DW_TAG_enumeration_type)
    <12b1>   DW_AT_encoding    : 5	(signed)
    <12b2>   DW_AT_byte_size   : 4
    <12b3>   DW_AT_type        : <0x65>
    <12b7>   DW_AT_decl_file   : 1
    <12b8>   DW_AT_decl_line   : 330
    <12ba>   DW_AT_decl_column : 1
    <12bb>   DW_AT_sibling     : <0x12ce>
 <2><12bf>: Abbrev Number: 26 (DW_TAG_enumerator)
    <12c0>   DW_AT_name        : (indirect string, offset: 0x2282): GETOPT_HELP_CHAR
    <12c4>   DW_AT_const_value : -130
 <2><12c6>: Abbrev Number: 26 (DW_TAG_enumerator)
    <12c7>   DW_AT_name        : (indirect string, offset: 0xe89): GETOPT_VERSION_CHAR
    <12cb>   DW_AT_const_value : -131
 <2><12cd>: Abbrev Number: 0
 <1><12ce>: Abbrev Number: 15 (DW_TAG_variable)
    <12cf>   DW_AT_name        : (indirect string, offset: 0x1917): program_name
    <12d3>   DW_AT_decl_file   : 20
    <12d4>   DW_AT_decl_line   : 32
    <12d5>   DW_AT_decl_column : 20
    <12d6>   DW_AT_type        : <0x31a>
    <12da>   DW_AT_external    : 1
    <12da>   DW_AT_declaration : 1
 <1><12da>: Abbrev Number: 27 (DW_TAG_enumeration_type)
    <12db>   DW_AT_name        : (indirect string, offset: 0x168c): quoting_style
    <12df>   DW_AT_encoding    : 7	(unsigned)
    <12e0>   DW_AT_byte_size   : 4
    <12e1>   DW_AT_type        : <0x40>
    <12e5>   DW_AT_decl_file   : 22
    <12e6>   DW_AT_decl_line   : 32
    <12e7>   DW_AT_decl_column : 6
    <12e8>   DW_AT_sibling     : <0x132f>
 <2><12ec>: Abbrev Number: 20 (DW_TAG_enumerator)
    <12ed>   DW_AT_name        : (indirect string, offset: 0x14f1): literal_quoting_style
    <12f1>   DW_AT_const_value : 0
 <2><12f2>: Abbrev Number: 20 (DW_TAG_enumerator)
    <12f3>   DW_AT_name        : (indirect string, offset: 0xccb): shell_quoting_style
    <12f7>   DW_AT_const_value : 1
 <2><12f8>: Abbrev Number: 20 (DW_TAG_enumerator)
    <12f9>   DW_AT_name        : (indirect string, offset: 0x7cd): shell_always_quoting_style
    <12fd>   DW_AT_const_value : 2
 <2><12fe>: Abbrev Number: 20 (DW_TAG_enumerator)
    <12ff>   DW_AT_name        : (indirect string, offset: 0x18f8): shell_escape_quoting_style
    <1303>   DW_AT_const_value : 3
 <2><1304>: Abbrev Number: 20 (DW_TAG_enumerator)
    <1305>   DW_AT_name        : (indirect string, offset: 0x184a): shell_escape_always_quoting_style
    <1309>   DW_AT_const_value : 4
 <2><130a>: Abbrev Number: 20 (DW_TAG_enumerator)
    <130b>   DW_AT_name        : (indirect string, offset: 0x168a): c_quoting_style
    <130f>   DW_AT_const_value : 5
 <2><1310>: Abbrev Number: 20 (DW_TAG_enumerator)
    <1311>   DW_AT_name        : (indirect string, offset: 0x1260): c_maybe_quoting_style
    <1315>   DW_AT_const_value : 6
 <2><1316>: Abbrev Number: 20 (DW_TAG_enumerator)
    <1317>   DW_AT_name        : (indirect string, offset: 0x18fe): escape_quoting_style
    <131b>   DW_AT_const_value : 7
 <2><131c>: Abbrev Number: 20 (DW_TAG_enumerator)
    <131d>   DW_AT_name        : (indirect string, offset: 0x1825): locale_quoting_style
    <1321>   DW_AT_const_value : 8
 <2><1322>: Abbrev Number: 20 (DW_TAG_enumerator)
    <1323>   DW_AT_name        : (indirect string, offset: 0x1824): clocale_quoting_style
    <1327>   DW_AT_const_value : 9
 <2><1328>: Abbrev Number: 20 (DW_TAG_enumerator)
    <1329>   DW_AT_name        : (indirect string, offset: 0xb7b): custom_quoting_style
    <132d>   DW_AT_const_value : 10
 <2><132e>: Abbrev Number: 0
 <1><132f>: Abbrev Number: 2 (DW_TAG_typedef)
    <1330>   DW_AT_name        : (indirect string, offset: 0x1ef3): argmatch_exit_fn
    <1334>   DW_AT_decl_file   : 21
    <1335>   DW_AT_decl_line   : 67
    <1336>   DW_AT_decl_column : 16
    <1337>   DW_AT_type        : <0x1253>
 <1><133b>: Abbrev Number: 15 (DW_TAG_variable)
    <133c>   DW_AT_name        : (indirect string, offset: 0x2375): argmatch_die
    <1340>   DW_AT_decl_file   : 21
    <1341>   DW_AT_decl_line   : 68
    <1342>   DW_AT_decl_column : 25
    <1343>   DW_AT_type        : <0x132f>
    <1347>   DW_AT_external    : 1
    <1347>   DW_AT_declaration : 1
 <1><1347>: Abbrev Number: 27 (DW_TAG_enumeration_type)
    <1348>   DW_AT_name        : (indirect string, offset: 0xe9d): Time_spec
    <134c>   DW_AT_encoding    : 7	(unsigned)
    <134d>   DW_AT_byte_size   : 4
    <134e>   DW_AT_type        : <0x40>
    <1352>   DW_AT_decl_file   : 2
    <1353>   DW_AT_decl_line   : 44
    <1354>   DW_AT_decl_column : 6
    <1355>   DW_AT_sibling     : <0x1378>
 <2><1359>: Abbrev Number: 20 (DW_TAG_enumerator)
    <135a>   DW_AT_name        : (indirect string, offset: 0x1ee4): TIME_SPEC_DATE
    <135e>   DW_AT_const_value : 0
 <2><135f>: Abbrev Number: 20 (DW_TAG_enumerator)
    <1360>   DW_AT_name        : (indirect string, offset: 0x1db7): TIME_SPEC_SECONDS
    <1364>   DW_AT_const_value : 1
 <2><1365>: Abbrev Number: 20 (DW_TAG_enumerator)
    <1366>   DW_AT_name        : (indirect string, offset: 0x1a2f): TIME_SPEC_NS
    <136a>   DW_AT_const_value : 2
 <2><136b>: Abbrev Number: 20 (DW_TAG_enumerator)
    <136c>   DW_AT_name        : (indirect string, offset: 0x23d): TIME_SPEC_HOURS
    <1370>   DW_AT_const_value : 3
 <2><1371>: Abbrev Number: 20 (DW_TAG_enumerator)
    <1372>   DW_AT_name        : (indirect string, offset: 0x1f27): TIME_SPEC_MINUTES
    <1376>   DW_AT_const_value : 4
 <2><1377>: Abbrev Number: 0
 <1><1378>: Abbrev Number: 7 (DW_TAG_const_type)
    <1379>   DW_AT_type        : <0x1347>
 <1><137d>: Abbrev Number: 12 (DW_TAG_array_type)
    <137e>   DW_AT_type        : <0x320>
    <1382>   DW_AT_sibling     : <0x138d>
 <2><1386>: Abbrev Number: 13 (DW_TAG_subrange_type)
    <1387>   DW_AT_type        : <0x39>
    <138b>   DW_AT_upper_bound : 5
 <2><138c>: Abbrev Number: 0
 <1><138d>: Abbrev Number: 7 (DW_TAG_const_type)
    <138e>   DW_AT_type        : <0x137d>
 <1><1392>: Abbrev Number: 28 (DW_TAG_variable)
    <1393>   DW_AT_name        : (indirect string, offset: 0x1cbc): time_spec_string
    <1397>   DW_AT_decl_file   : 2
    <1398>   DW_AT_decl_line   : 61
    <1399>   DW_AT_decl_column : 26
    <139a>   DW_AT_type        : <0x138d>
    <139e>   DW_AT_location    : 9 byte block: 3 e0 2f 2 0 0 0 0 0 	(DW_OP_addr: 22fe0)
 <1><13a8>: Abbrev Number: 12 (DW_TAG_array_type)
    <13a9>   DW_AT_type        : <0x1378>
    <13ad>   DW_AT_sibling     : <0x13b8>
 <2><13b1>: Abbrev Number: 13 (DW_TAG_subrange_type)
    <13b2>   DW_AT_type        : <0x39>
    <13b6>   DW_AT_upper_bound : 4
 <2><13b7>: Abbrev Number: 0
 <1><13b8>: Abbrev Number: 7 (DW_TAG_const_type)
    <13b9>   DW_AT_type        : <0x13a8>
 <1><13bd>: Abbrev Number: 28 (DW_TAG_variable)
    <13be>   DW_AT_name        : (indirect string, offset: 0x11f2): time_spec
    <13c2>   DW_AT_decl_file   : 2
    <13c3>   DW_AT_decl_line   : 68
    <13c4>   DW_AT_decl_column : 29
    <13c5>   DW_AT_type        : <0x13b8>
    <13c9>   DW_AT_location    : 9 byte block: 3 0 c2 1 0 0 0 0 0 	(DW_OP_addr: 1c200)
 <1><13d3>: Abbrev Number: 12 (DW_TAG_array_type)
    <13d4>   DW_AT_type        : <0x12d>
    <13d8>   DW_AT_sibling     : <0x13e3>
 <2><13dc>: Abbrev Number: 13 (DW_TAG_subrange_type)
    <13dd>   DW_AT_type        : <0x39>
    <13e1>   DW_AT_upper_bound : 24
 <2><13e2>: Abbrev Number: 0
 <1><13e3>: Abbrev Number: 7 (DW_TAG_const_type)
    <13e4>   DW_AT_type        : <0x13d3>
 <1><13e8>: Abbrev Number: 28 (DW_TAG_variable)
    <13e9>   DW_AT_name        : (indirect string, offset: 0x1c8f): rfc_email_format
    <13ed>   DW_AT_decl_file   : 2
    <13ee>   DW_AT_decl_line   : 76
    <13ef>   DW_AT_decl_column : 19
    <13f0>   DW_AT_type        : <0x13e3>
    <13f4>   DW_AT_location    : 9 byte block: 3 20 c2 1 0 0 0 0 0 	(DW_OP_addr: 1c220)
 <1><13fe>: Abbrev Number: 17 (DW_TAG_enumeration_type)
    <13ff>   DW_AT_encoding    : 7	(unsigned)
    <1400>   DW_AT_byte_size   : 4
    <1401>   DW_AT_type        : <0x40>
    <1405>   DW_AT_decl_file   : 2
    <1406>   DW_AT_decl_line   : 81
    <1407>   DW_AT_decl_column : 1
    <1408>   DW_AT_sibling     : <0x141f>
 <2><140c>: Abbrev Number: 20 (DW_TAG_enumerator)
    <140d>   DW_AT_name        : (indirect string, offset: 0x1e74): DEBUG_DATE_PARSING_OPTION
    <1411>   DW_AT_const_value : 128
 <2><1412>: Abbrev Number: 20 (DW_TAG_enumerator)
    <1413>   DW_AT_name        : (indirect string, offset: 0x3aa): RESOLUTION_OPTION
    <1417>   DW_AT_const_value : 129
 <2><1418>: Abbrev Number: 20 (DW_TAG_enumerator)
    <1419>   DW_AT_name        : (indirect string, offset: 0x5e7): RFC_3339_OPTION
    <141d>   DW_AT_const_value : 130
 <2><141e>: Abbrev Number: 0
 <1><141f>: Abbrev Number: 12 (DW_TAG_array_type)
    <1420>   DW_AT_type        : <0x12d>
    <1424>   DW_AT_sibling     : <0x142f>
 <2><1428>: Abbrev Number: 13 (DW_TAG_subrange_type)
    <1429>   DW_AT_type        : <0x39>
    <142d>   DW_AT_upper_bound : 13
 <2><142e>: Abbrev Number: 0
 <1><142f>: Abbrev Number: 7 (DW_TAG_const_type)
    <1430>   DW_AT_type        : <0x141f>
 <1><1434>: Abbrev Number: 28 (DW_TAG_variable)
    <1435>   DW_AT_name        : (indirect string, offset: 0xf5f): short_options
    <1439>   DW_AT_decl_file   : 2
    <143a>   DW_AT_decl_line   : 87
    <143b>   DW_AT_decl_column : 19
    <143c>   DW_AT_type        : <0x142f>
    <1440>   DW_AT_location    : 9 byte block: 3 40 c2 1 0 0 0 0 0 	(DW_OP_addr: 1c240)
 <1><144a>: Abbrev Number: 12 (DW_TAG_array_type)
    <144b>   DW_AT_type        : <0x41e>
    <144f>   DW_AT_sibling     : <0x145a>
 <2><1453>: Abbrev Number: 13 (DW_TAG_subrange_type)
    <1454>   DW_AT_type        : <0x39>
    <1458>   DW_AT_upper_bound : 16
 <2><1459>: Abbrev Number: 0
 <1><145a>: Abbrev Number: 7 (DW_TAG_const_type)
    <145b>   DW_AT_type        : <0x144a>
 <1><145f>: Abbrev Number: 28 (DW_TAG_variable)
    <1460>   DW_AT_name        : (indirect string, offset: 0x1b8d): long_options
    <1464>   DW_AT_decl_file   : 2
    <1465>   DW_AT_decl_line   : 89
    <1466>   DW_AT_decl_column : 28
    <1467>   DW_AT_type        : <0x145a>
    <146b>   DW_AT_location    : 9 byte block: 3 20 30 2 0 0 0 0 0 	(DW_OP_addr: 23020)
 <1><1475>: Abbrev Number: 28 (DW_TAG_variable)
    <1476>   DW_AT_name        : (indirect string, offset: 0x15fd): parse_datetime_flags
    <147a>   DW_AT_decl_file   : 2
    <147b>   DW_AT_decl_line   : 111
    <147c>   DW_AT_decl_column : 21
    <147d>   DW_AT_type        : <0x40>
    <1481>   DW_AT_location    : 9 byte block: 3 c 41 2 0 0 0 0 0 	(DW_OP_addr: 2410c)
 <1><148b>: Abbrev Number: 29 (DW_TAG_subprogram)
    <148c>   DW_AT_external    : 1
    <148c>   DW_AT_name        : (indirect string, offset: 0x1e8e): imaxtostr
    <1490>   DW_AT_decl_file   : 23
    <1491>   DW_AT_decl_line   : 25
    <1492>   DW_AT_decl_column : 31
    <1493>   DW_AT_prototyped  : 1
    <1493>   DW_AT_type        : <0x11b>
    <1497>   DW_AT_declaration : 1
    <1497>   DW_AT_sibling     : <0x14a6>
 <2><149b>: Abbrev Number: 30 (DW_TAG_formal_parameter)
    <149c>   DW_AT_type        : <0x1277>
 <2><14a0>: Abbrev Number: 30 (DW_TAG_formal_parameter)
    <14a1>   DW_AT_type        : <0x11b>
 <2><14a5>: Abbrev Number: 0
 <1><14a6>: Abbrev Number: 31 (DW_TAG_subprogram)
    <14a7>   DW_AT_external    : 1
    <14a7>   DW_AT_name        : (indirect string, offset: 0x131e): fputc_unlocked
    <14ab>   DW_AT_decl_file   : 7
    <14ac>   DW_AT_decl_line   : 537
    <14ae>   DW_AT_decl_column : 12
    <14af>   DW_AT_prototyped  : 1
    <14af>   DW_AT_type        : <0x65>
    <14b3>   DW_AT_declaration : 1
    <14b3>   DW_AT_sibling     : <0x14c2>
 <2><14b7>: Abbrev Number: 30 (DW_TAG_formal_parameter)
    <14b8>   DW_AT_type        : <0x65>
 <2><14bc>: Abbrev Number: 30 (DW_TAG_formal_parameter)
    <14bd>   DW_AT_type        : <0x342>
 <2><14c1>: Abbrev Number: 0
 <1><14c2>: Abbrev Number: 29 (DW_TAG_subprogram)
    <14c3>   DW_AT_external    : 1
    <14c3>   DW_AT_name        : (indirect string, offset: 0x101d): fprintftime
    <14c7>   DW_AT_decl_file   : 24
    <14c8>   DW_AT_decl_line   : 28
    <14c9>   DW_AT_decl_column : 8
    <14ca>   DW_AT_prototyped  : 1
    <14ca>   DW_AT_type        : <0x2d>
    <14ce>   DW_AT_declaration : 1
    <14ce>   DW_AT_sibling     : <0x14ec>
 <2><14d2>: Abbrev Number: 30 (DW_TAG_formal_parameter)
    <14d3>   DW_AT_type        : <0x342>
 <2><14d7>: Abbrev Number: 30 (DW_TAG_formal_parameter)
    <14d8>   DW_AT_type        : <0x31a>
 <2><14dc>: Abbrev Number: 30 (DW_TAG_formal_parameter)
    <14dd>   DW_AT_type        : <0x14ec>
 <2><14e1>: Abbrev Number: 30 (DW_TAG_formal_parameter)
    <14e2>   DW_AT_type        : <0x1154>
 <2><14e6>: Abbrev Number: 30 (DW_TAG_formal_parameter)
    <14e7>   DW_AT_type        : <0x65>
 <2><14eb>: Abbrev Number: 0
 <1><14ec>: Abbrev Number: 6 (DW_TAG_pointer_type)
    <14ed>   DW_AT_byte_size   : 8
    <14ee>   DW_AT_type        : <0x114f>
 <1><14f2>: Abbrev Number: 31 (DW_TAG_subprogram)
    <14f3>   DW_AT_external    : 1
    <14f3>   DW_AT_name        : (indirect string, offset: 0x162b): localtime_rz
    <14f7>   DW_AT_decl_file   : 14
    <14f8>   DW_AT_decl_line   : 891
    <14fa>   DW_AT_decl_column : 1
    <14fb>   DW_AT_prototyped  : 1
    <14fb>   DW_AT_type        : <0x1513>
    <14ff>   DW_AT_declaration : 1
    <14ff>   DW_AT_sibling     : <0x1513>
 <2><1503>: Abbrev Number: 30 (DW_TAG_formal_parameter)
    <1504>   DW_AT_type        : <0x1154>
 <2><1508>: Abbrev Number: 30 (DW_TAG_formal_parameter)
    <1509>   DW_AT_type        : <0x1524>
 <2><150d>: Abbrev Number: 30 (DW_TAG_formal_parameter)
    <150e>   DW_AT_type        : <0x1519>
 <2><1512>: Abbrev Number: 0
 <1><1513>: Abbrev Number: 6 (DW_TAG_pointer_type)
    <1514>   DW_AT_byte_size   : 8
    <1515>   DW_AT_type        : <0x10b3>
 <1><1519>: Abbrev Number: 14 (DW_TAG_restrict_type)
    <151a>   DW_AT_type        : <0x1513>
 <1><151e>: Abbrev Number: 6 (DW_TAG_pointer_type)
    <151f>   DW_AT_byte_size   : 8
    <1520>   DW_AT_type        : <0x38b>
 <1><1524>: Abbrev Number: 14 (DW_TAG_restrict_type)
    <1525>   DW_AT_type        : <0x151e>
 <1><1529>: Abbrev Number: 29 (DW_TAG_subprogram)
    <152a>   DW_AT_external    : 1
    <152a>   DW_AT_name        : (indirect string, offset: 0x3afb): settime
    <152e>   DW_AT_decl_file   : 19
    <152f>   DW_AT_decl_line   : 94
    <1530>   DW_AT_decl_column : 5
    <1531>   DW_AT_prototyped  : 1
    <1531>   DW_AT_type        : <0x65>
    <1535>   DW_AT_declaration : 1
    <1535>   DW_AT_sibling     : <0x153f>
 <2><1539>: Abbrev Number: 30 (DW_TAG_formal_parameter)
    <153a>   DW_AT_type        : <0x153f>
 <2><153e>: Abbrev Number: 0
 <1><153f>: Abbrev Number: 6 (DW_TAG_pointer_type)
    <1540>   DW_AT_byte_size   : 8
    <1541>   DW_AT_type        : <0x3b8>
 <1><1545>: Abbrev Number: 29 (DW_TAG_subprogram)
    <1546>   DW_AT_external    : 1
    <1546>   DW_AT_name        : (indirect string, offset: 0x278): stat
    <154a>   DW_AT_decl_file   : 25
    <154b>   DW_AT_decl_line   : 205
    <154c>   DW_AT_decl_column : 12
    <154d>   DW_AT_prototyped  : 1
    <154d>   DW_AT_type        : <0x65>
    <1551>   DW_AT_declaration : 1
    <1551>   DW_AT_sibling     : <0x1560>
 <2><1555>: Abbrev Number: 30 (DW_TAG_formal_parameter)
    <1556>   DW_AT_type        : <0x325>
 <2><155a>: Abbrev Number: 30 (DW_TAG_formal_parameter)
    <155b>   DW_AT_type        : <0x1566>
 <2><155f>: Abbrev Number: 0
 <1><1560>: Abbrev Number: 6 (DW_TAG_pointer_type)
    <1561>   DW_AT_byte_size   : 8
    <1562>   DW_AT_type        : <0x116c>
 <1><1566>: Abbrev Number: 14 (DW_TAG_restrict_type)
    <1567>   DW_AT_type        : <0x1560>
 <1><156b>: Abbrev Number: 32 (DW_TAG_subprogram)
    <156c>   DW_AT_external    : 1
    <156c>   DW_AT_name        : (indirect string, offset: 0x2804): gettime
    <1570>   DW_AT_decl_file   : 19
    <1571>   DW_AT_decl_line   : 93
    <1572>   DW_AT_decl_column : 6
    <1573>   DW_AT_prototyped  : 1
    <1573>   DW_AT_declaration : 1
    <1573>   DW_AT_sibling     : <0x157d>
 <2><1577>: Abbrev Number: 30 (DW_TAG_formal_parameter)
    <1578>   DW_AT_type        : <0x157d>
 <2><157c>: Abbrev Number: 0
 <1><157d>: Abbrev Number: 6 (DW_TAG_pointer_type)
    <157e>   DW_AT_byte_size   : 8
    <157f>   DW_AT_type        : <0x390>
 <1><1583>: Abbrev Number: 14 (DW_TAG_restrict_type)
    <1584>   DW_AT_type        : <0x157d>
 <1><1588>: Abbrev Number: 29 (DW_TAG_subprogram)
    <1589>   DW_AT_external    : 1
    <1589>   DW_AT_name        : (indirect string, offset: 0x27d): posixtime
    <158d>   DW_AT_decl_file   : 26
    <158e>   DW_AT_decl_line   : 37
    <158f>   DW_AT_decl_column : 6
    <1590>   DW_AT_prototyped  : 1
    <1590>   DW_AT_type        : <0x15a8>
    <1594>   DW_AT_declaration : 1
    <1594>   DW_AT_sibling     : <0x15a8>
 <2><1598>: Abbrev Number: 30 (DW_TAG_formal_parameter)
    <1599>   DW_AT_type        : <0x15af>
 <2><159d>: Abbrev Number: 30 (DW_TAG_formal_parameter)
    <159e>   DW_AT_type        : <0x31a>
 <2><15a2>: Abbrev Number: 30 (DW_TAG_formal_parameter)
    <15a3>   DW_AT_type        : <0x40>
 <2><15a7>: Abbrev Number: 0
 <1><15a8>: Abbrev Number: 3 (DW_TAG_base_type)
    <15a9>   DW_AT_byte_size   : 1
    <15aa>   DW_AT_encoding    : 2	(boolean)
    <15ab>   DW_AT_name        : (indirect string, offset: 0x1d4): _Bool
 <1><15af>: Abbrev Number: 6 (DW_TAG_pointer_type)
    <15b0>   DW_AT_byte_size   : 8
    <15b1>   DW_AT_type        : <0x37f>
 <1><15b5>: Abbrev Number: 31 (DW_TAG_subprogram)
    <15b6>   DW_AT_external    : 1
    <15b6>   DW_AT_name        : (indirect string, offset: 0xe23): tzalloc
    <15ba>   DW_AT_decl_file   : 14
    <15bb>   DW_AT_decl_line   : 877
    <15bd>   DW_AT_decl_column : 1
    <15be>   DW_AT_prototyped  : 1
    <15be>   DW_AT_type        : <0x1154>
    <15c2>   DW_AT_declaration : 1
    <15c2>   DW_AT_sibling     : <0x15cc>
 <2><15c6>: Abbrev Number: 30 (DW_TAG_formal_parameter)
    <15c7>   DW_AT_type        : <0x31a>
 <2><15cb>: Abbrev Number: 0
 <1><15cc>: Abbrev Number: 31 (DW_TAG_subprogram)
    <15cd>   DW_AT_external    : 1
    <15cd>   DW_AT_name        : (indirect string, offset: 0x1d50): getenv
    <15d1>   DW_AT_decl_file   : 27
    <15d2>   DW_AT_decl_line   : 634
    <15d4>   DW_AT_decl_column : 14
    <15d5>   DW_AT_prototyped  : 1
    <15d5>   DW_AT_type        : <0x11b>
    <15d9>   DW_AT_declaration : 1
    <15d9>   DW_AT_sibling     : <0x15e3>
 <2><15dd>: Abbrev Number: 30 (DW_TAG_formal_parameter)
    <15de>   DW_AT_type        : <0x31a>
 <2><15e2>: Abbrev Number: 0
 <1><15e3>: Abbrev Number: 31 (DW_TAG_subprogram)
    <15e4>   DW_AT_external    : 1
    <15e4>   DW_AT_name        : (indirect string, offset: 0x21e): nl_langinfo
    <15e8>   DW_AT_decl_file   : 18
    <15e9>   DW_AT_decl_line   : 661
    <15eb>   DW_AT_decl_column : 14
    <15ec>   DW_AT_prototyped  : 1
    <15ec>   DW_AT_type        : <0x11b>
    <15f0>   DW_AT_declaration : 1
    <15f0>   DW_AT_sibling     : <0x15fa>
 <2><15f4>: Abbrev Number: 30 (DW_TAG_formal_parameter)
    <15f5>   DW_AT_type        : <0x429>
 <2><15f9>: Abbrev Number: 0
 <1><15fa>: Abbrev Number: 29 (DW_TAG_subprogram)
    <15fb>   DW_AT_external    : 1
    <15fb>   DW_AT_name        : (indirect string, offset: 0x2098): getopt_long
    <15ff>   DW_AT_decl_file   : 11
    <1600>   DW_AT_decl_line   : 66
    <1601>   DW_AT_decl_column : 12
    <1602>   DW_AT_prototyped  : 1
    <1602>   DW_AT_type        : <0x65>
    <1606>   DW_AT_declaration : 1
    <1606>   DW_AT_sibling     : <0x1624>
 <2><160a>: Abbrev Number: 30 (DW_TAG_formal_parameter)
    <160b>   DW_AT_type        : <0x65>
 <2><160f>: Abbrev Number: 30 (DW_TAG_formal_parameter)
    <1610>   DW_AT_type        : <0x1624>
 <2><1614>: Abbrev Number: 30 (DW_TAG_formal_parameter)
    <1615>   DW_AT_type        : <0x31a>
 <2><1619>: Abbrev Number: 30 (DW_TAG_formal_parameter)
    <161a>   DW_AT_type        : <0x162a>
 <2><161e>: Abbrev Number: 30 (DW_TAG_formal_parameter)
    <161f>   DW_AT_type        : <0x423>
 <2><1623>: Abbrev Number: 0
 <1><1624>: Abbrev Number: 6 (DW_TAG_pointer_type)
    <1625>   DW_AT_byte_size   : 8
    <1626>   DW_AT_type        : <0x121>
 <1><162a>: Abbrev Number: 6 (DW_TAG_pointer_type)
    <162b>   DW_AT_byte_size   : 8
    <162c>   DW_AT_type        : <0x41e>
 <1><1630>: Abbrev Number: 32 (DW_TAG_subprogram)
    <1631>   DW_AT_external    : 1
    <1631>   DW_AT_name        : (indirect string, offset: 0x3d0): version_etc
    <1635>   DW_AT_decl_file   : 28
    <1636>   DW_AT_decl_line   : 65
    <1637>   DW_AT_decl_column : 13
    <1638>   DW_AT_prototyped  : 1
    <1638>   DW_AT_declaration : 1
    <1638>   DW_AT_sibling     : <0x1652>
 <2><163c>: Abbrev Number: 30 (DW_TAG_formal_parameter)
    <163d>   DW_AT_type        : <0x342>
 <2><1641>: Abbrev Number: 30 (DW_TAG_formal_parameter)
    <1642>   DW_AT_type        : <0x31a>
 <2><1646>: Abbrev Number: 30 (DW_TAG_formal_parameter)
    <1647>   DW_AT_type        : <0x31a>
 <2><164b>: Abbrev Number: 30 (DW_TAG_formal_parameter)
    <164c>   DW_AT_type        : <0x31a>
 <2><1650>: Abbrev Number: 33 (DW_TAG_unspecified_parameters)
 <2><1651>: Abbrev Number: 0
 <1><1652>: Abbrev Number: 34 (DW_TAG_subprogram)
    <1653>   DW_AT_external    : 1
    <1653>   DW_AT_name        : (indirect string, offset: 0x982): xalloc_die
    <1657>   DW_AT_decl_file   : 35
    <1658>   DW_AT_decl_line   : 51
    <1659>   DW_AT_decl_column : 27
    <165a>   DW_AT_prototyped  : 1
    <165a>   DW_AT_noreturn    : 1
    <165a>   DW_AT_declaration : 1
 <1><165a>: Abbrev Number: 31 (DW_TAG_subprogram)
    <165b>   DW_AT_external    : 1
    <165b>   DW_AT_name        : (indirect string, offset: 0x287): putenv
    <165f>   DW_AT_decl_file   : 27
    <1660>   DW_AT_decl_line   : 647
    <1662>   DW_AT_decl_column : 12
    <1663>   DW_AT_prototyped  : 1
    <1663>   DW_AT_type        : <0x65>
    <1667>   DW_AT_declaration : 1
    <1667>   DW_AT_sibling     : <0x1671>
 <2><166b>: Abbrev Number: 30 (DW_TAG_formal_parameter)
    <166c>   DW_AT_type        : <0x11b>
 <2><1670>: Abbrev Number: 0
 <1><1671>: Abbrev Number: 29 (DW_TAG_subprogram)
    <1672>   DW_AT_external    : 1
    <1672>   DW_AT_name        : (indirect string, offset: 0x774): __xargmatch_internal
    <1676>   DW_AT_decl_file   : 21
    <1677>   DW_AT_decl_line   : 95
    <1678>   DW_AT_decl_column : 11
    <1679>   DW_AT_prototyped  : 1
    <1679>   DW_AT_type        : <0x365>
    <167d>   DW_AT_declaration : 1
    <167d>   DW_AT_sibling     : <0x16a5>
 <2><1681>: Abbrev Number: 30 (DW_TAG_formal_parameter)
    <1682>   DW_AT_type        : <0x31a>
 <2><1686>: Abbrev Number: 30 (DW_TAG_formal_parameter)
    <1687>   DW_AT_type        : <0x31a>
 <2><168b>: Abbrev Number: 30 (DW_TAG_formal_parameter)
    <168c>   DW_AT_type        : <0x16a5>
 <2><1690>: Abbrev Number: 30 (DW_TAG_formal_parameter)
    <1691>   DW_AT_type        : <0x1264>
 <2><1695>: Abbrev Number: 30 (DW_TAG_formal_parameter)
    <1696>   DW_AT_type        : <0x2d>
 <2><169a>: Abbrev Number: 30 (DW_TAG_formal_parameter)
    <169b>   DW_AT_type        : <0x132f>
 <2><169f>: Abbrev Number: 30 (DW_TAG_formal_parameter)
    <16a0>   DW_AT_type        : <0x15a8>
 <2><16a4>: Abbrev Number: 0
 <1><16a5>: Abbrev Number: 6 (DW_TAG_pointer_type)
    <16a6>   DW_AT_byte_size   : 8
    <16a7>   DW_AT_type        : <0x320>
 <1><16ab>: Abbrev Number: 35 (DW_TAG_subprogram)
    <16ac>   DW_AT_external    : 1
    <16ac>   DW_AT_name        : (indirect string, offset: 0x1222): close_stdout
    <16b0>   DW_AT_decl_file   : 40
    <16b1>   DW_AT_decl_line   : 30
    <16b2>   DW_AT_decl_column : 6
    <16b3>   DW_AT_prototyped  : 1
    <16b3>   DW_AT_declaration : 1
 <1><16b3>: Abbrev Number: 31 (DW_TAG_subprogram)
    <16b4>   DW_AT_external    : 1
    <16b4>   DW_AT_name        : (indirect string, offset: 0x9b3): atexit
    <16b8>   DW_AT_decl_file   : 27
    <16b9>   DW_AT_decl_line   : 595
    <16bb>   DW_AT_decl_column : 12
    <16bc>   DW_AT_prototyped  : 1
    <16bc>   DW_AT_type        : <0x65>
    <16c0>   DW_AT_declaration : 1
    <16c0>   DW_AT_sibling     : <0x16ca>
 <2><16c4>: Abbrev Number: 30 (DW_TAG_formal_parameter)
    <16c5>   DW_AT_type        : <0x1253>
 <2><16c9>: Abbrev Number: 0
 <1><16ca>: Abbrev Number: 29 (DW_TAG_subprogram)
    <16cb>   DW_AT_external    : 1
    <16cb>   DW_AT_name        : (indirect string, offset: 0xbab): textdomain
    <16cf>   DW_AT_decl_file   : 29
    <16d0>   DW_AT_decl_line   : 82
    <16d1>   DW_AT_decl_column : 14
    <16d2>   DW_AT_prototyped  : 1
    <16d2>   DW_AT_type        : <0x11b>
    <16d6>   DW_AT_declaration : 1
    <16d6>   DW_AT_sibling     : <0x16e0>
 <2><16da>: Abbrev Number: 30 (DW_TAG_formal_parameter)
    <16db>   DW_AT_type        : <0x31a>
 <2><16df>: Abbrev Number: 0
 <1><16e0>: Abbrev Number: 29 (DW_TAG_subprogram)
    <16e1>   DW_AT_external    : 1
    <16e1>   DW_AT_name        : (indirect string, offset: 0xba7): bindtextdomain
    <16e5>   DW_AT_decl_file   : 29
    <16e6>   DW_AT_decl_line   : 86
    <16e7>   DW_AT_decl_column : 14
    <16e8>   DW_AT_prototyped  : 1
    <16e8>   DW_AT_type        : <0x11b>
    <16ec>   DW_AT_declaration : 1
    <16ec>   DW_AT_sibling     : <0x16fb>
 <2><16f0>: Abbrev Number: 30 (DW_TAG_formal_parameter)
    <16f1>   DW_AT_type        : <0x31a>
 <2><16f5>: Abbrev Number: 30 (DW_TAG_formal_parameter)
    <16f6>   DW_AT_type        : <0x31a>
 <2><16fa>: Abbrev Number: 0
 <1><16fb>: Abbrev Number: 32 (DW_TAG_subprogram)
    <16fc>   DW_AT_external    : 1
    <16fc>   DW_AT_name        : (indirect string, offset: 0x1913): set_program_name
    <1700>   DW_AT_decl_file   : 20
    <1701>   DW_AT_decl_line   : 37
    <1702>   DW_AT_decl_column : 13
    <1703>   DW_AT_prototyped  : 1
    <1703>   DW_AT_declaration : 1
    <1703>   DW_AT_sibling     : <0x170d>
 <2><1707>: Abbrev Number: 30 (DW_TAG_formal_parameter)
    <1708>   DW_AT_type        : <0x31a>
 <2><170c>: Abbrev Number: 0
 <1><170d>: Abbrev Number: 36 (DW_TAG_subprogram)
    <170e>   DW_AT_external    : 1
    <170e>   DW_AT_name        : (indirect string, offset: 0x20a4): rpl_free
    <1712>   DW_AT_decl_file   : 30
    <1713>   DW_AT_decl_line   : 739
    <1715>   DW_AT_decl_column : 1
    <1716>   DW_AT_prototyped  : 1
    <1716>   DW_AT_declaration : 1
    <1716>   DW_AT_sibling     : <0x1720>
 <2><171a>: Abbrev Number: 30 (DW_TAG_formal_parameter)
    <171b>   DW_AT_type        : <0x47>
 <2><171f>: Abbrev Number: 0
 <1><1720>: Abbrev Number: 31 (DW_TAG_subprogram)
    <1721>   DW_AT_external    : 1
    <1721>   DW_AT_name        : (indirect string, offset: 0x1aea): rpl_fclose
    <1725>   DW_AT_decl_file   : 31
    <1726>   DW_AT_decl_line   : 735
    <1728>   DW_AT_decl_column : 1
    <1729>   DW_AT_prototyped  : 1
    <1729>   DW_AT_type        : <0x65>
    <172d>   DW_AT_declaration : 1
    <172d>   DW_AT_sibling     : <0x1737>
 <2><1731>: Abbrev Number: 30 (DW_TAG_formal_parameter)
    <1732>   DW_AT_type        : <0x342>
 <2><1736>: Abbrev Number: 0
 <1><1737>: Abbrev Number: 29 (DW_TAG_subprogram)
    <1738>   DW_AT_external    : 1
    <1738>   DW_AT_name        : (indirect string, offset: 0x358e): quote
    <173c>   DW_AT_decl_file   : 32
    <173d>   DW_AT_decl_line   : 44
    <173e>   DW_AT_decl_column : 13
    <173f>   DW_AT_prototyped  : 1
    <173f>   DW_AT_type        : <0x31a>
    <1743>   DW_AT_declaration : 1
    <1743>   DW_AT_sibling     : <0x174d>
 <2><1747>: Abbrev Number: 30 (DW_TAG_formal_parameter)
    <1748>   DW_AT_type        : <0x31a>
 <2><174c>: Abbrev Number: 0
 <1><174d>: Abbrev Number: 29 (DW_TAG_subprogram)
    <174e>   DW_AT_external    : 1
    <174e>   DW_AT_name        : (indirect string, offset: 0x1ecc): parse_datetime2
    <1752>   DW_AT_decl_file   : 33
    <1753>   DW_AT_decl_line   : 29
    <1754>   DW_AT_decl_column : 6
    <1755>   DW_AT_prototyped  : 1
    <1755>   DW_AT_type        : <0x15a8>
    <1759>   DW_AT_declaration : 1
    <1759>   DW_AT_sibling     : <0x177c>
 <2><175d>: Abbrev Number: 30 (DW_TAG_formal_parameter)
    <175e>   DW_AT_type        : <0x1583>
 <2><1762>: Abbrev Number: 30 (DW_TAG_formal_parameter)
    <1763>   DW_AT_type        : <0x31a>
 <2><1767>: Abbrev Number: 30 (DW_TAG_formal_parameter)
    <1768>   DW_AT_type        : <0x153f>
 <2><176c>: Abbrev Number: 30 (DW_TAG_formal_parameter)
    <176d>   DW_AT_type        : <0x40>
 <2><1771>: Abbrev Number: 30 (DW_TAG_formal_parameter)
    <1772>   DW_AT_type        : <0x1154>
 <2><1776>: Abbrev Number: 30 (DW_TAG_formal_parameter)
    <1777>   DW_AT_type        : <0x31a>
 <2><177b>: Abbrev Number: 0
 <1><177c>: Abbrev Number: 31 (DW_TAG_subprogram)
    <177d>   DW_AT_external    : 1
    <177d>   DW_AT_name        : (indirect string, offset: 0x11fc): getline
    <1781>   DW_AT_decl_file   : 7
    <1782>   DW_AT_decl_line   : 616
    <1784>   DW_AT_decl_column : 18
    <1785>   DW_AT_prototyped  : 1
    <1785>   DW_AT_type        : <0x103>
    <1789>   DW_AT_declaration : 1
    <1789>   DW_AT_sibling     : <0x179d>
 <2><178d>: Abbrev Number: 30 (DW_TAG_formal_parameter)
    <178e>   DW_AT_type        : <0x125f>
 <2><1792>: Abbrev Number: 30 (DW_TAG_formal_parameter)
    <1793>   DW_AT_type        : <0x17a3>
 <2><1797>: Abbrev Number: 30 (DW_TAG_formal_parameter)
    <1798>   DW_AT_type        : <0x348>
 <2><179c>: Abbrev Number: 0
 <1><179d>: Abbrev Number: 6 (DW_TAG_pointer_type)
    <179e>   DW_AT_byte_size   : 8
    <179f>   DW_AT_type        : <0x2d>
 <1><17a3>: Abbrev Number: 14 (DW_TAG_restrict_type)
    <17a4>   DW_AT_type        : <0x179d>
 <1><17a8>: Abbrev Number: 32 (DW_TAG_subprogram)
    <17a9>   DW_AT_external    : 1
    <17a9>   DW_AT_name        : (indirect string, offset: 0x307e): error
    <17ad>   DW_AT_decl_file   : 34
    <17ae>   DW_AT_decl_line   : 33
    <17af>   DW_AT_decl_column : 13
    <17b0>   DW_AT_prototyped  : 1
    <17b0>   DW_AT_declaration : 1
    <17b0>   DW_AT_sibling     : <0x17c5>
 <2><17b4>: Abbrev Number: 30 (DW_TAG_formal_parameter)
    <17b5>   DW_AT_type        : <0x65>
 <2><17b9>: Abbrev Number: 30 (DW_TAG_formal_parameter)
    <17ba>   DW_AT_type        : <0x65>
 <2><17be>: Abbrev Number: 30 (DW_TAG_formal_parameter)
    <17bf>   DW_AT_type        : <0x31a>
 <2><17c3>: Abbrev Number: 33 (DW_TAG_unspecified_parameters)
 <2><17c4>: Abbrev Number: 0
 <1><17c5>: Abbrev Number: 37 (DW_TAG_subprogram)
    <17c6>   DW_AT_external    : 1
    <17c6>   DW_AT_name        : (indirect string, offset: 0x15d5): __errno_location
    <17ca>   DW_AT_decl_file   : 36
    <17cb>   DW_AT_decl_line   : 37
    <17cc>   DW_AT_decl_column : 13
    <17cd>   DW_AT_prototyped  : 1
    <17cd>   DW_AT_type        : <0x423>
    <17d1>   DW_AT_declaration : 1
 <1><17d1>: Abbrev Number: 31 (DW_TAG_subprogram)
    <17d2>   DW_AT_external    : 1
    <17d2>   DW_AT_name        : (indirect string, offset: 0x13b3): quotearg_n_style_colon
    <17d6>   DW_AT_decl_file   : 22
    <17d7>   DW_AT_decl_line   : 403
    <17d9>   DW_AT_decl_column : 7
    <17da>   DW_AT_prototyped  : 1
    <17da>   DW_AT_type        : <0x11b>
    <17de>   DW_AT_declaration : 1
    <17de>   DW_AT_sibling     : <0x17f2>
 <2><17e2>: Abbrev Number: 30 (DW_TAG_formal_parameter)
    <17e3>   DW_AT_type        : <0x65>
 <2><17e7>: Abbrev Number: 30 (DW_TAG_formal_parameter)
    <17e8>   DW_AT_type        : <0x12da>
 <2><17ec>: Abbrev Number: 30 (DW_TAG_formal_parameter)
    <17ed>   DW_AT_type        : <0x31a>
 <2><17f1>: Abbrev Number: 0
 <1><17f2>: Abbrev Number: 31 (DW_TAG_subprogram)
    <17f3>   DW_AT_external    : 1
    <17f3>   DW_AT_name        : (indirect string, offset: 0x1cac): fopen
    <17f7>   DW_AT_decl_file   : 31
    <17f8>   DW_AT_decl_line   : 923
    <17fa>   DW_AT_decl_column : 1
    <17fb>   DW_AT_prototyped  : 1
    <17fb>   DW_AT_type        : <0x342>
    <17ff>   DW_AT_declaration : 1
    <17ff>   DW_AT_sibling     : <0x180e>
 <2><1803>: Abbrev Number: 30 (DW_TAG_formal_parameter)
    <1804>   DW_AT_type        : <0x325>
 <2><1808>: Abbrev Number: 30 (DW_TAG_formal_parameter)
    <1809>   DW_AT_type        : <0x325>
 <2><180d>: Abbrev Number: 0
 <1><180e>: Abbrev Number: 37 (DW_TAG_subprogram)
    <180f>   DW_AT_external    : 1
    <180f>   DW_AT_name        : (indirect string, offset: 0x122f): gettime_res
    <1813>   DW_AT_decl_file   : 19
    <1814>   DW_AT_decl_line   : 91
    <1815>   DW_AT_decl_column : 10
    <1816>   DW_AT_prototyped  : 1
    <1816>   DW_AT_type        : <0x6c>
    <181a>   DW_AT_declaration : 1
 <1><181a>: Abbrev Number: 29 (DW_TAG_subprogram)
    <181b>   DW_AT_external    : 1
    <181b>   DW_AT_name        : (indirect string, offset: 0x436): xstrdup
    <181f>   DW_AT_decl_file   : 35
    <1820>   DW_AT_decl_line   : 101
    <1821>   DW_AT_decl_column : 7
    <1822>   DW_AT_prototyped  : 1
    <1822>   DW_AT_type        : <0x11b>
    <1826>   DW_AT_declaration : 1
    <1826>   DW_AT_sibling     : <0x1830>
 <2><182a>: Abbrev Number: 30 (DW_TAG_formal_parameter)
    <182b>   DW_AT_type        : <0x31a>
 <2><182f>: Abbrev Number: 0
 <1><1830>: Abbrev Number: 29 (DW_TAG_subprogram)
    <1831>   DW_AT_external    : 1
    <1831>   DW_AT_name        : (indirect string, offset: 0x8b0): strncmp
    <1835>   DW_AT_decl_file   : 37
    <1836>   DW_AT_decl_line   : 140
    <1837>   DW_AT_decl_column : 12
    <1838>   DW_AT_prototyped  : 1
    <1838>   DW_AT_type        : <0x65>
    <183c>   DW_AT_declaration : 1
    <183c>   DW_AT_sibling     : <0x1850>
 <2><1840>: Abbrev Number: 30 (DW_TAG_formal_parameter)
    <1841>   DW_AT_type        : <0x31a>
 <2><1845>: Abbrev Number: 30 (DW_TAG_formal_parameter)
    <1846>   DW_AT_type        : <0x31a>
 <2><184a>: Abbrev Number: 30 (DW_TAG_formal_parameter)
    <184b>   DW_AT_type        : <0x2d>
 <2><184f>: Abbrev Number: 0
 <1><1850>: Abbrev Number: 29 (DW_TAG_subprogram)
    <1851>   DW_AT_external    : 1
    <1851>   DW_AT_name        : (indirect string, offset: 0x37): setlocale
    <1855>   DW_AT_decl_file   : 38
    <1856>   DW_AT_decl_line   : 122
    <1857>   DW_AT_decl_column : 14
    <1858>   DW_AT_prototyped  : 1
    <1858>   DW_AT_type        : <0x11b>
    <185c>   DW_AT_declaration : 1
    <185c>   DW_AT_sibling     : <0x186b>
 <2><1860>: Abbrev Number: 30 (DW_TAG_formal_parameter)
    <1861>   DW_AT_type        : <0x65>
 <2><1865>: Abbrev Number: 30 (DW_TAG_formal_parameter)
    <1866>   DW_AT_type        : <0x31a>
 <2><186a>: Abbrev Number: 0
 <1><186b>: Abbrev Number: 29 (DW_TAG_subprogram)
    <186c>   DW_AT_external    : 1
    <186c>   DW_AT_name        : (indirect string, offset: 0x2191): strcmp
    <1870>   DW_AT_decl_file   : 37
    <1871>   DW_AT_decl_line   : 137
    <1872>   DW_AT_decl_column : 12
    <1873>   DW_AT_prototyped  : 1
    <1873>   DW_AT_type        : <0x65>
    <1877>   DW_AT_declaration : 1
    <1877>   DW_AT_sibling     : <0x1886>
 <2><187b>: Abbrev Number: 30 (DW_TAG_formal_parameter)
    <187c>   DW_AT_type        : <0x31a>
 <2><1880>: Abbrev Number: 30 (DW_TAG_formal_parameter)
    <1881>   DW_AT_type        : <0x31a>
 <2><1885>: Abbrev Number: 0
 <1><1886>: Abbrev Number: 38 (DW_TAG_subprogram)
    <1887>   DW_AT_external    : 1
    <1887>   DW_AT_name        : (indirect string, offset: 0x240d): exit
    <188b>   DW_AT_decl_file   : 27
    <188c>   DW_AT_decl_line   : 617
    <188e>   DW_AT_decl_column : 13
    <188f>   DW_AT_prototyped  : 1
    <188f>   DW_AT_noreturn    : 1
    <188f>   DW_AT_declaration : 1
    <188f>   DW_AT_sibling     : <0x1899>
 <2><1893>: Abbrev Number: 30 (DW_TAG_formal_parameter)
    <1894>   DW_AT_type        : <0x65>
 <2><1898>: Abbrev Number: 0
 <1><1899>: Abbrev Number: 31 (DW_TAG_subprogram)
    <189a>   DW_AT_external    : 1
    <189a>   DW_AT_name        : (indirect string, offset: 0x1f8): fputs_unlocked
    <189e>   DW_AT_decl_file   : 7
    <189f>   DW_AT_decl_line   : 662
    <18a1>   DW_AT_decl_column : 12
    <18a2>   DW_AT_prototyped  : 1
    <18a2>   DW_AT_type        : <0x65>
    <18a6>   DW_AT_declaration : 1
    <18a6>   DW_AT_sibling     : <0x18b5>
 <2><18aa>: Abbrev Number: 30 (DW_TAG_formal_parameter)
    <18ab>   DW_AT_type        : <0x325>
 <2><18af>: Abbrev Number: 30 (DW_TAG_formal_parameter)
    <18b0>   DW_AT_type        : <0x348>
 <2><18b4>: Abbrev Number: 0
 <1><18b5>: Abbrev Number: 31 (DW_TAG_subprogram)
    <18b6>   DW_AT_external    : 1
    <18b6>   DW_AT_name        : (indirect string, offset: 0x2d6d): printf
    <18ba>   DW_AT_decl_file   : 7
    <18bb>   DW_AT_decl_line   : 332
    <18bd>   DW_AT_decl_column : 12
    <18be>   DW_AT_prototyped  : 1
    <18be>   DW_AT_type        : <0x65>
    <18c2>   DW_AT_declaration : 1
    <18c2>   DW_AT_sibling     : <0x18cd>
 <2><18c6>: Abbrev Number: 30 (DW_TAG_formal_parameter)
    <18c7>   DW_AT_type        : <0x31a>
 <2><18cb>: Abbrev Number: 33 (DW_TAG_unspecified_parameters)
 <2><18cc>: Abbrev Number: 0
 <1><18cd>: Abbrev Number: 31 (DW_TAG_subprogram)
    <18ce>   DW_AT_external    : 1
    <18ce>   DW_AT_name        : (indirect string, offset: 0x28fb): fprintf
    <18d2>   DW_AT_decl_file   : 7
    <18d3>   DW_AT_decl_line   : 326
    <18d5>   DW_AT_decl_column : 12
    <18d6>   DW_AT_prototyped  : 1
    <18d6>   DW_AT_type        : <0x65>
    <18da>   DW_AT_declaration : 1
    <18da>   DW_AT_sibling     : <0x18ea>
 <2><18de>: Abbrev Number: 30 (DW_TAG_formal_parameter)
    <18df>   DW_AT_type        : <0x348>
 <2><18e3>: Abbrev Number: 30 (DW_TAG_formal_parameter)
    <18e4>   DW_AT_type        : <0x325>
 <2><18e8>: Abbrev Number: 33 (DW_TAG_unspecified_parameters)
 <2><18e9>: Abbrev Number: 0
 <1><18ea>: Abbrev Number: 29 (DW_TAG_subprogram)
    <18eb>   DW_AT_external    : 1
    <18eb>   DW_AT_name        : (indirect string, offset: 0x64d): gettext
    <18ef>   DW_AT_decl_file   : 29
    <18f0>   DW_AT_decl_line   : 39
    <18f1>   DW_AT_decl_column : 14
    <18f2>   DW_AT_prototyped  : 1
    <18f2>   DW_AT_type        : <0x11b>
    <18f6>   DW_AT_declaration : 1
    <18f6>   DW_AT_sibling     : <0x1900>
 <2><18fa>: Abbrev Number: 30 (DW_TAG_formal_parameter)
    <18fb>   DW_AT_type        : <0x31a>
 <2><18ff>: Abbrev Number: 0
 <1><1900>: Abbrev Number: 39 (DW_TAG_subprogram)
    <1901>   DW_AT_name        : (indirect string, offset: 0x1dad): show_date
    <1905>   DW_AT_decl_file   : 2
    <1906>   DW_AT_decl_line   : 640
    <1908>   DW_AT_decl_column : 1
    <1909>   DW_AT_prototyped  : 1
    <1909>   DW_AT_type        : <0x15a8>
    <190d>   DW_AT_low_pc      : 0x4dc9
    <1915>   DW_AT_high_pc     : 0x193
    <191d>   DW_AT_frame_base  : 1 byte block: 9c 	(DW_OP_call_frame_cfa)
    <191f>   DW_AT_GNU_all_tail_call_sites: 1
    <191f>   DW_AT_sibling     : <0x1988>
 <2><1923>: Abbrev Number: 40 (DW_TAG_formal_parameter)
    <1924>   DW_AT_name        : (indirect string, offset: 0x4f4): format
    <1928>   DW_AT_decl_file   : 2
    <1929>   DW_AT_decl_line   : 640
    <192b>   DW_AT_decl_column : 24
    <192c>   DW_AT_type        : <0x31a>
    <1930>   DW_AT_location    : 3 byte block: 91 f8 7e 	(DW_OP_fbreg: -136)
 <2><1934>: Abbrev Number: 40 (DW_TAG_formal_parameter)
    <1935>   DW_AT_name        : (indirect string, offset: 0x1b9a): when
    <1939>   DW_AT_decl_file   : 2
    <193a>   DW_AT_decl_line   : 640
    <193c>   DW_AT_decl_column : 48
    <193d>   DW_AT_type        : <0x390>
    <1941>   DW_AT_location    : 3 byte block: 91 e0 7e 	(DW_OP_fbreg: -160)
 <2><1945>: Abbrev Number: 41 (DW_TAG_formal_parameter)
    <1946>   DW_AT_name        : tz
    <1949>   DW_AT_decl_file   : 2
    <194a>   DW_AT_decl_line   : 640
    <194c>   DW_AT_decl_column : 65
    <194d>   DW_AT_type        : <0x1154>
    <1951>   DW_AT_location    : 3 byte block: 91 f0 7e 	(DW_OP_fbreg: -144)
 <2><1955>: Abbrev Number: 42 (DW_TAG_variable)
    <1956>   DW_AT_name        : tm
    <1959>   DW_AT_decl_file   : 2
    <195a>   DW_AT_decl_line   : 642
    <195c>   DW_AT_decl_column : 13
    <195d>   DW_AT_type        : <0x10b3>
    <1961>   DW_AT_location    : 3 byte block: 91 80 7f 	(DW_OP_fbreg: -128)
 <2><1965>: Abbrev Number: 43 (DW_TAG_lexical_block)
    <1966>   DW_AT_low_pc      : 0x4ef3
    <196e>   DW_AT_high_pc     : 0x4f
 <3><1976>: Abbrev Number: 42 (DW_TAG_variable)
    <1977>   DW_AT_name        : buf
    <197b>   DW_AT_decl_file   : 2
    <197c>   DW_AT_decl_line   : 659
    <197e>   DW_AT_decl_column : 12
    <197f>   DW_AT_type        : <0x1988>
    <1983>   DW_AT_location    : 2 byte block: 91 40 	(DW_OP_fbreg: -64)
 <3><1986>: Abbrev Number: 0
 <2><1987>: Abbrev Number: 0
 <1><1988>: Abbrev Number: 12 (DW_TAG_array_type)
    <1989>   DW_AT_type        : <0x126>
    <198d>   DW_AT_sibling     : <0x1998>
 <2><1991>: Abbrev Number: 13 (DW_TAG_subrange_type)
    <1992>   DW_AT_type        : <0x39>
    <1996>   DW_AT_upper_bound : 20
 <2><1997>: Abbrev Number: 0
 <1><1998>: Abbrev Number: 44 (DW_TAG_subprogram)
    <1999>   DW_AT_external    : 1
    <1999>   DW_AT_name        : (indirect string, offset: 0xbb1): main
    <199d>   DW_AT_decl_file   : 2
    <199e>   DW_AT_decl_line   : 393
    <19a0>   DW_AT_decl_column : 1
    <19a1>   DW_AT_prototyped  : 1
    <19a1>   DW_AT_type        : <0x65>
    <19a5>   DW_AT_low_pc      : 0x43c2
    <19ad>   DW_AT_high_pc     : 0xa07
    <19b5>   DW_AT_frame_base  : 1 byte block: 9c 	(DW_OP_call_frame_cfa)
    <19b7>   DW_AT_GNU_all_tail_call_sites: 1
    <19b7>   DW_AT_sibling     : <0x1c19>
 <2><19bb>: Abbrev Number: 40 (DW_TAG_formal_parameter)
    <19bc>   DW_AT_name        : (indirect string, offset: 0x19e0): argc
    <19c0>   DW_AT_decl_file   : 2
    <19c1>   DW_AT_decl_line   : 393
    <19c3>   DW_AT_decl_column : 11
    <19c4>   DW_AT_type        : <0x65>
    <19c8>   DW_AT_location    : 3 byte block: 91 bc 7d 	(DW_OP_fbreg: -324)
 <2><19cc>: Abbrev Number: 40 (DW_TAG_formal_parameter)
    <19cd>   DW_AT_name        : (indirect string, offset: 0x1a06): argv
    <19d1>   DW_AT_decl_file   : 2
    <19d2>   DW_AT_decl_line   : 393
    <19d4>   DW_AT_decl_column : 24
    <19d5>   DW_AT_type        : <0x1259>
    <19d9>   DW_AT_location    : 3 byte block: 91 b0 7d 	(DW_OP_fbreg: -336)
 <2><19dd>: Abbrev Number: 45 (DW_TAG_variable)
    <19de>   DW_AT_name        : (indirect string, offset: 0x119e): optc
    <19e2>   DW_AT_decl_file   : 2
    <19e3>   DW_AT_decl_line   : 395
    <19e5>   DW_AT_decl_column : 7
    <19e6>   DW_AT_type        : <0x65>
    <19ea>   DW_AT_location    : 3 byte block: 91 c8 7d 	(DW_OP_fbreg: -312)
 <2><19ee>: Abbrev Number: 45 (DW_TAG_variable)
    <19ef>   DW_AT_name        : (indirect string, offset: 0x3f7): datestr
    <19f3>   DW_AT_decl_file   : 2
    <19f4>   DW_AT_decl_line   : 396
    <19f6>   DW_AT_decl_column : 15
    <19f7>   DW_AT_type        : <0x31a>
    <19fb>   DW_AT_location    : 3 byte block: 91 d8 7d 	(DW_OP_fbreg: -296)
 <2><19ff>: Abbrev Number: 45 (DW_TAG_variable)
    <1a00>   DW_AT_name        : (indirect string, offset: 0x3f3): set_datestr
    <1a04>   DW_AT_decl_file   : 2
    <1a05>   DW_AT_decl_line   : 397
    <1a07>   DW_AT_decl_column : 15
    <1a08>   DW_AT_type        : <0x31a>
    <1a0c>   DW_AT_location    : 3 byte block: 91 e0 7d 	(DW_OP_fbreg: -288)
 <2><1a10>: Abbrev Number: 45 (DW_TAG_variable)
    <1a11>   DW_AT_name        : (indirect string, offset: 0x1b9a): when
    <1a15>   DW_AT_decl_file   : 2
    <1a16>   DW_AT_decl_line   : 398
    <1a18>   DW_AT_decl_column : 19
    <1a19>   DW_AT_type        : <0x390>
    <1a1d>   DW_AT_location    : 3 byte block: 91 b0 7e 	(DW_OP_fbreg: -208)
 <2><1a21>: Abbrev Number: 45 (DW_TAG_variable)
    <1a22>   DW_AT_name        : (indirect string, offset: 0x1ef): set_date
    <1a26>   DW_AT_decl_file   : 2
    <1a27>   DW_AT_decl_line   : 399
    <1a29>   DW_AT_decl_column : 8
    <1a2a>   DW_AT_type        : <0x15a8>
    <1a2e>   DW_AT_location    : 3 byte block: 91 c4 7d 	(DW_OP_fbreg: -316)
 <2><1a32>: Abbrev Number: 45 (DW_TAG_variable)
    <1a33>   DW_AT_name        : (indirect string, offset: 0x4f4): format
    <1a37>   DW_AT_decl_file   : 2
    <1a38>   DW_AT_decl_line   : 400
    <1a3a>   DW_AT_decl_column : 15
    <1a3b>   DW_AT_type        : <0x31a>
    <1a3f>   DW_AT_location    : 3 byte block: 91 e8 7d 	(DW_OP_fbreg: -280)
 <2><1a43>: Abbrev Number: 45 (DW_TAG_variable)
    <1a44>   DW_AT_name        : (indirect string, offset: 0x96c): get_resolution
    <1a48>   DW_AT_decl_file   : 2
    <1a49>   DW_AT_decl_line   : 401
    <1a4b>   DW_AT_decl_column : 8
    <1a4c>   DW_AT_type        : <0x15a8>
    <1a50>   DW_AT_location    : 3 byte block: 91 c5 7d 	(DW_OP_fbreg: -315)
 <2><1a54>: Abbrev Number: 45 (DW_TAG_variable)
    <1a55>   DW_AT_name        : (indirect string, offset: 0x1546): batch_file
    <1a59>   DW_AT_decl_file   : 2
    <1a5a>   DW_AT_decl_line   : 402
    <1a5c>   DW_AT_decl_column : 9
    <1a5d>   DW_AT_type        : <0x11b>
    <1a61>   DW_AT_location    : 3 byte block: 91 f0 7d 	(DW_OP_fbreg: -272)
 <2><1a65>: Abbrev Number: 45 (DW_TAG_variable)
    <1a66>   DW_AT_name        : (indirect string, offset: 0x1fb9): reference
    <1a6a>   DW_AT_decl_file   : 2
    <1a6b>   DW_AT_decl_line   : 403
    <1a6d>   DW_AT_decl_column : 9
    <1a6e>   DW_AT_type        : <0x11b>
    <1a72>   DW_AT_location    : 3 byte block: 91 f8 7d 	(DW_OP_fbreg: -264)
 <2><1a76>: Abbrev Number: 45 (DW_TAG_variable)
    <1a77>   DW_AT_name        : (indirect string, offset: 0xd0): refstats
    <1a7b>   DW_AT_decl_file   : 2
    <1a7c>   DW_AT_decl_line   : 404
    <1a7e>   DW_AT_decl_column : 15
    <1a7f>   DW_AT_type        : <0x116c>
    <1a83>   DW_AT_location    : 3 byte block: 91 c0 7e 	(DW_OP_fbreg: -192)
 <2><1a87>: Abbrev Number: 42 (DW_TAG_variable)
    <1a88>   DW_AT_name        : ok
    <1a8b>   DW_AT_decl_file   : 2
    <1a8c>   DW_AT_decl_line   : 405
    <1a8e>   DW_AT_decl_column : 8
    <1a8f>   DW_AT_type        : <0x15a8>
    <1a93>   DW_AT_location    : 3 byte block: 91 c6 7d 	(DW_OP_fbreg: -314)
 <2><1a97>: Abbrev Number: 45 (DW_TAG_variable)
    <1a98>   DW_AT_name        : (indirect string, offset: 0x1dfa): option_specified_date
    <1a9c>   DW_AT_decl_file   : 2
    <1a9d>   DW_AT_decl_line   : 497
    <1a9f>   DW_AT_decl_column : 7
    <1aa0>   DW_AT_type        : <0x65>
    <1aa4>   DW_AT_location    : 3 byte block: 91 cc 7d 	(DW_OP_fbreg: -308)
 <2><1aa8>: Abbrev Number: 45 (DW_TAG_variable)
    <1aa9>   DW_AT_name        : (indirect string, offset: 0x1e68): format_copy
    <1aad>   DW_AT_decl_file   : 2
    <1aae>   DW_AT_decl_line   : 559
    <1ab0>   DW_AT_decl_column : 9
    <1ab1>   DW_AT_type        : <0x11b>
    <1ab5>   DW_AT_location    : 3 byte block: 91 88 7e 	(DW_OP_fbreg: -248)
 <2><1ab9>: Abbrev Number: 45 (DW_TAG_variable)
    <1aba>   DW_AT_name        : (indirect string, offset: 0xc4d): format_res
    <1abe>   DW_AT_decl_file   : 2
    <1abf>   DW_AT_decl_line   : 560
    <1ac1>   DW_AT_decl_column : 15
    <1ac2>   DW_AT_type        : <0x31a>
    <1ac6>   DW_AT_location    : 3 byte block: 91 90 7e 	(DW_OP_fbreg: -240)
 <2><1aca>: Abbrev Number: 45 (DW_TAG_variable)
    <1acb>   DW_AT_name        : (indirect string, offset: 0x225c): tzstring
    <1acf>   DW_AT_decl_file   : 2
    <1ad0>   DW_AT_decl_line   : 561
    <1ad2>   DW_AT_decl_column : 15
    <1ad3>   DW_AT_type        : <0x31a>
    <1ad7>   DW_AT_location    : 3 byte block: 91 98 7e 	(DW_OP_fbreg: -232)
 <2><1adb>: Abbrev Number: 42 (DW_TAG_variable)
    <1adc>   DW_AT_name        : tz
    <1adf>   DW_AT_decl_file   : 2
    <1ae0>   DW_AT_decl_line   : 562
    <1ae2>   DW_AT_decl_column : 14
    <1ae3>   DW_AT_type        : <0x1154>
    <1ae7>   DW_AT_location    : 3 byte block: 91 a0 7e 	(DW_OP_fbreg: -224)
 <2><1aeb>: Abbrev Number: 46 (DW_TAG_lexical_block)
    <1aec>   DW_AT_low_pc      : 0x4495
    <1af4>   DW_AT_high_pc     : 0x2d5
    <1afc>   DW_AT_sibling     : <0x1b9b>
 <3><1b00>: Abbrev Number: 45 (DW_TAG_variable)
    <1b01>   DW_AT_name        : (indirect string, offset: 0xb27): new_format
    <1b05>   DW_AT_decl_file   : 2
    <1b06>   DW_AT_decl_line   : 418
    <1b08>   DW_AT_decl_column : 19
    <1b09>   DW_AT_type        : <0x31a>
    <1b0d>   DW_AT_location    : 3 byte block: 91 80 7e 	(DW_OP_fbreg: -256)
 <3><1b11>: Abbrev Number: 46 (DW_TAG_lexical_block)
    <1b12>   DW_AT_low_pc      : 0x4559
    <1b1a>   DW_AT_high_pc     : 0x82
    <1b22>   DW_AT_sibling     : <0x1b4d>
 <4><1b26>: Abbrev Number: 45 (DW_TAG_variable)
    <1b27>   DW_AT_name        : (indirect string, offset: 0x14cb): rfc_3339_format
    <1b2b>   DW_AT_decl_file   : 2
    <1b2c>   DW_AT_decl_line   : 436
    <1b2e>   DW_AT_decl_column : 31
    <1b2f>   DW_AT_type        : <0x1c2f>
    <1b33>   DW_AT_location    : 9 byte block: 3 60 d8 1 0 0 0 0 0 	(DW_OP_addr: 1d860)
 <4><1b3d>: Abbrev Number: 42 (DW_TAG_variable)
    <1b3e>   DW_AT_name        : i
    <1b40>   DW_AT_decl_file   : 2
    <1b41>   DW_AT_decl_line   : 442
    <1b43>   DW_AT_decl_column : 28
    <1b44>   DW_AT_type        : <0x1347>
    <1b48>   DW_AT_location    : 3 byte block: 91 d0 7d 	(DW_OP_fbreg: -304)
 <4><1b4c>: Abbrev Number: 0
 <3><1b4d>: Abbrev Number: 46 (DW_TAG_lexical_block)
    <1b4e>   DW_AT_low_pc      : 0x45db
    <1b56>   DW_AT_high_pc     : 0x92
    <1b5e>   DW_AT_sibling     : <0x1b89>
 <4><1b62>: Abbrev Number: 45 (DW_TAG_variable)
    <1b63>   DW_AT_name        : (indirect string, offset: 0x4eb): iso_8601_format
    <1b67>   DW_AT_decl_file   : 2
    <1b68>   DW_AT_decl_line   : 450
    <1b6a>   DW_AT_decl_column : 31
    <1b6b>   DW_AT_type        : <0x1c4a>
    <1b6f>   DW_AT_location    : 9 byte block: 3 c0 d8 1 0 0 0 0 0 	(DW_OP_addr: 1d8c0)
 <4><1b79>: Abbrev Number: 42 (DW_TAG_variable)
    <1b7a>   DW_AT_name        : i
    <1b7c>   DW_AT_decl_file   : 2
    <1b7d>   DW_AT_decl_line   : 458
    <1b7f>   DW_AT_decl_column : 28
    <1b80>   DW_AT_type        : <0x1347>
    <1b84>   DW_AT_location    : 3 byte block: 91 d4 7d 	(DW_OP_fbreg: -300)
 <4><1b88>: Abbrev Number: 0
 <3><1b89>: Abbrev Number: 47 (DW_TAG_lexical_block)
    <1b8a>   DW_AT_low_pc      : 0x4736
    <1b92>   DW_AT_high_pc     : 0x26
 <3><1b9a>: Abbrev Number: 0
 <2><1b9b>: Abbrev Number: 47 (DW_TAG_lexical_block)
    <1b9c>   DW_AT_low_pc      : 0x4910
    <1ba4>   DW_AT_high_pc     : 0x26
 <2><1bac>: Abbrev Number: 43 (DW_TAG_lexical_block)
    <1bad>   DW_AT_low_pc      : 0x4ac2
    <1bb5>   DW_AT_high_pc     : 0x2e0
 <3><1bbd>: Abbrev Number: 45 (DW_TAG_variable)
    <1bbe>   DW_AT_name        : (indirect string, offset: 0x642): valid_date
    <1bc2>   DW_AT_decl_file   : 2
    <1bc3>   DW_AT_decl_line   : 568
    <1bc5>   DW_AT_decl_column : 12
    <1bc6>   DW_AT_type        : <0x15a8>
    <1bca>   DW_AT_location    : 3 byte block: 91 c7 7d 	(DW_OP_fbreg: -313)
 <3><1bce>: Abbrev Number: 47 (DW_TAG_lexical_block)
    <1bcf>   DW_AT_low_pc      : 0x4b97
    <1bd7>   DW_AT_high_pc     : 0x3e
 <3><1bdf>: Abbrev Number: 46 (DW_TAG_lexical_block)
    <1be0>   DW_AT_low_pc      : 0x4c00
    <1be8>   DW_AT_high_pc     : 0x77
    <1bf0>   DW_AT_sibling     : <0x1c06>
 <4><1bf4>: Abbrev Number: 42 (DW_TAG_variable)
    <1bf5>   DW_AT_name        : res
    <1bf9>   DW_AT_decl_file   : 2
    <1bfa>   DW_AT_decl_line   : 602
    <1bfc>   DW_AT_decl_column : 24
    <1bfd>   DW_AT_type        : <0x6c>
    <1c01>   DW_AT_location    : 3 byte block: 91 a8 7e 	(DW_OP_fbreg: -216)
 <4><1c05>: Abbrev Number: 0
 <3><1c06>: Abbrev Number: 47 (DW_TAG_lexical_block)
    <1c07>   DW_AT_low_pc      : 0x4cdc
    <1c0f>   DW_AT_high_pc     : 0x3b
 <3><1c17>: Abbrev Number: 0
 <2><1c18>: Abbrev Number: 0
 <1><1c19>: Abbrev Number: 12 (DW_TAG_array_type)
    <1c1a>   DW_AT_type        : <0x12d>
    <1c1e>   DW_AT_sibling     : <0x1c2f>
 <2><1c22>: Abbrev Number: 13 (DW_TAG_subrange_type)
    <1c23>   DW_AT_type        : <0x39>
    <1c27>   DW_AT_upper_bound : 2
 <2><1c28>: Abbrev Number: 13 (DW_TAG_subrange_type)
    <1c29>   DW_AT_type        : <0x39>
    <1c2d>   DW_AT_upper_bound : 31
 <2><1c2e>: Abbrev Number: 0
 <1><1c2f>: Abbrev Number: 7 (DW_TAG_const_type)
    <1c30>   DW_AT_type        : <0x1c19>
 <1><1c34>: Abbrev Number: 12 (DW_TAG_array_type)
    <1c35>   DW_AT_type        : <0x12d>
    <1c39>   DW_AT_sibling     : <0x1c4a>
 <2><1c3d>: Abbrev Number: 13 (DW_TAG_subrange_type)
    <1c3e>   DW_AT_type        : <0x39>
    <1c42>   DW_AT_upper_bound : 4
 <2><1c43>: Abbrev Number: 13 (DW_TAG_subrange_type)
    <1c44>   DW_AT_type        : <0x39>
    <1c48>   DW_AT_upper_bound : 31
 <2><1c49>: Abbrev Number: 0
 <1><1c4a>: Abbrev Number: 7 (DW_TAG_const_type)
    <1c4b>   DW_AT_type        : <0x1c34>
 <1><1c4f>: Abbrev Number: 39 (DW_TAG_subprogram)
    <1c50>   DW_AT_name        : (indirect string, offset: 0x1a21): batch_convert
    <1c54>   DW_AT_decl_file   : 2
    <1c55>   DW_AT_decl_line   : 335
    <1c57>   DW_AT_decl_column : 1
    <1c58>   DW_AT_prototyped  : 1
    <1c58>   DW_AT_type        : <0x15a8>
    <1c5c>   DW_AT_low_pc      : 0x4186
    <1c64>   DW_AT_high_pc     : 0x23c
    <1c6c>   DW_AT_frame_base  : 1 byte block: 9c 	(DW_OP_call_frame_cfa)
    <1c6e>   DW_AT_GNU_all_tail_call_sites: 1
    <1c6e>   DW_AT_sibling     : <0x1d46>
 <2><1c72>: Abbrev Number: 40 (DW_TAG_formal_parameter)
    <1c73>   DW_AT_name        : (indirect string, offset: 0x5b5): input_filename
    <1c77>   DW_AT_decl_file   : 2
    <1c78>   DW_AT_decl_line   : 335
    <1c7a>   DW_AT_decl_column : 28
    <1c7b>   DW_AT_type        : <0x31a>
    <1c7f>   DW_AT_location    : 3 byte block: 91 88 7f 	(DW_OP_fbreg: -120)
 <2><1c83>: Abbrev Number: 40 (DW_TAG_formal_parameter)
    <1c84>   DW_AT_name        : (indirect string, offset: 0x4f4): format
    <1c88>   DW_AT_decl_file   : 2
    <1c89>   DW_AT_decl_line   : 335
    <1c8b>   DW_AT_decl_column : 56
    <1c8c>   DW_AT_type        : <0x31a>
    <1c90>   DW_AT_location    : 3 byte block: 91 80 7f 	(DW_OP_fbreg: -128)
 <2><1c94>: Abbrev Number: 41 (DW_TAG_formal_parameter)
    <1c95>   DW_AT_name        : tz
    <1c98>   DW_AT_decl_file   : 2
    <1c99>   DW_AT_decl_line   : 336
    <1c9b>   DW_AT_decl_column : 27
    <1c9c>   DW_AT_type        : <0x1154>
    <1ca0>   DW_AT_location    : 3 byte block: 91 f8 7e 	(DW_OP_fbreg: -136)
 <2><1ca4>: Abbrev Number: 40 (DW_TAG_formal_parameter)
    <1ca5>   DW_AT_name        : (indirect string, offset: 0x225c): tzstring
    <1ca9>   DW_AT_decl_file   : 2
    <1caa>   DW_AT_decl_line   : 336
    <1cac>   DW_AT_decl_column : 43
    <1cad>   DW_AT_type        : <0x31a>
    <1cb1>   DW_AT_location    : 3 byte block: 91 f0 7e 	(DW_OP_fbreg: -144)
 <2><1cb5>: Abbrev Number: 42 (DW_TAG_variable)
    <1cb6>   DW_AT_name        : ok
    <1cb9>   DW_AT_decl_file   : 2
    <1cba>   DW_AT_decl_line   : 338
    <1cbc>   DW_AT_decl_column : 8
    <1cbd>   DW_AT_type        : <0x15a8>
    <1cc1>   DW_AT_location    : 3 byte block: 91 9f 7f 	(DW_OP_fbreg: -97)
 <2><1cc5>: Abbrev Number: 45 (DW_TAG_variable)
    <1cc6>   DW_AT_name        : (indirect string, offset: 0x13a9): in_stream
    <1cca>   DW_AT_decl_file   : 2
    <1ccb>   DW_AT_decl_line   : 339
    <1ccd>   DW_AT_decl_column : 9
    <1cce>   DW_AT_type        : <0x342>
    <1cd2>   DW_AT_location    : 3 byte block: 91 b0 7f 	(DW_OP_fbreg: -80)
 <2><1cd6>: Abbrev Number: 45 (DW_TAG_variable)
    <1cd7>   DW_AT_name        : (indirect string, offset: 0x11ff): line
    <1cdb>   DW_AT_decl_file   : 2
    <1cdc>   DW_AT_decl_line   : 340
    <1cde>   DW_AT_decl_column : 9
    <1cdf>   DW_AT_type        : <0x11b>
    <1ce3>   DW_AT_location    : 3 byte block: 91 a0 7f 	(DW_OP_fbreg: -96)
 <2><1ce7>: Abbrev Number: 45 (DW_TAG_variable)
    <1ce8>   DW_AT_name        : (indirect string, offset: 0x97b): buflen
    <1cec>   DW_AT_decl_file   : 2
    <1ced>   DW_AT_decl_line   : 341
    <1cef>   DW_AT_decl_column : 10
    <1cf0>   DW_AT_type        : <0x2d>
    <1cf4>   DW_AT_location    : 3 byte block: 91 a8 7f 	(DW_OP_fbreg: -88)
 <2><1cf8>: Abbrev Number: 45 (DW_TAG_variable)
    <1cf9>   DW_AT_name        : (indirect string, offset: 0x1b9a): when
    <1cfd>   DW_AT_decl_file   : 2
    <1cfe>   DW_AT_decl_line   : 342
    <1d00>   DW_AT_decl_column : 19
    <1d01>   DW_AT_type        : <0x390>
    <1d05>   DW_AT_location    : 2 byte block: 91 40 	(DW_OP_fbreg: -64)
 <2><1d08>: Abbrev Number: 47 (DW_TAG_lexical_block)
    <1d09>   DW_AT_low_pc      : 0x420d
    <1d11>   DW_AT_high_pc     : 0x3b
 <2><1d19>: Abbrev Number: 48 (DW_TAG_lexical_block)
    <1d1a>   DW_AT_ranges      : 0x0
    <1d1e>   DW_AT_sibling     : <0x1d34>
 <3><1d22>: Abbrev Number: 45 (DW_TAG_variable)
    <1d23>   DW_AT_name        : (indirect string, offset: 0x1216): line_length
    <1d27>   DW_AT_decl_file   : 2
    <1d28>   DW_AT_decl_line   : 363
    <1d2a>   DW_AT_decl_column : 15
    <1d2b>   DW_AT_type        : <0x32a>
    <1d2f>   DW_AT_location    : 3 byte block: 91 b8 7f 	(DW_OP_fbreg: -72)
 <3><1d33>: Abbrev Number: 0
 <2><1d34>: Abbrev Number: 47 (DW_TAG_lexical_block)
    <1d35>   DW_AT_low_pc      : 0x435d
    <1d3d>   DW_AT_high_pc     : 0x3b
 <2><1d45>: Abbrev Number: 0
 <1><1d46>: Abbrev Number: 39 (DW_TAG_subprogram)
    <1d47>   DW_AT_name        : (indirect string, offset: 0xef7): adjust_resolution
    <1d4b>   DW_AT_decl_file   : 2
    <1d4c>   DW_AT_decl_line   : 308
    <1d4e>   DW_AT_decl_column : 1
    <1d4f>   DW_AT_prototyped  : 1
    <1d4f>   DW_AT_type        : <0x11b>
    <1d53>   DW_AT_low_pc      : 0x40c1
    <1d5b>   DW_AT_high_pc     : 0xc5
    <1d63>   DW_AT_frame_base  : 1 byte block: 9c 	(DW_OP_call_frame_cfa)
    <1d65>   DW_AT_GNU_all_tail_call_sites: 1
    <1d65>   DW_AT_sibling     : <0x1daa>
 <2><1d69>: Abbrev Number: 40 (DW_TAG_formal_parameter)
    <1d6a>   DW_AT_name        : (indirect string, offset: 0x4f4): format
    <1d6e>   DW_AT_decl_file   : 2
    <1d6f>   DW_AT_decl_line   : 308
    <1d71>   DW_AT_decl_column : 32
    <1d72>   DW_AT_type        : <0x31a>
    <1d76>   DW_AT_location    : 2 byte block: 91 58 	(DW_OP_fbreg: -40)
 <2><1d79>: Abbrev Number: 45 (DW_TAG_variable)
    <1d7a>   DW_AT_name        : (indirect string, offset: 0x3c71): copy
    <1d7e>   DW_AT_decl_file   : 2
    <1d7f>   DW_AT_decl_line   : 310
    <1d81>   DW_AT_decl_column : 9
    <1d82>   DW_AT_type        : <0x11b>
    <1d86>   DW_AT_location    : 2 byte block: 91 60 	(DW_OP_fbreg: -32)
 <2><1d89>: Abbrev Number: 43 (DW_TAG_lexical_block)
    <1d8a>   DW_AT_low_pc      : 0x40d9
    <1d92>   DW_AT_high_pc     : 0xa7
 <3><1d9a>: Abbrev Number: 42 (DW_TAG_variable)
    <1d9b>   DW_AT_name        : f
    <1d9d>   DW_AT_decl_file   : 2
    <1d9e>   DW_AT_decl_line   : 312
    <1da0>   DW_AT_decl_column : 20
    <1da1>   DW_AT_type        : <0x31a>
    <1da5>   DW_AT_location    : 2 byte block: 91 68 	(DW_OP_fbreg: -24)
 <3><1da8>: Abbrev Number: 0
 <2><1da9>: Abbrev Number: 0
 <1><1daa>: Abbrev Number: 49 (DW_TAG_subprogram)
    <1dab>   DW_AT_name        : (indirect string, offset: 0x5c4): res_width
    <1daf>   DW_AT_decl_file   : 2
    <1db0>   DW_AT_decl_line   : 295
    <1db2>   DW_AT_decl_column : 1
    <1db3>   DW_AT_prototyped  : 1
    <1db3>   DW_AT_type        : <0x65>
    <1db7>   DW_AT_low_pc      : 0x407c
    <1dbf>   DW_AT_high_pc     : 0x45
    <1dc7>   DW_AT_frame_base  : 1 byte block: 9c 	(DW_OP_call_frame_cfa)
    <1dc9>   DW_AT_GNU_all_call_sites: 1
    <1dc9>   DW_AT_sibling     : <0x1e0c>
 <2><1dcd>: Abbrev Number: 41 (DW_TAG_formal_parameter)
    <1dce>   DW_AT_name        : res
    <1dd2>   DW_AT_decl_file   : 2
    <1dd3>   DW_AT_decl_line   : 295
    <1dd5>   DW_AT_decl_column : 21
    <1dd6>   DW_AT_type        : <0x6c>
    <1dda>   DW_AT_location    : 2 byte block: 91 58 	(DW_OP_fbreg: -40)
 <2><1ddd>: Abbrev Number: 42 (DW_TAG_variable)
    <1dde>   DW_AT_name        : i
    <1de0>   DW_AT_decl_file   : 2
    <1de1>   DW_AT_decl_line   : 297
    <1de3>   DW_AT_decl_column : 7
    <1de4>   DW_AT_type        : <0x65>
    <1de8>   DW_AT_location    : 2 byte block: 91 64 	(DW_OP_fbreg: -28)
 <2><1deb>: Abbrev Number: 43 (DW_TAG_lexical_block)
    <1dec>   DW_AT_low_pc      : 0x408f
    <1df4>   DW_AT_high_pc     : 0x2d
 <3><1dfc>: Abbrev Number: 42 (DW_TAG_variable)
    <1dfd>   DW_AT_name        : r
    <1dff>   DW_AT_decl_file   : 2
    <1e00>   DW_AT_decl_line   : 298
    <1e02>   DW_AT_decl_column : 22
    <1e03>   DW_AT_type        : <0x371>
    <1e07>   DW_AT_location    : 2 byte block: 91 68 	(DW_OP_fbreg: -24)
 <3><1e0a>: Abbrev Number: 0
 <2><1e0b>: Abbrev Number: 0
 <1><1e0c>: Abbrev Number: 50 (DW_TAG_subprogram)
    <1e0d>   DW_AT_external    : 1
    <1e0d>   DW_AT_name        : (indirect string, offset: 0xf8b): usage
    <1e11>   DW_AT_decl_file   : 2
    <1e12>   DW_AT_decl_line   : 126
    <1e13>   DW_AT_decl_column : 1
    <1e14>   DW_AT_prototyped  : 1
    <1e14>   DW_AT_noreturn    : 1
    <1e14>   DW_AT_low_pc      : 0x3c84
    <1e1c>   DW_AT_high_pc     : 0x3f8
    <1e24>   DW_AT_frame_base  : 1 byte block: 9c 	(DW_OP_call_frame_cfa)
    <1e26>   DW_AT_GNU_all_tail_call_sites: 1
    <1e26>   DW_AT_sibling     : <0x1e3a>
 <2><1e2a>: Abbrev Number: 51 (DW_TAG_formal_parameter)
    <1e2b>   DW_AT_name        : (indirect string, offset: 0x2efa): status
    <1e2f>   DW_AT_decl_file   : 2
    <1e30>   DW_AT_decl_line   : 126
    <1e31>   DW_AT_decl_column : 12
    <1e32>   DW_AT_type        : <0x65>
    <1e36>   DW_AT_location    : 2 byte block: 91 5c 	(DW_OP_fbreg: -36)
 <2><1e39>: Abbrev Number: 0
 <1><1e3a>: Abbrev Number: 52 (DW_TAG_subprogram)
    <1e3b>   DW_AT_external    : 1
    <1e3b>   DW_AT_name        : (indirect string, offset: 0x195f): get_stat_mtime
    <1e3f>   DW_AT_decl_file   : 39
    <1e40>   DW_AT_decl_line   : 146
    <1e41>   DW_AT_decl_column : 1
    <1e42>   DW_AT_prototyped  : 1
    <1e42>   DW_AT_type        : <0x390>
    <1e46>   DW_AT_sibling     : <0x1e56>
 <2><1e4a>: Abbrev Number: 53 (DW_TAG_formal_parameter)
    <1e4b>   DW_AT_name        : st
    <1e4e>   DW_AT_decl_file   : 39
    <1e4f>   DW_AT_decl_line   : 146
    <1e50>   DW_AT_decl_column : 36
    <1e51>   DW_AT_type        : <0x1e56>
 <2><1e55>: Abbrev Number: 0
 <1><1e56>: Abbrev Number: 6 (DW_TAG_pointer_type)
    <1e57>   DW_AT_byte_size   : 8
    <1e58>   DW_AT_type        : <0x123d>
 <1><1e5c>: Abbrev Number: 49 (DW_TAG_subprogram)
    <1e5d>   DW_AT_name        : (indirect string, offset: 0xed5): bad_cast
    <1e61>   DW_AT_decl_file   : 1
    <1e62>   DW_AT_decl_line   : 695
    <1e64>   DW_AT_decl_column : 1
    <1e65>   DW_AT_prototyped  : 1
    <1e65>   DW_AT_type        : <0x11b>
    <1e69>   DW_AT_low_pc      : 0x3c76
    <1e71>   DW_AT_high_pc     : 0xe
    <1e79>   DW_AT_frame_base  : 1 byte block: 9c 	(DW_OP_call_frame_cfa)
    <1e7b>   DW_AT_GNU_all_call_sites: 1
    <1e7b>   DW_AT_sibling     : <0x1e8e>
 <2><1e7f>: Abbrev Number: 41 (DW_TAG_formal_parameter)
    <1e80>   DW_AT_name        : s
    <1e82>   DW_AT_decl_file   : 1
    <1e83>   DW_AT_decl_line   : 695
    <1e85>   DW_AT_decl_column : 23
    <1e86>   DW_AT_type        : <0x31a>
    <1e8a>   DW_AT_location    : 2 byte block: 91 68 	(DW_OP_fbreg: -24)
 <2><1e8d>: Abbrev Number: 0
 <1><1e8e>: Abbrev Number: 39 (DW_TAG_subprogram)
    <1e8f>   DW_AT_name        : (indirect string, offset: 0x60f): timetostr
    <1e93>   DW_AT_decl_file   : 1
    <1e94>   DW_AT_decl_line   : 687
    <1e96>   DW_AT_decl_column : 1
    <1e97>   DW_AT_prototyped  : 1
    <1e97>   DW_AT_type        : <0x11b>
    <1e9b>   DW_AT_low_pc      : 0x3c51
    <1ea3>   DW_AT_high_pc     : 0x25
    <1eab>   DW_AT_frame_base  : 1 byte block: 9c 	(DW_OP_call_frame_cfa)
    <1ead>   DW_AT_GNU_all_tail_call_sites: 1
    <1ead>   DW_AT_sibling     : <0x1ed0>
 <2><1eb1>: Abbrev Number: 41 (DW_TAG_formal_parameter)
    <1eb2>   DW_AT_name        : t
    <1eb4>   DW_AT_decl_file   : 1
    <1eb5>   DW_AT_decl_line   : 687
    <1eb7>   DW_AT_decl_column : 19
    <1eb8>   DW_AT_type        : <0x37f>
    <1ebc>   DW_AT_location    : 2 byte block: 91 68 	(DW_OP_fbreg: -24)
 <2><1ebf>: Abbrev Number: 41 (DW_TAG_formal_parameter)
    <1ec0>   DW_AT_name        : buf
    <1ec4>   DW_AT_decl_file   : 1
    <1ec5>   DW_AT_decl_line   : 687
    <1ec7>   DW_AT_decl_column : 28
    <1ec8>   DW_AT_type        : <0x11b>
    <1ecc>   DW_AT_location    : 2 byte block: 91 60 	(DW_OP_fbreg: -32)
 <2><1ecf>: Abbrev Number: 0
 <1><1ed0>: Abbrev Number: 54 (DW_TAG_subprogram)
    <1ed1>   DW_AT_name        : (indirect string, offset: 0xf25): emit_ancillary_info
    <1ed5>   DW_AT_decl_file   : 1
    <1ed6>   DW_AT_decl_line   : 627
    <1ed8>   DW_AT_decl_column : 1
    <1ed9>   DW_AT_prototyped  : 1
    <1ed9>   DW_AT_low_pc      : 0x39ba
    <1ee1>   DW_AT_high_pc     : 0x297
    <1ee9>   DW_AT_frame_base  : 1 byte block: 9c 	(DW_OP_call_frame_cfa)
    <1eeb>   DW_AT_GNU_all_tail_call_sites: 1
    <1eeb>   DW_AT_sibling     : <0x1f86>
 <2><1eef>: Abbrev Number: 40 (DW_TAG_formal_parameter)
    <1ef0>   DW_AT_name        : (indirect string, offset: 0x964): program
    <1ef4>   DW_AT_decl_file   : 1
    <1ef5>   DW_AT_decl_line   : 627
    <1ef7>   DW_AT_decl_column : 34
    <1ef8>   DW_AT_type        : <0x31a>
    <1efc>   DW_AT_location    : 3 byte block: 91 b8 7e 	(DW_OP_fbreg: -200)
 <2><1f00>: Abbrev Number: 55 (DW_TAG_structure_type)
    <1f01>   DW_AT_name        : (indirect string, offset: 0xcc3): infomap
    <1f05>   DW_AT_byte_size   : 16
    <1f06>   DW_AT_decl_file   : 1
    <1f07>   DW_AT_decl_line   : 629
    <1f09>   DW_AT_decl_column : 10
    <1f0a>   DW_AT_sibling     : <0x1f2b>
 <3><1f0e>: Abbrev Number: 56 (DW_TAG_member)
    <1f0f>   DW_AT_name        : (indirect string, offset: 0x964): program
    <1f13>   DW_AT_decl_file   : 1
    <1f14>   DW_AT_decl_line   : 629
    <1f16>   DW_AT_decl_column : 32
    <1f17>   DW_AT_type        : <0x31a>
    <1f1b>   DW_AT_data_member_location: 0
 <3><1f1c>: Abbrev Number: 56 (DW_TAG_member)
    <1f1d>   DW_AT_name        : (indirect string, offset: 0x9ae): node
    <1f21>   DW_AT_decl_file   : 1
    <1f22>   DW_AT_decl_line   : 629
    <1f24>   DW_AT_decl_column : 53
    <1f25>   DW_AT_type        : <0x31a>
    <1f29>   DW_AT_data_member_location: 8
 <3><1f2a>: Abbrev Number: 0
 <2><1f2b>: Abbrev Number: 7 (DW_TAG_const_type)
    <1f2c>   DW_AT_type        : <0x1f00>
 <2><1f30>: Abbrev Number: 45 (DW_TAG_variable)
    <1f31>   DW_AT_name        : (indirect string, offset: 0xcc3): infomap
    <1f35>   DW_AT_decl_file   : 1
    <1f36>   DW_AT_decl_line   : 629
    <1f38>   DW_AT_decl_column : 67
    <1f39>   DW_AT_type        : <0x1f96>
    <1f3d>   DW_AT_location    : 3 byte block: 91 e0 7e 	(DW_OP_fbreg: -160)
 <2><1f41>: Abbrev Number: 45 (DW_TAG_variable)
    <1f42>   DW_AT_name        : (indirect string, offset: 0x9ae): node
    <1f46>   DW_AT_decl_file   : 1
    <1f47>   DW_AT_decl_line   : 639
    <1f49>   DW_AT_decl_column : 15
    <1f4a>   DW_AT_type        : <0x31a>
    <1f4e>   DW_AT_location    : 3 byte block: 91 c0 7e 	(DW_OP_fbreg: -192)
 <2><1f52>: Abbrev Number: 45 (DW_TAG_variable)
    <1f53>   DW_AT_name        : (indirect string, offset: 0x12b1): map_prog
    <1f57>   DW_AT_decl_file   : 1
    <1f58>   DW_AT_decl_line   : 640
    <1f5a>   DW_AT_decl_column : 25
    <1f5b>   DW_AT_type        : <0x1f9b>
    <1f5f>   DW_AT_location    : 3 byte block: 91 c8 7e 	(DW_OP_fbreg: -184)
 <2><1f63>: Abbrev Number: 45 (DW_TAG_variable)
    <1f64>   DW_AT_name        : (indirect string, offset: 0x1ca0): lc_messages
    <1f68>   DW_AT_decl_file   : 1
    <1f69>   DW_AT_decl_line   : 652
    <1f6b>   DW_AT_decl_column : 15
    <1f6c>   DW_AT_type        : <0x31a>
    <1f70>   DW_AT_location    : 3 byte block: 91 d0 7e 	(DW_OP_fbreg: -176)
 <2><1f74>: Abbrev Number: 45 (DW_TAG_variable)
    <1f75>   DW_AT_name        : (indirect string, offset: 0x960): url_program
    <1f79>   DW_AT_decl_file   : 1
    <1f7a>   DW_AT_decl_line   : 665
    <1f7c>   DW_AT_decl_column : 15
    <1f7d>   DW_AT_type        : <0x31a>
    <1f81>   DW_AT_location    : 3 byte block: 91 d8 7e 	(DW_OP_fbreg: -168)
 <2><1f85>: Abbrev Number: 0
 <1><1f86>: Abbrev Number: 12 (DW_TAG_array_type)
    <1f87>   DW_AT_type        : <0x1f2b>
    <1f8b>   DW_AT_sibling     : <0x1f96>
 <2><1f8f>: Abbrev Number: 13 (DW_TAG_subrange_type)
    <1f90>   DW_AT_type        : <0x39>
    <1f94>   DW_AT_upper_bound : 6
 <2><1f95>: Abbrev Number: 0
 <1><1f96>: Abbrev Number: 7 (DW_TAG_const_type)
    <1f97>   DW_AT_type        : <0x1f86>
 <1><1f9b>: Abbrev Number: 6 (DW_TAG_pointer_type)
    <1f9c>   DW_AT_byte_size   : 8
    <1f9d>   DW_AT_type        : <0x1f2b>
 <1><1fa1>: Abbrev Number: 57 (DW_TAG_subprogram)
    <1fa2>   DW_AT_name        : (indirect string, offset: 0x5f7): emit_mandatory_arg_note
    <1fa6>   DW_AT_decl_file   : 1
    <1fa7>   DW_AT_decl_line   : 581
    <1fa9>   DW_AT_decl_column : 1
    <1faa>   DW_AT_prototyped  : 1
    <1faa>   DW_AT_low_pc      : 0x3989
    <1fb2>   DW_AT_high_pc     : 0x31
    <1fba>   DW_AT_frame_base  : 1 byte block: 9c 	(DW_OP_call_frame_cfa)
    <1fbc>   DW_AT_GNU_all_tail_call_sites: 1
 <1><1fbc>: Abbrev Number: 0
  Compilation Unit @ offset 0x1fbd:
   Length:        0x42 (32-bit)
   Version:       4
   Abbrev Offset: 0x383
   Pointer Size:  8
 <0><1fc8>: Abbrev Number: 1 (DW_TAG_compile_unit)
    <1fc9>   DW_AT_producer    : (indirect string, offset: 0x81e): GNU C17 11.1.0 -mtune=generic -march=x86-64 -g -O0 -fasynchronous-unwind-tables -fstack-protector-strong -fstack-clash-protection -fcf-protection
    <1fcd>   DW_AT_language    : 12	(ANSI C99)
    <1fce>   DW_AT_name        : (indirect string, offset: 0x22e7): src/version.c
    <1fd2>   DW_AT_comp_dir    : (indirect string, offset: 0xb3f): /home/jacekline/dev/research/programs/coreutils-9.1
    <1fd6>   DW_AT_stmt_list   : 0x79d
 <1><1fda>: Abbrev Number: 2 (DW_TAG_variable)
    <1fdb>   DW_AT_name        : (indirect string, offset: 0x8b8): Version
    <1fdf>   DW_AT_decl_file   : 1
    <1fe0>   DW_AT_decl_line   : 2
    <1fe1>   DW_AT_decl_column : 13
    <1fe2>   DW_AT_type        : <0x1ff0>
    <1fe6>   DW_AT_external    : 1
    <1fe6>   DW_AT_location    : 9 byte block: 3 10 40 2 0 0 0 0 0 	(DW_OP_addr: 24010)
 <1><1ff0>: Abbrev Number: 3 (DW_TAG_pointer_type)
    <1ff1>   DW_AT_byte_size   : 8
    <1ff2>   DW_AT_type        : <0x1ffd>
 <1><1ff6>: Abbrev Number: 4 (DW_TAG_base_type)
    <1ff7>   DW_AT_byte_size   : 1
    <1ff8>   DW_AT_encoding    : 6	(signed char)
    <1ff9>   DW_AT_name        : (indirect string, offset: 0x7c8): char
 <1><1ffd>: Abbrev Number: 5 (DW_TAG_const_type)
    <1ffe>   DW_AT_type        : <0x1ff6>
 <1><2002>: Abbrev Number: 0
  Compilation Unit @ offset 0x2003:
   Length:        0x794 (32-bit)
   Version:       4
   Abbrev Offset: 0x3c1
   Pointer Size:  8
 <0><200e>: Abbrev Number: 1 (DW_TAG_compile_unit)
    <200f>   DW_AT_producer    : (indirect string, offset: 0x81e): GNU C17 11.1.0 -mtune=generic -march=x86-64 -g -O0 -fasynchronous-unwind-tables -fstack-protector-strong -fstack-clash-protection -fcf-protection
    <2013>   DW_AT_language    : 12	(ANSI C99)
    <2014>   DW_AT_name        : (indirect string, offset: 0x235d): lib/argmatch.c
    <2018>   DW_AT_comp_dir    : (indirect string, offset: 0xb3f): /home/jacekline/dev/research/programs/coreutils-9.1
    <201c>   DW_AT_low_pc      : 0x4f5c
    <2024>   DW_AT_high_pc     : 0x4ed
    <202c>   DW_AT_stmt_list   : 0x7cb
 <1><2030>: Abbrev Number: 2 (DW_TAG_typedef)
    <2031>   DW_AT_name        : (indirect string, offset: 0x11a3): ptrdiff_t
    <2035>   DW_AT_decl_file   : 2
    <2036>   DW_AT_decl_line   : 143
    <2037>   DW_AT_decl_column : 26
    <2038>   DW_AT_type        : <0x203c>
 <1><203c>: Abbrev Number: 3 (DW_TAG_base_type)
    <203d>   DW_AT_byte_size   : 8
    <203e>   DW_AT_encoding    : 5	(signed)
    <203f>   DW_AT_name        : (indirect string, offset: 0x1ea4): long int
 <1><2043>: Abbrev Number: 2 (DW_TAG_typedef)
    <2044>   DW_AT_name        : (indirect string, offset: 0x1155): size_t
    <2048>   DW_AT_decl_file   : 2
    <2049>   DW_AT_decl_line   : 209
    <204a>   DW_AT_decl_column : 23
    <204b>   DW_AT_type        : <0x204f>
 <1><204f>: Abbrev Number: 3 (DW_TAG_base_type)
    <2050>   DW_AT_byte_size   : 8
    <2051>   DW_AT_encoding    : 7	(unsigned)
    <2052>   DW_AT_name        : (indirect string, offset: 0x1bf6): long unsigned int
 <1><2056>: Abbrev Number: 4 (DW_TAG_base_type)
    <2057>   DW_AT_byte_size   : 4
    <2058>   DW_AT_encoding    : 5	(signed)
    <2059>   DW_AT_name        : int
 <1><205d>: Abbrev Number: 3 (DW_TAG_base_type)
    <205e>   DW_AT_byte_size   : 8
    <205f>   DW_AT_encoding    : 5	(signed)
    <2060>   DW_AT_name        : (indirect string, offset: 0x1e9f): long long int
 <1><2064>: Abbrev Number: 3 (DW_TAG_base_type)
    <2065>   DW_AT_byte_size   : 16
    <2066>   DW_AT_encoding    : 4	(float)
    <2067>   DW_AT_name        : (indirect string, offset: 0x1507): long double
 <1><206b>: Abbrev Number: 3 (DW_TAG_base_type)
    <206c>   DW_AT_byte_size   : 4
    <206d>   DW_AT_encoding    : 7	(unsigned)
    <206e>   DW_AT_name        : (indirect string, offset: 0x1bfb): unsigned int
 <1><2072>: Abbrev Number: 5 (DW_TAG_pointer_type)
    <2073>   DW_AT_byte_size   : 8
 <1><2074>: Abbrev Number: 3 (DW_TAG_base_type)
    <2075>   DW_AT_byte_size   : 1
    <2076>   DW_AT_encoding    : 8	(unsigned char)
    <2077>   DW_AT_name        : (indirect string, offset: 0x7bf): unsigned char
 <1><207b>: Abbrev Number: 3 (DW_TAG_base_type)
    <207c>   DW_AT_byte_size   : 2
    <207d>   DW_AT_encoding    : 7	(unsigned)
    <207e>   DW_AT_name        : (indirect string, offset: 0x1116): short unsigned int
 <1><2082>: Abbrev Number: 3 (DW_TAG_base_type)
    <2083>   DW_AT_byte_size   : 1
    <2084>   DW_AT_encoding    : 6	(signed char)
    <2085>   DW_AT_name        : (indirect string, offset: 0x7c1): signed char
 <1><2089>: Abbrev Number: 3 (DW_TAG_base_type)
    <208a>   DW_AT_byte_size   : 2
    <208b>   DW_AT_encoding    : 5	(signed)
    <208c>   DW_AT_name        : (indirect string, offset: 0x21d3): short int
 <1><2090>: Abbrev Number: 2 (DW_TAG_typedef)
    <2091>   DW_AT_name        : (indirect string, offset: 0x2c5): __off_t
    <2095>   DW_AT_decl_file   : 3
    <2096>   DW_AT_decl_line   : 152
    <2097>   DW_AT_decl_column : 25
    <2098>   DW_AT_type        : <0x203c>
 <1><209c>: Abbrev Number: 2 (DW_TAG_typedef)
    <209d>   DW_AT_name        : (indirect string, offset: 0x120c): __off64_t
    <20a1>   DW_AT_decl_file   : 3
    <20a2>   DW_AT_decl_line   : 153
    <20a3>   DW_AT_decl_column : 27
    <20a4>   DW_AT_type        : <0x203c>
 <1><20a8>: Abbrev Number: 6 (DW_TAG_pointer_type)
    <20a9>   DW_AT_byte_size   : 8
    <20aa>   DW_AT_type        : <0x20ae>
 <1><20ae>: Abbrev Number: 3 (DW_TAG_base_type)
    <20af>   DW_AT_byte_size   : 1
    <20b0>   DW_AT_encoding    : 6	(signed char)
    <20b1>   DW_AT_name        : (indirect string, offset: 0x7c8): char
 <1><20b5>: Abbrev Number: 7 (DW_TAG_const_type)
    <20b6>   DW_AT_type        : <0x20ae>
 <1><20ba>: Abbrev Number: 8 (DW_TAG_structure_type)
    <20bb>   DW_AT_name        : (indirect string, offset: 0x16c9): _IO_FILE
    <20bf>   DW_AT_byte_size   : 216
    <20c0>   DW_AT_decl_file   : 4
    <20c1>   DW_AT_decl_line   : 49
    <20c2>   DW_AT_decl_column : 8
    <20c3>   DW_AT_sibling     : <0x2241>
 <2><20c7>: Abbrev Number: 9 (DW_TAG_member)
    <20c8>   DW_AT_name        : (indirect string, offset: 0x160b): _flags
    <20cc>   DW_AT_decl_file   : 4
    <20cd>   DW_AT_decl_line   : 51
    <20ce>   DW_AT_decl_column : 7
    <20cf>   DW_AT_type        : <0x2056>
    <20d3>   DW_AT_data_member_location: 0
 <2><20d4>: Abbrev Number: 9 (DW_TAG_member)
    <20d5>   DW_AT_name        : (indirect string, offset: 0x1cf2): _IO_read_ptr
    <20d9>   DW_AT_decl_file   : 4
    <20da>   DW_AT_decl_line   : 54
    <20db>   DW_AT_decl_column : 9
    <20dc>   DW_AT_type        : <0x20a8>
    <20e0>   DW_AT_data_member_location: 8
 <2><20e1>: Abbrev Number: 9 (DW_TAG_member)
    <20e2>   DW_AT_name        : (indirect string, offset: 0x16a5): _IO_read_end
    <20e6>   DW_AT_decl_file   : 4
    <20e7>   DW_AT_decl_line   : 55
    <20e8>   DW_AT_decl_column : 9
    <20e9>   DW_AT_type        : <0x20a8>
    <20ed>   DW_AT_data_member_location: 16
 <2><20ee>: Abbrev Number: 9 (DW_TAG_member)
    <20ef>   DW_AT_name        : (indirect string, offset: 0x123b): _IO_read_base
    <20f3>   DW_AT_decl_file   : 4
    <20f4>   DW_AT_decl_line   : 56
    <20f5>   DW_AT_decl_column : 9
    <20f6>   DW_AT_type        : <0x20a8>
    <20fa>   DW_AT_data_member_location: 24
 <2><20fb>: Abbrev Number: 9 (DW_TAG_member)
    <20fc>   DW_AT_name        : (indirect string, offset: 0x12dd): _IO_write_base
    <2100>   DW_AT_decl_file   : 4
    <2101>   DW_AT_decl_line   : 57
    <2102>   DW_AT_decl_column : 9
    <2103>   DW_AT_type        : <0x20a8>
    <2107>   DW_AT_data_member_location: 32
 <2><2108>: Abbrev Number: 9 (DW_TAG_member)
    <2109>   DW_AT_name        : (indirect string, offset: 0x9ba): _IO_write_ptr
    <210d>   DW_AT_decl_file   : 4
    <210e>   DW_AT_decl_line   : 58
    <210f>   DW_AT_decl_column : 9
    <2110>   DW_AT_type        : <0x20a8>
    <2114>   DW_AT_data_member_location: 40
 <2><2115>: Abbrev Number: 9 (DW_TAG_member)
    <2116>   DW_AT_name        : (indirect string, offset: 0x4b3): _IO_write_end
    <211a>   DW_AT_decl_file   : 4
    <211b>   DW_AT_decl_line   : 59
    <211c>   DW_AT_decl_column : 9
    <211d>   DW_AT_type        : <0x20a8>
    <2121>   DW_AT_data_member_location: 48
 <2><2122>: Abbrev Number: 9 (DW_TAG_member)
    <2123>   DW_AT_name        : (indirect string, offset: 0x163e): _IO_buf_base
    <2127>   DW_AT_decl_file   : 4
    <2128>   DW_AT_decl_line   : 60
    <2129>   DW_AT_decl_column : 9
    <212a>   DW_AT_type        : <0x20a8>
    <212e>   DW_AT_data_member_location: 56
 <2><212f>: Abbrev Number: 9 (DW_TAG_member)
    <2130>   DW_AT_name        : (indirect string, offset: 0x1276): _IO_buf_end
    <2134>   DW_AT_decl_file   : 4
    <2135>   DW_AT_decl_line   : 61
    <2136>   DW_AT_decl_column : 9
    <2137>   DW_AT_type        : <0x20a8>
    <213b>   DW_AT_data_member_location: 64
 <2><213c>: Abbrev Number: 9 (DW_TAG_member)
    <213d>   DW_AT_name        : (indirect string, offset: 0xbe6): _IO_save_base
    <2141>   DW_AT_decl_file   : 4
    <2142>   DW_AT_decl_line   : 64
    <2143>   DW_AT_decl_column : 9
    <2144>   DW_AT_type        : <0x20a8>
    <2148>   DW_AT_data_member_location: 72
 <2><2149>: Abbrev Number: 9 (DW_TAG_member)
    <214a>   DW_AT_name        : (indirect string, offset: 0x1ccd): _IO_backup_base
    <214e>   DW_AT_decl_file   : 4
    <214f>   DW_AT_decl_line   : 65
    <2150>   DW_AT_decl_column : 9
    <2151>   DW_AT_type        : <0x20a8>
    <2155>   DW_AT_data_member_location: 80
 <2><2156>: Abbrev Number: 9 (DW_TAG_member)
    <2157>   DW_AT_name        : (indirect string, offset: 0xf91): _IO_save_end
    <215b>   DW_AT_decl_file   : 4
    <215c>   DW_AT_decl_line   : 66
    <215d>   DW_AT_decl_column : 9
    <215e>   DW_AT_type        : <0x20a8>
    <2162>   DW_AT_data_member_location: 88
 <2><2163>: Abbrev Number: 9 (DW_TAG_member)
    <2164>   DW_AT_name        : (indirect string, offset: 0x18dd): _markers
    <2168>   DW_AT_decl_file   : 4
    <2169>   DW_AT_decl_line   : 68
    <216a>   DW_AT_decl_column : 22
    <216b>   DW_AT_type        : <0x225a>
    <216f>   DW_AT_data_member_location: 96
 <2><2170>: Abbrev Number: 9 (DW_TAG_member)
    <2171>   DW_AT_name        : (indirect string, offset: 0x76d): _chain
    <2175>   DW_AT_decl_file   : 4
    <2176>   DW_AT_decl_line   : 70
    <2177>   DW_AT_decl_column : 20
    <2178>   DW_AT_type        : <0x2260>
    <217c>   DW_AT_data_member_location: 104
 <2><217d>: Abbrev Number: 9 (DW_TAG_member)
    <217e>   DW_AT_name        : (indirect string, offset: 0x41): _fileno
    <2182>   DW_AT_decl_file   : 4
    <2183>   DW_AT_decl_line   : 72
    <2184>   DW_AT_decl_column : 7
    <2185>   DW_AT_type        : <0x2056>
    <2189>   DW_AT_data_member_location: 112
 <2><218a>: Abbrev Number: 9 (DW_TAG_member)
    <218b>   DW_AT_name        : (indirect string, offset: 0x1ead): _flags2
    <218f>   DW_AT_decl_file   : 4
    <2190>   DW_AT_decl_line   : 73
    <2191>   DW_AT_decl_column : 7
    <2192>   DW_AT_type        : <0x2056>
    <2196>   DW_AT_data_member_location: 116
 <2><2197>: Abbrev Number: 9 (DW_TAG_member)
    <2198>   DW_AT_name        : (indirect string, offset: 0x1e2c): _old_offset
    <219c>   DW_AT_decl_file   : 4
    <219d>   DW_AT_decl_line   : 74
    <219e>   DW_AT_decl_column : 11
    <219f>   DW_AT_type        : <0x2090>
    <21a3>   DW_AT_data_member_location: 120
 <2><21a4>: Abbrev Number: 9 (DW_TAG_member)
    <21a5>   DW_AT_name        : (indirect string, offset: 0x1c21): _cur_column
    <21a9>   DW_AT_decl_file   : 4
    <21aa>   DW_AT_decl_line   : 77
    <21ab>   DW_AT_decl_column : 18
    <21ac>   DW_AT_type        : <0x207b>
    <21b0>   DW_AT_data_member_location: 128
 <2><21b1>: Abbrev Number: 9 (DW_TAG_member)
    <21b2>   DW_AT_name        : (indirect string, offset: 0x2217): _vtable_offset
    <21b6>   DW_AT_decl_file   : 4
    <21b7>   DW_AT_decl_line   : 78
    <21b8>   DW_AT_decl_column : 15
    <21b9>   DW_AT_type        : <0x2082>
    <21bd>   DW_AT_data_member_location: 130
 <2><21be>: Abbrev Number: 9 (DW_TAG_member)
    <21bf>   DW_AT_name        : (indirect string, offset: 0x22a): _shortbuf
    <21c3>   DW_AT_decl_file   : 4
    <21c4>   DW_AT_decl_line   : 79
    <21c5>   DW_AT_decl_column : 8
    <21c6>   DW_AT_type        : <0x2266>
    <21ca>   DW_AT_data_member_location: 131
 <2><21cb>: Abbrev Number: 9 (DW_TAG_member)
    <21cc>   DW_AT_name        : (indirect string, offset: 0x311): _lock
    <21d0>   DW_AT_decl_file   : 4
    <21d1>   DW_AT_decl_line   : 81
    <21d2>   DW_AT_decl_column : 15
    <21d3>   DW_AT_type        : <0x2276>
    <21d7>   DW_AT_data_member_location: 136
 <2><21d8>: Abbrev Number: 9 (DW_TAG_member)
    <21d9>   DW_AT_name        : (indirect string, offset: 0x1e30): _offset
    <21dd>   DW_AT_decl_file   : 4
    <21de>   DW_AT_decl_line   : 89
    <21df>   DW_AT_decl_column : 13
    <21e0>   DW_AT_type        : <0x209c>
    <21e4>   DW_AT_data_member_location: 144
 <2><21e5>: Abbrev Number: 9 (DW_TAG_member)
    <21e6>   DW_AT_name        : (indirect string, offset: 0x14c2): _codecvt
    <21ea>   DW_AT_decl_file   : 4
    <21eb>   DW_AT_decl_line   : 91
    <21ec>   DW_AT_decl_column : 23
    <21ed>   DW_AT_type        : <0x2281>
    <21f1>   DW_AT_data_member_location: 152
 <2><21f2>: Abbrev Number: 9 (DW_TAG_member)
    <21f3>   DW_AT_name        : (indirect string, offset: 0x16d5): _wide_data
    <21f7>   DW_AT_decl_file   : 4
    <21f8>   DW_AT_decl_line   : 92
    <21f9>   DW_AT_decl_column : 25
    <21fa>   DW_AT_type        : <0x228c>
    <21fe>   DW_AT_data_member_location: 160
 <2><21ff>: Abbrev Number: 9 (DW_TAG_member)
    <2200>   DW_AT_name        : (indirect string, offset: 0x1d57): _freeres_list
    <2204>   DW_AT_decl_file   : 4
    <2205>   DW_AT_decl_line   : 93
    <2206>   DW_AT_decl_column : 20
    <2207>   DW_AT_type        : <0x2260>
    <220b>   DW_AT_data_member_location: 168
 <2><220c>: Abbrev Number: 9 (DW_TAG_member)
    <220d>   DW_AT_name        : (indirect string, offset: 0x1bbb): _freeres_buf
    <2211>   DW_AT_decl_file   : 4
    <2212>   DW_AT_decl_line   : 94
    <2213>   DW_AT_decl_column : 9
    <2214>   DW_AT_type        : <0x2072>
    <2218>   DW_AT_data_member_location: 176
 <2><2219>: Abbrev Number: 9 (DW_TAG_member)
    <221a>   DW_AT_name        : (indirect string, offset: 0x187b): __pad5
    <221e>   DW_AT_decl_file   : 4
    <221f>   DW_AT_decl_line   : 95
    <2220>   DW_AT_decl_column : 10
    <2221>   DW_AT_type        : <0x2043>
    <2225>   DW_AT_data_member_location: 184
 <2><2226>: Abbrev Number: 9 (DW_TAG_member)
    <2227>   DW_AT_name        : (indirect string, offset: 0x150): _mode
    <222b>   DW_AT_decl_file   : 4
    <222c>   DW_AT_decl_line   : 96
    <222d>   DW_AT_decl_column : 7
    <222e>   DW_AT_type        : <0x2056>
    <2232>   DW_AT_data_member_location: 192
 <2><2233>: Abbrev Number: 9 (DW_TAG_member)
    <2234>   DW_AT_name        : (indirect string, offset: 0x17): _unused2
    <2238>   DW_AT_decl_file   : 4
    <2239>   DW_AT_decl_line   : 98
    <223a>   DW_AT_decl_column : 8
    <223b>   DW_AT_type        : <0x2292>
    <223f>   DW_AT_data_member_location: 196
 <2><2240>: Abbrev Number: 0
 <1><2241>: Abbrev Number: 2 (DW_TAG_typedef)
    <2242>   DW_AT_name        : (indirect string, offset: 0x16cd): FILE
    <2246>   DW_AT_decl_file   : 5
    <2247>   DW_AT_decl_line   : 7
    <2248>   DW_AT_decl_column : 25
    <2249>   DW_AT_type        : <0x20ba>
 <1><224d>: Abbrev Number: 10 (DW_TAG_typedef)
    <224e>   DW_AT_name        : (indirect string, offset: 0x813): _IO_lock_t
    <2252>   DW_AT_decl_file   : 4
    <2253>   DW_AT_decl_line   : 43
    <2254>   DW_AT_decl_column : 14
 <1><2255>: Abbrev Number: 11 (DW_TAG_structure_type)
    <2256>   DW_AT_name        : (indirect string, offset: 0x143e): _IO_marker
    <225a>   DW_AT_declaration : 1
 <1><225a>: Abbrev Number: 6 (DW_TAG_pointer_type)
    <225b>   DW_AT_byte_size   : 8
    <225c>   DW_AT_type        : <0x2255>
 <1><2260>: Abbrev Number: 6 (DW_TAG_pointer_type)
    <2261>   DW_AT_byte_size   : 8
    <2262>   DW_AT_type        : <0x20ba>
 <1><2266>: Abbrev Number: 12 (DW_TAG_array_type)
    <2267>   DW_AT_type        : <0x20ae>
    <226b>   DW_AT_sibling     : <0x2276>
 <2><226f>: Abbrev Number: 13 (DW_TAG_subrange_type)
    <2270>   DW_AT_type        : <0x204f>
    <2274>   DW_AT_upper_bound : 0
 <2><2275>: Abbrev Number: 0
 <1><2276>: Abbrev Number: 6 (DW_TAG_pointer_type)
    <2277>   DW_AT_byte_size   : 8
    <2278>   DW_AT_type        : <0x224d>
 <1><227c>: Abbrev Number: 11 (DW_TAG_structure_type)
    <227d>   DW_AT_name        : (indirect string, offset: 0x14bf): _IO_codecvt
    <2281>   DW_AT_declaration : 1
 <1><2281>: Abbrev Number: 6 (DW_TAG_pointer_type)
    <2282>   DW_AT_byte_size   : 8
    <2283>   DW_AT_type        : <0x227c>
 <1><2287>: Abbrev Number: 11 (DW_TAG_structure_type)
    <2288>   DW_AT_name        : (indirect string, offset: 0x16d2): _IO_wide_data
    <228c>   DW_AT_declaration : 1
 <1><228c>: Abbrev Number: 6 (DW_TAG_pointer_type)
    <228d>   DW_AT_byte_size   : 8
    <228e>   DW_AT_type        : <0x2287>
 <1><2292>: Abbrev Number: 12 (DW_TAG_array_type)
    <2293>   DW_AT_type        : <0x20ae>
    <2297>   DW_AT_sibling     : <0x22a2>
 <2><229b>: Abbrev Number: 13 (DW_TAG_subrange_type)
    <229c>   DW_AT_type        : <0x204f>
    <22a0>   DW_AT_upper_bound : 19
 <2><22a1>: Abbrev Number: 0
 <1><22a2>: Abbrev Number: 6 (DW_TAG_pointer_type)
    <22a3>   DW_AT_byte_size   : 8
    <22a4>   DW_AT_type        : <0x20b5>
 <1><22a8>: Abbrev Number: 7 (DW_TAG_const_type)
    <22a9>   DW_AT_type        : <0x22a2>
 <1><22ad>: Abbrev Number: 14 (DW_TAG_restrict_type)
    <22ae>   DW_AT_type        : <0x22a2>
 <1><22b2>: Abbrev Number: 6 (DW_TAG_pointer_type)
    <22b3>   DW_AT_byte_size   : 8
    <22b4>   DW_AT_type        : <0x2241>
 <1><22b8>: Abbrev Number: 14 (DW_TAG_restrict_type)
    <22b9>   DW_AT_type        : <0x22b2>
 <1><22bd>: Abbrev Number: 15 (DW_TAG_variable)
    <22be>   DW_AT_name        : (indirect string, offset: 0xf6d): stderr
    <22c2>   DW_AT_decl_file   : 7
    <22c3>   DW_AT_decl_line   : 139
    <22c4>   DW_AT_decl_column : 14
    <22c5>   DW_AT_type        : <0x22b2>
    <22c9>   DW_AT_external    : 1
    <22c9>   DW_AT_declaration : 1
 <1><22c9>: Abbrev Number: 3 (DW_TAG_base_type)
    <22ca>   DW_AT_byte_size   : 8
    <22cb>   DW_AT_encoding    : 7	(unsigned)
    <22cc>   DW_AT_name        : (indirect string, offset: 0x1bf1): long long unsigned int
 <1><22d0>: Abbrev Number: 6 (DW_TAG_pointer_type)
    <22d1>   DW_AT_byte_size   : 8
    <22d2>   DW_AT_type        : <0x22d6>
 <1><22d6>: Abbrev Number: 16 (DW_TAG_const_type)
 <1><22d7>: Abbrev Number: 2 (DW_TAG_typedef)
    <22d8>   DW_AT_name        : (indirect string, offset: 0x1ef3): argmatch_exit_fn
    <22dc>   DW_AT_decl_file   : 6
    <22dd>   DW_AT_decl_line   : 67
    <22de>   DW_AT_decl_column : 16
    <22df>   DW_AT_type        : <0x22e3>
 <1><22e3>: Abbrev Number: 6 (DW_TAG_pointer_type)
    <22e4>   DW_AT_byte_size   : 8
    <22e5>   DW_AT_type        : <0x22e9>
 <1><22e9>: Abbrev Number: 17 (DW_TAG_subroutine_type)
    <22ea>   DW_AT_prototyped  : 1
 <1><22ea>: Abbrev Number: 15 (DW_TAG_variable)
    <22eb>   DW_AT_name        : (indirect string, offset: 0x2375): argmatch_die
    <22ef>   DW_AT_decl_file   : 6
    <22f0>   DW_AT_decl_line   : 68
    <22f1>   DW_AT_decl_column : 25
    <22f2>   DW_AT_type        : <0x22d7>
    <22f6>   DW_AT_external    : 1
    <22f6>   DW_AT_declaration : 1
 <1><22f6>: Abbrev Number: 18 (DW_TAG_enumeration_type)
    <22f7>   DW_AT_name        : (indirect string, offset: 0x168c): quoting_style
    <22fb>   DW_AT_encoding    : 7	(unsigned)
    <22fc>   DW_AT_byte_size   : 4
    <22fd>   DW_AT_type        : <0x206b>
    <2301>   DW_AT_decl_file   : 9
    <2302>   DW_AT_decl_line   : 32
    <2303>   DW_AT_decl_column : 6
    <2304>   DW_AT_sibling     : <0x234b>
 <2><2308>: Abbrev Number: 19 (DW_TAG_enumerator)
    <2309>   DW_AT_name        : (indirect string, offset: 0x14f1): literal_quoting_style
    <230d>   DW_AT_const_value : 0
 <2><230e>: Abbrev Number: 19 (DW_TAG_enumerator)
    <230f>   DW_AT_name        : (indirect string, offset: 0xccb): shell_quoting_style
    <2313>   DW_AT_const_value : 1
 <2><2314>: Abbrev Number: 19 (DW_TAG_enumerator)
    <2315>   DW_AT_name        : (indirect string, offset: 0x7cd): shell_always_quoting_style
    <2319>   DW_AT_const_value : 2
 <2><231a>: Abbrev Number: 19 (DW_TAG_enumerator)
    <231b>   DW_AT_name        : (indirect string, offset: 0x18f8): shell_escape_quoting_style
    <231f>   DW_AT_const_value : 3
 <2><2320>: Abbrev Number: 19 (DW_TAG_enumerator)
    <2321>   DW_AT_name        : (indirect string, offset: 0x184a): shell_escape_always_quoting_style
    <2325>   DW_AT_const_value : 4
 <2><2326>: Abbrev Number: 19 (DW_TAG_enumerator)
    <2327>   DW_AT_name        : (indirect string, offset: 0x168a): c_quoting_style
    <232b>   DW_AT_const_value : 5
 <2><232c>: Abbrev Number: 19 (DW_TAG_enumerator)
    <232d>   DW_AT_name        : (indirect string, offset: 0x1260): c_maybe_quoting_style
    <2331>   DW_AT_const_value : 6
 <2><2332>: Abbrev Number: 19 (DW_TAG_enumerator)
    <2333>   DW_AT_name        : (indirect string, offset: 0x18fe): escape_quoting_style
    <2337>   DW_AT_const_value : 7
 <2><2338>: Abbrev Number: 19 (DW_TAG_enumerator)
    <2339>   DW_AT_name        : (indirect string, offset: 0x1825): locale_quoting_style
    <233d>   DW_AT_const_value : 8
 <2><233e>: Abbrev Number: 19 (DW_TAG_enumerator)
    <233f>   DW_AT_name        : (indirect string, offset: 0x1824): clocale_quoting_style
    <2343>   DW_AT_const_value : 9
 <2><2344>: Abbrev Number: 19 (DW_TAG_enumerator)
    <2345>   DW_AT_name        : (indirect string, offset: 0xb7b): custom_quoting_style
    <2349>   DW_AT_const_value : 10
 <2><234a>: Abbrev Number: 0
 <1><234b>: Abbrev Number: 20 (DW_TAG_variable)
    <234c>   DW_AT_specification: <0x22ea>
    <2350>   DW_AT_decl_file   : 1
    <2351>   DW_AT_decl_line   : 67
    <2352>   DW_AT_decl_column : 18
    <2353>   DW_AT_location    : 9 byte block: 3 18 40 2 0 0 0 0 0 	(DW_OP_addr: 24018)
 <1><235d>: Abbrev Number: 21 (DW_TAG_subprogram)
    <235e>   DW_AT_external    : 1
    <235e>   DW_AT_name        : (indirect string, offset: 0x131f): putc_unlocked
    <2362>   DW_AT_decl_file   : 7
    <2363>   DW_AT_decl_line   : 545
    <2365>   DW_AT_decl_column : 12
    <2366>   DW_AT_prototyped  : 1
    <2366>   DW_AT_type        : <0x2056>
    <236a>   DW_AT_declaration : 1
    <236a>   DW_AT_sibling     : <0x2379>
 <2><236e>: Abbrev Number: 22 (DW_TAG_formal_parameter)
    <236f>   DW_AT_type        : <0x2056>
 <2><2373>: Abbrev Number: 22 (DW_TAG_formal_parameter)
    <2374>   DW_AT_type        : <0x22b2>
 <2><2378>: Abbrev Number: 0
 <1><2379>: Abbrev Number: 21 (DW_TAG_subprogram)
    <237a>   DW_AT_external    : 1
    <237a>   DW_AT_name        : (indirect string, offset: 0x28fb): fprintf
    <237e>   DW_AT_decl_file   : 7
    <237f>   DW_AT_decl_line   : 326
    <2381>   DW_AT_decl_column : 12
    <2382>   DW_AT_prototyped  : 1
    <2382>   DW_AT_type        : <0x2056>
    <2386>   DW_AT_declaration : 1
    <2386>   DW_AT_sibling     : <0x2396>
 <2><238a>: Abbrev Number: 22 (DW_TAG_formal_parameter)
    <238b>   DW_AT_type        : <0x22b8>
 <2><238f>: Abbrev Number: 22 (DW_TAG_formal_parameter)
    <2390>   DW_AT_type        : <0x22ad>
 <2><2394>: Abbrev Number: 23 (DW_TAG_unspecified_parameters)
 <2><2395>: Abbrev Number: 0
 <1><2396>: Abbrev Number: 24 (DW_TAG_subprogram)
    <2397>   DW_AT_external    : 1
    <2397>   DW_AT_name        : (indirect string, offset: 0x358e): quote
    <239b>   DW_AT_decl_file   : 8
    <239c>   DW_AT_decl_line   : 44
    <239d>   DW_AT_decl_column : 13
    <239e>   DW_AT_prototyped  : 1
    <239e>   DW_AT_type        : <0x22a2>
    <23a2>   DW_AT_declaration : 1
    <23a2>   DW_AT_sibling     : <0x23ac>
 <2><23a6>: Abbrev Number: 22 (DW_TAG_formal_parameter)
    <23a7>   DW_AT_type        : <0x22a2>
 <2><23ab>: Abbrev Number: 0
 <1><23ac>: Abbrev Number: 21 (DW_TAG_subprogram)
    <23ad>   DW_AT_external    : 1
    <23ad>   DW_AT_name        : (indirect string, offset: 0x1f8): fputs_unlocked
    <23b1>   DW_AT_decl_file   : 7
    <23b2>   DW_AT_decl_line   : 662
    <23b4>   DW_AT_decl_column : 12
    <23b5>   DW_AT_prototyped  : 1
    <23b5>   DW_AT_type        : <0x2056>
    <23b9>   DW_AT_declaration : 1
    <23b9>   DW_AT_sibling     : <0x23c8>
 <2><23bd>: Abbrev Number: 22 (DW_TAG_formal_parameter)
    <23be>   DW_AT_type        : <0x22ad>
 <2><23c2>: Abbrev Number: 22 (DW_TAG_formal_parameter)
    <23c3>   DW_AT_type        : <0x22b8>
 <2><23c7>: Abbrev Number: 0
 <1><23c8>: Abbrev Number: 25 (DW_TAG_subprogram)
    <23c9>   DW_AT_external    : 1
    <23c9>   DW_AT_name        : (indirect string, offset: 0x307e): error
    <23cd>   DW_AT_decl_file   : 12
    <23ce>   DW_AT_decl_line   : 33
    <23cf>   DW_AT_decl_column : 13
    <23d0>   DW_AT_prototyped  : 1
    <23d0>   DW_AT_declaration : 1
    <23d0>   DW_AT_sibling     : <0x23e5>
 <2><23d4>: Abbrev Number: 22 (DW_TAG_formal_parameter)
    <23d5>   DW_AT_type        : <0x2056>
 <2><23d9>: Abbrev Number: 22 (DW_TAG_formal_parameter)
    <23da>   DW_AT_type        : <0x2056>
 <2><23de>: Abbrev Number: 22 (DW_TAG_formal_parameter)
    <23df>   DW_AT_type        : <0x22a2>
 <2><23e3>: Abbrev Number: 23 (DW_TAG_unspecified_parameters)
 <2><23e4>: Abbrev Number: 0
 <1><23e5>: Abbrev Number: 21 (DW_TAG_subprogram)
    <23e6>   DW_AT_external    : 1
    <23e6>   DW_AT_name        : (indirect string, offset: 0x2312): quotearg_n_style
    <23ea>   DW_AT_decl_file   : 9
    <23eb>   DW_AT_decl_line   : 374
    <23ed>   DW_AT_decl_column : 7
    <23ee>   DW_AT_prototyped  : 1
    <23ee>   DW_AT_type        : <0x20a8>
    <23f2>   DW_AT_declaration : 1
    <23f2>   DW_AT_sibling     : <0x2406>
 <2><23f6>: Abbrev Number: 22 (DW_TAG_formal_parameter)
    <23f7>   DW_AT_type        : <0x2056>
 <2><23fb>: Abbrev Number: 22 (DW_TAG_formal_parameter)
    <23fc>   DW_AT_type        : <0x22f6>
 <2><2400>: Abbrev Number: 22 (DW_TAG_formal_parameter)
    <2401>   DW_AT_type        : <0x22a2>
 <2><2405>: Abbrev Number: 0
 <1><2406>: Abbrev Number: 24 (DW_TAG_subprogram)
    <2407>   DW_AT_external    : 1
    <2407>   DW_AT_name        : (indirect string, offset: 0x23dd): quote_n
    <240b>   DW_AT_decl_file   : 8
    <240c>   DW_AT_decl_line   : 40
    <240d>   DW_AT_decl_column : 13
    <240e>   DW_AT_prototyped  : 1
    <240e>   DW_AT_type        : <0x22a2>
    <2412>   DW_AT_declaration : 1
    <2412>   DW_AT_sibling     : <0x2421>
 <2><2416>: Abbrev Number: 22 (DW_TAG_formal_parameter)
    <2417>   DW_AT_type        : <0x2056>
 <2><241b>: Abbrev Number: 22 (DW_TAG_formal_parameter)
    <241c>   DW_AT_type        : <0x22a2>
 <2><2420>: Abbrev Number: 0
 <1><2421>: Abbrev Number: 24 (DW_TAG_subprogram)
    <2422>   DW_AT_external    : 1
    <2422>   DW_AT_name        : (indirect string, offset: 0x64d): gettext
    <2426>   DW_AT_decl_file   : 10
    <2427>   DW_AT_decl_line   : 39
    <2428>   DW_AT_decl_column : 14
    <2429>   DW_AT_prototyped  : 1
    <2429>   DW_AT_type        : <0x20a8>
    <242d>   DW_AT_declaration : 1
    <242d>   DW_AT_sibling     : <0x2437>
 <2><2431>: Abbrev Number: 22 (DW_TAG_formal_parameter)
    <2432>   DW_AT_type        : <0x22a2>
 <2><2436>: Abbrev Number: 0
 <1><2437>: Abbrev Number: 24 (DW_TAG_subprogram)
    <2438>   DW_AT_external    : 1
    <2438>   DW_AT_name        : (indirect string, offset: 0x2191): strcmp
    <243c>   DW_AT_decl_file   : 11
    <243d>   DW_AT_decl_line   : 137
    <243e>   DW_AT_decl_column : 12
    <243f>   DW_AT_prototyped  : 1
    <243f>   DW_AT_type        : <0x2056>
    <2443>   DW_AT_declaration : 1
    <2443>   DW_AT_sibling     : <0x2452>
 <2><2447>: Abbrev Number: 22 (DW_TAG_formal_parameter)
    <2448>   DW_AT_type        : <0x22a2>
 <2><244c>: Abbrev Number: 22 (DW_TAG_formal_parameter)
    <244d>   DW_AT_type        : <0x22a2>
 <2><2451>: Abbrev Number: 0
 <1><2452>: Abbrev Number: 24 (DW_TAG_subprogram)
    <2453>   DW_AT_external    : 1
    <2453>   DW_AT_name        : (indirect string, offset: 0x23b0): memcmp
    <2457>   DW_AT_decl_file   : 11
    <2458>   DW_AT_decl_line   : 64
    <2459>   DW_AT_decl_column : 12
    <245a>   DW_AT_prototyped  : 1
    <245a>   DW_AT_type        : <0x2056>
    <245e>   DW_AT_declaration : 1
    <245e>   DW_AT_sibling     : <0x2472>
 <2><2462>: Abbrev Number: 22 (DW_TAG_formal_parameter)
    <2463>   DW_AT_type        : <0x22d0>
 <2><2467>: Abbrev Number: 22 (DW_TAG_formal_parameter)
    <2468>   DW_AT_type        : <0x22d0>
 <2><246c>: Abbrev Number: 22 (DW_TAG_formal_parameter)
    <246d>   DW_AT_type        : <0x2043>
 <2><2471>: Abbrev Number: 0
 <1><2472>: Abbrev Number: 24 (DW_TAG_subprogram)
    <2473>   DW_AT_external    : 1
    <2473>   DW_AT_name        : (indirect string, offset: 0x8b0): strncmp
    <2477>   DW_AT_decl_file   : 11
    <2478>   DW_AT_decl_line   : 140
    <2479>   DW_AT_decl_column : 12
    <247a>   DW_AT_prototyped  : 1
    <247a>   DW_AT_type        : <0x2056>
    <247e>   DW_AT_declaration : 1
    <247e>   DW_AT_sibling     : <0x2492>
 <2><2482>: Abbrev Number: 22 (DW_TAG_formal_parameter)
    <2483>   DW_AT_type        : <0x22a2>
 <2><2487>: Abbrev Number: 22 (DW_TAG_formal_parameter)
    <2488>   DW_AT_type        : <0x22a2>
 <2><248c>: Abbrev Number: 22 (DW_TAG_formal_parameter)
    <248d>   DW_AT_type        : <0x2043>
 <2><2491>: Abbrev Number: 0
 <1><2492>: Abbrev Number: 21 (DW_TAG_subprogram)
    <2493>   DW_AT_external    : 1
    <2493>   DW_AT_name        : (indirect string, offset: 0x234e): strlen
    <2497>   DW_AT_decl_file   : 11
    <2498>   DW_AT_decl_line   : 385
    <249a>   DW_AT_decl_column : 15
    <249b>   DW_AT_prototyped  : 1
    <249b>   DW_AT_type        : <0x2043>
    <249f>   DW_AT_declaration : 1
    <249f>   DW_AT_sibling     : <0x24a9>
 <2><24a3>: Abbrev Number: 22 (DW_TAG_formal_parameter)
    <24a4>   DW_AT_type        : <0x22a2>
 <2><24a8>: Abbrev Number: 0
 <1><24a9>: Abbrev Number: 25 (DW_TAG_subprogram)
    <24aa>   DW_AT_external    : 1
    <24aa>   DW_AT_name        : (indirect string, offset: 0xf8b): usage
    <24ae>   DW_AT_decl_file   : 1
    <24af>   DW_AT_decl_line   : 56
    <24b0>   DW_AT_decl_column : 1
    <24b1>   DW_AT_prototyped  : 1
    <24b1>   DW_AT_declaration : 1
    <24b1>   DW_AT_sibling     : <0x24bb>
 <2><24b5>: Abbrev Number: 22 (DW_TAG_formal_parameter)
    <24b6>   DW_AT_type        : <0x2056>
 <2><24ba>: Abbrev Number: 0
 <1><24bb>: Abbrev Number: 26 (DW_TAG_subprogram)
    <24bc>   DW_AT_external    : 1
    <24bc>   DW_AT_name        : (indirect string, offset: 0x2382): argmatch_to_argument
    <24c0>   DW_AT_decl_file   : 1
    <24c1>   DW_AT_decl_line   : 217
    <24c2>   DW_AT_decl_column : 1
    <24c3>   DW_AT_prototyped  : 1
    <24c3>   DW_AT_type        : <0x22a2>
    <24c7>   DW_AT_low_pc      : 0x53b9
    <24cf>   DW_AT_high_pc     : 0x90
    <24d7>   DW_AT_frame_base  : 1 byte block: 9c 	(DW_OP_call_frame_cfa)
    <24d9>   DW_AT_GNU_all_tail_call_sites: 1
    <24d9>   DW_AT_sibling     : <0x2527>
 <2><24dd>: Abbrev Number: 27 (DW_TAG_formal_parameter)
    <24de>   DW_AT_name        : (indirect string, offset: 0x379e): value
    <24e2>   DW_AT_decl_file   : 1
    <24e3>   DW_AT_decl_line   : 217
    <24e4>   DW_AT_decl_column : 35
    <24e5>   DW_AT_type        : <0x22d0>
    <24e9>   DW_AT_location    : 2 byte block: 91 58 	(DW_OP_fbreg: -40)
 <2><24ec>: Abbrev Number: 27 (DW_TAG_formal_parameter)
    <24ed>   DW_AT_name        : (indirect string, offset: 0x2355): arglist
    <24f1>   DW_AT_decl_file   : 1
    <24f2>   DW_AT_decl_line   : 218
    <24f3>   DW_AT_decl_column : 42
    <24f4>   DW_AT_type        : <0x2527>
    <24f8>   DW_AT_location    : 2 byte block: 91 50 	(DW_OP_fbreg: -48)
 <2><24fb>: Abbrev Number: 27 (DW_TAG_formal_parameter)
    <24fc>   DW_AT_name        : (indirect string, offset: 0x2335): vallist
    <2500>   DW_AT_decl_file   : 1
    <2501>   DW_AT_decl_line   : 219
    <2502>   DW_AT_decl_column : 35
    <2503>   DW_AT_type        : <0x22d0>
    <2507>   DW_AT_location    : 2 byte block: 91 48 	(DW_OP_fbreg: -56)
 <2><250a>: Abbrev Number: 27 (DW_TAG_formal_parameter)
    <250b>   DW_AT_name        : (indirect string, offset: 0x2346): valsize
    <250f>   DW_AT_decl_file   : 1
    <2510>   DW_AT_decl_line   : 219
    <2511>   DW_AT_decl_column : 51
    <2512>   DW_AT_type        : <0x2043>
    <2516>   DW_AT_location    : 2 byte block: 91 40 	(DW_OP_fbreg: -64)
 <2><2519>: Abbrev Number: 28 (DW_TAG_variable)
    <251a>   DW_AT_name        : i
    <251c>   DW_AT_decl_file   : 1
    <251d>   DW_AT_decl_line   : 221
    <251e>   DW_AT_decl_column : 10
    <251f>   DW_AT_type        : <0x2043>
    <2523>   DW_AT_location    : 2 byte block: 91 68 	(DW_OP_fbreg: -24)
 <2><2526>: Abbrev Number: 0
 <1><2527>: Abbrev Number: 6 (DW_TAG_pointer_type)
    <2528>   DW_AT_byte_size   : 8
    <2529>   DW_AT_type        : <0x22a8>
 <1><252d>: Abbrev Number: 26 (DW_TAG_subprogram)
    <252e>   DW_AT_external    : 1
    <252e>   DW_AT_name        : (indirect string, offset: 0x774): __xargmatch_internal
    <2532>   DW_AT_decl_file   : 1
    <2533>   DW_AT_decl_line   : 189
    <2534>   DW_AT_decl_column : 1
    <2535>   DW_AT_prototyped  : 1
    <2535>   DW_AT_type        : <0x2030>
    <2539>   DW_AT_low_pc      : 0x530a
    <2541>   DW_AT_high_pc     : 0xaf
    <2549>   DW_AT_frame_base  : 1 byte block: 9c 	(DW_OP_call_frame_cfa)
    <254b>   DW_AT_GNU_all_tail_call_sites: 1
    <254b>   DW_AT_sibling     : <0x25cb>
 <2><254f>: Abbrev Number: 27 (DW_TAG_formal_parameter)
    <2550>   DW_AT_name        : (indirect string, offset: 0x23b7): context
    <2554>   DW_AT_decl_file   : 1
    <2555>   DW_AT_decl_line   : 189
    <2556>   DW_AT_decl_column : 35
    <2557>   DW_AT_type        : <0x22a2>
    <255b>   DW_AT_location    : 2 byte block: 91 58 	(DW_OP_fbreg: -40)
 <2><255e>: Abbrev Number: 29 (DW_TAG_formal_parameter)
    <255f>   DW_AT_name        : arg
    <2563>   DW_AT_decl_file   : 1
    <2564>   DW_AT_decl_line   : 190
    <2565>   DW_AT_decl_column : 35
    <2566>   DW_AT_type        : <0x22a2>
    <256a>   DW_AT_location    : 2 byte block: 91 50 	(DW_OP_fbreg: -48)
 <2><256d>: Abbrev Number: 27 (DW_TAG_formal_parameter)
    <256e>   DW_AT_name        : (indirect string, offset: 0x2355): arglist
    <2572>   DW_AT_decl_file   : 1
    <2573>   DW_AT_decl_line   : 190
    <2574>   DW_AT_decl_column : 59
    <2575>   DW_AT_type        : <0x2527>
    <2579>   DW_AT_location    : 2 byte block: 91 48 	(DW_OP_fbreg: -56)
 <2><257c>: Abbrev Number: 27 (DW_TAG_formal_parameter)
    <257d>   DW_AT_name        : (indirect string, offset: 0x2335): vallist
    <2581>   DW_AT_decl_file   : 1
    <2582>   DW_AT_decl_line   : 191
    <2583>   DW_AT_decl_column : 35
    <2584>   DW_AT_type        : <0x22d0>
    <2588>   DW_AT_location    : 2 byte block: 91 40 	(DW_OP_fbreg: -64)
 <2><258b>: Abbrev Number: 27 (DW_TAG_formal_parameter)
    <258c>   DW_AT_name        : (indirect string, offset: 0x2346): valsize
    <2590>   DW_AT_decl_file   : 1
    <2591>   DW_AT_decl_line   : 191
    <2592>   DW_AT_decl_column : 51
    <2593>   DW_AT_type        : <0x2043>
    <2597>   DW_AT_location    : 3 byte block: 91 b8 7f 	(DW_OP_fbreg: -72)
 <2><259b>: Abbrev Number: 27 (DW_TAG_formal_parameter)
    <259c>   DW_AT_name        : (indirect string, offset: 0x1efc): exit_fn
    <25a0>   DW_AT_decl_file   : 1
    <25a1>   DW_AT_decl_line   : 192
    <25a2>   DW_AT_decl_column : 40
    <25a3>   DW_AT_type        : <0x22d7>
    <25a7>   DW_AT_location    : 3 byte block: 91 b0 7f 	(DW_OP_fbreg: -80)
 <2><25ab>: Abbrev Number: 27 (DW_TAG_formal_parameter)
    <25ac>   DW_AT_name        : (indirect string, offset: 0x22f5): allow_abbreviation
    <25b0>   DW_AT_decl_file   : 1
    <25b1>   DW_AT_decl_line   : 193
    <25b2>   DW_AT_decl_column : 28
    <25b3>   DW_AT_type        : <0x25cb>
    <25b7>   DW_AT_location    : 3 byte block: 91 ac 7f 	(DW_OP_fbreg: -84)
 <2><25bb>: Abbrev Number: 28 (DW_TAG_variable)
    <25bc>   DW_AT_name        : res
    <25c0>   DW_AT_decl_file   : 1
    <25c1>   DW_AT_decl_line   : 195
    <25c2>   DW_AT_decl_column : 13
    <25c3>   DW_AT_type        : <0x2030>
    <25c7>   DW_AT_location    : 2 byte block: 91 68 	(DW_OP_fbreg: -24)
 <2><25ca>: Abbrev Number: 0
 <1><25cb>: Abbrev Number: 3 (DW_TAG_base_type)
    <25cc>   DW_AT_byte_size   : 1
    <25cd>   DW_AT_encoding    : 2	(boolean)
    <25ce>   DW_AT_name        : (indirect string, offset: 0x1d4): _Bool
 <1><25d2>: Abbrev Number: 30 (DW_TAG_subprogram)
    <25d3>   DW_AT_external    : 1
    <25d3>   DW_AT_name        : (indirect string, offset: 0x23bf): argmatch_valid
    <25d7>   DW_AT_decl_file   : 1
    <25d8>   DW_AT_decl_line   : 159
    <25d9>   DW_AT_decl_column : 1
    <25da>   DW_AT_prototyped  : 1
    <25da>   DW_AT_low_pc      : 0x51b3
    <25e2>   DW_AT_high_pc     : 0x157
    <25ea>   DW_AT_frame_base  : 1 byte block: 9c 	(DW_OP_call_frame_cfa)
    <25ec>   DW_AT_GNU_all_tail_call_sites: 1
    <25ec>   DW_AT_sibling     : <0x263b>
 <2><25f0>: Abbrev Number: 27 (DW_TAG_formal_parameter)
    <25f1>   DW_AT_name        : (indirect string, offset: 0x2355): arglist
    <25f5>   DW_AT_decl_file   : 1
    <25f6>   DW_AT_decl_line   : 159
    <25f7>   DW_AT_decl_column : 36
    <25f8>   DW_AT_type        : <0x2527>
    <25fc>   DW_AT_location    : 2 byte block: 91 48 	(DW_OP_fbreg: -56)
 <2><25ff>: Abbrev Number: 27 (DW_TAG_formal_parameter)
    <2600>   DW_AT_name        : (indirect string, offset: 0x2335): vallist
    <2604>   DW_AT_decl_file   : 1
    <2605>   DW_AT_decl_line   : 160
    <2606>   DW_AT_decl_column : 29
    <2607>   DW_AT_type        : <0x22d0>
    <260b>   DW_AT_location    : 2 byte block: 91 40 	(DW_OP_fbreg: -64)
 <2><260e>: Abbrev Number: 27 (DW_TAG_formal_parameter)
    <260f>   DW_AT_name        : (indirect string, offset: 0x2346): valsize
    <2613>   DW_AT_decl_file   : 1
    <2614>   DW_AT_decl_line   : 160
    <2615>   DW_AT_decl_column : 45
    <2616>   DW_AT_type        : <0x2043>
    <261a>   DW_AT_location    : 3 byte block: 91 b8 7f 	(DW_OP_fbreg: -72)
 <2><261e>: Abbrev Number: 28 (DW_TAG_variable)
    <261f>   DW_AT_name        : i
    <2621>   DW_AT_decl_file   : 1
    <2622>   DW_AT_decl_line   : 162
    <2623>   DW_AT_decl_column : 10
    <2624>   DW_AT_type        : <0x2043>
    <2628>   DW_AT_location    : 2 byte block: 91 50 	(DW_OP_fbreg: -48)
 <2><262b>: Abbrev Number: 31 (DW_TAG_variable)
    <262c>   DW_AT_name        : (indirect string, offset: 0x2323): last_val
    <2630>   DW_AT_decl_file   : 1
    <2631>   DW_AT_decl_line   : 163
    <2632>   DW_AT_decl_column : 15
    <2633>   DW_AT_type        : <0x22a2>
    <2637>   DW_AT_location    : 2 byte block: 91 58 	(DW_OP_fbreg: -40)
 <2><263a>: Abbrev Number: 0
 <1><263b>: Abbrev Number: 30 (DW_TAG_subprogram)
    <263c>   DW_AT_external    : 1
    <263c>   DW_AT_name        : (indirect string, offset: 0x239f): argmatch_invalid
    <2640>   DW_AT_decl_file   : 1
    <2641>   DW_AT_decl_line   : 144
    <2642>   DW_AT_decl_column : 1
    <2643>   DW_AT_prototyped  : 1
    <2643>   DW_AT_low_pc      : 0x511a
    <264b>   DW_AT_high_pc     : 0x99
    <2653>   DW_AT_frame_base  : 1 byte block: 9c 	(DW_OP_call_frame_cfa)
    <2655>   DW_AT_GNU_all_tail_call_sites: 1
    <2655>   DW_AT_sibling     : <0x2697>
 <2><2659>: Abbrev Number: 27 (DW_TAG_formal_parameter)
    <265a>   DW_AT_name        : (indirect string, offset: 0x23b7): context
    <265e>   DW_AT_decl_file   : 1
    <265f>   DW_AT_decl_line   : 144
    <2660>   DW_AT_decl_column : 31
    <2661>   DW_AT_type        : <0x22a2>
    <2665>   DW_AT_location    : 2 byte block: 91 48 	(DW_OP_fbreg: -56)
 <2><2668>: Abbrev Number: 27 (DW_TAG_formal_parameter)
    <2669>   DW_AT_name        : (indirect string, offset: 0x379e): value
    <266d>   DW_AT_decl_file   : 1
    <266e>   DW_AT_decl_line   : 144
    <266f>   DW_AT_decl_column : 52
    <2670>   DW_AT_type        : <0x22a2>
    <2674>   DW_AT_location    : 2 byte block: 91 40 	(DW_OP_fbreg: -64)
 <2><2677>: Abbrev Number: 27 (DW_TAG_formal_parameter)
    <2678>   DW_AT_name        : (indirect string, offset: 0x2397): problem
    <267c>   DW_AT_decl_file   : 1
    <267d>   DW_AT_decl_line   : 144
    <267e>   DW_AT_decl_column : 69
    <267f>   DW_AT_type        : <0x2030>
    <2683>   DW_AT_location    : 3 byte block: 91 b8 7f 	(DW_OP_fbreg: -72)
 <2><2687>: Abbrev Number: 31 (DW_TAG_variable)
    <2688>   DW_AT_name        : (indirect string, offset: 0x4f4): format
    <268c>   DW_AT_decl_file   : 1
    <268d>   DW_AT_decl_line   : 146
    <268e>   DW_AT_decl_column : 15
    <268f>   DW_AT_type        : <0x22a2>
    <2693>   DW_AT_location    : 2 byte block: 91 58 	(DW_OP_fbreg: -40)
 <2><2696>: Abbrev Number: 0
 <1><2697>: Abbrev Number: 26 (DW_TAG_subprogram)
    <2698>   DW_AT_external    : 1
    <2698>   DW_AT_name        : (indirect string, offset: 0x23ce): argmatch_exact
    <269c>   DW_AT_decl_file   : 1
    <269d>   DW_AT_decl_line   : 124
    <269e>   DW_AT_decl_column : 1
    <269f>   DW_AT_prototyped  : 1
    <269f>   DW_AT_type        : <0x2030>
    <26a3>   DW_AT_low_pc      : 0x50a4
    <26ab>   DW_AT_high_pc     : 0x76
    <26b3>   DW_AT_frame_base  : 1 byte block: 9c 	(DW_OP_call_frame_cfa)
    <26b5>   DW_AT_GNU_all_tail_call_sites: 1
    <26b5>   DW_AT_sibling     : <0x26e5>
 <2><26b9>: Abbrev Number: 29 (DW_TAG_formal_parameter)
    <26ba>   DW_AT_name        : arg
    <26be>   DW_AT_decl_file   : 1
    <26bf>   DW_AT_decl_line   : 124
    <26c0>   DW_AT_decl_column : 29
    <26c1>   DW_AT_type        : <0x22a2>
    <26c5>   DW_AT_location    : 2 byte block: 91 58 	(DW_OP_fbreg: -40)
 <2><26c8>: Abbrev Number: 27 (DW_TAG_formal_parameter)
    <26c9>   DW_AT_name        : (indirect string, offset: 0x2355): arglist
    <26cd>   DW_AT_decl_file   : 1
    <26ce>   DW_AT_decl_line   : 124
    <26cf>   DW_AT_decl_column : 53
    <26d0>   DW_AT_type        : <0x2527>
    <26d4>   DW_AT_location    : 2 byte block: 91 50 	(DW_OP_fbreg: -48)
 <2><26d7>: Abbrev Number: 28 (DW_TAG_variable)
    <26d8>   DW_AT_name        : i
    <26da>   DW_AT_decl_file   : 1
    <26db>   DW_AT_decl_line   : 126
    <26dc>   DW_AT_decl_column : 10
    <26dd>   DW_AT_type        : <0x2043>
    <26e1>   DW_AT_location    : 2 byte block: 91 68 	(DW_OP_fbreg: -24)
 <2><26e4>: Abbrev Number: 0
 <1><26e5>: Abbrev Number: 26 (DW_TAG_subprogram)
    <26e6>   DW_AT_external    : 1
    <26e6>   DW_AT_name        : (indirect string, offset: 0x232c): argmatch
    <26ea>   DW_AT_decl_file   : 1
    <26eb>   DW_AT_decl_line   : 82
    <26ec>   DW_AT_decl_column : 1
    <26ed>   DW_AT_prototyped  : 1
    <26ed>   DW_AT_type        : <0x2030>
    <26f1>   DW_AT_low_pc      : 0x4f71
    <26f9>   DW_AT_high_pc     : 0x133
    <2701>   DW_AT_frame_base  : 1 byte block: 9c 	(DW_OP_call_frame_cfa)
    <2703>   DW_AT_GNU_all_tail_call_sites: 1
    <2703>   DW_AT_sibling     : <0x2780>
 <2><2707>: Abbrev Number: 29 (DW_TAG_formal_parameter)
    <2708>   DW_AT_name        : arg
    <270c>   DW_AT_decl_file   : 1
    <270d>   DW_AT_decl_line   : 82
    <270e>   DW_AT_decl_column : 23
    <270f>   DW_AT_type        : <0x22a2>
    <2713>   DW_AT_location    : 2 byte block: 91 48 	(DW_OP_fbreg: -56)
 <2><2716>: Abbrev Number: 27 (DW_TAG_formal_parameter)
    <2717>   DW_AT_name        : (indirect string, offset: 0x2355): arglist
    <271b>   DW_AT_decl_file   : 1
    <271c>   DW_AT_decl_line   : 82
    <271d>   DW_AT_decl_column : 47
    <271e>   DW_AT_type        : <0x2527>
    <2722>   DW_AT_location    : 2 byte block: 91 40 	(DW_OP_fbreg: -64)
 <2><2725>: Abbrev Number: 27 (DW_TAG_formal_parameter)
    <2726>   DW_AT_name        : (indirect string, offset: 0x2335): vallist
    <272a>   DW_AT_decl_file   : 1
    <272b>   DW_AT_decl_line   : 83
    <272c>   DW_AT_decl_column : 23
    <272d>   DW_AT_type        : <0x22d0>
    <2731>   DW_AT_location    : 3 byte block: 91 b8 7f 	(DW_OP_fbreg: -72)
 <2><2735>: Abbrev Number: 27 (DW_TAG_formal_parameter)
    <2736>   DW_AT_name        : (indirect string, offset: 0x2346): valsize
    <273a>   DW_AT_decl_file   : 1
    <273b>   DW_AT_decl_line   : 83
    <273c>   DW_AT_decl_column : 39
    <273d>   DW_AT_type        : <0x2043>
    <2741>   DW_AT_location    : 3 byte block: 91 b0 7f 	(DW_OP_fbreg: -80)
 <2><2745>: Abbrev Number: 28 (DW_TAG_variable)
    <2746>   DW_AT_name        : i
    <2748>   DW_AT_decl_file   : 1
    <2749>   DW_AT_decl_line   : 85
    <274a>   DW_AT_decl_column : 10
    <274b>   DW_AT_type        : <0x2043>
    <274f>   DW_AT_location    : 2 byte block: 91 58 	(DW_OP_fbreg: -40)
 <2><2752>: Abbrev Number: 31 (DW_TAG_variable)
    <2753>   DW_AT_name        : (indirect string, offset: 0x236c): arglen
    <2757>   DW_AT_decl_file   : 1
    <2758>   DW_AT_decl_line   : 86
    <2759>   DW_AT_decl_column : 10
    <275a>   DW_AT_type        : <0x2043>
    <275e>   DW_AT_location    : 2 byte block: 91 68 	(DW_OP_fbreg: -24)
 <2><2761>: Abbrev Number: 31 (DW_TAG_variable)
    <2762>   DW_AT_name        : (indirect string, offset: 0x233d): matchind
    <2766>   DW_AT_decl_file   : 1
    <2767>   DW_AT_decl_line   : 87
    <2768>   DW_AT_decl_column : 13
    <2769>   DW_AT_type        : <0x2030>
    <276d>   DW_AT_location    : 2 byte block: 91 60 	(DW_OP_fbreg: -32)
 <2><2770>: Abbrev Number: 31 (DW_TAG_variable)
    <2771>   DW_AT_name        : (indirect string, offset: 0x2308): ambiguous
    <2775>   DW_AT_decl_file   : 1
    <2776>   DW_AT_decl_line   : 88
    <2777>   DW_AT_decl_column : 8
    <2778>   DW_AT_type        : <0x25cb>
    <277c>   DW_AT_location    : 2 byte block: 91 57 	(DW_OP_fbreg: -41)
 <2><277f>: Abbrev Number: 0
 <1><2780>: Abbrev Number: 32 (DW_TAG_subprogram)
    <2781>   DW_AT_name        : (indirect string, offset: 0x2373): __argmatch_die
    <2785>   DW_AT_decl_file   : 1
    <2786>   DW_AT_decl_line   : 60
    <2787>   DW_AT_decl_column : 1
    <2788>   DW_AT_prototyped  : 1
    <2788>   DW_AT_low_pc      : 0x4f5c
    <2790>   DW_AT_high_pc     : 0x15
    <2798>   DW_AT_frame_base  : 1 byte block: 9c 	(DW_OP_call_frame_cfa)
    <279a>   DW_AT_GNU_all_tail_call_sites: 1
 <1><279a>: Abbrev Number: 0
  Compilation Unit @ offset 0x279b:
   Length:        0x431 (32-bit)
   Version:       4
   Abbrev Offset: 0x593
   Pointer Size:  8
 <0><27a6>: Abbrev Number: 1 (DW_TAG_compile_unit)
    <27a7>   DW_AT_producer    : (indirect string, offset: 0x81e): GNU C17 11.1.0 -mtune=generic -march=x86-64 -g -O0 -fasynchronous-unwind-tables -fstack-protector-strong -fstack-clash-protection -fcf-protection
    <27ab>   DW_AT_language    : 12	(ANSI C99)
    <27ac>   DW_AT_name        : (indirect string, offset: 0x2464): lib/closeout.c
    <27b0>   DW_AT_comp_dir    : (indirect string, offset: 0xb3f): /home/jacekline/dev/research/programs/coreutils-9.1
    <27b4>   DW_AT_low_pc      : 0x5449
    <27bc>   DW_AT_high_pc     : 0x12c
    <27c4>   DW_AT_stmt_list   : 0xa7f
 <1><27c8>: Abbrev Number: 2 (DW_TAG_pointer_type)
    <27c9>   DW_AT_byte_size   : 8
    <27ca>   DW_AT_type        : <0x27ce>
 <1><27ce>: Abbrev Number: 3 (DW_TAG_base_type)
    <27cf>   DW_AT_byte_size   : 1
    <27d0>   DW_AT_encoding    : 6	(signed char)
    <27d1>   DW_AT_name        : (indirect string, offset: 0x7c8): char
 <1><27d5>: Abbrev Number: 4 (DW_TAG_const_type)
    <27d6>   DW_AT_type        : <0x27ce>
 <1><27da>: Abbrev Number: 5 (DW_TAG_base_type)
    <27db>   DW_AT_byte_size   : 4
    <27dc>   DW_AT_encoding    : 5	(signed)
    <27dd>   DW_AT_name        : int
 <1><27e1>: Abbrev Number: 6 (DW_TAG_volatile_type)
    <27e2>   DW_AT_type        : <0x27da>
 <1><27e6>: Abbrev Number: 7 (DW_TAG_typedef)
    <27e7>   DW_AT_name        : (indirect string, offset: 0x1155): size_t
    <27eb>   DW_AT_decl_file   : 2
    <27ec>   DW_AT_decl_line   : 209
    <27ed>   DW_AT_decl_column : 23
    <27ee>   DW_AT_type        : <0x27f2>
 <1><27f2>: Abbrev Number: 3 (DW_TAG_base_type)
    <27f3>   DW_AT_byte_size   : 8
    <27f4>   DW_AT_encoding    : 7	(unsigned)
    <27f5>   DW_AT_name        : (indirect string, offset: 0x1bf6): long unsigned int
 <1><27f9>: Abbrev Number: 3 (DW_TAG_base_type)
    <27fa>   DW_AT_byte_size   : 4
    <27fb>   DW_AT_encoding    : 7	(unsigned)
    <27fc>   DW_AT_name        : (indirect string, offset: 0x1bfb): unsigned int
 <1><2800>: Abbrev Number: 8 (DW_TAG_pointer_type)
    <2801>   DW_AT_byte_size   : 8
 <1><2802>: Abbrev Number: 3 (DW_TAG_base_type)
    <2803>   DW_AT_byte_size   : 1
    <2804>   DW_AT_encoding    : 8	(unsigned char)
    <2805>   DW_AT_name        : (indirect string, offset: 0x7bf): unsigned char
 <1><2809>: Abbrev Number: 3 (DW_TAG_base_type)
    <280a>   DW_AT_byte_size   : 2
    <280b>   DW_AT_encoding    : 7	(unsigned)
    <280c>   DW_AT_name        : (indirect string, offset: 0x1116): short unsigned int
 <1><2810>: Abbrev Number: 3 (DW_TAG_base_type)
    <2811>   DW_AT_byte_size   : 1
    <2812>   DW_AT_encoding    : 6	(signed char)
    <2813>   DW_AT_name        : (indirect string, offset: 0x7c1): signed char
 <1><2817>: Abbrev Number: 3 (DW_TAG_base_type)
    <2818>   DW_AT_byte_size   : 2
    <2819>   DW_AT_encoding    : 5	(signed)
    <281a>   DW_AT_name        : (indirect string, offset: 0x21d3): short int
 <1><281e>: Abbrev Number: 3 (DW_TAG_base_type)
    <281f>   DW_AT_byte_size   : 8
    <2820>   DW_AT_encoding    : 5	(signed)
    <2821>   DW_AT_name        : (indirect string, offset: 0x1ea4): long int
 <1><2825>: Abbrev Number: 7 (DW_TAG_typedef)
    <2826>   DW_AT_name        : (indirect string, offset: 0x2c5): __off_t
    <282a>   DW_AT_decl_file   : 3
    <282b>   DW_AT_decl_line   : 152
    <282c>   DW_AT_decl_column : 25
    <282d>   DW_AT_type        : <0x281e>
 <1><2831>: Abbrev Number: 7 (DW_TAG_typedef)
    <2832>   DW_AT_name        : (indirect string, offset: 0x120c): __off64_t
    <2836>   DW_AT_decl_file   : 3
    <2837>   DW_AT_decl_line   : 153
    <2838>   DW_AT_decl_column : 27
    <2839>   DW_AT_type        : <0x281e>
 <1><283d>: Abbrev Number: 9 (DW_TAG_structure_type)
    <283e>   DW_AT_name        : (indirect string, offset: 0x16c9): _IO_FILE
    <2842>   DW_AT_byte_size   : 216
    <2843>   DW_AT_decl_file   : 4
    <2844>   DW_AT_decl_line   : 49
    <2845>   DW_AT_decl_column : 8
    <2846>   DW_AT_sibling     : <0x29c4>
 <2><284a>: Abbrev Number: 10 (DW_TAG_member)
    <284b>   DW_AT_name        : (indirect string, offset: 0x160b): _flags
    <284f>   DW_AT_decl_file   : 4
    <2850>   DW_AT_decl_line   : 51
    <2851>   DW_AT_decl_column : 7
    <2852>   DW_AT_type        : <0x27da>
    <2856>   DW_AT_data_member_location: 0
 <2><2857>: Abbrev Number: 10 (DW_TAG_member)
    <2858>   DW_AT_name        : (indirect string, offset: 0x1cf2): _IO_read_ptr
    <285c>   DW_AT_decl_file   : 4
    <285d>   DW_AT_decl_line   : 54
    <285e>   DW_AT_decl_column : 9
    <285f>   DW_AT_type        : <0x27c8>
    <2863>   DW_AT_data_member_location: 8
 <2><2864>: Abbrev Number: 10 (DW_TAG_member)
    <2865>   DW_AT_name        : (indirect string, offset: 0x16a5): _IO_read_end
    <2869>   DW_AT_decl_file   : 4
    <286a>   DW_AT_decl_line   : 55
    <286b>   DW_AT_decl_column : 9
    <286c>   DW_AT_type        : <0x27c8>
    <2870>   DW_AT_data_member_location: 16
 <2><2871>: Abbrev Number: 10 (DW_TAG_member)
    <2872>   DW_AT_name        : (indirect string, offset: 0x123b): _IO_read_base
    <2876>   DW_AT_decl_file   : 4
    <2877>   DW_AT_decl_line   : 56
    <2878>   DW_AT_decl_column : 9
    <2879>   DW_AT_type        : <0x27c8>
    <287d>   DW_AT_data_member_location: 24
 <2><287e>: Abbrev Number: 10 (DW_TAG_member)
    <287f>   DW_AT_name        : (indirect string, offset: 0x12dd): _IO_write_base
    <2883>   DW_AT_decl_file   : 4
    <2884>   DW_AT_decl_line   : 57
    <2885>   DW_AT_decl_column : 9
    <2886>   DW_AT_type        : <0x27c8>
    <288a>   DW_AT_data_member_location: 32
 <2><288b>: Abbrev Number: 10 (DW_TAG_member)
    <288c>   DW_AT_name        : (indirect string, offset: 0x9ba): _IO_write_ptr
    <2890>   DW_AT_decl_file   : 4
    <2891>   DW_AT_decl_line   : 58
    <2892>   DW_AT_decl_column : 9
    <2893>   DW_AT_type        : <0x27c8>
    <2897>   DW_AT_data_member_location: 40
 <2><2898>: Abbrev Number: 10 (DW_TAG_member)
    <2899>   DW_AT_name        : (indirect string, offset: 0x4b3): _IO_write_end
    <289d>   DW_AT_decl_file   : 4
    <289e>   DW_AT_decl_line   : 59
    <289f>   DW_AT_decl_column : 9
    <28a0>   DW_AT_type        : <0x27c8>
    <28a4>   DW_AT_data_member_location: 48
 <2><28a5>: Abbrev Number: 10 (DW_TAG_member)
    <28a6>   DW_AT_name        : (indirect string, offset: 0x163e): _IO_buf_base
    <28aa>   DW_AT_decl_file   : 4
    <28ab>   DW_AT_decl_line   : 60
    <28ac>   DW_AT_decl_column : 9
    <28ad>   DW_AT_type        : <0x27c8>
    <28b1>   DW_AT_data_member_location: 56
 <2><28b2>: Abbrev Number: 10 (DW_TAG_member)
    <28b3>   DW_AT_name        : (indirect string, offset: 0x1276): _IO_buf_end
    <28b7>   DW_AT_decl_file   : 4
    <28b8>   DW_AT_decl_line   : 61
    <28b9>   DW_AT_decl_column : 9
    <28ba>   DW_AT_type        : <0x27c8>
    <28be>   DW_AT_data_member_location: 64
 <2><28bf>: Abbrev Number: 10 (DW_TAG_member)
    <28c0>   DW_AT_name        : (indirect string, offset: 0xbe6): _IO_save_base
    <28c4>   DW_AT_decl_file   : 4
    <28c5>   DW_AT_decl_line   : 64
    <28c6>   DW_AT_decl_column : 9
    <28c7>   DW_AT_type        : <0x27c8>
    <28cb>   DW_AT_data_member_location: 72
 <2><28cc>: Abbrev Number: 10 (DW_TAG_member)
    <28cd>   DW_AT_name        : (indirect string, offset: 0x1ccd): _IO_backup_base
    <28d1>   DW_AT_decl_file   : 4
    <28d2>   DW_AT_decl_line   : 65
    <28d3>   DW_AT_decl_column : 9
    <28d4>   DW_AT_type        : <0x27c8>
    <28d8>   DW_AT_data_member_location: 80
 <2><28d9>: Abbrev Number: 10 (DW_TAG_member)
    <28da>   DW_AT_name        : (indirect string, offset: 0xf91): _IO_save_end
    <28de>   DW_AT_decl_file   : 4
    <28df>   DW_AT_decl_line   : 66
    <28e0>   DW_AT_decl_column : 9
    <28e1>   DW_AT_type        : <0x27c8>
    <28e5>   DW_AT_data_member_location: 88
 <2><28e6>: Abbrev Number: 10 (DW_TAG_member)
    <28e7>   DW_AT_name        : (indirect string, offset: 0x18dd): _markers
    <28eb>   DW_AT_decl_file   : 4
    <28ec>   DW_AT_decl_line   : 68
    <28ed>   DW_AT_decl_column : 22
    <28ee>   DW_AT_type        : <0x29dd>
    <28f2>   DW_AT_data_member_location: 96
 <2><28f3>: Abbrev Number: 10 (DW_TAG_member)
    <28f4>   DW_AT_name        : (indirect string, offset: 0x76d): _chain
    <28f8>   DW_AT_decl_file   : 4
    <28f9>   DW_AT_decl_line   : 70
    <28fa>   DW_AT_decl_column : 20
    <28fb>   DW_AT_type        : <0x29e3>
    <28ff>   DW_AT_data_member_location: 104
 <2><2900>: Abbrev Number: 10 (DW_TAG_member)
    <2901>   DW_AT_name        : (indirect string, offset: 0x41): _fileno
    <2905>   DW_AT_decl_file   : 4
    <2906>   DW_AT_decl_line   : 72
    <2907>   DW_AT_decl_column : 7
    <2908>   DW_AT_type        : <0x27da>
    <290c>   DW_AT_data_member_location: 112
 <2><290d>: Abbrev Number: 10 (DW_TAG_member)
    <290e>   DW_AT_name        : (indirect string, offset: 0x1ead): _flags2
    <2912>   DW_AT_decl_file   : 4
    <2913>   DW_AT_decl_line   : 73
    <2914>   DW_AT_decl_column : 7
    <2915>   DW_AT_type        : <0x27da>
    <2919>   DW_AT_data_member_location: 116
 <2><291a>: Abbrev Number: 10 (DW_TAG_member)
    <291b>   DW_AT_name        : (indirect string, offset: 0x1e2c): _old_offset
    <291f>   DW_AT_decl_file   : 4
    <2920>   DW_AT_decl_line   : 74
    <2921>   DW_AT_decl_column : 11
    <2922>   DW_AT_type        : <0x2825>
    <2926>   DW_AT_data_member_location: 120
 <2><2927>: Abbrev Number: 10 (DW_TAG_member)
    <2928>   DW_AT_name        : (indirect string, offset: 0x1c21): _cur_column
    <292c>   DW_AT_decl_file   : 4
    <292d>   DW_AT_decl_line   : 77
    <292e>   DW_AT_decl_column : 18
    <292f>   DW_AT_type        : <0x2809>
    <2933>   DW_AT_data_member_location: 128
 <2><2934>: Abbrev Number: 10 (DW_TAG_member)
    <2935>   DW_AT_name        : (indirect string, offset: 0x2217): _vtable_offset
    <2939>   DW_AT_decl_file   : 4
    <293a>   DW_AT_decl_line   : 78
    <293b>   DW_AT_decl_column : 15
    <293c>   DW_AT_type        : <0x2810>
    <2940>   DW_AT_data_member_location: 130
 <2><2941>: Abbrev Number: 10 (DW_TAG_member)
    <2942>   DW_AT_name        : (indirect string, offset: 0x22a): _shortbuf
    <2946>   DW_AT_decl_file   : 4
    <2947>   DW_AT_decl_line   : 79
    <2948>   DW_AT_decl_column : 8
    <2949>   DW_AT_type        : <0x29e9>
    <294d>   DW_AT_data_member_location: 131
 <2><294e>: Abbrev Number: 10 (DW_TAG_member)
    <294f>   DW_AT_name        : (indirect string, offset: 0x311): _lock
    <2953>   DW_AT_decl_file   : 4
    <2954>   DW_AT_decl_line   : 81
    <2955>   DW_AT_decl_column : 15
    <2956>   DW_AT_type        : <0x29f9>
    <295a>   DW_AT_data_member_location: 136
 <2><295b>: Abbrev Number: 10 (DW_TAG_member)
    <295c>   DW_AT_name        : (indirect string, offset: 0x1e30): _offset
    <2960>   DW_AT_decl_file   : 4
    <2961>   DW_AT_decl_line   : 89
    <2962>   DW_AT_decl_column : 13
    <2963>   DW_AT_type        : <0x2831>
    <2967>   DW_AT_data_member_location: 144
 <2><2968>: Abbrev Number: 10 (DW_TAG_member)
    <2969>   DW_AT_name        : (indirect string, offset: 0x14c2): _codecvt
    <296d>   DW_AT_decl_file   : 4
    <296e>   DW_AT_decl_line   : 91
    <296f>   DW_AT_decl_column : 23
    <2970>   DW_AT_type        : <0x2a04>
    <2974>   DW_AT_data_member_location: 152
 <2><2975>: Abbrev Number: 10 (DW_TAG_member)
    <2976>   DW_AT_name        : (indirect string, offset: 0x16d5): _wide_data
    <297a>   DW_AT_decl_file   : 4
    <297b>   DW_AT_decl_line   : 92
    <297c>   DW_AT_decl_column : 25
    <297d>   DW_AT_type        : <0x2a0f>
    <2981>   DW_AT_data_member_location: 160
 <2><2982>: Abbrev Number: 10 (DW_TAG_member)
    <2983>   DW_AT_name        : (indirect string, offset: 0x1d57): _freeres_list
    <2987>   DW_AT_decl_file   : 4
    <2988>   DW_AT_decl_line   : 93
    <2989>   DW_AT_decl_column : 20
    <298a>   DW_AT_type        : <0x29e3>
    <298e>   DW_AT_data_member_location: 168
 <2><298f>: Abbrev Number: 10 (DW_TAG_member)
    <2990>   DW_AT_name        : (indirect string, offset: 0x1bbb): _freeres_buf
    <2994>   DW_AT_decl_file   : 4
    <2995>   DW_AT_decl_line   : 94
    <2996>   DW_AT_decl_column : 9
    <2997>   DW_AT_type        : <0x2800>
    <299b>   DW_AT_data_member_location: 176
 <2><299c>: Abbrev Number: 10 (DW_TAG_member)
    <299d>   DW_AT_name        : (indirect string, offset: 0x187b): __pad5
    <29a1>   DW_AT_decl_file   : 4
    <29a2>   DW_AT_decl_line   : 95
    <29a3>   DW_AT_decl_column : 10
    <29a4>   DW_AT_type        : <0x27e6>
    <29a8>   DW_AT_data_member_location: 184
 <2><29a9>: Abbrev Number: 10 (DW_TAG_member)
    <29aa>   DW_AT_name        : (indirect string, offset: 0x150): _mode
    <29ae>   DW_AT_decl_file   : 4
    <29af>   DW_AT_decl_line   : 96
    <29b0>   DW_AT_decl_column : 7
    <29b1>   DW_AT_type        : <0x27da>
    <29b5>   DW_AT_data_member_location: 192
 <2><29b6>: Abbrev Number: 10 (DW_TAG_member)
    <29b7>   DW_AT_name        : (indirect string, offset: 0x17): _unused2
    <29bb>   DW_AT_decl_file   : 4
    <29bc>   DW_AT_decl_line   : 98
    <29bd>   DW_AT_decl_column : 8
    <29be>   DW_AT_type        : <0x2a15>
    <29c2>   DW_AT_data_member_location: 196
 <2><29c3>: Abbrev Number: 0
 <1><29c4>: Abbrev Number: 7 (DW_TAG_typedef)
    <29c5>   DW_AT_name        : (indirect string, offset: 0x16cd): FILE
    <29c9>   DW_AT_decl_file   : 5
    <29ca>   DW_AT_decl_line   : 7
    <29cb>   DW_AT_decl_column : 25
    <29cc>   DW_AT_type        : <0x283d>
 <1><29d0>: Abbrev Number: 11 (DW_TAG_typedef)
    <29d1>   DW_AT_name        : (indirect string, offset: 0x813): _IO_lock_t
    <29d5>   DW_AT_decl_file   : 4
    <29d6>   DW_AT_decl_line   : 43
    <29d7>   DW_AT_decl_column : 14
 <1><29d8>: Abbrev Number: 12 (DW_TAG_structure_type)
    <29d9>   DW_AT_name        : (indirect string, offset: 0x143e): _IO_marker
    <29dd>   DW_AT_declaration : 1
 <1><29dd>: Abbrev Number: 2 (DW_TAG_pointer_type)
    <29de>   DW_AT_byte_size   : 8
    <29df>   DW_AT_type        : <0x29d8>
 <1><29e3>: Abbrev Number: 2 (DW_TAG_pointer_type)
    <29e4>   DW_AT_byte_size   : 8
    <29e5>   DW_AT_type        : <0x283d>
 <1><29e9>: Abbrev Number: 13 (DW_TAG_array_type)
    <29ea>   DW_AT_type        : <0x27ce>
    <29ee>   DW_AT_sibling     : <0x29f9>
 <2><29f2>: Abbrev Number: 14 (DW_TAG_subrange_type)
    <29f3>   DW_AT_type        : <0x27f2>
    <29f7>   DW_AT_upper_bound : 0
 <2><29f8>: Abbrev Number: 0
 <1><29f9>: Abbrev Number: 2 (DW_TAG_pointer_type)
    <29fa>   DW_AT_byte_size   : 8
    <29fb>   DW_AT_type        : <0x29d0>
 <1><29ff>: Abbrev Number: 12 (DW_TAG_structure_type)
    <2a00>   DW_AT_name        : (indirect string, offset: 0x14bf): _IO_codecvt
    <2a04>   DW_AT_declaration : 1
 <1><2a04>: Abbrev Number: 2 (DW_TAG_pointer_type)
    <2a05>   DW_AT_byte_size   : 8
    <2a06>   DW_AT_type        : <0x29ff>
 <1><2a0a>: Abbrev Number: 12 (DW_TAG_structure_type)
    <2a0b>   DW_AT_name        : (indirect string, offset: 0x16d2): _IO_wide_data
    <2a0f>   DW_AT_declaration : 1
 <1><2a0f>: Abbrev Number: 2 (DW_TAG_pointer_type)
    <2a10>   DW_AT_byte_size   : 8
    <2a11>   DW_AT_type        : <0x2a0a>
 <1><2a15>: Abbrev Number: 13 (DW_TAG_array_type)
    <2a16>   DW_AT_type        : <0x27ce>
    <2a1a>   DW_AT_sibling     : <0x2a25>
 <2><2a1e>: Abbrev Number: 14 (DW_TAG_subrange_type)
    <2a1f>   DW_AT_type        : <0x27f2>
    <2a23>   DW_AT_upper_bound : 19
 <2><2a24>: Abbrev Number: 0
 <1><2a25>: Abbrev Number: 2 (DW_TAG_pointer_type)
    <2a26>   DW_AT_byte_size   : 8
    <2a27>   DW_AT_type        : <0x27d5>
 <1><2a2b>: Abbrev Number: 2 (DW_TAG_pointer_type)
    <2a2c>   DW_AT_byte_size   : 8
    <2a2d>   DW_AT_type        : <0x29c4>
 <1><2a31>: Abbrev Number: 15 (DW_TAG_variable)
    <2a32>   DW_AT_name        : (indirect string, offset: 0x1228): stdout
    <2a36>   DW_AT_decl_file   : 6
    <2a37>   DW_AT_decl_line   : 138
    <2a38>   DW_AT_decl_column : 14
    <2a39>   DW_AT_type        : <0x2a2b>
    <2a3d>   DW_AT_external    : 1
    <2a3d>   DW_AT_declaration : 1
 <1><2a3d>: Abbrev Number: 15 (DW_TAG_variable)
    <2a3e>   DW_AT_name        : (indirect string, offset: 0xf6d): stderr
    <2a42>   DW_AT_decl_file   : 6
    <2a43>   DW_AT_decl_line   : 139
    <2a44>   DW_AT_decl_column : 14
    <2a45>   DW_AT_type        : <0x2a2b>
    <2a49>   DW_AT_external    : 1
    <2a49>   DW_AT_declaration : 1
 <1><2a49>: Abbrev Number: 3 (DW_TAG_base_type)
    <2a4a>   DW_AT_byte_size   : 8
    <2a4b>   DW_AT_encoding    : 5	(signed)
    <2a4c>   DW_AT_name        : (indirect string, offset: 0x1e9f): long long int
 <1><2a50>: Abbrev Number: 3 (DW_TAG_base_type)
    <2a51>   DW_AT_byte_size   : 16
    <2a52>   DW_AT_encoding    : 4	(float)
    <2a53>   DW_AT_name        : (indirect string, offset: 0x1507): long double
 <1><2a57>: Abbrev Number: 3 (DW_TAG_base_type)
    <2a58>   DW_AT_byte_size   : 8
    <2a59>   DW_AT_encoding    : 7	(unsigned)
    <2a5a>   DW_AT_name        : (indirect string, offset: 0x1bf1): long long unsigned int
 <1><2a5e>: Abbrev Number: 15 (DW_TAG_variable)
    <2a5f>   DW_AT_name        : (indirect string, offset: 0x2473): exit_failure
    <2a63>   DW_AT_decl_file   : 7
    <2a64>   DW_AT_decl_line   : 18
    <2a65>   DW_AT_decl_column : 21
    <2a66>   DW_AT_type        : <0x27e1>
    <2a6a>   DW_AT_external    : 1
    <2a6a>   DW_AT_declaration : 1
 <1><2a6a>: Abbrev Number: 16 (DW_TAG_enumeration_type)
    <2a6b>   DW_AT_encoding    : 7	(unsigned)
    <2a6c>   DW_AT_byte_size   : 4
    <2a6d>   DW_AT_type        : <0x27f9>
    <2a71>   DW_AT_decl_file   : 1
    <2a72>   DW_AT_decl_line   : 43
    <2a73>   DW_AT_decl_column : 6
    <2a74>   DW_AT_sibling     : <0x2a7f>
 <2><2a78>: Abbrev Number: 17 (DW_TAG_enumerator)
    <2a79>   DW_AT_name        : (indirect string, offset: 0x2453): SANITIZE_ADDRESS
    <2a7d>   DW_AT_const_value : 0
 <2><2a7e>: Abbrev Number: 0
 <1><2a7f>: Abbrev Number: 18 (DW_TAG_variable)
    <2a80>   DW_AT_name        : (indirect string, offset: 0x23f6): file_name
    <2a84>   DW_AT_decl_file   : 1
    <2a85>   DW_AT_decl_line   : 46
    <2a86>   DW_AT_decl_column : 20
    <2a87>   DW_AT_type        : <0x2a25>
    <2a8b>   DW_AT_location    : 9 byte block: 3 10 41 2 0 0 0 0 0 	(DW_OP_addr: 24110)
 <1><2a95>: Abbrev Number: 18 (DW_TAG_variable)
    <2a96>   DW_AT_name        : (indirect string, offset: 0x2423): ignore_EPIPE
    <2a9a>   DW_AT_decl_file   : 1
    <2a9b>   DW_AT_decl_line   : 56
    <2a9c>   DW_AT_decl_column : 13
    <2a9d>   DW_AT_type        : <0x2aab>
    <2aa1>   DW_AT_location    : 9 byte block: 3 18 41 2 0 0 0 0 0 	(DW_OP_addr: 24118)
 <1><2aab>: Abbrev Number: 3 (DW_TAG_base_type)
    <2aac>   DW_AT_byte_size   : 1
    <2aad>   DW_AT_encoding    : 2	(boolean)
    <2aae>   DW_AT_name        : (indirect string, offset: 0x1d4): _Bool
 <1><2ab2>: Abbrev Number: 19 (DW_TAG_subprogram)
    <2ab3>   DW_AT_external    : 1
    <2ab3>   DW_AT_name        : (indirect string, offset: 0x240c): _exit
    <2ab7>   DW_AT_decl_file   : 8
    <2ab8>   DW_AT_decl_line   : 603
    <2aba>   DW_AT_decl_column : 13
    <2abb>   DW_AT_prototyped  : 1
    <2abb>   DW_AT_noreturn    : 1
    <2abb>   DW_AT_declaration : 1
    <2abb>   DW_AT_sibling     : <0x2ac5>
 <2><2abf>: Abbrev Number: 20 (DW_TAG_formal_parameter)
    <2ac0>   DW_AT_type        : <0x27da>
 <2><2ac4>: Abbrev Number: 0
 <1><2ac5>: Abbrev Number: 21 (DW_TAG_subprogram)
    <2ac6>   DW_AT_external    : 1
    <2ac6>   DW_AT_name        : (indirect string, offset: 0x307e): error
    <2aca>   DW_AT_decl_file   : 12
    <2acb>   DW_AT_decl_line   : 33
    <2acc>   DW_AT_decl_column : 13
    <2acd>   DW_AT_prototyped  : 1
    <2acd>   DW_AT_declaration : 1
    <2acd>   DW_AT_sibling     : <0x2ae2>
 <2><2ad1>: Abbrev Number: 20 (DW_TAG_formal_parameter)
    <2ad2>   DW_AT_type        : <0x27da>
 <2><2ad6>: Abbrev Number: 20 (DW_TAG_formal_parameter)
    <2ad7>   DW_AT_type        : <0x27da>
 <2><2adb>: Abbrev Number: 20 (DW_TAG_formal_parameter)
    <2adc>   DW_AT_type        : <0x2a25>
 <2><2ae0>: Abbrev Number: 22 (DW_TAG_unspecified_parameters)
 <2><2ae1>: Abbrev Number: 0
 <1><2ae2>: Abbrev Number: 23 (DW_TAG_subprogram)
    <2ae3>   DW_AT_external    : 1
    <2ae3>   DW_AT_name        : (indirect string, offset: 0x243d): quotearg_colon
    <2ae7>   DW_AT_decl_file   : 9
    <2ae8>   DW_AT_decl_line   : 397
    <2aea>   DW_AT_decl_column : 7
    <2aeb>   DW_AT_prototyped  : 1
    <2aeb>   DW_AT_type        : <0x27c8>
    <2aef>   DW_AT_declaration : 1
    <2aef>   DW_AT_sibling     : <0x2af9>
 <2><2af3>: Abbrev Number: 20 (DW_TAG_formal_parameter)
    <2af4>   DW_AT_type        : <0x2a25>
 <2><2af8>: Abbrev Number: 0
 <1><2af9>: Abbrev Number: 24 (DW_TAG_subprogram)
    <2afa>   DW_AT_external    : 1
    <2afa>   DW_AT_name        : (indirect string, offset: 0x64d): gettext
    <2afe>   DW_AT_decl_file   : 10
    <2aff>   DW_AT_decl_line   : 39
    <2b00>   DW_AT_decl_column : 14
    <2b01>   DW_AT_prototyped  : 1
    <2b01>   DW_AT_type        : <0x27c8>
    <2b05>   DW_AT_declaration : 1
    <2b05>   DW_AT_sibling     : <0x2b0f>
 <2><2b09>: Abbrev Number: 20 (DW_TAG_formal_parameter)
    <2b0a>   DW_AT_type        : <0x2a25>
 <2><2b0e>: Abbrev Number: 0
 <1><2b0f>: Abbrev Number: 25 (DW_TAG_subprogram)
    <2b10>   DW_AT_external    : 1
    <2b10>   DW_AT_name        : (indirect string, offset: 0x15d5): __errno_location
    <2b14>   DW_AT_decl_file   : 13
    <2b15>   DW_AT_decl_line   : 37
    <2b16>   DW_AT_decl_column : 13
    <2b17>   DW_AT_prototyped  : 1
    <2b17>   DW_AT_type        : <0x2b1b>
    <2b1b>   DW_AT_declaration : 1
 <1><2b1b>: Abbrev Number: 2 (DW_TAG_pointer_type)
    <2b1c>   DW_AT_byte_size   : 8
    <2b1d>   DW_AT_type        : <0x27da>
 <1><2b21>: Abbrev Number: 24 (DW_TAG_subprogram)
    <2b22>   DW_AT_external    : 1
    <2b22>   DW_AT_name        : (indirect string, offset: 0x2430): close_stream
    <2b26>   DW_AT_decl_file   : 11
    <2b27>   DW_AT_decl_line   : 20
    <2b28>   DW_AT_decl_column : 5
    <2b29>   DW_AT_prototyped  : 1
    <2b29>   DW_AT_type        : <0x27da>
    <2b2d>   DW_AT_declaration : 1
    <2b2d>   DW_AT_sibling     : <0x2b37>
 <2><2b31>: Abbrev Number: 20 (DW_TAG_formal_parameter)
    <2b32>   DW_AT_type        : <0x2a2b>
 <2><2b36>: Abbrev Number: 0
 <1><2b37>: Abbrev Number: 26 (DW_TAG_subprogram)
    <2b38>   DW_AT_external    : 1
    <2b38>   DW_AT_name        : (indirect string, offset: 0x1222): close_stdout
    <2b3c>   DW_AT_decl_file   : 1
    <2b3d>   DW_AT_decl_line   : 117
    <2b3e>   DW_AT_decl_column : 1
    <2b3f>   DW_AT_prototyped  : 1
    <2b3f>   DW_AT_low_pc      : 0x547d
    <2b47>   DW_AT_high_pc     : 0xf8
    <2b4f>   DW_AT_frame_base  : 1 byte block: 9c 	(DW_OP_call_frame_cfa)
    <2b51>   DW_AT_GNU_all_tail_call_sites: 1
    <2b51>   DW_AT_sibling     : <0x2b77>
 <2><2b55>: Abbrev Number: 27 (DW_TAG_lexical_block)
    <2b56>   DW_AT_low_pc      : 0x54bf
    <2b5e>   DW_AT_high_pc     : 0x8f
 <3><2b66>: Abbrev Number: 18 (DW_TAG_variable)
    <2b67>   DW_AT_name        : (indirect string, offset: 0x2400): write_error
    <2b6b>   DW_AT_decl_file   : 1
    <2b6c>   DW_AT_decl_line   : 122
    <2b6d>   DW_AT_decl_column : 19
    <2b6e>   DW_AT_type        : <0x2a25>
    <2b72>   DW_AT_location    : 2 byte block: 91 58 	(DW_OP_fbreg: -40)
 <3><2b75>: Abbrev Number: 0
 <2><2b76>: Abbrev Number: 0
 <1><2b77>: Abbrev Number: 28 (DW_TAG_subprogram)
    <2b78>   DW_AT_external    : 1
    <2b78>   DW_AT_name        : (indirect string, offset: 0x2412): close_stdout_set_ignore_EPIPE
    <2b7c>   DW_AT_decl_file   : 1
    <2b7d>   DW_AT_decl_line   : 88
    <2b7e>   DW_AT_decl_column : 1
    <2b7f>   DW_AT_prototyped  : 1
    <2b7f>   DW_AT_low_pc      : 0x5463
    <2b87>   DW_AT_high_pc     : 0x1a
    <2b8f>   DW_AT_frame_base  : 1 byte block: 9c 	(DW_OP_call_frame_cfa)
    <2b91>   DW_AT_GNU_all_call_sites: 1
    <2b91>   DW_AT_sibling     : <0x2ba5>
 <2><2b95>: Abbrev Number: 29 (DW_TAG_formal_parameter)
    <2b96>   DW_AT_name        : (indirect string, offset: 0x244c): ignore
    <2b9a>   DW_AT_decl_file   : 1
    <2b9b>   DW_AT_decl_line   : 88
    <2b9c>   DW_AT_decl_column : 37
    <2b9d>   DW_AT_type        : <0x2aab>
    <2ba1>   DW_AT_location    : 2 byte block: 91 6c 	(DW_OP_fbreg: -20)
 <2><2ba4>: Abbrev Number: 0
 <1><2ba5>: Abbrev Number: 30 (DW_TAG_subprogram)
    <2ba6>   DW_AT_external    : 1
    <2ba6>   DW_AT_name        : (indirect string, offset: 0x23e5): close_stdout_set_file_name
    <2baa>   DW_AT_decl_file   : 1
    <2bab>   DW_AT_decl_line   : 51
    <2bac>   DW_AT_decl_column : 1
    <2bad>   DW_AT_prototyped  : 1
    <2bad>   DW_AT_low_pc      : 0x5449
    <2bb5>   DW_AT_high_pc     : 0x1a
    <2bbd>   DW_AT_frame_base  : 1 byte block: 9c 	(DW_OP_call_frame_cfa)
    <2bbf>   DW_AT_GNU_all_call_sites: 1
 <2><2bbf>: Abbrev Number: 29 (DW_TAG_formal_parameter)
    <2bc0>   DW_AT_name        : (indirect string, offset: 0x154c): file
    <2bc4>   DW_AT_decl_file   : 1
    <2bc5>   DW_AT_decl_line   : 51
    <2bc6>   DW_AT_decl_column : 41
    <2bc7>   DW_AT_type        : <0x2a25>
    <2bcb>   DW_AT_location    : 2 byte block: 91 68 	(DW_OP_fbreg: -24)
 <2><2bce>: Abbrev Number: 0
 <1><2bcf>: Abbrev Number: 0
  Compilation Unit @ offset 0x2bd0:
   Length:        0x91 (32-bit)
   Version:       4
   Abbrev Offset: 0x75c
   Pointer Size:  8
 <0><2bdb>: Abbrev Number: 1 (DW_TAG_compile_unit)
    <2bdc>   DW_AT_producer    : (indirect string, offset: 0x81e): GNU C17 11.1.0 -mtune=generic -march=x86-64 -g -O0 -fasynchronous-unwind-tables -fstack-protector-strong -fstack-clash-protection -fcf-protection
    <2be0>   DW_AT_language    : 12	(ANSI C99)
    <2be1>   DW_AT_name        : (indirect string, offset: 0x2480): lib/exitfail.c
    <2be5>   DW_AT_comp_dir    : (indirect string, offset: 0xb3f): /home/jacekline/dev/research/programs/coreutils-9.1
    <2be9>   DW_AT_stmt_list   : 0xc37
 <1><2bed>: Abbrev Number: 2 (DW_TAG_variable)
    <2bee>   DW_AT_name        : (indirect string, offset: 0x2473): exit_failure
    <2bf2>   DW_AT_decl_file   : 1
    <2bf3>   DW_AT_decl_line   : 18
    <2bf4>   DW_AT_decl_column : 21
    <2bf5>   DW_AT_type        : <0x2c00>
    <2bf9>   DW_AT_external    : 1
    <2bf9>   DW_AT_declaration : 1
 <1><2bf9>: Abbrev Number: 3 (DW_TAG_base_type)
    <2bfa>   DW_AT_byte_size   : 4
    <2bfb>   DW_AT_encoding    : 5	(signed)
    <2bfc>   DW_AT_name        : int
 <1><2c00>: Abbrev Number: 4 (DW_TAG_volatile_type)
    <2c01>   DW_AT_type        : <0x2bf9>
 <1><2c05>: Abbrev Number: 5 (DW_TAG_base_type)
    <2c06>   DW_AT_byte_size   : 8
    <2c07>   DW_AT_encoding    : 7	(unsigned)
    <2c08>   DW_AT_name        : (indirect string, offset: 0x1bf6): long unsigned int
 <1><2c0c>: Abbrev Number: 5 (DW_TAG_base_type)
    <2c0d>   DW_AT_byte_size   : 4
    <2c0e>   DW_AT_encoding    : 7	(unsigned)
    <2c0f>   DW_AT_name        : (indirect string, offset: 0x1bfb): unsigned int
 <1><2c13>: Abbrev Number: 5 (DW_TAG_base_type)
    <2c14>   DW_AT_byte_size   : 8
    <2c15>   DW_AT_encoding    : 5	(signed)
    <2c16>   DW_AT_name        : (indirect string, offset: 0x1ea4): long int
 <1><2c1a>: Abbrev Number: 5 (DW_TAG_base_type)
    <2c1b>   DW_AT_byte_size   : 8
    <2c1c>   DW_AT_encoding    : 5	(signed)
    <2c1d>   DW_AT_name        : (indirect string, offset: 0x1e9f): long long int
 <1><2c21>: Abbrev Number: 5 (DW_TAG_base_type)
    <2c22>   DW_AT_byte_size   : 2
    <2c23>   DW_AT_encoding    : 7	(unsigned)
    <2c24>   DW_AT_name        : (indirect string, offset: 0x1116): short unsigned int
 <1><2c28>: Abbrev Number: 5 (DW_TAG_base_type)
    <2c29>   DW_AT_byte_size   : 1
    <2c2a>   DW_AT_encoding    : 6	(signed char)
    <2c2b>   DW_AT_name        : (indirect string, offset: 0x7c8): char
 <1><2c2f>: Abbrev Number: 5 (DW_TAG_base_type)
    <2c30>   DW_AT_byte_size   : 1
    <2c31>   DW_AT_encoding    : 8	(unsigned char)
    <2c32>   DW_AT_name        : (indirect string, offset: 0x7bf): unsigned char
 <1><2c36>: Abbrev Number: 5 (DW_TAG_base_type)
    <2c37>   DW_AT_byte_size   : 1
    <2c38>   DW_AT_encoding    : 6	(signed char)
    <2c39>   DW_AT_name        : (indirect string, offset: 0x7c1): signed char
 <1><2c3d>: Abbrev Number: 5 (DW_TAG_base_type)
    <2c3e>   DW_AT_byte_size   : 2
    <2c3f>   DW_AT_encoding    : 5	(signed)
    <2c40>   DW_AT_name        : (indirect string, offset: 0x21d3): short int
 <1><2c44>: Abbrev Number: 5 (DW_TAG_base_type)
    <2c45>   DW_AT_byte_size   : 8
    <2c46>   DW_AT_encoding    : 7	(unsigned)
    <2c47>   DW_AT_name        : (indirect string, offset: 0x1bf1): long long unsigned int
 <1><2c4b>: Abbrev Number: 5 (DW_TAG_base_type)
    <2c4c>   DW_AT_byte_size   : 16
    <2c4d>   DW_AT_encoding    : 4	(float)
    <2c4e>   DW_AT_name        : (indirect string, offset: 0x1507): long double
 <1><2c52>: Abbrev Number: 6 (DW_TAG_variable)
    <2c53>   DW_AT_specification: <0x2bed>
    <2c57>   DW_AT_decl_file   : 2
    <2c58>   DW_AT_decl_line   : 24
    <2c59>   DW_AT_decl_column : 14
    <2c5a>   DW_AT_location    : 9 byte block: 3 20 40 2 0 0 0 0 0 	(DW_OP_addr: 24020)
 <1><2c64>: Abbrev Number: 0
  Compilation Unit @ offset 0x2c65:
   Length:        0x37f (32-bit)
   Version:       4
   Abbrev Offset: 0x7ab
   Pointer Size:  8
 <0><2c70>: Abbrev Number: 1 (DW_TAG_compile_unit)
    <2c71>   DW_AT_producer    : (indirect string, offset: 0x81e): GNU C17 11.1.0 -mtune=generic -march=x86-64 -g -O0 -fasynchronous-unwind-tables -fstack-protector-strong -fstack-clash-protection -fcf-protection
    <2c75>   DW_AT_language    : 12	(ANSI C99)
    <2c76>   DW_AT_name        : (indirect string, offset: 0x24ab): lib/fclose.c
    <2c7a>   DW_AT_comp_dir    : (indirect string, offset: 0xb3f): /home/jacekline/dev/research/programs/coreutils-9.1
    <2c7e>   DW_AT_low_pc      : 0x5575
    <2c86>   DW_AT_high_pc     : 0xb9
    <2c8e>   DW_AT_stmt_list   : 0xc74
 <1><2c92>: Abbrev Number: 2 (DW_TAG_typedef)
    <2c93>   DW_AT_name        : (indirect string, offset: 0x1155): size_t
    <2c97>   DW_AT_decl_file   : 2
    <2c98>   DW_AT_decl_line   : 209
    <2c99>   DW_AT_decl_column : 23
    <2c9a>   DW_AT_type        : <0x2c9e>
 <1><2c9e>: Abbrev Number: 3 (DW_TAG_base_type)
    <2c9f>   DW_AT_byte_size   : 8
    <2ca0>   DW_AT_encoding    : 7	(unsigned)
    <2ca1>   DW_AT_name        : (indirect string, offset: 0x1bf6): long unsigned int
 <1><2ca5>: Abbrev Number: 3 (DW_TAG_base_type)
    <2ca6>   DW_AT_byte_size   : 4
    <2ca7>   DW_AT_encoding    : 7	(unsigned)
    <2ca8>   DW_AT_name        : (indirect string, offset: 0x1bfb): unsigned int
 <1><2cac>: Abbrev Number: 4 (DW_TAG_pointer_type)
    <2cad>   DW_AT_byte_size   : 8
 <1><2cae>: Abbrev Number: 3 (DW_TAG_base_type)
    <2caf>   DW_AT_byte_size   : 1
    <2cb0>   DW_AT_encoding    : 8	(unsigned char)
    <2cb1>   DW_AT_name        : (indirect string, offset: 0x7bf): unsigned char
 <1><2cb5>: Abbrev Number: 3 (DW_TAG_base_type)
    <2cb6>   DW_AT_byte_size   : 2
    <2cb7>   DW_AT_encoding    : 7	(unsigned)
    <2cb8>   DW_AT_name        : (indirect string, offset: 0x1116): short unsigned int
 <1><2cbc>: Abbrev Number: 3 (DW_TAG_base_type)
    <2cbd>   DW_AT_byte_size   : 1
    <2cbe>   DW_AT_encoding    : 6	(signed char)
    <2cbf>   DW_AT_name        : (indirect string, offset: 0x7c1): signed char
 <1><2cc3>: Abbrev Number: 3 (DW_TAG_base_type)
    <2cc4>   DW_AT_byte_size   : 2
    <2cc5>   DW_AT_encoding    : 5	(signed)
    <2cc6>   DW_AT_name        : (indirect string, offset: 0x21d3): short int
 <1><2cca>: Abbrev Number: 5 (DW_TAG_base_type)
    <2ccb>   DW_AT_byte_size   : 4
    <2ccc>   DW_AT_encoding    : 5	(signed)
    <2ccd>   DW_AT_name        : int
 <1><2cd1>: Abbrev Number: 3 (DW_TAG_base_type)
    <2cd2>   DW_AT_byte_size   : 8
    <2cd3>   DW_AT_encoding    : 5	(signed)
    <2cd4>   DW_AT_name        : (indirect string, offset: 0x1ea4): long int
 <1><2cd8>: Abbrev Number: 2 (DW_TAG_typedef)
    <2cd9>   DW_AT_name        : (indirect string, offset: 0x2c5): __off_t
    <2cdd>   DW_AT_decl_file   : 3
    <2cde>   DW_AT_decl_line   : 152
    <2cdf>   DW_AT_decl_column : 25
    <2ce0>   DW_AT_type        : <0x2cd1>
 <1><2ce4>: Abbrev Number: 2 (DW_TAG_typedef)
    <2ce5>   DW_AT_name        : (indirect string, offset: 0x120c): __off64_t
    <2ce9>   DW_AT_decl_file   : 3
    <2cea>   DW_AT_decl_line   : 153
    <2ceb>   DW_AT_decl_column : 27
    <2cec>   DW_AT_type        : <0x2cd1>
 <1><2cf0>: Abbrev Number: 6 (DW_TAG_pointer_type)
    <2cf1>   DW_AT_byte_size   : 8
    <2cf2>   DW_AT_type        : <0x2cf6>
 <1><2cf6>: Abbrev Number: 3 (DW_TAG_base_type)
    <2cf7>   DW_AT_byte_size   : 1
    <2cf8>   DW_AT_encoding    : 6	(signed char)
    <2cf9>   DW_AT_name        : (indirect string, offset: 0x7c8): char
 <1><2cfd>: Abbrev Number: 7 (DW_TAG_structure_type)
    <2cfe>   DW_AT_name        : (indirect string, offset: 0x16c9): _IO_FILE
    <2d02>   DW_AT_byte_size   : 216
    <2d03>   DW_AT_decl_file   : 4
    <2d04>   DW_AT_decl_line   : 49
    <2d05>   DW_AT_decl_column : 8
    <2d06>   DW_AT_sibling     : <0x2e84>
 <2><2d0a>: Abbrev Number: 8 (DW_TAG_member)
    <2d0b>   DW_AT_name        : (indirect string, offset: 0x160b): _flags
    <2d0f>   DW_AT_decl_file   : 4
    <2d10>   DW_AT_decl_line   : 51
    <2d11>   DW_AT_decl_column : 7
    <2d12>   DW_AT_type        : <0x2cca>
    <2d16>   DW_AT_data_member_location: 0
 <2><2d17>: Abbrev Number: 8 (DW_TAG_member)
    <2d18>   DW_AT_name        : (indirect string, offset: 0x1cf2): _IO_read_ptr
    <2d1c>   DW_AT_decl_file   : 4
    <2d1d>   DW_AT_decl_line   : 54
    <2d1e>   DW_AT_decl_column : 9
    <2d1f>   DW_AT_type        : <0x2cf0>
    <2d23>   DW_AT_data_member_location: 8
 <2><2d24>: Abbrev Number: 8 (DW_TAG_member)
    <2d25>   DW_AT_name        : (indirect string, offset: 0x16a5): _IO_read_end
    <2d29>   DW_AT_decl_file   : 4
    <2d2a>   DW_AT_decl_line   : 55
    <2d2b>   DW_AT_decl_column : 9
    <2d2c>   DW_AT_type        : <0x2cf0>
    <2d30>   DW_AT_data_member_location: 16
 <2><2d31>: Abbrev Number: 8 (DW_TAG_member)
    <2d32>   DW_AT_name        : (indirect string, offset: 0x123b): _IO_read_base
    <2d36>   DW_AT_decl_file   : 4
    <2d37>   DW_AT_decl_line   : 56
    <2d38>   DW_AT_decl_column : 9
    <2d39>   DW_AT_type        : <0x2cf0>
    <2d3d>   DW_AT_data_member_location: 24
 <2><2d3e>: Abbrev Number: 8 (DW_TAG_member)
    <2d3f>   DW_AT_name        : (indirect string, offset: 0x12dd): _IO_write_base
    <2d43>   DW_AT_decl_file   : 4
    <2d44>   DW_AT_decl_line   : 57
    <2d45>   DW_AT_decl_column : 9
    <2d46>   DW_AT_type        : <0x2cf0>
    <2d4a>   DW_AT_data_member_location: 32
 <2><2d4b>: Abbrev Number: 8 (DW_TAG_member)
    <2d4c>   DW_AT_name        : (indirect string, offset: 0x9ba): _IO_write_ptr
    <2d50>   DW_AT_decl_file   : 4
    <2d51>   DW_AT_decl_line   : 58
    <2d52>   DW_AT_decl_column : 9
    <2d53>   DW_AT_type        : <0x2cf0>
    <2d57>   DW_AT_data_member_location: 40
 <2><2d58>: Abbrev Number: 8 (DW_TAG_member)
    <2d59>   DW_AT_name        : (indirect string, offset: 0x4b3): _IO_write_end
    <2d5d>   DW_AT_decl_file   : 4
    <2d5e>   DW_AT_decl_line   : 59
    <2d5f>   DW_AT_decl_column : 9
    <2d60>   DW_AT_type        : <0x2cf0>
    <2d64>   DW_AT_data_member_location: 48
 <2><2d65>: Abbrev Number: 8 (DW_TAG_member)
    <2d66>   DW_AT_name        : (indirect string, offset: 0x163e): _IO_buf_base
    <2d6a>   DW_AT_decl_file   : 4
    <2d6b>   DW_AT_decl_line   : 60
    <2d6c>   DW_AT_decl_column : 9
    <2d6d>   DW_AT_type        : <0x2cf0>
    <2d71>   DW_AT_data_member_location: 56
 <2><2d72>: Abbrev Number: 8 (DW_TAG_member)
    <2d73>   DW_AT_name        : (indirect string, offset: 0x1276): _IO_buf_end
    <2d77>   DW_AT_decl_file   : 4
    <2d78>   DW_AT_decl_line   : 61
    <2d79>   DW_AT_decl_column : 9
    <2d7a>   DW_AT_type        : <0x2cf0>
    <2d7e>   DW_AT_data_member_location: 64
 <2><2d7f>: Abbrev Number: 8 (DW_TAG_member)
    <2d80>   DW_AT_name        : (indirect string, offset: 0xbe6): _IO_save_base
    <2d84>   DW_AT_decl_file   : 4
    <2d85>   DW_AT_decl_line   : 64
    <2d86>   DW_AT_decl_column : 9
    <2d87>   DW_AT_type        : <0x2cf0>
    <2d8b>   DW_AT_data_member_location: 72
 <2><2d8c>: Abbrev Number: 8 (DW_TAG_member)
    <2d8d>   DW_AT_name        : (indirect string, offset: 0x1ccd): _IO_backup_base
    <2d91>   DW_AT_decl_file   : 4
    <2d92>   DW_AT_decl_line   : 65
    <2d93>   DW_AT_decl_column : 9
    <2d94>   DW_AT_type        : <0x2cf0>
    <2d98>   DW_AT_data_member_location: 80
 <2><2d99>: Abbrev Number: 8 (DW_TAG_member)
    <2d9a>   DW_AT_name        : (indirect string, offset: 0xf91): _IO_save_end
    <2d9e>   DW_AT_decl_file   : 4
    <2d9f>   DW_AT_decl_line   : 66
    <2da0>   DW_AT_decl_column : 9
    <2da1>   DW_AT_type        : <0x2cf0>
    <2da5>   DW_AT_data_member_location: 88
 <2><2da6>: Abbrev Number: 8 (DW_TAG_member)
    <2da7>   DW_AT_name        : (indirect string, offset: 0x18dd): _markers
    <2dab>   DW_AT_decl_file   : 4
    <2dac>   DW_AT_decl_line   : 68
    <2dad>   DW_AT_decl_column : 22
    <2dae>   DW_AT_type        : <0x2e9d>
    <2db2>   DW_AT_data_member_location: 96
 <2><2db3>: Abbrev Number: 8 (DW_TAG_member)
    <2db4>   DW_AT_name        : (indirect string, offset: 0x76d): _chain
    <2db8>   DW_AT_decl_file   : 4
    <2db9>   DW_AT_decl_line   : 70
    <2dba>   DW_AT_decl_column : 20
    <2dbb>   DW_AT_type        : <0x2ea3>
    <2dbf>   DW_AT_data_member_location: 104
 <2><2dc0>: Abbrev Number: 8 (DW_TAG_member)
    <2dc1>   DW_AT_name        : (indirect string, offset: 0x41): _fileno
    <2dc5>   DW_AT_decl_file   : 4
    <2dc6>   DW_AT_decl_line   : 72
    <2dc7>   DW_AT_decl_column : 7
    <2dc8>   DW_AT_type        : <0x2cca>
    <2dcc>   DW_AT_data_member_location: 112
 <2><2dcd>: Abbrev Number: 8 (DW_TAG_member)
    <2dce>   DW_AT_name        : (indirect string, offset: 0x1ead): _flags2
    <2dd2>   DW_AT_decl_file   : 4
    <2dd3>   DW_AT_decl_line   : 73
    <2dd4>   DW_AT_decl_column : 7
    <2dd5>   DW_AT_type        : <0x2cca>
    <2dd9>   DW_AT_data_member_location: 116
 <2><2dda>: Abbrev Number: 8 (DW_TAG_member)
    <2ddb>   DW_AT_name        : (indirect string, offset: 0x1e2c): _old_offset
    <2ddf>   DW_AT_decl_file   : 4
    <2de0>   DW_AT_decl_line   : 74
    <2de1>   DW_AT_decl_column : 11
    <2de2>   DW_AT_type        : <0x2cd8>
    <2de6>   DW_AT_data_member_location: 120
 <2><2de7>: Abbrev Number: 8 (DW_TAG_member)
    <2de8>   DW_AT_name        : (indirect string, offset: 0x1c21): _cur_column
    <2dec>   DW_AT_decl_file   : 4
    <2ded>   DW_AT_decl_line   : 77
    <2dee>   DW_AT_decl_column : 18
    <2def>   DW_AT_type        : <0x2cb5>
    <2df3>   DW_AT_data_member_location: 128
 <2><2df4>: Abbrev Number: 8 (DW_TAG_member)
    <2df5>   DW_AT_name        : (indirect string, offset: 0x2217): _vtable_offset
    <2df9>   DW_AT_decl_file   : 4
    <2dfa>   DW_AT_decl_line   : 78
    <2dfb>   DW_AT_decl_column : 15
    <2dfc>   DW_AT_type        : <0x2cbc>
    <2e00>   DW_AT_data_member_location: 130
 <2><2e01>: Abbrev Number: 8 (DW_TAG_member)
    <2e02>   DW_AT_name        : (indirect string, offset: 0x22a): _shortbuf
    <2e06>   DW_AT_decl_file   : 4
    <2e07>   DW_AT_decl_line   : 79
    <2e08>   DW_AT_decl_column : 8
    <2e09>   DW_AT_type        : <0x2ea9>
    <2e0d>   DW_AT_data_member_location: 131
 <2><2e0e>: Abbrev Number: 8 (DW_TAG_member)
    <2e0f>   DW_AT_name        : (indirect string, offset: 0x311): _lock
    <2e13>   DW_AT_decl_file   : 4
    <2e14>   DW_AT_decl_line   : 81
    <2e15>   DW_AT_decl_column : 15
    <2e16>   DW_AT_type        : <0x2eb9>
    <2e1a>   DW_AT_data_member_location: 136
 <2><2e1b>: Abbrev Number: 8 (DW_TAG_member)
    <2e1c>   DW_AT_name        : (indirect string, offset: 0x1e30): _offset
    <2e20>   DW_AT_decl_file   : 4
    <2e21>   DW_AT_decl_line   : 89
    <2e22>   DW_AT_decl_column : 13
    <2e23>   DW_AT_type        : <0x2ce4>
    <2e27>   DW_AT_data_member_location: 144
 <2><2e28>: Abbrev Number: 8 (DW_TAG_member)
    <2e29>   DW_AT_name        : (indirect string, offset: 0x14c2): _codecvt
    <2e2d>   DW_AT_decl_file   : 4
    <2e2e>   DW_AT_decl_line   : 91
    <2e2f>   DW_AT_decl_column : 23
    <2e30>   DW_AT_type        : <0x2ec4>
    <2e34>   DW_AT_data_member_location: 152
 <2><2e35>: Abbrev Number: 8 (DW_TAG_member)
    <2e36>   DW_AT_name        : (indirect string, offset: 0x16d5): _wide_data
    <2e3a>   DW_AT_decl_file   : 4
    <2e3b>   DW_AT_decl_line   : 92
    <2e3c>   DW_AT_decl_column : 25
    <2e3d>   DW_AT_type        : <0x2ecf>
    <2e41>   DW_AT_data_member_location: 160
 <2><2e42>: Abbrev Number: 8 (DW_TAG_member)
    <2e43>   DW_AT_name        : (indirect string, offset: 0x1d57): _freeres_list
    <2e47>   DW_AT_decl_file   : 4
    <2e48>   DW_AT_decl_line   : 93
    <2e49>   DW_AT_decl_column : 20
    <2e4a>   DW_AT_type        : <0x2ea3>
    <2e4e>   DW_AT_data_member_location: 168
 <2><2e4f>: Abbrev Number: 8 (DW_TAG_member)
    <2e50>   DW_AT_name        : (indirect string, offset: 0x1bbb): _freeres_buf
    <2e54>   DW_AT_decl_file   : 4
    <2e55>   DW_AT_decl_line   : 94
    <2e56>   DW_AT_decl_column : 9
    <2e57>   DW_AT_type        : <0x2cac>
    <2e5b>   DW_AT_data_member_location: 176
 <2><2e5c>: Abbrev Number: 8 (DW_TAG_member)
    <2e5d>   DW_AT_name        : (indirect string, offset: 0x187b): __pad5
    <2e61>   DW_AT_decl_file   : 4
    <2e62>   DW_AT_decl_line   : 95
    <2e63>   DW_AT_decl_column : 10
    <2e64>   DW_AT_type        : <0x2c92>
    <2e68>   DW_AT_data_member_location: 184
 <2><2e69>: Abbrev Number: 8 (DW_TAG_member)
    <2e6a>   DW_AT_name        : (indirect string, offset: 0x150): _mode
    <2e6e>   DW_AT_decl_file   : 4
    <2e6f>   DW_AT_decl_line   : 96
    <2e70>   DW_AT_decl_column : 7
    <2e71>   DW_AT_type        : <0x2cca>
    <2e75>   DW_AT_data_member_location: 192
 <2><2e76>: Abbrev Number: 8 (DW_TAG_member)
    <2e77>   DW_AT_name        : (indirect string, offset: 0x17): _unused2
    <2e7b>   DW_AT_decl_file   : 4
    <2e7c>   DW_AT_decl_line   : 98
    <2e7d>   DW_AT_decl_column : 8
    <2e7e>   DW_AT_type        : <0x2ed5>
    <2e82>   DW_AT_data_member_location: 196
 <2><2e83>: Abbrev Number: 0
 <1><2e84>: Abbrev Number: 2 (DW_TAG_typedef)
    <2e85>   DW_AT_name        : (indirect string, offset: 0x16cd): FILE
    <2e89>   DW_AT_decl_file   : 5
    <2e8a>   DW_AT_decl_line   : 7
    <2e8b>   DW_AT_decl_column : 25
    <2e8c>   DW_AT_type        : <0x2cfd>
 <1><2e90>: Abbrev Number: 9 (DW_TAG_typedef)
    <2e91>   DW_AT_name        : (indirect string, offset: 0x813): _IO_lock_t
    <2e95>   DW_AT_decl_file   : 4
    <2e96>   DW_AT_decl_line   : 43
    <2e97>   DW_AT_decl_column : 14
 <1><2e98>: Abbrev Number: 10 (DW_TAG_structure_type)
    <2e99>   DW_AT_name        : (indirect string, offset: 0x143e): _IO_marker
    <2e9d>   DW_AT_declaration : 1
 <1><2e9d>: Abbrev Number: 6 (DW_TAG_pointer_type)
    <2e9e>   DW_AT_byte_size   : 8
    <2e9f>   DW_AT_type        : <0x2e98>
 <1><2ea3>: Abbrev Number: 6 (DW_TAG_pointer_type)
    <2ea4>   DW_AT_byte_size   : 8
    <2ea5>   DW_AT_type        : <0x2cfd>
 <1><2ea9>: Abbrev Number: 11 (DW_TAG_array_type)
    <2eaa>   DW_AT_type        : <0x2cf6>
    <2eae>   DW_AT_sibling     : <0x2eb9>
 <2><2eb2>: Abbrev Number: 12 (DW_TAG_subrange_type)
    <2eb3>   DW_AT_type        : <0x2c9e>
    <2eb7>   DW_AT_upper_bound : 0
 <2><2eb8>: Abbrev Number: 0
 <1><2eb9>: Abbrev Number: 6 (DW_TAG_pointer_type)
    <2eba>   DW_AT_byte_size   : 8
    <2ebb>   DW_AT_type        : <0x2e90>
 <1><2ebf>: Abbrev Number: 10 (DW_TAG_structure_type)
    <2ec0>   DW_AT_name        : (indirect string, offset: 0x14bf): _IO_codecvt
    <2ec4>   DW_AT_declaration : 1
 <1><2ec4>: Abbrev Number: 6 (DW_TAG_pointer_type)
    <2ec5>   DW_AT_byte_size   : 8
    <2ec6>   DW_AT_type        : <0x2ebf>
 <1><2eca>: Abbrev Number: 10 (DW_TAG_structure_type)
    <2ecb>   DW_AT_name        : (indirect string, offset: 0x16d2): _IO_wide_data
    <2ecf>   DW_AT_declaration : 1
 <1><2ecf>: Abbrev Number: 6 (DW_TAG_pointer_type)
    <2ed0>   DW_AT_byte_size   : 8
    <2ed1>   DW_AT_type        : <0x2eca>
 <1><2ed5>: Abbrev Number: 11 (DW_TAG_array_type)
    <2ed6>   DW_AT_type        : <0x2cf6>
    <2eda>   DW_AT_sibling     : <0x2ee5>
 <2><2ede>: Abbrev Number: 12 (DW_TAG_subrange_type)
    <2edf>   DW_AT_type        : <0x2c9e>
    <2ee3>   DW_AT_upper_bound : 19
 <2><2ee4>: Abbrev Number: 0
 <1><2ee5>: Abbrev Number: 6 (DW_TAG_pointer_type)
    <2ee6>   DW_AT_byte_size   : 8
    <2ee7>   DW_AT_type        : <0x2e84>
 <1><2eeb>: Abbrev Number: 3 (DW_TAG_base_type)
    <2eec>   DW_AT_byte_size   : 8
    <2eed>   DW_AT_encoding    : 5	(signed)
    <2eee>   DW_AT_name        : (indirect string, offset: 0x1e9f): long long int
 <1><2ef2>: Abbrev Number: 3 (DW_TAG_base_type)
    <2ef3>   DW_AT_byte_size   : 16
    <2ef4>   DW_AT_encoding    : 4	(float)
    <2ef5>   DW_AT_name        : (indirect string, offset: 0x1507): long double
 <1><2ef9>: Abbrev Number: 3 (DW_TAG_base_type)
    <2efa>   DW_AT_byte_size   : 8
    <2efb>   DW_AT_encoding    : 7	(unsigned)
    <2efc>   DW_AT_name        : (indirect string, offset: 0x1bf1): long long unsigned int
 <1><2f00>: Abbrev Number: 13 (DW_TAG_subprogram)
    <2f01>   DW_AT_external    : 1
    <2f01>   DW_AT_name        : (indirect string, offset: 0x15d5): __errno_location
    <2f05>   DW_AT_decl_file   : 10
    <2f06>   DW_AT_decl_line   : 37
    <2f07>   DW_AT_decl_column : 13
    <2f08>   DW_AT_prototyped  : 1
    <2f08>   DW_AT_type        : <0x2f0c>
    <2f0c>   DW_AT_declaration : 1
 <1><2f0c>: Abbrev Number: 6 (DW_TAG_pointer_type)
    <2f0d>   DW_AT_byte_size   : 8
    <2f0e>   DW_AT_type        : <0x2cca>
 <1><2f12>: Abbrev Number: 14 (DW_TAG_subprogram)
    <2f13>   DW_AT_external    : 1
    <2f13>   DW_AT_name        : (indirect string, offset: 0x249a): rpl_fflush
    <2f17>   DW_AT_decl_file   : 6
    <2f18>   DW_AT_decl_line   : 841
    <2f1a>   DW_AT_decl_column : 1
    <2f1b>   DW_AT_prototyped  : 1
    <2f1b>   DW_AT_type        : <0x2cca>
    <2f1f>   DW_AT_declaration : 1
    <2f1f>   DW_AT_sibling     : <0x2f29>
 <2><2f23>: Abbrev Number: 15 (DW_TAG_formal_parameter)
    <2f24>   DW_AT_type        : <0x2ee5>
 <2><2f28>: Abbrev Number: 0
 <1><2f29>: Abbrev Number: 14 (DW_TAG_subprogram)
    <2f2a>   DW_AT_external    : 1
    <2f2a>   DW_AT_name        : (indirect string, offset: 0x24a5): lseek
    <2f2e>   DW_AT_decl_file   : 7
    <2f2f>   DW_AT_decl_line   : 334
    <2f31>   DW_AT_decl_column : 16
    <2f32>   DW_AT_prototyped  : 1
    <2f32>   DW_AT_type        : <0x2cd8>
    <2f36>   DW_AT_declaration : 1
    <2f36>   DW_AT_sibling     : <0x2f4a>
 <2><2f3a>: Abbrev Number: 15 (DW_TAG_formal_parameter)
    <2f3b>   DW_AT_type        : <0x2cca>
 <2><2f3f>: Abbrev Number: 15 (DW_TAG_formal_parameter)
    <2f40>   DW_AT_type        : <0x2cd8>
 <2><2f44>: Abbrev Number: 15 (DW_TAG_formal_parameter)
    <2f45>   DW_AT_type        : <0x2cca>
 <2><2f49>: Abbrev Number: 0
 <1><2f4a>: Abbrev Number: 16 (DW_TAG_subprogram)
    <2f4b>   DW_AT_external    : 1
    <2f4b>   DW_AT_name        : (indirect string, offset: 0x248f): __freading
    <2f4f>   DW_AT_decl_file   : 8
    <2f50>   DW_AT_decl_line   : 51
    <2f51>   DW_AT_decl_column : 12
    <2f52>   DW_AT_prototyped  : 1
    <2f52>   DW_AT_type        : <0x2cca>
    <2f56>   DW_AT_declaration : 1
    <2f56>   DW_AT_sibling     : <0x2f60>
 <2><2f5a>: Abbrev Number: 15 (DW_TAG_formal_parameter)
    <2f5b>   DW_AT_type        : <0x2ee5>
 <2><2f5f>: Abbrev Number: 0
 <1><2f60>: Abbrev Number: 16 (DW_TAG_subprogram)
    <2f61>   DW_AT_external    : 1
    <2f61>   DW_AT_name        : (indirect string, offset: 0x1aee): fclose
    <2f65>   DW_AT_decl_file   : 9
    <2f66>   DW_AT_decl_line   : 213
    <2f67>   DW_AT_decl_column : 12
    <2f68>   DW_AT_prototyped  : 1
    <2f68>   DW_AT_type        : <0x2cca>
    <2f6c>   DW_AT_declaration : 1
    <2f6c>   DW_AT_sibling     : <0x2f76>
 <2><2f70>: Abbrev Number: 15 (DW_TAG_formal_parameter)
    <2f71>   DW_AT_type        : <0x2ee5>
 <2><2f75>: Abbrev Number: 0
 <1><2f76>: Abbrev Number: 14 (DW_TAG_subprogram)
    <2f77>   DW_AT_external    : 1
    <2f77>   DW_AT_name        : (indirect string, offset: 0x42): fileno
    <2f7b>   DW_AT_decl_file   : 9
    <2f7c>   DW_AT_decl_line   : 786
    <2f7e>   DW_AT_decl_column : 12
    <2f7f>   DW_AT_prototyped  : 1
    <2f7f>   DW_AT_type        : <0x2cca>
    <2f83>   DW_AT_declaration : 1
    <2f83>   DW_AT_sibling     : <0x2f8d>
 <2><2f87>: Abbrev Number: 15 (DW_TAG_formal_parameter)
    <2f88>   DW_AT_type        : <0x2ee5>
 <2><2f8c>: Abbrev Number: 0
 <1><2f8d>: Abbrev Number: 17 (DW_TAG_subprogram)
    <2f8e>   DW_AT_external    : 1
    <2f8e>   DW_AT_name        : (indirect string, offset: 0x1aea): rpl_fclose
    <2f92>   DW_AT_decl_file   : 6
    <2f93>   DW_AT_decl_line   : 735
    <2f95>   DW_AT_decl_column : 1
    <2f96>   DW_AT_prototyped  : 1
    <2f96>   DW_AT_type        : <0x2cca>
    <2f9a>   DW_AT_low_pc      : 0x5575
    <2fa2>   DW_AT_high_pc     : 0xb9
    <2faa>   DW_AT_frame_base  : 1 byte block: 9c 	(DW_OP_call_frame_cfa)
    <2fac>   DW_AT_GNU_all_tail_call_sites: 1
 <2><2fac>: Abbrev Number: 18 (DW_TAG_formal_parameter)
    <2fad>   DW_AT_name        : fp
    <2fb0>   DW_AT_decl_file   : 1
    <2fb1>   DW_AT_decl_line   : 58
    <2fb2>   DW_AT_decl_column : 19
    <2fb3>   DW_AT_type        : <0x2ee5>
    <2fb7>   DW_AT_location    : 2 byte block: 91 58 	(DW_OP_fbreg: -40)
 <2><2fba>: Abbrev Number: 19 (DW_TAG_variable)
    <2fbb>   DW_AT_name        : (indirect string, offset: 0x24b8): saved_errno
    <2fbf>   DW_AT_decl_file   : 1
    <2fc0>   DW_AT_decl_line   : 60
    <2fc1>   DW_AT_decl_column : 7
    <2fc2>   DW_AT_type        : <0x2cca>
    <2fc6>   DW_AT_location    : 2 byte block: 91 64 	(DW_OP_fbreg: -28)
 <2><2fc9>: Abbrev Number: 20 (DW_TAG_variable)
    <2fca>   DW_AT_name        : fd
    <2fcd>   DW_AT_decl_file   : 1
    <2fce>   DW_AT_decl_line   : 61
    <2fcf>   DW_AT_decl_column : 7
    <2fd0>   DW_AT_type        : <0x2cca>
    <2fd4>   DW_AT_location    : 2 byte block: 91 6c 	(DW_OP_fbreg: -20)
 <2><2fd7>: Abbrev Number: 19 (DW_TAG_variable)
    <2fd8>   DW_AT_name        : (indirect string, offset: 0x2f84): result
    <2fdc>   DW_AT_decl_file   : 1
    <2fdd>   DW_AT_decl_line   : 62
    <2fde>   DW_AT_decl_column : 7
    <2fdf>   DW_AT_type        : <0x2cca>
    <2fe3>   DW_AT_location    : 2 byte block: 91 68 	(DW_OP_fbreg: -24)
 <2><2fe6>: Abbrev Number: 0
 <1><2fe7>: Abbrev Number: 0
  Compilation Unit @ offset 0x2fe8:
   Length:        0x34d (32-bit)
   Version:       4
   Abbrev Offset: 0x8d7
   Pointer Size:  8
 <0><2ff3>: Abbrev Number: 1 (DW_TAG_compile_unit)
    <2ff4>   DW_AT_producer    : (indirect string, offset: 0x81e): GNU C17 11.1.0 -mtune=generic -march=x86-64 -g -O0 -fasynchronous-unwind-tables -fstack-protector-strong -fstack-clash-protection -fcf-protection
    <2ff8>   DW_AT_language    : 12	(ANSI C99)
    <2ff9>   DW_AT_name        : (indirect string, offset: 0x24f7): lib/fflush.c
    <2ffd>   DW_AT_comp_dir    : (indirect string, offset: 0xb3f): /home/jacekline/dev/research/programs/coreutils-9.1
    <3001>   DW_AT_low_pc      : 0x562e
    <3009>   DW_AT_high_pc     : 0x87
    <3011>   DW_AT_stmt_list   : 0xdf1
 <1><3015>: Abbrev Number: 2 (DW_TAG_typedef)
    <3016>   DW_AT_name        : (indirect string, offset: 0x1155): size_t
    <301a>   DW_AT_decl_file   : 2
    <301b>   DW_AT_decl_line   : 209
    <301c>   DW_AT_decl_column : 23
    <301d>   DW_AT_type        : <0x3021>
 <1><3021>: Abbrev Number: 3 (DW_TAG_base_type)
    <3022>   DW_AT_byte_size   : 8
    <3023>   DW_AT_encoding    : 7	(unsigned)
    <3024>   DW_AT_name        : (indirect string, offset: 0x1bf6): long unsigned int
 <1><3028>: Abbrev Number: 3 (DW_TAG_base_type)
    <3029>   DW_AT_byte_size   : 4
    <302a>   DW_AT_encoding    : 7	(unsigned)
    <302b>   DW_AT_name        : (indirect string, offset: 0x1bfb): unsigned int
 <1><302f>: Abbrev Number: 4 (DW_TAG_pointer_type)
    <3030>   DW_AT_byte_size   : 8
 <1><3031>: Abbrev Number: 3 (DW_TAG_base_type)
    <3032>   DW_AT_byte_size   : 1
    <3033>   DW_AT_encoding    : 8	(unsigned char)
    <3034>   DW_AT_name        : (indirect string, offset: 0x7bf): unsigned char
 <1><3038>: Abbrev Number: 3 (DW_TAG_base_type)
    <3039>   DW_AT_byte_size   : 2
    <303a>   DW_AT_encoding    : 7	(unsigned)
    <303b>   DW_AT_name        : (indirect string, offset: 0x1116): short unsigned int
 <1><303f>: Abbrev Number: 3 (DW_TAG_base_type)
    <3040>   DW_AT_byte_size   : 1
    <3041>   DW_AT_encoding    : 6	(signed char)
    <3042>   DW_AT_name        : (indirect string, offset: 0x7c1): signed char
 <1><3046>: Abbrev Number: 3 (DW_TAG_base_type)
    <3047>   DW_AT_byte_size   : 2
    <3048>   DW_AT_encoding    : 5	(signed)
    <3049>   DW_AT_name        : (indirect string, offset: 0x21d3): short int
 <1><304d>: Abbrev Number: 5 (DW_TAG_base_type)
    <304e>   DW_AT_byte_size   : 4
    <304f>   DW_AT_encoding    : 5	(signed)
    <3050>   DW_AT_name        : int
 <1><3054>: Abbrev Number: 3 (DW_TAG_base_type)
    <3055>   DW_AT_byte_size   : 8
    <3056>   DW_AT_encoding    : 5	(signed)
    <3057>   DW_AT_name        : (indirect string, offset: 0x1ea4): long int
 <1><305b>: Abbrev Number: 2 (DW_TAG_typedef)
    <305c>   DW_AT_name        : (indirect string, offset: 0x2c5): __off_t
    <3060>   DW_AT_decl_file   : 3
    <3061>   DW_AT_decl_line   : 152
    <3062>   DW_AT_decl_column : 25
    <3063>   DW_AT_type        : <0x3054>
 <1><3067>: Abbrev Number: 2 (DW_TAG_typedef)
    <3068>   DW_AT_name        : (indirect string, offset: 0x120c): __off64_t
    <306c>   DW_AT_decl_file   : 3
    <306d>   DW_AT_decl_line   : 153
    <306e>   DW_AT_decl_column : 27
    <306f>   DW_AT_type        : <0x3054>
 <1><3073>: Abbrev Number: 6 (DW_TAG_pointer_type)
    <3074>   DW_AT_byte_size   : 8
    <3075>   DW_AT_type        : <0x3079>
 <1><3079>: Abbrev Number: 3 (DW_TAG_base_type)
    <307a>   DW_AT_byte_size   : 1
    <307b>   DW_AT_encoding    : 6	(signed char)
    <307c>   DW_AT_name        : (indirect string, offset: 0x7c8): char
 <1><3080>: Abbrev Number: 7 (DW_TAG_structure_type)
    <3081>   DW_AT_name        : (indirect string, offset: 0x16c9): _IO_FILE
    <3085>   DW_AT_byte_size   : 216
    <3086>   DW_AT_decl_file   : 4
    <3087>   DW_AT_decl_line   : 49
    <3088>   DW_AT_decl_column : 8
    <3089>   DW_AT_sibling     : <0x3207>
 <2><308d>: Abbrev Number: 8 (DW_TAG_member)
    <308e>   DW_AT_name        : (indirect string, offset: 0x160b): _flags
    <3092>   DW_AT_decl_file   : 4
    <3093>   DW_AT_decl_line   : 51
    <3094>   DW_AT_decl_column : 7
    <3095>   DW_AT_type        : <0x304d>
    <3099>   DW_AT_data_member_location: 0
 <2><309a>: Abbrev Number: 8 (DW_TAG_member)
    <309b>   DW_AT_name        : (indirect string, offset: 0x1cf2): _IO_read_ptr
    <309f>   DW_AT_decl_file   : 4
    <30a0>   DW_AT_decl_line   : 54
    <30a1>   DW_AT_decl_column : 9
    <30a2>   DW_AT_type        : <0x3073>
    <30a6>   DW_AT_data_member_location: 8
 <2><30a7>: Abbrev Number: 8 (DW_TAG_member)
    <30a8>   DW_AT_name        : (indirect string, offset: 0x16a5): _IO_read_end
    <30ac>   DW_AT_decl_file   : 4
    <30ad>   DW_AT_decl_line   : 55
    <30ae>   DW_AT_decl_column : 9
    <30af>   DW_AT_type        : <0x3073>
    <30b3>   DW_AT_data_member_location: 16
 <2><30b4>: Abbrev Number: 8 (DW_TAG_member)
    <30b5>   DW_AT_name        : (indirect string, offset: 0x123b): _IO_read_base
    <30b9>   DW_AT_decl_file   : 4
    <30ba>   DW_AT_decl_line   : 56
    <30bb>   DW_AT_decl_column : 9
    <30bc>   DW_AT_type        : <0x3073>
    <30c0>   DW_AT_data_member_location: 24
 <2><30c1>: Abbrev Number: 8 (DW_TAG_member)
    <30c2>   DW_AT_name        : (indirect string, offset: 0x12dd): _IO_write_base
    <30c6>   DW_AT_decl_file   : 4
    <30c7>   DW_AT_decl_line   : 57
    <30c8>   DW_AT_decl_column : 9
    <30c9>   DW_AT_type        : <0x3073>
    <30cd>   DW_AT_data_member_location: 32
 <2><30ce>: Abbrev Number: 8 (DW_TAG_member)
    <30cf>   DW_AT_name        : (indirect string, offset: 0x9ba): _IO_write_ptr
    <30d3>   DW_AT_decl_file   : 4
    <30d4>   DW_AT_decl_line   : 58
    <30d5>   DW_AT_decl_column : 9
    <30d6>   DW_AT_type        : <0x3073>
    <30da>   DW_AT_data_member_location: 40
 <2><30db>: Abbrev Number: 8 (DW_TAG_member)
    <30dc>   DW_AT_name        : (indirect string, offset: 0x4b3): _IO_write_end
    <30e0>   DW_AT_decl_file   : 4
    <30e1>   DW_AT_decl_line   : 59
    <30e2>   DW_AT_decl_column : 9
    <30e3>   DW_AT_type        : <0x3073>
    <30e7>   DW_AT_data_member_location: 48
 <2><30e8>: Abbrev Number: 8 (DW_TAG_member)
    <30e9>   DW_AT_name        : (indirect string, offset: 0x163e): _IO_buf_base
    <30ed>   DW_AT_decl_file   : 4
    <30ee>   DW_AT_decl_line   : 60
    <30ef>   DW_AT_decl_column : 9
    <30f0>   DW_AT_type        : <0x3073>
    <30f4>   DW_AT_data_member_location: 56
 <2><30f5>: Abbrev Number: 8 (DW_TAG_member)
    <30f6>   DW_AT_name        : (indirect string, offset: 0x1276): _IO_buf_end
    <30fa>   DW_AT_decl_file   : 4
    <30fb>   DW_AT_decl_line   : 61
    <30fc>   DW_AT_decl_column : 9
    <30fd>   DW_AT_type        : <0x3073>
    <3101>   DW_AT_data_member_location: 64
 <2><3102>: Abbrev Number: 8 (DW_TAG_member)
    <3103>   DW_AT_name        : (indirect string, offset: 0xbe6): _IO_save_base
    <3107>   DW_AT_decl_file   : 4
    <3108>   DW_AT_decl_line   : 64
    <3109>   DW_AT_decl_column : 9
    <310a>   DW_AT_type        : <0x3073>
    <310e>   DW_AT_data_member_location: 72
 <2><310f>: Abbrev Number: 8 (DW_TAG_member)
    <3110>   DW_AT_name        : (indirect string, offset: 0x1ccd): _IO_backup_base
    <3114>   DW_AT_decl_file   : 4
    <3115>   DW_AT_decl_line   : 65
    <3116>   DW_AT_decl_column : 9
    <3117>   DW_AT_type        : <0x3073>
    <311b>   DW_AT_data_member_location: 80
 <2><311c>: Abbrev Number: 8 (DW_TAG_member)
    <311d>   DW_AT_name        : (indirect string, offset: 0xf91): _IO_save_end
    <3121>   DW_AT_decl_file   : 4
    <3122>   DW_AT_decl_line   : 66
    <3123>   DW_AT_decl_column : 9
    <3124>   DW_AT_type        : <0x3073>
    <3128>   DW_AT_data_member_location: 88
 <2><3129>: Abbrev Number: 8 (DW_TAG_member)
    <312a>   DW_AT_name        : (indirect string, offset: 0x18dd): _markers
    <312e>   DW_AT_decl_file   : 4
    <312f>   DW_AT_decl_line   : 68
    <3130>   DW_AT_decl_column : 22
    <3131>   DW_AT_type        : <0x3220>
    <3135>   DW_AT_data_member_location: 96
 <2><3136>: Abbrev Number: 8 (DW_TAG_member)
    <3137>   DW_AT_name        : (indirect string, offset: 0x76d): _chain
    <313b>   DW_AT_decl_file   : 4
    <313c>   DW_AT_decl_line   : 70
    <313d>   DW_AT_decl_column : 20
    <313e>   DW_AT_type        : <0x3226>
    <3142>   DW_AT_data_member_location: 104
 <2><3143>: Abbrev Number: 8 (DW_TAG_member)
    <3144>   DW_AT_name        : (indirect string, offset: 0x41): _fileno
    <3148>   DW_AT_decl_file   : 4
    <3149>   DW_AT_decl_line   : 72
    <314a>   DW_AT_decl_column : 7
    <314b>   DW_AT_type        : <0x304d>
    <314f>   DW_AT_data_member_location: 112
 <2><3150>: Abbrev Number: 8 (DW_TAG_member)
    <3151>   DW_AT_name        : (indirect string, offset: 0x1ead): _flags2
    <3155>   DW_AT_decl_file   : 4
    <3156>   DW_AT_decl_line   : 73
    <3157>   DW_AT_decl_column : 7
    <3158>   DW_AT_type        : <0x304d>
    <315c>   DW_AT_data_member_location: 116
 <2><315d>: Abbrev Number: 8 (DW_TAG_member)
    <315e>   DW_AT_name        : (indirect string, offset: 0x1e2c): _old_offset
    <3162>   DW_AT_decl_file   : 4
    <3163>   DW_AT_decl_line   : 74
    <3164>   DW_AT_decl_column : 11
    <3165>   DW_AT_type        : <0x305b>
    <3169>   DW_AT_data_member_location: 120
 <2><316a>: Abbrev Number: 8 (DW_TAG_member)
    <316b>   DW_AT_name        : (indirect string, offset: 0x1c21): _cur_column
    <316f>   DW_AT_decl_file   : 4
    <3170>   DW_AT_decl_line   : 77
    <3171>   DW_AT_decl_column : 18
    <3172>   DW_AT_type        : <0x3038>
    <3176>   DW_AT_data_member_location: 128
 <2><3177>: Abbrev Number: 8 (DW_TAG_member)
    <3178>   DW_AT_name        : (indirect string, offset: 0x2217): _vtable_offset
    <317c>   DW_AT_decl_file   : 4
    <317d>   DW_AT_decl_line   : 78
    <317e>   DW_AT_decl_column : 15
    <317f>   DW_AT_type        : <0x303f>
    <3183>   DW_AT_data_member_location: 130
 <2><3184>: Abbrev Number: 8 (DW_TAG_member)
    <3185>   DW_AT_name        : (indirect string, offset: 0x22a): _shortbuf
    <3189>   DW_AT_decl_file   : 4
    <318a>   DW_AT_decl_line   : 79
    <318b>   DW_AT_decl_column : 8
    <318c>   DW_AT_type        : <0x322c>
    <3190>   DW_AT_data_member_location: 131
 <2><3191>: Abbrev Number: 8 (DW_TAG_member)
    <3192>   DW_AT_name        : (indirect string, offset: 0x311): _lock
    <3196>   DW_AT_decl_file   : 4
    <3197>   DW_AT_decl_line   : 81
    <3198>   DW_AT_decl_column : 15
    <3199>   DW_AT_type        : <0x323c>
    <319d>   DW_AT_data_member_location: 136
 <2><319e>: Abbrev Number: 8 (DW_TAG_member)
    <319f>   DW_AT_name        : (indirect string, offset: 0x1e30): _offset
    <31a3>   DW_AT_decl_file   : 4
    <31a4>   DW_AT_decl_line   : 89
    <31a5>   DW_AT_decl_column : 13
    <31a6>   DW_AT_type        : <0x3067>
    <31aa>   DW_AT_data_member_location: 144
 <2><31ab>: Abbrev Number: 8 (DW_TAG_member)
    <31ac>   DW_AT_name        : (indirect string, offset: 0x14c2): _codecvt
    <31b0>   DW_AT_decl_file   : 4
    <31b1>   DW_AT_decl_line   : 91
    <31b2>   DW_AT_decl_column : 23
    <31b3>   DW_AT_type        : <0x3247>
    <31b7>   DW_AT_data_member_location: 152
 <2><31b8>: Abbrev Number: 8 (DW_TAG_member)
    <31b9>   DW_AT_name        : (indirect string, offset: 0x16d5): _wide_data
    <31bd>   DW_AT_decl_file   : 4
    <31be>   DW_AT_decl_line   : 92
    <31bf>   DW_AT_decl_column : 25
    <31c0>   DW_AT_type        : <0x3252>
    <31c4>   DW_AT_data_member_location: 160
 <2><31c5>: Abbrev Number: 8 (DW_TAG_member)
    <31c6>   DW_AT_name        : (indirect string, offset: 0x1d57): _freeres_list
    <31ca>   DW_AT_decl_file   : 4
    <31cb>   DW_AT_decl_line   : 93
    <31cc>   DW_AT_decl_column : 20
    <31cd>   DW_AT_type        : <0x3226>
    <31d1>   DW_AT_data_member_location: 168
 <2><31d2>: Abbrev Number: 8 (DW_TAG_member)
    <31d3>   DW_AT_name        : (indirect string, offset: 0x1bbb): _freeres_buf
    <31d7>   DW_AT_decl_file   : 4
    <31d8>   DW_AT_decl_line   : 94
    <31d9>   DW_AT_decl_column : 9
    <31da>   DW_AT_type        : <0x302f>
    <31de>   DW_AT_data_member_location: 176
 <2><31df>: Abbrev Number: 8 (DW_TAG_member)
    <31e0>   DW_AT_name        : (indirect string, offset: 0x187b): __pad5
    <31e4>   DW_AT_decl_file   : 4
    <31e5>   DW_AT_decl_line   : 95
    <31e6>   DW_AT_decl_column : 10
    <31e7>   DW_AT_type        : <0x3015>
    <31eb>   DW_AT_data_member_location: 184
 <2><31ec>: Abbrev Number: 8 (DW_TAG_member)
    <31ed>   DW_AT_name        : (indirect string, offset: 0x150): _mode
    <31f1>   DW_AT_decl_file   : 4
    <31f2>   DW_AT_decl_line   : 96
    <31f3>   DW_AT_decl_column : 7
    <31f4>   DW_AT_type        : <0x304d>
    <31f8>   DW_AT_data_member_location: 192
 <2><31f9>: Abbrev Number: 8 (DW_TAG_member)
    <31fa>   DW_AT_name        : (indirect string, offset: 0x17): _unused2
    <31fe>   DW_AT_decl_file   : 4
    <31ff>   DW_AT_decl_line   : 98
    <3200>   DW_AT_decl_column : 8
    <3201>   DW_AT_type        : <0x3258>
    <3205>   DW_AT_data_member_location: 196
 <2><3206>: Abbrev Number: 0
 <1><3207>: Abbrev Number: 2 (DW_TAG_typedef)
    <3208>   DW_AT_name        : (indirect string, offset: 0x16cd): FILE
    <320c>   DW_AT_decl_file   : 5
    <320d>   DW_AT_decl_line   : 7
    <320e>   DW_AT_decl_column : 25
    <320f>   DW_AT_type        : <0x3080>
 <1><3213>: Abbrev Number: 9 (DW_TAG_typedef)
    <3214>   DW_AT_name        : (indirect string, offset: 0x813): _IO_lock_t
    <3218>   DW_AT_decl_file   : 4
    <3219>   DW_AT_decl_line   : 43
    <321a>   DW_AT_decl_column : 14
 <1><321b>: Abbrev Number: 10 (DW_TAG_structure_type)
    <321c>   DW_AT_name        : (indirect string, offset: 0x143e): _IO_marker
    <3220>   DW_AT_declaration : 1
 <1><3220>: Abbrev Number: 6 (DW_TAG_pointer_type)
    <3221>   DW_AT_byte_size   : 8
    <3222>   DW_AT_type        : <0x321b>
 <1><3226>: Abbrev Number: 6 (DW_TAG_pointer_type)
    <3227>   DW_AT_byte_size   : 8
    <3228>   DW_AT_type        : <0x3080>
 <1><322c>: Abbrev Number: 11 (DW_TAG_array_type)
    <322d>   DW_AT_type        : <0x3079>
    <3231>   DW_AT_sibling     : <0x323c>
 <2><3235>: Abbrev Number: 12 (DW_TAG_subrange_type)
    <3236>   DW_AT_type        : <0x3021>
    <323a>   DW_AT_upper_bound : 0
 <2><323b>: Abbrev Number: 0
 <1><323c>: Abbrev Number: 6 (DW_TAG_pointer_type)
    <323d>   DW_AT_byte_size   : 8
    <323e>   DW_AT_type        : <0x3213>
 <1><3242>: Abbrev Number: 10 (DW_TAG_structure_type)
    <3243>   DW_AT_name        : (indirect string, offset: 0x14bf): _IO_codecvt
    <3247>   DW_AT_declaration : 1
 <1><3247>: Abbrev Number: 6 (DW_TAG_pointer_type)
    <3248>   DW_AT_byte_size   : 8
    <3249>   DW_AT_type        : <0x3242>
 <1><324d>: Abbrev Number: 10 (DW_TAG_structure_type)
    <324e>   DW_AT_name        : (indirect string, offset: 0x16d2): _IO_wide_data
    <3252>   DW_AT_declaration : 1
 <1><3252>: Abbrev Number: 6 (DW_TAG_pointer_type)
    <3253>   DW_AT_byte_size   : 8
    <3254>   DW_AT_type        : <0x324d>
 <1><3258>: Abbrev Number: 11 (DW_TAG_array_type)
    <3259>   DW_AT_type        : <0x3079>
    <325d>   DW_AT_sibling     : <0x3268>
 <2><3261>: Abbrev Number: 12 (DW_TAG_subrange_type)
    <3262>   DW_AT_type        : <0x3021>
    <3266>   DW_AT_upper_bound : 19
 <2><3267>: Abbrev Number: 0
 <1><3268>: Abbrev Number: 2 (DW_TAG_typedef)
    <3269>   DW_AT_name        : (indirect string, offset: 0x2c7): off_t
    <326d>   DW_AT_decl_file   : 6
    <326e>   DW_AT_decl_line   : 63
    <326f>   DW_AT_decl_column : 17
    <3270>   DW_AT_type        : <0x305b>
 <1><3274>: Abbrev Number: 6 (DW_TAG_pointer_type)
    <3275>   DW_AT_byte_size   : 8
    <3276>   DW_AT_type        : <0x3207>
 <1><327a>: Abbrev Number: 3 (DW_TAG_base_type)
    <327b>   DW_AT_byte_size   : 8
    <327c>   DW_AT_encoding    : 5	(signed)
    <327d>   DW_AT_name        : (indirect string, offset: 0x1e9f): long long int
 <1><3281>: Abbrev Number: 3 (DW_TAG_base_type)
    <3282>   DW_AT_byte_size   : 16
    <3283>   DW_AT_encoding    : 4	(float)
    <3284>   DW_AT_name        : (indirect string, offset: 0x1507): long double
 <1><3288>: Abbrev Number: 3 (DW_TAG_base_type)
    <3289>   DW_AT_byte_size   : 8
    <328a>   DW_AT_encoding    : 7	(unsigned)
    <328b>   DW_AT_name        : (indirect string, offset: 0x1bf1): long long unsigned int
 <1><328f>: Abbrev Number: 13 (DW_TAG_subprogram)
    <3290>   DW_AT_external    : 1
    <3290>   DW_AT_name        : (indirect string, offset: 0x249e): fflush
    <3294>   DW_AT_decl_file   : 6
    <3295>   DW_AT_decl_line   : 218
    <3296>   DW_AT_decl_column : 12
    <3297>   DW_AT_prototyped  : 1
    <3297>   DW_AT_type        : <0x304d>
    <329b>   DW_AT_declaration : 1
    <329b>   DW_AT_sibling     : <0x32a5>
 <2><329f>: Abbrev Number: 14 (DW_TAG_formal_parameter)
    <32a0>   DW_AT_type        : <0x3274>
 <2><32a4>: Abbrev Number: 0
 <1><32a5>: Abbrev Number: 13 (DW_TAG_subprogram)
    <32a6>   DW_AT_external    : 1
    <32a6>   DW_AT_name        : (indirect string, offset: 0x248f): __freading
    <32aa>   DW_AT_decl_file   : 7
    <32ab>   DW_AT_decl_line   : 51
    <32ac>   DW_AT_decl_column : 12
    <32ad>   DW_AT_prototyped  : 1
    <32ad>   DW_AT_type        : <0x304d>
    <32b1>   DW_AT_declaration : 1
    <32b1>   DW_AT_sibling     : <0x32bb>
 <2><32b5>: Abbrev Number: 14 (DW_TAG_formal_parameter)
    <32b6>   DW_AT_type        : <0x3274>
 <2><32ba>: Abbrev Number: 0
 <1><32bb>: Abbrev Number: 15 (DW_TAG_subprogram)
    <32bc>   DW_AT_external    : 1
    <32bc>   DW_AT_name        : (indirect string, offset: 0x24c4): rpl_fseeko
    <32c0>   DW_AT_decl_file   : 8
    <32c1>   DW_AT_decl_line   : 1188
    <32c3>   DW_AT_decl_column : 1
    <32c4>   DW_AT_prototyped  : 1
    <32c4>   DW_AT_type        : <0x304d>
    <32c8>   DW_AT_declaration : 1
    <32c8>   DW_AT_sibling     : <0x32dc>
 <2><32cc>: Abbrev Number: 14 (DW_TAG_formal_parameter)
    <32cd>   DW_AT_type        : <0x3274>
 <2><32d1>: Abbrev Number: 14 (DW_TAG_formal_parameter)
    <32d2>   DW_AT_type        : <0x3268>
 <2><32d6>: Abbrev Number: 14 (DW_TAG_formal_parameter)
    <32d7>   DW_AT_type        : <0x304d>
 <2><32db>: Abbrev Number: 0
 <1><32dc>: Abbrev Number: 16 (DW_TAG_subprogram)
    <32dd>   DW_AT_external    : 1
    <32dd>   DW_AT_name        : (indirect string, offset: 0x249a): rpl_fflush
    <32e1>   DW_AT_decl_file   : 8
    <32e2>   DW_AT_decl_line   : 841
    <32e4>   DW_AT_decl_column : 1
    <32e5>   DW_AT_prototyped  : 1
    <32e5>   DW_AT_type        : <0x304d>
    <32e9>   DW_AT_low_pc      : 0x5666
    <32f1>   DW_AT_high_pc     : 0x4f
    <32f9>   DW_AT_frame_base  : 1 byte block: 9c 	(DW_OP_call_frame_cfa)
    <32fb>   DW_AT_GNU_all_tail_call_sites: 1
    <32fb>   DW_AT_sibling     : <0x330f>
 <2><32ff>: Abbrev Number: 17 (DW_TAG_formal_parameter)
    <3300>   DW_AT_name        : (indirect string, offset: 0x2436): stream
    <3304>   DW_AT_decl_file   : 1
    <3305>   DW_AT_decl_line   : 127
    <3306>   DW_AT_decl_column : 19
    <3307>   DW_AT_type        : <0x3274>
    <330b>   DW_AT_location    : 2 byte block: 91 68 	(DW_OP_fbreg: -24)
 <2><330e>: Abbrev Number: 0
 <1><330f>: Abbrev Number: 18 (DW_TAG_subprogram)
    <3310>   DW_AT_name        : (indirect string, offset: 0x24cf): clear_ungetc_buffer_preserving_position
    <3314>   DW_AT_decl_file   : 1
    <3315>   DW_AT_decl_line   : 39
    <3316>   DW_AT_decl_column : 1
    <3317>   DW_AT_prototyped  : 1
    <3317>   DW_AT_low_pc      : 0x562e
    <331f>   DW_AT_high_pc     : 0x38
    <3327>   DW_AT_frame_base  : 1 byte block: 9c 	(DW_OP_call_frame_cfa)
    <3329>   DW_AT_GNU_all_tail_call_sites: 1
 <2><3329>: Abbrev Number: 19 (DW_TAG_formal_parameter)
    <332a>   DW_AT_name        : fp
    <332d>   DW_AT_decl_file   : 1
    <332e>   DW_AT_decl_line   : 39
    <332f>   DW_AT_decl_column : 48
    <3330>   DW_AT_type        : <0x3274>
    <3334>   DW_AT_location    : 2 byte block: 91 68 	(DW_OP_fbreg: -24)
 <2><3337>: Abbrev Number: 0
 <1><3338>: Abbrev Number: 0
  Compilation Unit @ offset 0x3339:
   Length:        0x1513 (32-bit)
   Version:       4
   Abbrev Offset: 0x9f7
   Pointer Size:  8
 <0><3344>: Abbrev Number: 1 (DW_TAG_compile_unit)
    <3345>   DW_AT_producer    : (indirect string, offset: 0x81e): GNU C17 11.1.0 -mtune=generic -march=x86-64 -g -O0 -fasynchronous-unwind-tables -fstack-protector-strong -fstack-clash-protection -fcf-protection
    <3349>   DW_AT_language    : 12	(ANSI C99)
    <334a>   DW_AT_name        : (indirect string, offset: 0x256d): lib/fprintftime.c
    <334e>   DW_AT_comp_dir    : (indirect string, offset: 0xb3f): /home/jacekline/dev/research/programs/coreutils-9.1
    <3352>   DW_AT_low_pc      : 0x56b5
    <335a>   DW_AT_high_pc     : 0x2bae
    <3362>   DW_AT_stmt_list   : 0xf48
 <1><3366>: Abbrev Number: 2 (DW_TAG_pointer_type)
    <3367>   DW_AT_byte_size   : 8
    <3368>   DW_AT_type        : <0x3371>
 <1><336c>: Abbrev Number: 3 (DW_TAG_restrict_type)
    <336d>   DW_AT_type        : <0x3366>
 <1><3371>: Abbrev Number: 4 (DW_TAG_base_type)
    <3372>   DW_AT_byte_size   : 1
    <3373>   DW_AT_encoding    : 6	(signed char)
    <3374>   DW_AT_name        : (indirect string, offset: 0x7c8): char
 <1><3378>: Abbrev Number: 5 (DW_TAG_const_type)
    <3379>   DW_AT_type        : <0x3371>
 <1><337d>: Abbrev Number: 6 (DW_TAG_base_type)
    <337e>   DW_AT_byte_size   : 4
    <337f>   DW_AT_encoding    : 5	(signed)
    <3380>   DW_AT_name        : int
 <1><3384>: Abbrev Number: 7 (DW_TAG_typedef)
    <3385>   DW_AT_name        : (indirect string, offset: 0x1155): size_t
    <3389>   DW_AT_decl_file   : 2
    <338a>   DW_AT_decl_line   : 209
    <338b>   DW_AT_decl_column : 23
    <338c>   DW_AT_type        : <0x3390>
 <1><3390>: Abbrev Number: 4 (DW_TAG_base_type)
    <3391>   DW_AT_byte_size   : 8
    <3392>   DW_AT_encoding    : 7	(unsigned)
    <3393>   DW_AT_name        : (indirect string, offset: 0x1bf6): long unsigned int
 <1><3397>: Abbrev Number: 4 (DW_TAG_base_type)
    <3398>   DW_AT_byte_size   : 4
    <3399>   DW_AT_encoding    : 7	(unsigned)
    <339a>   DW_AT_name        : (indirect string, offset: 0x1bfb): unsigned int
 <1><339e>: Abbrev Number: 8 (DW_TAG_pointer_type)
    <339f>   DW_AT_byte_size   : 8
 <1><33a0>: Abbrev Number: 4 (DW_TAG_base_type)
    <33a1>   DW_AT_byte_size   : 1
    <33a2>   DW_AT_encoding    : 8	(unsigned char)
    <33a3>   DW_AT_name        : (indirect string, offset: 0x7bf): unsigned char
 <1><33a7>: Abbrev Number: 4 (DW_TAG_base_type)
    <33a8>   DW_AT_byte_size   : 2
    <33a9>   DW_AT_encoding    : 7	(unsigned)
    <33aa>   DW_AT_name        : (indirect string, offset: 0x1116): short unsigned int
 <1><33ae>: Abbrev Number: 4 (DW_TAG_base_type)
    <33af>   DW_AT_byte_size   : 1
    <33b0>   DW_AT_encoding    : 6	(signed char)
    <33b1>   DW_AT_name        : (indirect string, offset: 0x7c1): signed char
 <1><33b5>: Abbrev Number: 4 (DW_TAG_base_type)
    <33b6>   DW_AT_byte_size   : 2
    <33b7>   DW_AT_encoding    : 5	(signed)
    <33b8>   DW_AT_name        : (indirect string, offset: 0x21d3): short int
 <1><33bc>: Abbrev Number: 4 (DW_TAG_base_type)
    <33bd>   DW_AT_byte_size   : 8
    <33be>   DW_AT_encoding    : 5	(signed)
    <33bf>   DW_AT_name        : (indirect string, offset: 0x1ea4): long int
 <1><33c3>: Abbrev Number: 7 (DW_TAG_typedef)
    <33c4>   DW_AT_name        : (indirect string, offset: 0x2c5): __off_t
    <33c8>   DW_AT_decl_file   : 3
    <33c9>   DW_AT_decl_line   : 152
    <33ca>   DW_AT_decl_column : 25
    <33cb>   DW_AT_type        : <0x33bc>
 <1><33cf>: Abbrev Number: 7 (DW_TAG_typedef)
    <33d0>   DW_AT_name        : (indirect string, offset: 0x120c): __off64_t
    <33d4>   DW_AT_decl_file   : 3
    <33d5>   DW_AT_decl_line   : 153
    <33d6>   DW_AT_decl_column : 27
    <33d7>   DW_AT_type        : <0x33bc>
 <1><33db>: Abbrev Number: 7 (DW_TAG_typedef)
    <33dc>   DW_AT_name        : (indirect string, offset: 0x104a): __time_t
    <33e0>   DW_AT_decl_file   : 3
    <33e1>   DW_AT_decl_line   : 160
    <33e2>   DW_AT_decl_column : 26
    <33e3>   DW_AT_type        : <0x33bc>
 <1><33e7>: Abbrev Number: 9 (DW_TAG_structure_type)
    <33e8>   DW_AT_name        : (indirect string, offset: 0x16c9): _IO_FILE
    <33ec>   DW_AT_byte_size   : 216
    <33ed>   DW_AT_decl_file   : 4
    <33ee>   DW_AT_decl_line   : 49
    <33ef>   DW_AT_decl_column : 8
    <33f0>   DW_AT_sibling     : <0x356e>
 <2><33f4>: Abbrev Number: 10 (DW_TAG_member)
    <33f5>   DW_AT_name        : (indirect string, offset: 0x160b): _flags
    <33f9>   DW_AT_decl_file   : 4
    <33fa>   DW_AT_decl_line   : 51
    <33fb>   DW_AT_decl_column : 7
    <33fc>   DW_AT_type        : <0x337d>
    <3400>   DW_AT_data_member_location: 0
 <2><3401>: Abbrev Number: 10 (DW_TAG_member)
    <3402>   DW_AT_name        : (indirect string, offset: 0x1cf2): _IO_read_ptr
    <3406>   DW_AT_decl_file   : 4
    <3407>   DW_AT_decl_line   : 54
    <3408>   DW_AT_decl_column : 9
    <3409>   DW_AT_type        : <0x3366>
    <340d>   DW_AT_data_member_location: 8
 <2><340e>: Abbrev Number: 10 (DW_TAG_member)
    <340f>   DW_AT_name        : (indirect string, offset: 0x16a5): _IO_read_end
    <3413>   DW_AT_decl_file   : 4
    <3414>   DW_AT_decl_line   : 55
    <3415>   DW_AT_decl_column : 9
    <3416>   DW_AT_type        : <0x3366>
    <341a>   DW_AT_data_member_location: 16
 <2><341b>: Abbrev Number: 10 (DW_TAG_member)
    <341c>   DW_AT_name        : (indirect string, offset: 0x123b): _IO_read_base
    <3420>   DW_AT_decl_file   : 4
    <3421>   DW_AT_decl_line   : 56
    <3422>   DW_AT_decl_column : 9
    <3423>   DW_AT_type        : <0x3366>
    <3427>   DW_AT_data_member_location: 24
 <2><3428>: Abbrev Number: 10 (DW_TAG_member)
    <3429>   DW_AT_name        : (indirect string, offset: 0x12dd): _IO_write_base
    <342d>   DW_AT_decl_file   : 4
    <342e>   DW_AT_decl_line   : 57
    <342f>   DW_AT_decl_column : 9
    <3430>   DW_AT_type        : <0x3366>
    <3434>   DW_AT_data_member_location: 32
 <2><3435>: Abbrev Number: 10 (DW_TAG_member)
    <3436>   DW_AT_name        : (indirect string, offset: 0x9ba): _IO_write_ptr
    <343a>   DW_AT_decl_file   : 4
    <343b>   DW_AT_decl_line   : 58
    <343c>   DW_AT_decl_column : 9
    <343d>   DW_AT_type        : <0x3366>
    <3441>   DW_AT_data_member_location: 40
 <2><3442>: Abbrev Number: 10 (DW_TAG_member)
    <3443>   DW_AT_name        : (indirect string, offset: 0x4b3): _IO_write_end
    <3447>   DW_AT_decl_file   : 4
    <3448>   DW_AT_decl_line   : 59
    <3449>   DW_AT_decl_column : 9
    <344a>   DW_AT_type        : <0x3366>
    <344e>   DW_AT_data_member_location: 48
 <2><344f>: Abbrev Number: 10 (DW_TAG_member)
    <3450>   DW_AT_name        : (indirect string, offset: 0x163e): _IO_buf_base
    <3454>   DW_AT_decl_file   : 4
    <3455>   DW_AT_decl_line   : 60
    <3456>   DW_AT_decl_column : 9
    <3457>   DW_AT_type        : <0x3366>
    <345b>   DW_AT_data_member_location: 56
 <2><345c>: Abbrev Number: 10 (DW_TAG_member)
    <345d>   DW_AT_name        : (indirect string, offset: 0x1276): _IO_buf_end
    <3461>   DW_AT_decl_file   : 4
    <3462>   DW_AT_decl_line   : 61
    <3463>   DW_AT_decl_column : 9
    <3464>   DW_AT_type        : <0x3366>
    <3468>   DW_AT_data_member_location: 64
 <2><3469>: Abbrev Number: 10 (DW_TAG_member)
    <346a>   DW_AT_name        : (indirect string, offset: 0xbe6): _IO_save_base
    <346e>   DW_AT_decl_file   : 4
    <346f>   DW_AT_decl_line   : 64
    <3470>   DW_AT_decl_column : 9
    <3471>   DW_AT_type        : <0x3366>
    <3475>   DW_AT_data_member_location: 72
 <2><3476>: Abbrev Number: 10 (DW_TAG_member)
    <3477>   DW_AT_name        : (indirect string, offset: 0x1ccd): _IO_backup_base
    <347b>   DW_AT_decl_file   : 4
    <347c>   DW_AT_decl_line   : 65
    <347d>   DW_AT_decl_column : 9
    <347e>   DW_AT_type        : <0x3366>
    <3482>   DW_AT_data_member_location: 80
 <2><3483>: Abbrev Number: 10 (DW_TAG_member)
    <3484>   DW_AT_name        : (indirect string, offset: 0xf91): _IO_save_end
    <3488>   DW_AT_decl_file   : 4
    <3489>   DW_AT_decl_line   : 66
    <348a>   DW_AT_decl_column : 9
    <348b>   DW_AT_type        : <0x3366>
    <348f>   DW_AT_data_member_location: 88
 <2><3490>: Abbrev Number: 10 (DW_TAG_member)
    <3491>   DW_AT_name        : (indirect string, offset: 0x18dd): _markers
    <3495>   DW_AT_decl_file   : 4
    <3496>   DW_AT_decl_line   : 68
    <3497>   DW_AT_decl_column : 22
    <3498>   DW_AT_type        : <0x3587>
    <349c>   DW_AT_data_member_location: 96
 <2><349d>: Abbrev Number: 10 (DW_TAG_member)
    <349e>   DW_AT_name        : (indirect string, offset: 0x76d): _chain
    <34a2>   DW_AT_decl_file   : 4
    <34a3>   DW_AT_decl_line   : 70
    <34a4>   DW_AT_decl_column : 20
    <34a5>   DW_AT_type        : <0x358d>
    <34a9>   DW_AT_data_member_location: 104
 <2><34aa>: Abbrev Number: 10 (DW_TAG_member)
    <34ab>   DW_AT_name        : (indirect string, offset: 0x41): _fileno
    <34af>   DW_AT_decl_file   : 4
    <34b0>   DW_AT_decl_line   : 72
    <34b1>   DW_AT_decl_column : 7
    <34b2>   DW_AT_type        : <0x337d>
    <34b6>   DW_AT_data_member_location: 112
 <2><34b7>: Abbrev Number: 10 (DW_TAG_member)
    <34b8>   DW_AT_name        : (indirect string, offset: 0x1ead): _flags2
    <34bc>   DW_AT_decl_file   : 4
    <34bd>   DW_AT_decl_line   : 73
    <34be>   DW_AT_decl_column : 7
    <34bf>   DW_AT_type        : <0x337d>
    <34c3>   DW_AT_data_member_location: 116
 <2><34c4>: Abbrev Number: 10 (DW_TAG_member)
    <34c5>   DW_AT_name        : (indirect string, offset: 0x1e2c): _old_offset
    <34c9>   DW_AT_decl_file   : 4
    <34ca>   DW_AT_decl_line   : 74
    <34cb>   DW_AT_decl_column : 11
    <34cc>   DW_AT_type        : <0x33c3>
    <34d0>   DW_AT_data_member_location: 120
 <2><34d1>: Abbrev Number: 10 (DW_TAG_member)
    <34d2>   DW_AT_name        : (indirect string, offset: 0x1c21): _cur_column
    <34d6>   DW_AT_decl_file   : 4
    <34d7>   DW_AT_decl_line   : 77
    <34d8>   DW_AT_decl_column : 18
    <34d9>   DW_AT_type        : <0x33a7>
    <34dd>   DW_AT_data_member_location: 128
 <2><34de>: Abbrev Number: 10 (DW_TAG_member)
    <34df>   DW_AT_name        : (indirect string, offset: 0x2217): _vtable_offset
    <34e3>   DW_AT_decl_file   : 4
    <34e4>   DW_AT_decl_line   : 78
    <34e5>   DW_AT_decl_column : 15
    <34e6>   DW_AT_type        : <0x33ae>
    <34ea>   DW_AT_data_member_location: 130
 <2><34eb>: Abbrev Number: 10 (DW_TAG_member)
    <34ec>   DW_AT_name        : (indirect string, offset: 0x22a): _shortbuf
    <34f0>   DW_AT_decl_file   : 4
    <34f1>   DW_AT_decl_line   : 79
    <34f2>   DW_AT_decl_column : 8
    <34f3>   DW_AT_type        : <0x3593>
    <34f7>   DW_AT_data_member_location: 131
 <2><34f8>: Abbrev Number: 10 (DW_TAG_member)
    <34f9>   DW_AT_name        : (indirect string, offset: 0x311): _lock
    <34fd>   DW_AT_decl_file   : 4
    <34fe>   DW_AT_decl_line   : 81
    <34ff>   DW_AT_decl_column : 15
    <3500>   DW_AT_type        : <0x35a3>
    <3504>   DW_AT_data_member_location: 136
 <2><3505>: Abbrev Number: 10 (DW_TAG_member)
    <3506>   DW_AT_name        : (indirect string, offset: 0x1e30): _offset
    <350a>   DW_AT_decl_file   : 4
    <350b>   DW_AT_decl_line   : 89
    <350c>   DW_AT_decl_column : 13
    <350d>   DW_AT_type        : <0x33cf>
    <3511>   DW_AT_data_member_location: 144
 <2><3512>: Abbrev Number: 10 (DW_TAG_member)
    <3513>   DW_AT_name        : (indirect string, offset: 0x14c2): _codecvt
    <3517>   DW_AT_decl_file   : 4
    <3518>   DW_AT_decl_line   : 91
    <3519>   DW_AT_decl_column : 23
    <351a>   DW_AT_type        : <0x35ae>
    <351e>   DW_AT_data_member_location: 152
 <2><351f>: Abbrev Number: 10 (DW_TAG_member)
    <3520>   DW_AT_name        : (indirect string, offset: 0x16d5): _wide_data
    <3524>   DW_AT_decl_file   : 4
    <3525>   DW_AT_decl_line   : 92
    <3526>   DW_AT_decl_column : 25
    <3527>   DW_AT_type        : <0x35b9>
    <352b>   DW_AT_data_member_location: 160
 <2><352c>: Abbrev Number: 10 (DW_TAG_member)
    <352d>   DW_AT_name        : (indirect string, offset: 0x1d57): _freeres_list
    <3531>   DW_AT_decl_file   : 4
    <3532>   DW_AT_decl_line   : 93
    <3533>   DW_AT_decl_column : 20
    <3534>   DW_AT_type        : <0x358d>
    <3538>   DW_AT_data_member_location: 168
 <2><3539>: Abbrev Number: 10 (DW_TAG_member)
    <353a>   DW_AT_name        : (indirect string, offset: 0x1bbb): _freeres_buf
    <353e>   DW_AT_decl_file   : 4
    <353f>   DW_AT_decl_line   : 94
    <3540>   DW_AT_decl_column : 9
    <3541>   DW_AT_type        : <0x339e>
    <3545>   DW_AT_data_member_location: 176
 <2><3546>: Abbrev Number: 10 (DW_TAG_member)
    <3547>   DW_AT_name        : (indirect string, offset: 0x187b): __pad5
    <354b>   DW_AT_decl_file   : 4
    <354c>   DW_AT_decl_line   : 95
    <354d>   DW_AT_decl_column : 10
    <354e>   DW_AT_type        : <0x3384>
    <3552>   DW_AT_data_member_location: 184
 <2><3553>: Abbrev Number: 10 (DW_TAG_member)
    <3554>   DW_AT_name        : (indirect string, offset: 0x150): _mode
    <3558>   DW_AT_decl_file   : 4
    <3559>   DW_AT_decl_line   : 96
    <355a>   DW_AT_decl_column : 7
    <355b>   DW_AT_type        : <0x337d>
    <355f>   DW_AT_data_member_location: 192
 <2><3560>: Abbrev Number: 10 (DW_TAG_member)
    <3561>   DW_AT_name        : (indirect string, offset: 0x17): _unused2
    <3565>   DW_AT_decl_file   : 4
    <3566>   DW_AT_decl_line   : 98
    <3567>   DW_AT_decl_column : 8
    <3568>   DW_AT_type        : <0x35bf>
    <356c>   DW_AT_data_member_location: 196
 <2><356d>: Abbrev Number: 0
 <1><356e>: Abbrev Number: 7 (DW_TAG_typedef)
    <356f>   DW_AT_name        : (indirect string, offset: 0x16cd): FILE
    <3573>   DW_AT_decl_file   : 5
    <3574>   DW_AT_decl_line   : 7
    <3575>   DW_AT_decl_column : 25
    <3576>   DW_AT_type        : <0x33e7>
 <1><357a>: Abbrev Number: 11 (DW_TAG_typedef)
    <357b>   DW_AT_name        : (indirect string, offset: 0x813): _IO_lock_t
    <357f>   DW_AT_decl_file   : 4
    <3580>   DW_AT_decl_line   : 43
    <3581>   DW_AT_decl_column : 14
 <1><3582>: Abbrev Number: 12 (DW_TAG_structure_type)
    <3583>   DW_AT_name        : (indirect string, offset: 0x143e): _IO_marker
    <3587>   DW_AT_declaration : 1
 <1><3587>: Abbrev Number: 2 (DW_TAG_pointer_type)
    <3588>   DW_AT_byte_size   : 8
    <3589>   DW_AT_type        : <0x3582>
 <1><358d>: Abbrev Number: 2 (DW_TAG_pointer_type)
    <358e>   DW_AT_byte_size   : 8
    <358f>   DW_AT_type        : <0x33e7>
 <1><3593>: Abbrev Number: 13 (DW_TAG_array_type)
    <3594>   DW_AT_type        : <0x3371>
    <3598>   DW_AT_sibling     : <0x35a3>
 <2><359c>: Abbrev Number: 14 (DW_TAG_subrange_type)
    <359d>   DW_AT_type        : <0x3390>
    <35a1>   DW_AT_upper_bound : 0
 <2><35a2>: Abbrev Number: 0
 <1><35a3>: Abbrev Number: 2 (DW_TAG_pointer_type)
    <35a4>   DW_AT_byte_size   : 8
    <35a5>   DW_AT_type        : <0x357a>
 <1><35a9>: Abbrev Number: 12 (DW_TAG_structure_type)
    <35aa>   DW_AT_name        : (indirect string, offset: 0x14bf): _IO_codecvt
    <35ae>   DW_AT_declaration : 1
 <1><35ae>: Abbrev Number: 2 (DW_TAG_pointer_type)
    <35af>   DW_AT_byte_size   : 8
    <35b0>   DW_AT_type        : <0x35a9>
 <1><35b4>: Abbrev Number: 12 (DW_TAG_structure_type)
    <35b5>   DW_AT_name        : (indirect string, offset: 0x16d2): _IO_wide_data
    <35b9>   DW_AT_declaration : 1
 <1><35b9>: Abbrev Number: 2 (DW_TAG_pointer_type)
    <35ba>   DW_AT_byte_size   : 8
    <35bb>   DW_AT_type        : <0x35b4>
 <1><35bf>: Abbrev Number: 13 (DW_TAG_array_type)
    <35c0>   DW_AT_type        : <0x3371>
    <35c4>   DW_AT_sibling     : <0x35cf>
 <2><35c8>: Abbrev Number: 14 (DW_TAG_subrange_type)
    <35c9>   DW_AT_type        : <0x3390>
    <35cd>   DW_AT_upper_bound : 19
 <2><35ce>: Abbrev Number: 0
 <1><35cf>: Abbrev Number: 2 (DW_TAG_pointer_type)
    <35d0>   DW_AT_byte_size   : 8
    <35d1>   DW_AT_type        : <0x3378>
 <1><35d5>: Abbrev Number: 3 (DW_TAG_restrict_type)
    <35d6>   DW_AT_type        : <0x35cf>
 <1><35da>: Abbrev Number: 2 (DW_TAG_pointer_type)
    <35db>   DW_AT_byte_size   : 8
    <35dc>   DW_AT_type        : <0x356e>
 <1><35e0>: Abbrev Number: 3 (DW_TAG_restrict_type)
    <35e1>   DW_AT_type        : <0x35da>
 <1><35e5>: Abbrev Number: 4 (DW_TAG_base_type)
    <35e6>   DW_AT_byte_size   : 8
    <35e7>   DW_AT_encoding    : 5	(signed)
    <35e8>   DW_AT_name        : (indirect string, offset: 0x1e9f): long long int
 <1><35ec>: Abbrev Number: 4 (DW_TAG_base_type)
    <35ed>   DW_AT_byte_size   : 16
    <35ee>   DW_AT_encoding    : 4	(float)
    <35ef>   DW_AT_name        : (indirect string, offset: 0x1507): long double
 <1><35f3>: Abbrev Number: 7 (DW_TAG_typedef)
    <35f4>   DW_AT_name        : (indirect string, offset: 0x104c): time_t
    <35f8>   DW_AT_decl_file   : 6
    <35f9>   DW_AT_decl_line   : 7
    <35fa>   DW_AT_decl_column : 18
    <35fb>   DW_AT_type        : <0x33db>
 <1><35ff>: Abbrev Number: 4 (DW_TAG_base_type)
    <3600>   DW_AT_byte_size   : 8
    <3601>   DW_AT_encoding    : 7	(unsigned)
    <3602>   DW_AT_name        : (indirect string, offset: 0x1bf1): long long unsigned int
 <1><3606>: Abbrev Number: 15 (DW_TAG_structure_type)
    <3607>   DW_AT_name        : tm
    <360a>   DW_AT_byte_size   : 56
    <360b>   DW_AT_decl_file   : 7
    <360c>   DW_AT_decl_line   : 7
    <360d>   DW_AT_decl_column : 8
    <360e>   DW_AT_sibling     : <0x36a2>
 <2><3612>: Abbrev Number: 10 (DW_TAG_member)
    <3613>   DW_AT_name        : (indirect string, offset: 0x1180): tm_sec
    <3617>   DW_AT_decl_file   : 7
    <3618>   DW_AT_decl_line   : 9
    <3619>   DW_AT_decl_column : 7
    <361a>   DW_AT_type        : <0x337d>
    <361e>   DW_AT_data_member_location: 0
 <2><361f>: Abbrev Number: 10 (DW_TAG_member)
    <3620>   DW_AT_name        : (indirect string, offset: 0xf9e): tm_min
    <3624>   DW_AT_decl_file   : 7
    <3625>   DW_AT_decl_line   : 10
    <3626>   DW_AT_decl_column : 7
    <3627>   DW_AT_type        : <0x337d>
    <362b>   DW_AT_data_member_location: 4
 <2><362c>: Abbrev Number: 10 (DW_TAG_member)
    <362d>   DW_AT_name        : (indirect string, offset: 0x1708): tm_hour
    <3631>   DW_AT_decl_file   : 7
    <3632>   DW_AT_decl_line   : 11
    <3633>   DW_AT_decl_column : 7
    <3634>   DW_AT_type        : <0x337d>
    <3638>   DW_AT_data_member_location: 8
 <2><3639>: Abbrev Number: 10 (DW_TAG_member)
    <363a>   DW_AT_name        : (indirect string, offset: 0x186c): tm_mday
    <363e>   DW_AT_decl_file   : 7
    <363f>   DW_AT_decl_line   : 12
    <3640>   DW_AT_decl_column : 7
    <3641>   DW_AT_type        : <0x337d>
    <3645>   DW_AT_data_member_location: 12
 <2><3646>: Abbrev Number: 10 (DW_TAG_member)
    <3647>   DW_AT_name        : (indirect string, offset: 0x1372): tm_mon
    <364b>   DW_AT_decl_file   : 7
    <364c>   DW_AT_decl_line   : 13
    <364d>   DW_AT_decl_column : 7
    <364e>   DW_AT_type        : <0x337d>
    <3652>   DW_AT_data_member_location: 16
 <2><3653>: Abbrev Number: 10 (DW_TAG_member)
    <3654>   DW_AT_name        : (indirect string, offset: 0x344a): tm_year
    <3658>   DW_AT_decl_file   : 7
    <3659>   DW_AT_decl_line   : 14
    <365a>   DW_AT_decl_column : 7
    <365b>   DW_AT_type        : <0x337d>
    <365f>   DW_AT_data_member_location: 20
 <2><3660>: Abbrev Number: 10 (DW_TAG_member)
    <3661>   DW_AT_name        : (indirect string, offset: 0x1204): tm_wday
    <3665>   DW_AT_decl_file   : 7
    <3666>   DW_AT_decl_line   : 15
    <3667>   DW_AT_decl_column : 7
    <3668>   DW_AT_type        : <0x337d>
    <366c>   DW_AT_data_member_location: 24
 <2><366d>: Abbrev Number: 10 (DW_TAG_member)
    <366e>   DW_AT_name        : (indirect string, offset: 0x10a2): tm_yday
    <3672>   DW_AT_decl_file   : 7
    <3673>   DW_AT_decl_line   : 16
    <3674>   DW_AT_decl_column : 7
    <3675>   DW_AT_type        : <0x337d>
    <3679>   DW_AT_data_member_location: 28
 <2><367a>: Abbrev Number: 10 (DW_TAG_member)
    <367b>   DW_AT_name        : (indirect string, offset: 0x1c08): tm_isdst
    <367f>   DW_AT_decl_file   : 7
    <3680>   DW_AT_decl_line   : 17
    <3681>   DW_AT_decl_column : 7
    <3682>   DW_AT_type        : <0x337d>
    <3686>   DW_AT_data_member_location: 32
 <2><3687>: Abbrev Number: 10 (DW_TAG_member)
    <3688>   DW_AT_name        : (indirect string, offset: 0x1cb2): tm_gmtoff
    <368c>   DW_AT_decl_file   : 7
    <368d>   DW_AT_decl_line   : 20
    <368e>   DW_AT_decl_column : 12
    <368f>   DW_AT_type        : <0x33bc>
    <3693>   DW_AT_data_member_location: 40
 <2><3694>: Abbrev Number: 10 (DW_TAG_member)
    <3695>   DW_AT_name        : (indirect string, offset: 0x8f7): tm_zone
    <3699>   DW_AT_decl_file   : 7
    <369a>   DW_AT_decl_line   : 21
    <369b>   DW_AT_decl_column : 15
    <369c>   DW_AT_type        : <0x35cf>
    <36a0>   DW_AT_data_member_location: 48
 <2><36a1>: Abbrev Number: 0
 <1><36a2>: Abbrev Number: 5 (DW_TAG_const_type)
    <36a3>   DW_AT_type        : <0x3606>
 <1><36a7>: Abbrev Number: 16 (DW_TAG_typedef)
    <36a8>   DW_AT_name        : (indirect string, offset: 0x19c4): timezone_t
    <36ac>   DW_AT_decl_file   : 8
    <36ad>   DW_AT_decl_line   : 867
    <36af>   DW_AT_decl_column : 25
    <36b0>   DW_AT_type        : <0x36b4>
 <1><36b4>: Abbrev Number: 2 (DW_TAG_pointer_type)
    <36b5>   DW_AT_byte_size   : 8
    <36b6>   DW_AT_type        : <0x36ba>
 <1><36ba>: Abbrev Number: 9 (DW_TAG_structure_type)
    <36bb>   DW_AT_name        : (indirect string, offset: 0x8f7): tm_zone
    <36bf>   DW_AT_byte_size   : 16
    <36c0>   DW_AT_decl_file   : 9
    <36c1>   DW_AT_decl_line   : 21
    <36c2>   DW_AT_decl_column : 8
    <36c3>   DW_AT_sibling     : <0x36ef>
 <2><36c7>: Abbrev Number: 10 (DW_TAG_member)
    <36c8>   DW_AT_name        : (indirect string, offset: 0x251b): next
    <36cc>   DW_AT_decl_file   : 9
    <36cd>   DW_AT_decl_line   : 25
    <36ce>   DW_AT_decl_column : 19
    <36cf>   DW_AT_type        : <0x36b4>
    <36d3>   DW_AT_data_member_location: 0
 <2><36d4>: Abbrev Number: 10 (DW_TAG_member)
    <36d5>   DW_AT_name        : (indirect string, offset: 0x25e7): tz_is_set
    <36d9>   DW_AT_decl_file   : 9
    <36da>   DW_AT_decl_line   : 36
    <36db>   DW_AT_decl_column : 8
    <36dc>   DW_AT_type        : <0x3371>
    <36e0>   DW_AT_data_member_location: 8
 <2><36e1>: Abbrev Number: 10 (DW_TAG_member)
    <36e2>   DW_AT_name        : (indirect string, offset: 0x3c13): abbrs
    <36e6>   DW_AT_decl_file   : 9
    <36e7>   DW_AT_decl_line   : 48
    <36e8>   DW_AT_decl_column : 8
    <36e9>   DW_AT_type        : <0x36ef>
    <36ed>   DW_AT_data_member_location: 9
 <2><36ee>: Abbrev Number: 0
 <1><36ef>: Abbrev Number: 13 (DW_TAG_array_type)
    <36f0>   DW_AT_type        : <0x3371>
    <36f4>   DW_AT_sibling     : <0x36fe>
 <2><36f8>: Abbrev Number: 17 (DW_TAG_subrange_type)
    <36f9>   DW_AT_type        : <0x3390>
 <2><36fd>: Abbrev Number: 0
 <1><36fe>: Abbrev Number: 2 (DW_TAG_pointer_type)
    <36ff>   DW_AT_byte_size   : 8
    <3700>   DW_AT_type        : <0x3709>
 <1><3704>: Abbrev Number: 3 (DW_TAG_restrict_type)
    <3705>   DW_AT_type        : <0x36fe>
 <1><3709>: Abbrev Number: 18 (DW_TAG_const_type)
 <1><370a>: Abbrev Number: 19 (DW_TAG_subprogram)
    <370b>   DW_AT_external    : 1
    <370b>   DW_AT_name        : (indirect string, offset: 0x234e): strlen
    <370f>   DW_AT_decl_file   : 10
    <3710>   DW_AT_decl_line   : 385
    <3712>   DW_AT_decl_column : 15
    <3713>   DW_AT_prototyped  : 1
    <3713>   DW_AT_type        : <0x3384>
    <3717>   DW_AT_declaration : 1
    <3717>   DW_AT_sibling     : <0x3721>
 <2><371b>: Abbrev Number: 20 (DW_TAG_formal_parameter)
    <371c>   DW_AT_type        : <0x35cf>
 <2><3720>: Abbrev Number: 0
 <1><3721>: Abbrev Number: 19 (DW_TAG_subprogram)
    <3722>   DW_AT_external    : 1
    <3722>   DW_AT_name        : (indirect string, offset: 0x26c9): mktime_z
    <3726>   DW_AT_decl_file   : 8
    <3727>   DW_AT_decl_line   : 903
    <3729>   DW_AT_decl_column : 1
    <372a>   DW_AT_prototyped  : 1
    <372a>   DW_AT_type        : <0x35f3>
    <372e>   DW_AT_declaration : 1
    <372e>   DW_AT_sibling     : <0x373d>
 <2><3732>: Abbrev Number: 20 (DW_TAG_formal_parameter)
    <3733>   DW_AT_type        : <0x36a7>
 <2><3737>: Abbrev Number: 20 (DW_TAG_formal_parameter)
    <3738>   DW_AT_type        : <0x3743>
 <2><373c>: Abbrev Number: 0
 <1><373d>: Abbrev Number: 2 (DW_TAG_pointer_type)
    <373e>   DW_AT_byte_size   : 8
    <373f>   DW_AT_type        : <0x3606>
 <1><3743>: Abbrev Number: 3 (DW_TAG_restrict_type)
    <3744>   DW_AT_type        : <0x373d>
 <1><3748>: Abbrev Number: 19 (DW_TAG_subprogram)
    <3749>   DW_AT_external    : 1
    <3749>   DW_AT_name        : (indirect string, offset: 0x27a4): fwrite
    <374d>   DW_AT_decl_file   : 11
    <374e>   DW_AT_decl_line   : 652
    <3750>   DW_AT_decl_column : 15
    <3751>   DW_AT_prototyped  : 1
    <3751>   DW_AT_type        : <0x3384>
    <3755>   DW_AT_declaration : 1
    <3755>   DW_AT_sibling     : <0x376e>
 <2><3759>: Abbrev Number: 20 (DW_TAG_formal_parameter)
    <375a>   DW_AT_type        : <0x3704>
 <2><375e>: Abbrev Number: 20 (DW_TAG_formal_parameter)
    <375f>   DW_AT_type        : <0x3384>
 <2><3763>: Abbrev Number: 20 (DW_TAG_formal_parameter)
    <3764>   DW_AT_type        : <0x3384>
 <2><3768>: Abbrev Number: 20 (DW_TAG_formal_parameter)
    <3769>   DW_AT_type        : <0x35e0>
 <2><376d>: Abbrev Number: 0
 <1><376e>: Abbrev Number: 21 (DW_TAG_subprogram)
    <376f>   DW_AT_external    : 1
    <376f>   DW_AT_name        : (indirect string, offset: 0x258a): strftime
    <3773>   DW_AT_decl_file   : 12
    <3774>   DW_AT_decl_line   : 88
    <3775>   DW_AT_decl_column : 15
    <3776>   DW_AT_prototyped  : 1
    <3776>   DW_AT_type        : <0x3384>
    <377a>   DW_AT_declaration : 1
    <377a>   DW_AT_sibling     : <0x3793>
 <2><377e>: Abbrev Number: 20 (DW_TAG_formal_parameter)
    <377f>   DW_AT_type        : <0x336c>
 <2><3783>: Abbrev Number: 20 (DW_TAG_formal_parameter)
    <3784>   DW_AT_type        : <0x3384>
 <2><3788>: Abbrev Number: 20 (DW_TAG_formal_parameter)
    <3789>   DW_AT_type        : <0x35d5>
 <2><378d>: Abbrev Number: 20 (DW_TAG_formal_parameter)
    <378e>   DW_AT_type        : <0x3799>
 <2><3792>: Abbrev Number: 0
 <1><3793>: Abbrev Number: 2 (DW_TAG_pointer_type)
    <3794>   DW_AT_byte_size   : 8
    <3795>   DW_AT_type        : <0x36a2>
 <1><3799>: Abbrev Number: 3 (DW_TAG_restrict_type)
    <379a>   DW_AT_type        : <0x3793>
 <1><379e>: Abbrev Number: 22 (DW_TAG_subprogram)
    <379f>   DW_AT_external    : 1
    <379f>   DW_AT_name        : (indirect string, offset: 0x15d5): __errno_location
    <37a3>   DW_AT_decl_file   : 14
    <37a4>   DW_AT_decl_line   : 37
    <37a5>   DW_AT_decl_column : 13
    <37a6>   DW_AT_prototyped  : 1
    <37a6>   DW_AT_type        : <0x37aa>
    <37aa>   DW_AT_declaration : 1
 <1><37aa>: Abbrev Number: 2 (DW_TAG_pointer_type)
    <37ab>   DW_AT_byte_size   : 8
    <37ac>   DW_AT_type        : <0x337d>
 <1><37b0>: Abbrev Number: 21 (DW_TAG_subprogram)
    <37b1>   DW_AT_external    : 1
    <37b1>   DW_AT_name        : (indirect string, offset: 0x31e6): toupper
    <37b5>   DW_AT_decl_file   : 13
    <37b6>   DW_AT_decl_line   : 125
    <37b7>   DW_AT_decl_column : 12
    <37b8>   DW_AT_prototyped  : 1
    <37b8>   DW_AT_type        : <0x337d>
    <37bc>   DW_AT_declaration : 1
    <37bc>   DW_AT_sibling     : <0x37c6>
 <2><37c0>: Abbrev Number: 20 (DW_TAG_formal_parameter)
    <37c1>   DW_AT_type        : <0x337d>
 <2><37c5>: Abbrev Number: 0
 <1><37c6>: Abbrev Number: 19 (DW_TAG_subprogram)
    <37c7>   DW_AT_external    : 1
    <37c7>   DW_AT_name        : (indirect string, offset: 0x2593): fputc
    <37cb>   DW_AT_decl_file   : 11
    <37cc>   DW_AT_decl_line   : 521
    <37ce>   DW_AT_decl_column : 12
    <37cf>   DW_AT_prototyped  : 1
    <37cf>   DW_AT_type        : <0x337d>
    <37d3>   DW_AT_declaration : 1
    <37d3>   DW_AT_sibling     : <0x37e2>
 <2><37d7>: Abbrev Number: 20 (DW_TAG_formal_parameter)
    <37d8>   DW_AT_type        : <0x337d>
 <2><37dc>: Abbrev Number: 20 (DW_TAG_formal_parameter)
    <37dd>   DW_AT_type        : <0x35da>
 <2><37e1>: Abbrev Number: 0
 <1><37e2>: Abbrev Number: 21 (DW_TAG_subprogram)
    <37e3>   DW_AT_external    : 1
    <37e3>   DW_AT_name        : (indirect string, offset: 0x40d8): tolower
    <37e7>   DW_AT_decl_file   : 13
    <37e8>   DW_AT_decl_line   : 122
    <37e9>   DW_AT_decl_column : 12
    <37ea>   DW_AT_prototyped  : 1
    <37ea>   DW_AT_type        : <0x337d>
    <37ee>   DW_AT_declaration : 1
    <37ee>   DW_AT_sibling     : <0x37f8>
 <2><37f2>: Abbrev Number: 20 (DW_TAG_formal_parameter)
    <37f3>   DW_AT_type        : <0x337d>
 <2><37f7>: Abbrev Number: 0
 <1><37f8>: Abbrev Number: 23 (DW_TAG_subprogram)
    <37f9>   DW_AT_name        : (indirect string, offset: 0x26f2): __strftime_internal
    <37fd>   DW_AT_decl_file   : 1
    <37fe>   DW_AT_decl_line   : 435
    <3800>   DW_AT_decl_column : 1
    <3801>   DW_AT_prototyped  : 1
    <3801>   DW_AT_type        : <0x3384>
    <3805>   DW_AT_low_pc      : 0x5831
    <380d>   DW_AT_high_pc     : 0x2a32
    <3815>   DW_AT_frame_base  : 1 byte block: 9c 	(DW_OP_call_frame_cfa)
    <3817>   DW_AT_GNU_all_tail_call_sites: 1
    <3817>   DW_AT_sibling     : <0x46a3>
 <2><381b>: Abbrev Number: 24 (DW_TAG_formal_parameter)
    <381c>   DW_AT_name        : s
    <381e>   DW_AT_decl_file   : 1
    <381f>   DW_AT_decl_line   : 435
    <3821>   DW_AT_decl_column : 40
    <3822>   DW_AT_type        : <0x35da>
    <3826>   DW_AT_location    : 3 byte block: 91 d8 70 	(DW_OP_fbreg: -1960)
 <2><382a>: Abbrev Number: 25 (DW_TAG_formal_parameter)
    <382b>   DW_AT_name        : (indirect string, offset: 0x4f4): format
    <382f>   DW_AT_decl_file   : 1
    <3830>   DW_AT_decl_line   : 436
    <3832>   DW_AT_decl_column : 36
    <3833>   DW_AT_type        : <0x35cf>
    <3837>   DW_AT_location    : 3 byte block: 91 d0 70 	(DW_OP_fbreg: -1968)
 <2><383b>: Abbrev Number: 24 (DW_TAG_formal_parameter)
    <383c>   DW_AT_name        : tp
    <383f>   DW_AT_decl_file   : 1
    <3840>   DW_AT_decl_line   : 437
    <3842>   DW_AT_decl_column : 39
    <3843>   DW_AT_type        : <0x3793>
    <3847>   DW_AT_location    : 3 byte block: 91 c8 70 	(DW_OP_fbreg: -1976)
 <2><384b>: Abbrev Number: 25 (DW_TAG_formal_parameter)
    <384c>   DW_AT_name        : (indirect string, offset: 0x25f1): upcase
    <3850>   DW_AT_decl_file   : 1
    <3851>   DW_AT_decl_line   : 437
    <3853>   DW_AT_decl_column : 48
    <3854>   DW_AT_type        : <0x46a3>
    <3858>   DW_AT_location    : 3 byte block: 91 c4 70 	(DW_OP_fbreg: -1980)
 <2><385c>: Abbrev Number: 25 (DW_TAG_formal_parameter)
    <385d>   DW_AT_name        : (indirect string, offset: 0x2665): yr_spec
    <3861>   DW_AT_decl_file   : 1
    <3862>   DW_AT_decl_line   : 438
    <3864>   DW_AT_decl_column : 26
    <3865>   DW_AT_type        : <0x337d>
    <3869>   DW_AT_location    : 3 byte block: 91 c0 70 	(DW_OP_fbreg: -1984)
 <2><386d>: Abbrev Number: 25 (DW_TAG_formal_parameter)
    <386e>   DW_AT_name        : (indirect string, offset: 0x5c8): width
    <3872>   DW_AT_decl_file   : 1
    <3873>   DW_AT_decl_line   : 438
    <3875>   DW_AT_decl_column : 39
    <3876>   DW_AT_type        : <0x337d>
    <387a>   DW_AT_location    : 3 byte block: 91 bc 70 	(DW_OP_fbreg: -1988)
 <2><387e>: Abbrev Number: 25 (DW_TAG_formal_parameter)
    <387f>   DW_AT_name        : (indirect string, offset: 0x2555): tzset_called
    <3883>   DW_AT_decl_file   : 1
    <3884>   DW_AT_decl_line   : 438
    <3886>   DW_AT_decl_column : 52
    <3887>   DW_AT_type        : <0x46aa>
    <388b>   DW_AT_location    : 3 byte block: 91 b0 70 	(DW_OP_fbreg: -2000)
 <2><388f>: Abbrev Number: 24 (DW_TAG_formal_parameter)
    <3890>   DW_AT_name        : tz
    <3893>   DW_AT_decl_file   : 1
    <3894>   DW_AT_decl_line   : 439
    <3896>   DW_AT_decl_column : 22
    <3897>   DW_AT_type        : <0x36a7>
    <389b>   DW_AT_location    : 3 byte block: 91 a8 70 	(DW_OP_fbreg: -2008)
 <2><389f>: Abbrev Number: 24 (DW_TAG_formal_parameter)
    <38a0>   DW_AT_name        : ns
    <38a3>   DW_AT_decl_file   : 1
    <38a4>   DW_AT_decl_line   : 439
    <38a6>   DW_AT_decl_column : 22
    <38a7>   DW_AT_type        : <0x337d>
    <38ab>   DW_AT_location    : 2 byte block: 91 10 	(DW_OP_fbreg: 16)
 <2><38ae>: Abbrev Number: 26 (DW_TAG_variable)
    <38af>   DW_AT_name        : (indirect string, offset: 0x2607): maxsize
    <38b3>   DW_AT_decl_file   : 1
    <38b4>   DW_AT_decl_line   : 445
    <38b6>   DW_AT_decl_column : 10
    <38b7>   DW_AT_type        : <0x3384>
    <38bb>   DW_AT_location    : 3 byte block: 91 e8 73 	(DW_OP_fbreg: -1560)
 <2><38bf>: Abbrev Number: 26 (DW_TAG_variable)
    <38c0>   DW_AT_name        : (indirect string, offset: 0x24b8): saved_errno
    <38c4>   DW_AT_decl_file   : 1
    <38c5>   DW_AT_decl_line   : 448
    <38c7>   DW_AT_decl_column : 7
    <38c8>   DW_AT_type        : <0x337d>
    <38cc>   DW_AT_location    : 3 byte block: 91 a8 71 	(DW_OP_fbreg: -1880)
 <2><38d0>: Abbrev Number: 26 (DW_TAG_variable)
    <38d1>   DW_AT_name        : (indirect string, offset: 0x2731): hour12
    <38d5>   DW_AT_decl_file   : 1
    <38d6>   DW_AT_decl_line   : 449
    <38d8>   DW_AT_decl_column : 7
    <38d9>   DW_AT_type        : <0x337d>
    <38dd>   DW_AT_location    : 3 byte block: 91 ec 70 	(DW_OP_fbreg: -1940)
 <2><38e1>: Abbrev Number: 26 (DW_TAG_variable)
    <38e2>   DW_AT_name        : (indirect string, offset: 0x29de): zone
    <38e6>   DW_AT_decl_file   : 1
    <38e7>   DW_AT_decl_line   : 487
    <38e9>   DW_AT_decl_column : 15
    <38ea>   DW_AT_type        : <0x35cf>
    <38ee>   DW_AT_location    : 3 byte block: 91 e0 71 	(DW_OP_fbreg: -1824)
 <2><38f2>: Abbrev Number: 27 (DW_TAG_variable)
    <38f3>   DW_AT_name        : i
    <38f5>   DW_AT_decl_file   : 1
    <38f6>   DW_AT_decl_line   : 488
    <38f8>   DW_AT_decl_column : 10
    <38f9>   DW_AT_type        : <0x3384>
    <38fd>   DW_AT_location    : 3 byte block: 91 e8 71 	(DW_OP_fbreg: -1816)
 <2><3901>: Abbrev Number: 27 (DW_TAG_variable)
    <3902>   DW_AT_name        : p
    <3904>   DW_AT_decl_file   : 1
    <3905>   DW_AT_decl_line   : 489
    <3907>   DW_AT_decl_column : 21
    <3908>   DW_AT_type        : <0x35da>
    <390c>   DW_AT_location    : 3 byte block: 91 f0 73 	(DW_OP_fbreg: -1552)
 <2><3910>: Abbrev Number: 27 (DW_TAG_variable)
    <3911>   DW_AT_name        : f
    <3913>   DW_AT_decl_file   : 1
    <3914>   DW_AT_decl_line   : 490
    <3916>   DW_AT_decl_column : 17
    <3917>   DW_AT_type        : <0x35cf>
    <391b>   DW_AT_location    : 3 byte block: 91 f0 71 	(DW_OP_fbreg: -1808)
 <2><391f>: Abbrev Number: 28 (DW_TAG_label)
    <3920>   DW_AT_name        : (indirect string, offset: 0x26b6): bad_percent
    <3924>   DW_AT_decl_file   : 1
    <3925>   DW_AT_decl_line   : 1471
    <3927>   DW_AT_decl_column : 9
    <3928>   DW_AT_low_pc      : 0x7fee
 <2><3930>: Abbrev Number: 28 (DW_TAG_label)
    <3931>   DW_AT_name        : (indirect string, offset: 0x2562): bad_format
    <3935>   DW_AT_decl_file   : 1
    <3936>   DW_AT_decl_line   : 1478
    <3938>   DW_AT_decl_column : 9
    <3939>   DW_AT_low_pc      : 0x803b
 <2><3941>: Abbrev Number: 28 (DW_TAG_label)
    <3942>   DW_AT_name        : (indirect string, offset: 0x257f): underlying_strftime
    <3946>   DW_AT_decl_file   : 1
    <3947>   DW_AT_decl_line   : 860
    <3949>   DW_AT_decl_column : 9
    <394a>   DW_AT_low_pc      : 0x6121
 <2><3952>: Abbrev Number: 28 (DW_TAG_label)
    <3953>   DW_AT_name        : (indirect string, offset: 0x2706): subformat
    <3957>   DW_AT_decl_file   : 1
    <3958>   DW_AT_decl_line   : 843
    <395a>   DW_AT_decl_column : 9
    <395b>   DW_AT_low_pc      : 0x5f05
 <2><3963>: Abbrev Number: 28 (DW_TAG_label)
    <3964>   DW_AT_name        : (indirect string, offset: 0x2675): subformat_width
    <3968>   DW_AT_decl_file   : 1
    <3969>   DW_AT_decl_line   : 845
    <396b>   DW_AT_decl_column : 9
    <396c>   DW_AT_low_pc      : 0x5f0f
 <2><3974>: Abbrev Number: 28 (DW_TAG_label)
    <3975>   DW_AT_name        : (indirect string, offset: 0x25cc): do_yearish
    <3979>   DW_AT_decl_file   : 1
    <397a>   DW_AT_decl_line   : 958
    <397c>   DW_AT_decl_column : 9
    <397d>   DW_AT_low_pc      : 0x64f4
 <2><3985>: Abbrev Number: 28 (DW_TAG_label)
    <3986>   DW_AT_name        : (indirect string, offset: 0x2647): do_number
    <398a>   DW_AT_decl_file   : 1
    <398b>   DW_AT_decl_line   : 971
    <398d>   DW_AT_decl_column : 9
    <398e>   DW_AT_low_pc      : 0x656e
 <2><3996>: Abbrev Number: 28 (DW_TAG_label)
    <3997>   DW_AT_name        : (indirect string, offset: 0x2742): do_number_spacepad
    <399b>   DW_AT_decl_file   : 1
    <399c>   DW_AT_decl_line   : 967
    <399e>   DW_AT_decl_column : 9
    <399f>   DW_AT_low_pc      : 0x6558
 <2><39a7>: Abbrev Number: 28 (DW_TAG_label)
    <39a8>   DW_AT_name        : (indirect string, offset: 0x2504): do_tz_offset
    <39ac>   DW_AT_decl_file   : 1
    <39ad>   DW_AT_decl_line   : 954
    <39af>   DW_AT_decl_column : 9
    <39b0>   DW_AT_low_pc      : 0x64e8
 <2><39b8>: Abbrev Number: 28 (DW_TAG_label)
    <39b9>   DW_AT_name        : (indirect string, offset: 0x271b): do_number_body
    <39bd>   DW_AT_decl_file   : 1
    <39be>   DW_AT_decl_line   : 982
    <39c0>   DW_AT_decl_column : 9
    <39c1>   DW_AT_low_pc      : 0x659a
 <2><39c9>: Abbrev Number: 28 (DW_TAG_label)
    <39ca>   DW_AT_name        : (indirect string, offset: 0x275e): do_maybe_signed_number
    <39ce>   DW_AT_decl_file   : 1
    <39cf>   DW_AT_decl_line   : 979
    <39d1>   DW_AT_decl_column : 9
    <39d2>   DW_AT_low_pc      : 0x6590
 <2><39da>: Abbrev Number: 28 (DW_TAG_label)
    <39db>   DW_AT_name        : (indirect string, offset: 0x2538): do_signed_number
    <39df>   DW_AT_decl_file   : 1
    <39e0>   DW_AT_decl_line   : 976
    <39e2>   DW_AT_decl_column : 9
    <39e3>   DW_AT_low_pc      : 0x6589
 <2><39eb>: Abbrev Number: 28 (DW_TAG_label)
    <39ec>   DW_AT_name        : (indirect string, offset: 0x26d7): do_number_sign_and_padding
    <39f0>   DW_AT_decl_file   : 1
    <39f1>   DW_AT_decl_line   : 1025
    <39f3>   DW_AT_decl_column : 9
    <39f4>   DW_AT_low_pc      : 0x6673
 <2><39fc>: Abbrev Number: 28 (DW_TAG_label)
    <39fd>   DW_AT_name        : (indirect string, offset: 0x2632): do_z_conversion
    <3a01>   DW_AT_decl_file   : 1
    <3a02>   DW_AT_decl_line   : 1402
    <3a04>   DW_AT_decl_column : 9
    <3a05>   DW_AT_low_pc      : 0x7dbf
 <2><3a0d>: Abbrev Number: 28 (DW_TAG_label)
    <3a0e>   DW_AT_name        : (indirect string, offset: 0x2755): tz_hh_mm
    <3a12>   DW_AT_decl_file   : 1
    <3a13>   DW_AT_decl_line   : 1451
    <3a15>   DW_AT_decl_column : 23
    <3a16>   DW_AT_low_pc      : 0x7f43
 <2><3a1e>: Abbrev Number: 28 (DW_TAG_label)
    <3a1f>   DW_AT_name        : (indirect string, offset: 0x26a1): tz_hh_mm_ss
    <3a23>   DW_AT_decl_file   : 1
    <3a24>   DW_AT_decl_line   : 1454
    <3a26>   DW_AT_decl_column : 23
    <3a27>   DW_AT_low_pc      : 0x7f74
 <2><3a2f>: Abbrev Number: 29 (DW_TAG_lexical_block)
    <3a30>   DW_AT_low_pc      : 0x593f
    <3a38>   DW_AT_high_pc     : 0x28d2
 <3><3a40>: Abbrev Number: 27 (DW_TAG_variable)
    <3a41>   DW_AT_name        : pad
    <3a45>   DW_AT_decl_file   : 1
    <3a46>   DW_AT_decl_line   : 544
    <3a48>   DW_AT_decl_column : 11
    <3a49>   DW_AT_type        : <0x337d>
    <3a4d>   DW_AT_location    : 3 byte block: 91 f0 70 	(DW_OP_fbreg: -1936)
 <3><3a51>: Abbrev Number: 26 (DW_TAG_variable)
    <3a52>   DW_AT_name        : (indirect string, offset: 0x252f): modifier
    <3a56>   DW_AT_decl_file   : 1
    <3a57>   DW_AT_decl_line   : 545
    <3a59>   DW_AT_decl_column : 11
    <3a5a>   DW_AT_type        : <0x337d>
    <3a5e>   DW_AT_location    : 3 byte block: 91 f4 70 	(DW_OP_fbreg: -1932)
 <3><3a62>: Abbrev Number: 26 (DW_TAG_variable)
    <3a63>   DW_AT_name        : (indirect string, offset: 0x2514): digits
    <3a67>   DW_AT_decl_file   : 1
    <3a68>   DW_AT_decl_line   : 546
    <3a6a>   DW_AT_decl_column : 11
    <3a6b>   DW_AT_type        : <0x337d>
    <3a6f>   DW_AT_location    : 3 byte block: 91 f8 70 	(DW_OP_fbreg: -1928)
 <3><3a73>: Abbrev Number: 26 (DW_TAG_variable)
    <3a74>   DW_AT_name        : (indirect string, offset: 0x2789): number_value
    <3a78>   DW_AT_decl_file   : 1
    <3a79>   DW_AT_decl_line   : 547
    <3a7b>   DW_AT_decl_column : 11
    <3a7c>   DW_AT_type        : <0x337d>
    <3a80>   DW_AT_location    : 3 byte block: 91 fc 70 	(DW_OP_fbreg: -1924)
 <3><3a84>: Abbrev Number: 26 (DW_TAG_variable)
    <3a85>   DW_AT_name        : (indirect string, offset: 0x2787): u_number_value
    <3a89>   DW_AT_decl_file   : 1
    <3a8a>   DW_AT_decl_line   : 548
    <3a8c>   DW_AT_decl_column : 20
    <3a8d>   DW_AT_type        : <0x3397>
    <3a91>   DW_AT_location    : 3 byte block: 91 80 71 	(DW_OP_fbreg: -1920)
 <3><3a95>: Abbrev Number: 26 (DW_TAG_variable)
    <3a96>   DW_AT_name        : (indirect string, offset: 0x25d7): negative_number
    <3a9a>   DW_AT_decl_file   : 1
    <3a9b>   DW_AT_decl_line   : 549
    <3a9d>   DW_AT_decl_column : 12
    <3a9e>   DW_AT_type        : <0x46a3>
    <3aa2>   DW_AT_location    : 3 byte block: 91 e4 70 	(DW_OP_fbreg: -1948)
 <3><3aa6>: Abbrev Number: 26 (DW_TAG_variable)
    <3aa7>   DW_AT_name        : (indirect string, offset: 0x268c): always_output_a_sign
    <3aab>   DW_AT_decl_file   : 1
    <3aac>   DW_AT_decl_line   : 550
    <3aae>   DW_AT_decl_column : 12
    <3aaf>   DW_AT_type        : <0x46a3>
    <3ab3>   DW_AT_location    : 3 byte block: 91 e5 70 	(DW_OP_fbreg: -1947)
 <3><3ab7>: Abbrev Number: 26 (DW_TAG_variable)
    <3ab8>   DW_AT_name        : (indirect string, offset: 0x27ab): tz_colon_mask
    <3abc>   DW_AT_decl_file   : 1
    <3abd>   DW_AT_decl_line   : 551
    <3abf>   DW_AT_decl_column : 11
    <3ac0>   DW_AT_type        : <0x337d>
    <3ac4>   DW_AT_location    : 3 byte block: 91 84 71 	(DW_OP_fbreg: -1916)
 <3><3ac8>: Abbrev Number: 26 (DW_TAG_variable)
    <3ac9>   DW_AT_name        : (indirect string, offset: 0x25c5): subfmt
    <3acd>   DW_AT_decl_file   : 1
    <3ace>   DW_AT_decl_line   : 552
    <3ad0>   DW_AT_decl_column : 21
    <3ad1>   DW_AT_type        : <0x35cf>
    <3ad5>   DW_AT_location    : 3 byte block: 91 f8 71 	(DW_OP_fbreg: -1800)
 <3><3ad9>: Abbrev Number: 26 (DW_TAG_variable)
    <3ada>   DW_AT_name        : (indirect string, offset: 0x2642): bufp
    <3ade>   DW_AT_decl_file   : 1
    <3adf>   DW_AT_decl_line   : 553
    <3ae1>   DW_AT_decl_column : 15
    <3ae2>   DW_AT_type        : <0x3366>
    <3ae6>   DW_AT_location    : 3 byte block: 91 80 72 	(DW_OP_fbreg: -1792)
 <3><3aea>: Abbrev Number: 27 (DW_TAG_variable)
    <3aeb>   DW_AT_name        : buf
    <3aef>   DW_AT_decl_file   : 1
    <3af0>   DW_AT_decl_line   : 554
    <3af2>   DW_AT_decl_column : 14
    <3af3>   DW_AT_type        : <0x46b0>
    <3af7>   DW_AT_location    : 3 byte block: 91 d0 77 	(DW_OP_fbreg: -1072)
 <3><3afb>: Abbrev Number: 26 (DW_TAG_variable)
    <3afc>   DW_AT_name        : (indirect string, offset: 0x2618): to_lowcase
    <3b00>   DW_AT_decl_file   : 1
    <3b01>   DW_AT_decl_line   : 559
    <3b03>   DW_AT_decl_column : 12
    <3b04>   DW_AT_type        : <0x46a3>
    <3b08>   DW_AT_location    : 3 byte block: 91 e6 70 	(DW_OP_fbreg: -1946)
 <3><3b0c>: Abbrev Number: 26 (DW_TAG_variable)
    <3b0d>   DW_AT_name        : (indirect string, offset: 0x2651): to_uppcase
    <3b11>   DW_AT_decl_file   : 1
    <3b12>   DW_AT_decl_line   : 560
    <3b14>   DW_AT_decl_column : 12
    <3b15>   DW_AT_type        : <0x46a3>
    <3b19>   DW_AT_location    : 3 byte block: 91 e7 70 	(DW_OP_fbreg: -1945)
 <3><3b1d>: Abbrev Number: 26 (DW_TAG_variable)
    <3b1e>   DW_AT_name        : (indirect string, offset: 0x2685): colons
    <3b22>   DW_AT_decl_file   : 1
    <3b23>   DW_AT_decl_line   : 561
    <3b25>   DW_AT_decl_column : 14
    <3b26>   DW_AT_type        : <0x3384>
    <3b2a>   DW_AT_location    : 3 byte block: 91 88 72 	(DW_OP_fbreg: -1784)
 <3><3b2e>: Abbrev Number: 26 (DW_TAG_variable)
    <3b2f>   DW_AT_name        : (indirect string, offset: 0x277b): change_case
    <3b33>   DW_AT_decl_file   : 1
    <3b34>   DW_AT_decl_line   : 562
    <3b36>   DW_AT_decl_column : 12
    <3b37>   DW_AT_type        : <0x46a3>
    <3b3b>   DW_AT_location    : 3 byte block: 91 e8 70 	(DW_OP_fbreg: -1944)
 <3><3b3f>: Abbrev Number: 26 (DW_TAG_variable)
    <3b40>   DW_AT_name        : (indirect string, offset: 0x27b9): format_char
    <3b44>   DW_AT_decl_file   : 1
    <3b45>   DW_AT_decl_line   : 563
    <3b47>   DW_AT_decl_column : 11
    <3b48>   DW_AT_type        : <0x337d>
    <3b4c>   DW_AT_location    : 3 byte block: 91 88 71 	(DW_OP_fbreg: -1912)
 <3><3b50>: Abbrev Number: 26 (DW_TAG_variable)
    <3b51>   DW_AT_name        : (indirect string, offset: 0x260f): subwidth
    <3b55>   DW_AT_decl_file   : 1
    <3b56>   DW_AT_decl_line   : 564
    <3b58>   DW_AT_decl_column : 11
    <3b59>   DW_AT_type        : <0x337d>
    <3b5d>   DW_AT_location    : 3 byte block: 91 8c 71 	(DW_OP_fbreg: -1908)
 <3><3b61>: Abbrev Number: 26 (DW_TAG_variable)
    <3b62>   DW_AT_name        : (indirect string, offset: 0x26ba): percent
    <3b66>   DW_AT_decl_file   : 1
    <3b67>   DW_AT_decl_line   : 654
    <3b69>   DW_AT_decl_column : 19
    <3b6a>   DW_AT_type        : <0x35cf>
    <3b6e>   DW_AT_location    : 3 byte block: 91 f8 73 	(DW_OP_fbreg: -1544)
 <3><3b72>: Abbrev Number: 30 (DW_TAG_lexical_block)
    <3b73>   DW_AT_low_pc      : 0x5980
    <3b7b>   DW_AT_high_pc     : 0x16a
    <3b83>   DW_AT_sibling     : <0x3c24>
 <4><3b87>: Abbrev Number: 27 (DW_TAG_variable)
    <3b88>   DW_AT_name        : _n
    <3b8b>   DW_AT_decl_file   : 1
    <3b8c>   DW_AT_decl_line   : 648
    <3b8e>   DW_AT_decl_column : 11
    <3b8f>   DW_AT_type        : <0x3384>
    <3b93>   DW_AT_location    : 3 byte block: 91 f0 76 	(DW_OP_fbreg: -1168)
 <4><3b97>: Abbrev Number: 27 (DW_TAG_variable)
    <3b98>   DW_AT_name        : _w
    <3b9b>   DW_AT_decl_file   : 1
    <3b9c>   DW_AT_decl_line   : 648
    <3b9e>   DW_AT_decl_column : 11
    <3b9f>   DW_AT_type        : <0x3384>
    <3ba3>   DW_AT_location    : 3 byte block: 91 f8 76 	(DW_OP_fbreg: -1160)
 <4><3ba7>: Abbrev Number: 26 (DW_TAG_variable)
    <3ba8>   DW_AT_name        : (indirect string, offset: 0x2710): _incr
    <3bac>   DW_AT_decl_file   : 1
    <3bad>   DW_AT_decl_line   : 648
    <3baf>   DW_AT_decl_column : 11
    <3bb0>   DW_AT_type        : <0x3384>
    <3bb4>   DW_AT_location    : 3 byte block: 91 80 77 	(DW_OP_fbreg: -1152)
 <4><3bb8>: Abbrev Number: 29 (DW_TAG_lexical_block)
    <3bb9>   DW_AT_low_pc      : 0x5a1e
    <3bc1>   DW_AT_high_pc     : 0x9b
 <5><3bc9>: Abbrev Number: 26 (DW_TAG_variable)
    <3bca>   DW_AT_name        : (indirect string, offset: 0x26c2): _delta
    <3bce>   DW_AT_decl_file   : 1
    <3bcf>   DW_AT_decl_line   : 648
    <3bd1>   DW_AT_decl_column : 11
    <3bd2>   DW_AT_type        : <0x3384>
    <3bd6>   DW_AT_location    : 3 byte block: 91 88 77 	(DW_OP_fbreg: -1144)
 <5><3bda>: Abbrev Number: 30 (DW_TAG_lexical_block)
    <3bdb>   DW_AT_low_pc      : 0x5a45
    <3be3>   DW_AT_high_pc     : 0x39
    <3beb>   DW_AT_sibling     : <0x3c00>
 <6><3bef>: Abbrev Number: 27 (DW_TAG_variable)
    <3bf0>   DW_AT_name        : _i
    <3bf3>   DW_AT_decl_file   : 1
    <3bf4>   DW_AT_decl_line   : 648
    <3bf6>   DW_AT_decl_column : 11
    <3bf7>   DW_AT_type        : <0x3384>
    <3bfb>   DW_AT_location    : 3 byte block: 91 90 72 	(DW_OP_fbreg: -1776)
 <6><3bff>: Abbrev Number: 0
 <5><3c00>: Abbrev Number: 29 (DW_TAG_lexical_block)
    <3c01>   DW_AT_low_pc      : 0x5a80
    <3c09>   DW_AT_high_pc     : 0x39
 <6><3c11>: Abbrev Number: 27 (DW_TAG_variable)
    <3c12>   DW_AT_name        : _i
    <3c15>   DW_AT_decl_file   : 1
    <3c16>   DW_AT_decl_line   : 648
    <3c18>   DW_AT_decl_column : 11
    <3c19>   DW_AT_type        : <0x3384>
    <3c1d>   DW_AT_location    : 3 byte block: 91 98 72 	(DW_OP_fbreg: -1768)
 <6><3c21>: Abbrev Number: 0
 <5><3c22>: Abbrev Number: 0
 <4><3c23>: Abbrev Number: 0
 <3><3c24>: Abbrev Number: 30 (DW_TAG_lexical_block)
    <3c25>   DW_AT_low_pc      : 0x5cd9
    <3c2d>   DW_AT_high_pc     : 0x165
    <3c35>   DW_AT_sibling     : <0x3cd6>
 <4><3c39>: Abbrev Number: 27 (DW_TAG_variable)
    <3c3a>   DW_AT_name        : _n
    <3c3d>   DW_AT_decl_file   : 1
    <3c3e>   DW_AT_decl_line   : 759
    <3c40>   DW_AT_decl_column : 11
    <3c41>   DW_AT_type        : <0x3384>
    <3c45>   DW_AT_location    : 3 byte block: 91 b0 76 	(DW_OP_fbreg: -1232)
 <4><3c49>: Abbrev Number: 27 (DW_TAG_variable)
    <3c4a>   DW_AT_name        : _w
    <3c4d>   DW_AT_decl_file   : 1
    <3c4e>   DW_AT_decl_line   : 759
    <3c50>   DW_AT_decl_column : 11
    <3c51>   DW_AT_type        : <0x3384>
    <3c55>   DW_AT_location    : 3 byte block: 91 b8 76 	(DW_OP_fbreg: -1224)
 <4><3c59>: Abbrev Number: 26 (DW_TAG_variable)
    <3c5a>   DW_AT_name        : (indirect string, offset: 0x2710): _incr
    <3c5e>   DW_AT_decl_file   : 1
    <3c5f>   DW_AT_decl_line   : 759
    <3c61>   DW_AT_decl_column : 11
    <3c62>   DW_AT_type        : <0x3384>
    <3c66>   DW_AT_location    : 3 byte block: 91 c0 76 	(DW_OP_fbreg: -1216)
 <4><3c6a>: Abbrev Number: 29 (DW_TAG_lexical_block)
    <3c6b>   DW_AT_low_pc      : 0x5d77
    <3c73>   DW_AT_high_pc     : 0x9b
 <5><3c7b>: Abbrev Number: 26 (DW_TAG_variable)
    <3c7c>   DW_AT_name        : (indirect string, offset: 0x26c2): _delta
    <3c80>   DW_AT_decl_file   : 1
    <3c81>   DW_AT_decl_line   : 759
    <3c83>   DW_AT_decl_column : 11
    <3c84>   DW_AT_type        : <0x3384>
    <3c88>   DW_AT_location    : 3 byte block: 91 c8 76 	(DW_OP_fbreg: -1208)
 <5><3c8c>: Abbrev Number: 30 (DW_TAG_lexical_block)
    <3c8d>   DW_AT_low_pc      : 0x5d9e
    <3c95>   DW_AT_high_pc     : 0x39
    <3c9d>   DW_AT_sibling     : <0x3cb2>
 <6><3ca1>: Abbrev Number: 27 (DW_TAG_variable)
    <3ca2>   DW_AT_name        : _i
    <3ca5>   DW_AT_decl_file   : 1
    <3ca6>   DW_AT_decl_line   : 759
    <3ca8>   DW_AT_decl_column : 11
    <3ca9>   DW_AT_type        : <0x3384>
    <3cad>   DW_AT_location    : 3 byte block: 91 a0 72 	(DW_OP_fbreg: -1760)
 <6><3cb1>: Abbrev Number: 0
 <5><3cb2>: Abbrev Number: 29 (DW_TAG_lexical_block)
    <3cb3>   DW_AT_low_pc      : 0x5dd9
    <3cbb>   DW_AT_high_pc     : 0x39
 <6><3cc3>: Abbrev Number: 27 (DW_TAG_variable)
    <3cc4>   DW_AT_name        : _i
    <3cc7>   DW_AT_decl_file   : 1
    <3cc8>   DW_AT_decl_line   : 759
    <3cca>   DW_AT_decl_column : 11
    <3ccb>   DW_AT_type        : <0x3384>
    <3ccf>   DW_AT_location    : 3 byte block: 91 a8 72 	(DW_OP_fbreg: -1752)
 <6><3cd3>: Abbrev Number: 0
 <5><3cd4>: Abbrev Number: 0
 <4><3cd5>: Abbrev Number: 0
 <3><3cd6>: Abbrev Number: 30 (DW_TAG_lexical_block)
    <3cd7>   DW_AT_low_pc      : 0x5f0f
    <3cdf>   DW_AT_high_pc     : 0x1e8
    <3ce7>   DW_AT_sibling     : <0x3dab>
 <4><3ceb>: Abbrev Number: 27 (DW_TAG_variable)
    <3cec>   DW_AT_name        : len
    <3cf0>   DW_AT_decl_file   : 1
    <3cf1>   DW_AT_decl_line   : 847
    <3cf3>   DW_AT_decl_column : 20
    <3cf4>   DW_AT_type        : <0x3384>
    <3cf8>   DW_AT_location    : 3 byte block: 91 a0 75 	(DW_OP_fbreg: -1376)
 <4><3cfc>: Abbrev Number: 29 (DW_TAG_lexical_block)
    <3cfd>   DW_AT_low_pc      : 0x5f63
    <3d05>   DW_AT_high_pc     : 0x194
 <5><3d0d>: Abbrev Number: 27 (DW_TAG_variable)
    <3d0e>   DW_AT_name        : _n
    <3d11>   DW_AT_decl_file   : 1
    <3d12>   DW_AT_decl_line   : 851
    <3d14>   DW_AT_decl_column : 13
    <3d15>   DW_AT_type        : <0x3384>
    <3d19>   DW_AT_location    : 3 byte block: 91 a8 75 	(DW_OP_fbreg: -1368)
 <5><3d1d>: Abbrev Number: 27 (DW_TAG_variable)
    <3d1e>   DW_AT_name        : _w
    <3d21>   DW_AT_decl_file   : 1
    <3d22>   DW_AT_decl_line   : 851
    <3d24>   DW_AT_decl_column : 13
    <3d25>   DW_AT_type        : <0x3384>
    <3d29>   DW_AT_location    : 3 byte block: 91 b0 75 	(DW_OP_fbreg: -1360)
 <5><3d2d>: Abbrev Number: 26 (DW_TAG_variable)
    <3d2e>   DW_AT_name        : (indirect string, offset: 0x2710): _incr
    <3d32>   DW_AT_decl_file   : 1
    <3d33>   DW_AT_decl_line   : 851
    <3d35>   DW_AT_decl_column : 13
    <3d36>   DW_AT_type        : <0x3384>
    <3d3a>   DW_AT_location    : 3 byte block: 91 b8 75 	(DW_OP_fbreg: -1352)
 <5><3d3e>: Abbrev Number: 29 (DW_TAG_lexical_block)
    <3d3f>   DW_AT_low_pc      : 0x6004
    <3d47>   DW_AT_high_pc     : 0x9b
 <6><3d4f>: Abbrev Number: 26 (DW_TAG_variable)
    <3d50>   DW_AT_name        : (indirect string, offset: 0x26c2): _delta
    <3d54>   DW_AT_decl_file   : 1
    <3d55>   DW_AT_decl_line   : 851
    <3d57>   DW_AT_decl_column : 13
    <3d58>   DW_AT_type        : <0x3384>
    <3d5c>   DW_AT_location    : 3 byte block: 91 c0 75 	(DW_OP_fbreg: -1344)
 <6><3d60>: Abbrev Number: 30 (DW_TAG_lexical_block)
    <3d61>   DW_AT_low_pc      : 0x602b
    <3d69>   DW_AT_high_pc     : 0x39
    <3d71>   DW_AT_sibling     : <0x3d86>
 <7><3d75>: Abbrev Number: 27 (DW_TAG_variable)
    <3d76>   DW_AT_name        : _i
    <3d79>   DW_AT_decl_file   : 1
    <3d7a>   DW_AT_decl_line   : 851
    <3d7c>   DW_AT_decl_column : 13
    <3d7d>   DW_AT_type        : <0x3384>
    <3d81>   DW_AT_location    : 3 byte block: 91 b0 72 	(DW_OP_fbreg: -1744)
 <7><3d85>: Abbrev Number: 0
 <6><3d86>: Abbrev Number: 29 (DW_TAG_lexical_block)
    <3d87>   DW_AT_low_pc      : 0x6066
    <3d8f>   DW_AT_high_pc     : 0x39
 <7><3d97>: Abbrev Number: 27 (DW_TAG_variable)
    <3d98>   DW_AT_name        : _i
    <3d9b>   DW_AT_decl_file   : 1
    <3d9c>   DW_AT_decl_line   : 851
    <3d9e>   DW_AT_decl_column : 13
    <3d9f>   DW_AT_type        : <0x3384>
    <3da3>   DW_AT_location    : 3 byte block: 91 b8 72 	(DW_OP_fbreg: -1736)
 <7><3da7>: Abbrev Number: 0
 <6><3da8>: Abbrev Number: 0
 <5><3da9>: Abbrev Number: 0
 <4><3daa>: Abbrev Number: 0
 <3><3dab>: Abbrev Number: 31 (DW_TAG_lexical_block)
    <3dac>   DW_AT_ranges      : 0x30
    <3db0>   DW_AT_sibling     : <0x3e99>
 <4><3db4>: Abbrev Number: 26 (DW_TAG_variable)
    <3db5>   DW_AT_name        : (indirect string, offset: 0x2716): ufmt
    <3db9>   DW_AT_decl_file   : 1
    <3dba>   DW_AT_decl_line   : 864
    <3dbc>   DW_AT_decl_column : 18
    <3dbd>   DW_AT_type        : <0x46c0>
    <3dc1>   DW_AT_location    : 3 byte block: 91 cb 77 	(DW_OP_fbreg: -1077)
 <4><3dc5>: Abbrev Number: 27 (DW_TAG_variable)
    <3dc6>   DW_AT_name        : u
    <3dc8>   DW_AT_decl_file   : 1
    <3dc9>   DW_AT_decl_line   : 865
    <3dcb>   DW_AT_decl_column : 19
    <3dcc>   DW_AT_type        : <0x3366>
    <3dd0>   DW_AT_location    : 3 byte block: 91 c0 72 	(DW_OP_fbreg: -1728)
 <4><3dd4>: Abbrev Number: 26 (DW_TAG_variable)
    <3dd5>   DW_AT_name        : (indirect string, offset: 0x26d2): ubuf
    <3dd9>   DW_AT_decl_file   : 1
    <3dda>   DW_AT_decl_line   : 866
    <3ddc>   DW_AT_decl_column : 18
    <3ddd>   DW_AT_type        : <0x46d0>
    <3de1>   DW_AT_location    : 3 byte block: 91 d0 77 	(DW_OP_fbreg: -1072)
 <4><3de5>: Abbrev Number: 27 (DW_TAG_variable)
    <3de6>   DW_AT_name        : len
    <3dea>   DW_AT_decl_file   : 1
    <3deb>   DW_AT_decl_line   : 867
    <3ded>   DW_AT_decl_column : 20
    <3dee>   DW_AT_type        : <0x3384>
    <3df2>   DW_AT_location    : 3 byte block: 91 88 76 	(DW_OP_fbreg: -1272)
 <4><3df6>: Abbrev Number: 32 (DW_TAG_lexical_block)
    <3df7>   DW_AT_ranges      : 0x60
 <5><3dfb>: Abbrev Number: 27 (DW_TAG_variable)
    <3dfc>   DW_AT_name        : _n
    <3dff>   DW_AT_decl_file   : 1
    <3e00>   DW_AT_decl_line   : 886
    <3e02>   DW_AT_decl_column : 15
    <3e03>   DW_AT_type        : <0x3384>
    <3e07>   DW_AT_location    : 3 byte block: 91 90 76 	(DW_OP_fbreg: -1264)
 <5><3e0b>: Abbrev Number: 27 (DW_TAG_variable)
    <3e0c>   DW_AT_name        : _w
    <3e0f>   DW_AT_decl_file   : 1
    <3e10>   DW_AT_decl_line   : 886
    <3e12>   DW_AT_decl_column : 15
    <3e13>   DW_AT_type        : <0x3384>
    <3e17>   DW_AT_location    : 3 byte block: 91 98 76 	(DW_OP_fbreg: -1256)
 <5><3e1b>: Abbrev Number: 26 (DW_TAG_variable)
    <3e1c>   DW_AT_name        : (indirect string, offset: 0x2710): _incr
    <3e20>   DW_AT_decl_file   : 1
    <3e21>   DW_AT_decl_line   : 886
    <3e23>   DW_AT_decl_column : 15
    <3e24>   DW_AT_type        : <0x3384>
    <3e28>   DW_AT_location    : 3 byte block: 91 a0 76 	(DW_OP_fbreg: -1248)
 <5><3e2c>: Abbrev Number: 29 (DW_TAG_lexical_block)
    <3e2d>   DW_AT_low_pc      : 0x627c
    <3e35>   DW_AT_high_pc     : 0x9b
 <6><3e3d>: Abbrev Number: 26 (DW_TAG_variable)
    <3e3e>   DW_AT_name        : (indirect string, offset: 0x26c2): _delta
    <3e42>   DW_AT_decl_file   : 1
    <3e43>   DW_AT_decl_line   : 886
    <3e45>   DW_AT_decl_column : 15
    <3e46>   DW_AT_type        : <0x3384>
    <3e4a>   DW_AT_location    : 3 byte block: 91 a8 76 	(DW_OP_fbreg: -1240)
 <6><3e4e>: Abbrev Number: 30 (DW_TAG_lexical_block)
    <3e4f>   DW_AT_low_pc      : 0x62a3
    <3e57>   DW_AT_high_pc     : 0x39
    <3e5f>   DW_AT_sibling     : <0x3e74>
 <7><3e63>: Abbrev Number: 27 (DW_TAG_variable)
    <3e64>   DW_AT_name        : _i
    <3e67>   DW_AT_decl_file   : 1
    <3e68>   DW_AT_decl_line   : 886
    <3e6a>   DW_AT_decl_column : 15
    <3e6b>   DW_AT_type        : <0x3384>
    <3e6f>   DW_AT_location    : 3 byte block: 91 c8 72 	(DW_OP_fbreg: -1720)
 <7><3e73>: Abbrev Number: 0
 <6><3e74>: Abbrev Number: 29 (DW_TAG_lexical_block)
    <3e75>   DW_AT_low_pc      : 0x62de
    <3e7d>   DW_AT_high_pc     : 0x39
 <7><3e85>: Abbrev Number: 27 (DW_TAG_variable)
    <3e86>   DW_AT_name        : _i
    <3e89>   DW_AT_decl_file   : 1
    <3e8a>   DW_AT_decl_line   : 886
    <3e8c>   DW_AT_decl_column : 15
    <3e8d>   DW_AT_type        : <0x3384>
    <3e91>   DW_AT_location    : 3 byte block: 91 d0 72 	(DW_OP_fbreg: -1712)
 <7><3e95>: Abbrev Number: 0
 <6><3e96>: Abbrev Number: 0
 <5><3e97>: Abbrev Number: 0
 <4><3e98>: Abbrev Number: 0
 <3><3e99>: Abbrev Number: 30 (DW_TAG_lexical_block)
    <3e9a>   DW_AT_low_pc      : 0x63be
    <3ea2>   DW_AT_high_pc     : 0xa3
    <3eaa>   DW_AT_sibling     : <0x3ee2>
 <4><3eae>: Abbrev Number: 26 (DW_TAG_variable)
    <3eaf>   DW_AT_name        : (indirect string, offset: 0x2796): negative_year
    <3eb3>   DW_AT_decl_file   : 1
    <3eb4>   DW_AT_decl_line   : 913
    <3eb6>   DW_AT_decl_column : 18
    <3eb7>   DW_AT_type        : <0x46a3>
    <3ebb>   DW_AT_location    : 3 byte block: 91 e9 70 	(DW_OP_fbreg: -1943)
 <4><3ebf>: Abbrev Number: 26 (DW_TAG_variable)
    <3ec0>   DW_AT_name        : (indirect string, offset: 0x2520): zero_thru_1899
    <3ec4>   DW_AT_decl_file   : 1
    <3ec5>   DW_AT_decl_line   : 914
    <3ec7>   DW_AT_decl_column : 18
    <3ec8>   DW_AT_type        : <0x46a3>
    <3ecc>   DW_AT_location    : 3 byte block: 91 ea 70 	(DW_OP_fbreg: -1942)
 <4><3ed0>: Abbrev Number: 26 (DW_TAG_variable)
    <3ed1>   DW_AT_name        : (indirect string, offset: 0x266d): century
    <3ed5>   DW_AT_decl_file   : 1
    <3ed6>   DW_AT_decl_line   : 915
    <3ed8>   DW_AT_decl_column : 17
    <3ed9>   DW_AT_type        : <0x337d>
    <3edd>   DW_AT_location    : 3 byte block: 91 c0 71 	(DW_OP_fbreg: -1856)
 <4><3ee1>: Abbrev Number: 0
 <3><3ee2>: Abbrev Number: 30 (DW_TAG_lexical_block)
    <3ee3>   DW_AT_low_pc      : 0x669c
    <3eeb>   DW_AT_high_pc     : 0x41a
    <3ef3>   DW_AT_sibling     : <0x40c2>
 <4><3ef7>: Abbrev Number: 26 (DW_TAG_variable)
    <3ef8>   DW_AT_name        : (indirect string, offset: 0x25bb): sign_char
    <3efc>   DW_AT_decl_file   : 1
    <3efd>   DW_AT_decl_line   : 1032
    <3eff>   DW_AT_decl_column : 20
    <3f00>   DW_AT_type        : <0x3371>
    <3f04>   DW_AT_location    : 3 byte block: 91 eb 70 	(DW_OP_fbreg: -1941)
 <4><3f08>: Abbrev Number: 26 (DW_TAG_variable)
    <3f09>   DW_AT_name        : (indirect string, offset: 0x272a): numlen
    <3f0d>   DW_AT_decl_file   : 1
    <3f0e>   DW_AT_decl_line   : 1035
    <3f10>   DW_AT_decl_column : 17
    <3f11>   DW_AT_type        : <0x337d>
    <3f15>   DW_AT_location    : 3 byte block: 91 d4 71 	(DW_OP_fbreg: -1836)
 <4><3f19>: Abbrev Number: 26 (DW_TAG_variable)
    <3f1a>   DW_AT_name        : (indirect string, offset: 0x265c): shortage
    <3f1e>   DW_AT_decl_file   : 1
    <3f1f>   DW_AT_decl_line   : 1036
    <3f21>   DW_AT_decl_column : 17
    <3f22>   DW_AT_type        : <0x337d>
    <3f26>   DW_AT_location    : 3 byte block: 91 d8 71 	(DW_OP_fbreg: -1832)
 <4><3f2a>: Abbrev Number: 26 (DW_TAG_variable)
    <3f2b>   DW_AT_name        : (indirect string, offset: 0x26ea): padding
    <3f2f>   DW_AT_decl_file   : 1
    <3f30>   DW_AT_decl_line   : 1037
    <3f32>   DW_AT_decl_column : 17
    <3f33>   DW_AT_type        : <0x337d>
    <3f37>   DW_AT_location    : 3 byte block: 91 dc 71 	(DW_OP_fbreg: -1828)
 <4><3f3b>: Abbrev Number: 30 (DW_TAG_lexical_block)
    <3f3c>   DW_AT_low_pc      : 0x6745
    <3f44>   DW_AT_high_pc     : 0x3a
    <3f4c>   DW_AT_sibling     : <0x3f61>
 <5><3f50>: Abbrev Number: 27 (DW_TAG_variable)
    <3f51>   DW_AT_name        : _i
    <3f54>   DW_AT_decl_file   : 1
    <3f55>   DW_AT_decl_line   : 1044
    <3f57>   DW_AT_decl_column : 23
    <3f58>   DW_AT_type        : <0x3384>
    <3f5c>   DW_AT_location    : 3 byte block: 91 d8 72 	(DW_OP_fbreg: -1704)
 <5><3f60>: Abbrev Number: 0
 <4><3f61>: Abbrev Number: 30 (DW_TAG_lexical_block)
    <3f62>   DW_AT_low_pc      : 0x67a0
    <3f6a>   DW_AT_high_pc     : 0x141
    <3f72>   DW_AT_sibling     : <0x4013>
 <5><3f76>: Abbrev Number: 27 (DW_TAG_variable)
    <3f77>   DW_AT_name        : _n
    <3f7a>   DW_AT_decl_file   : 1
    <3f7b>   DW_AT_decl_line   : 1048
    <3f7d>   DW_AT_decl_column : 17
    <3f7e>   DW_AT_type        : <0x3384>
    <3f82>   DW_AT_location    : 3 byte block: 91 c8 75 	(DW_OP_fbreg: -1336)
 <5><3f86>: Abbrev Number: 27 (DW_TAG_variable)
    <3f87>   DW_AT_name        : _w
    <3f8a>   DW_AT_decl_file   : 1
    <3f8b>   DW_AT_decl_line   : 1048
    <3f8d>   DW_AT_decl_column : 17
    <3f8e>   DW_AT_type        : <0x3384>
    <3f92>   DW_AT_location    : 3 byte block: 91 d0 75 	(DW_OP_fbreg: -1328)
 <5><3f96>: Abbrev Number: 26 (DW_TAG_variable)
    <3f97>   DW_AT_name        : (indirect string, offset: 0x2710): _incr
    <3f9b>   DW_AT_decl_file   : 1
    <3f9c>   DW_AT_decl_line   : 1048
    <3f9e>   DW_AT_decl_column : 17
    <3f9f>   DW_AT_type        : <0x3384>
    <3fa3>   DW_AT_location    : 3 byte block: 91 d8 75 	(DW_OP_fbreg: -1320)
 <5><3fa7>: Abbrev Number: 29 (DW_TAG_lexical_block)
    <3fa8>   DW_AT_low_pc      : 0x6820
    <3fb0>   DW_AT_high_pc     : 0x9b
 <6><3fb8>: Abbrev Number: 26 (DW_TAG_variable)
    <3fb9>   DW_AT_name        : (indirect string, offset: 0x26c2): _delta
    <3fbd>   DW_AT_decl_file   : 1
    <3fbe>   DW_AT_decl_line   : 1048
    <3fc0>   DW_AT_decl_column : 17
    <3fc1>   DW_AT_type        : <0x3384>
    <3fc5>   DW_AT_location    : 3 byte block: 91 e0 75 	(DW_OP_fbreg: -1312)
 <6><3fc9>: Abbrev Number: 30 (DW_TAG_lexical_block)
    <3fca>   DW_AT_low_pc      : 0x6847
    <3fd2>   DW_AT_high_pc     : 0x39
    <3fda>   DW_AT_sibling     : <0x3fef>
 <7><3fde>: Abbrev Number: 27 (DW_TAG_variable)
    <3fdf>   DW_AT_name        : _i
    <3fe2>   DW_AT_decl_file   : 1
    <3fe3>   DW_AT_decl_line   : 1048
    <3fe5>   DW_AT_decl_column : 17
    <3fe6>   DW_AT_type        : <0x3384>
    <3fea>   DW_AT_location    : 3 byte block: 91 e0 72 	(DW_OP_fbreg: -1696)
 <7><3fee>: Abbrev Number: 0
 <6><3fef>: Abbrev Number: 29 (DW_TAG_lexical_block)
    <3ff0>   DW_AT_low_pc      : 0x6882
    <3ff8>   DW_AT_high_pc     : 0x39
 <7><4000>: Abbrev Number: 27 (DW_TAG_variable)
    <4001>   DW_AT_name        : _i
    <4004>   DW_AT_decl_file   : 1
    <4005>   DW_AT_decl_line   : 1048
    <4007>   DW_AT_decl_column : 17
    <4008>   DW_AT_type        : <0x3384>
    <400c>   DW_AT_location    : 3 byte block: 91 e8 72 	(DW_OP_fbreg: -1688)
 <7><4010>: Abbrev Number: 0
 <6><4011>: Abbrev Number: 0
 <5><4012>: Abbrev Number: 0
 <4><4013>: Abbrev Number: 29 (DW_TAG_lexical_block)
    <4014>   DW_AT_low_pc      : 0x68f0
    <401c>   DW_AT_high_pc     : 0x1c6
 <5><4024>: Abbrev Number: 27 (DW_TAG_variable)
    <4025>   DW_AT_name        : _n
    <4028>   DW_AT_decl_file   : 1
    <4029>   DW_AT_decl_line   : 1052
    <402b>   DW_AT_decl_column : 13
    <402c>   DW_AT_type        : <0x3384>
    <4030>   DW_AT_location    : 3 byte block: 91 e8 75 	(DW_OP_fbreg: -1304)
 <5><4034>: Abbrev Number: 27 (DW_TAG_variable)
    <4035>   DW_AT_name        : _w
    <4038>   DW_AT_decl_file   : 1
    <4039>   DW_AT_decl_line   : 1052
    <403b>   DW_AT_decl_column : 13
    <403c>   DW_AT_type        : <0x3384>
    <4040>   DW_AT_location    : 3 byte block: 91 f0 75 	(DW_OP_fbreg: -1296)
 <5><4044>: Abbrev Number: 26 (DW_TAG_variable)
    <4045>   DW_AT_name        : (indirect string, offset: 0x2710): _incr
    <4049>   DW_AT_decl_file   : 1
    <404a>   DW_AT_decl_line   : 1052
    <404c>   DW_AT_decl_column : 13
    <404d>   DW_AT_type        : <0x3384>
    <4051>   DW_AT_location    : 3 byte block: 91 f8 75 	(DW_OP_fbreg: -1288)
 <5><4055>: Abbrev Number: 29 (DW_TAG_lexical_block)
    <4056>   DW_AT_low_pc      : 0x6992
    <405e>   DW_AT_high_pc     : 0x9b
 <6><4066>: Abbrev Number: 26 (DW_TAG_variable)
    <4067>   DW_AT_name        : (indirect string, offset: 0x26c2): _delta
    <406b>   DW_AT_decl_file   : 1
    <406c>   DW_AT_decl_line   : 1052
    <406e>   DW_AT_decl_column : 13
    <406f>   DW_AT_type        : <0x3384>
    <4073>   DW_AT_location    : 3 byte block: 91 80 76 	(DW_OP_fbreg: -1280)
 <6><4077>: Abbrev Number: 30 (DW_TAG_lexical_block)
    <4078>   DW_AT_low_pc      : 0x69b9
    <4080>   DW_AT_high_pc     : 0x39
    <4088>   DW_AT_sibling     : <0x409d>
 <7><408c>: Abbrev Number: 27 (DW_TAG_variable)
    <408d>   DW_AT_name        : _i
    <4090>   DW_AT_decl_file   : 1
    <4091>   DW_AT_decl_line   : 1052
    <4093>   DW_AT_decl_column : 13
    <4094>   DW_AT_type        : <0x3384>
    <4098>   DW_AT_location    : 3 byte block: 91 f0 72 	(DW_OP_fbreg: -1680)
 <7><409c>: Abbrev Number: 0
 <6><409d>: Abbrev Number: 29 (DW_TAG_lexical_block)
    <409e>   DW_AT_low_pc      : 0x69f4
    <40a6>   DW_AT_high_pc     : 0x39
 <7><40ae>: Abbrev Number: 27 (DW_TAG_variable)
    <40af>   DW_AT_name        : _i
    <40b2>   DW_AT_decl_file   : 1
    <40b3>   DW_AT_decl_line   : 1052
    <40b5>   DW_AT_decl_column : 13
    <40b6>   DW_AT_type        : <0x3384>
    <40ba>   DW_AT_location    : 3 byte block: 91 f8 72 	(DW_OP_fbreg: -1672)
 <7><40be>: Abbrev Number: 0
 <6><40bf>: Abbrev Number: 0
 <5><40c0>: Abbrev Number: 0
 <4><40c1>: Abbrev Number: 0
 <3><40c2>: Abbrev Number: 30 (DW_TAG_lexical_block)
    <40c3>   DW_AT_low_pc      : 0x6c91
    <40cb>   DW_AT_high_pc     : 0x442
    <40d3>   DW_AT_sibling     : <0x428e>
 <4><40d7>: Abbrev Number: 27 (DW_TAG_variable)
    <40d8>   DW_AT_name        : n
    <40da>   DW_AT_decl_file   : 1
    <40db>   DW_AT_decl_line   : 1120
    <40dd>   DW_AT_decl_column : 17
    <40de>   DW_AT_type        : <0x337d>
    <40e2>   DW_AT_location    : 3 byte block: 91 90 71 	(DW_OP_fbreg: -1904)
 <4><40e6>: Abbrev Number: 26 (DW_TAG_variable)
    <40e7>   DW_AT_name        : (indirect string, offset: 0x2511): ns_digits
    <40eb>   DW_AT_decl_file   : 1
    <40ec>   DW_AT_decl_line   : 1120
    <40ee>   DW_AT_decl_column : 25
    <40ef>   DW_AT_type        : <0x337d>
    <40f3>   DW_AT_location    : 3 byte block: 91 b0 71 	(DW_OP_fbreg: -1872)
 <4><40f7>: Abbrev Number: 26 (DW_TAG_variable)
    <40f8>   DW_AT_name        : (indirect string, offset: 0x2775): ndigs
    <40fc>   DW_AT_decl_file   : 1
    <40fd>   DW_AT_decl_line   : 1123
    <40ff>   DW_AT_decl_column : 17
    <4100>   DW_AT_type        : <0x337d>
    <4104>   DW_AT_location    : 3 byte block: 91 94 71 	(DW_OP_fbreg: -1900)
 <4><4108>: Abbrev Number: 30 (DW_TAG_lexical_block)
    <4109>   DW_AT_low_pc      : 0x6d3d
    <4111>   DW_AT_high_pc     : 0x88
    <4119>   DW_AT_sibling     : <0x412d>
 <5><411d>: Abbrev Number: 27 (DW_TAG_variable)
    <411e>   DW_AT_name        : j
    <4120>   DW_AT_decl_file   : 1
    <4121>   DW_AT_decl_line   : 1126
    <4123>   DW_AT_decl_column : 22
    <4124>   DW_AT_type        : <0x337d>
    <4128>   DW_AT_location    : 3 byte block: 91 98 71 	(DW_OP_fbreg: -1896)
 <5><412c>: Abbrev Number: 0
 <4><412d>: Abbrev Number: 30 (DW_TAG_lexical_block)
    <412e>   DW_AT_low_pc      : 0x6dd8
    <4136>   DW_AT_high_pc     : 0x1a8
    <413e>   DW_AT_sibling     : <0x41df>
 <5><4142>: Abbrev Number: 27 (DW_TAG_variable)
    <4143>   DW_AT_name        : _n
    <4146>   DW_AT_decl_file   : 1
    <4147>   DW_AT_decl_line   : 1130
    <4149>   DW_AT_decl_column : 13
    <414a>   DW_AT_type        : <0x3384>
    <414e>   DW_AT_location    : 3 byte block: 91 e0 74 	(DW_OP_fbreg: -1440)
 <5><4152>: Abbrev Number: 27 (DW_TAG_variable)
    <4153>   DW_AT_name        : _w
    <4156>   DW_AT_decl_file   : 1
    <4157>   DW_AT_decl_line   : 1130
    <4159>   DW_AT_decl_column : 13
    <415a>   DW_AT_type        : <0x3384>
    <415e>   DW_AT_location    : 3 byte block: 91 e8 74 	(DW_OP_fbreg: -1432)
 <5><4162>: Abbrev Number: 26 (DW_TAG_variable)
    <4163>   DW_AT_name        : (indirect string, offset: 0x2710): _incr
    <4167>   DW_AT_decl_file   : 1
    <4168>   DW_AT_decl_line   : 1130
    <416a>   DW_AT_decl_column : 13
    <416b>   DW_AT_type        : <0x3384>
    <416f>   DW_AT_location    : 3 byte block: 91 f0 74 	(DW_OP_fbreg: -1424)
 <5><4173>: Abbrev Number: 29 (DW_TAG_lexical_block)
    <4174>   DW_AT_low_pc      : 0x6e5c
    <417c>   DW_AT_high_pc     : 0x9b
 <6><4184>: Abbrev Number: 26 (DW_TAG_variable)
    <4185>   DW_AT_name        : (indirect string, offset: 0x26c2): _delta
    <4189>   DW_AT_decl_file   : 1
    <418a>   DW_AT_decl_line   : 1130
    <418c>   DW_AT_decl_column : 13
    <418d>   DW_AT_type        : <0x3384>
    <4191>   DW_AT_location    : 3 byte block: 91 f8 74 	(DW_OP_fbreg: -1416)
 <6><4195>: Abbrev Number: 30 (DW_TAG_lexical_block)
    <4196>   DW_AT_low_pc      : 0x6e83
    <419e>   DW_AT_high_pc     : 0x39
    <41a6>   DW_AT_sibling     : <0x41bb>
 <7><41aa>: Abbrev Number: 27 (DW_TAG_variable)
    <41ab>   DW_AT_name        : _i
    <41ae>   DW_AT_decl_file   : 1
    <41af>   DW_AT_decl_line   : 1130
    <41b1>   DW_AT_decl_column : 13
    <41b2>   DW_AT_type        : <0x3384>
    <41b6>   DW_AT_location    : 3 byte block: 91 80 73 	(DW_OP_fbreg: -1664)
 <7><41ba>: Abbrev Number: 0
 <6><41bb>: Abbrev Number: 29 (DW_TAG_lexical_block)
    <41bc>   DW_AT_low_pc      : 0x6ebe
    <41c4>   DW_AT_high_pc     : 0x39
 <7><41cc>: Abbrev Number: 27 (DW_TAG_variable)
    <41cd>   DW_AT_name        : _i
    <41d0>   DW_AT_decl_file   : 1
    <41d1>   DW_AT_decl_line   : 1130
    <41d3>   DW_AT_decl_column : 13
    <41d4>   DW_AT_type        : <0x3384>
    <41d8>   DW_AT_location    : 3 byte block: 91 88 73 	(DW_OP_fbreg: -1656)
 <7><41dc>: Abbrev Number: 0
 <6><41dd>: Abbrev Number: 0
 <5><41de>: Abbrev Number: 0
 <4><41df>: Abbrev Number: 29 (DW_TAG_lexical_block)
    <41e0>   DW_AT_low_pc      : 0x6f80
    <41e8>   DW_AT_high_pc     : 0x153
 <5><41f0>: Abbrev Number: 27 (DW_TAG_variable)
    <41f1>   DW_AT_name        : _n
    <41f4>   DW_AT_decl_file   : 1
    <41f5>   DW_AT_decl_line   : 1131
    <41f7>   DW_AT_decl_column : 13
    <41f8>   DW_AT_type        : <0x3384>
    <41fc>   DW_AT_location    : 3 byte block: 91 80 75 	(DW_OP_fbreg: -1408)
 <5><4200>: Abbrev Number: 27 (DW_TAG_variable)
    <4201>   DW_AT_name        : _w
    <4204>   DW_AT_decl_file   : 1
    <4205>   DW_AT_decl_line   : 1131
    <4207>   DW_AT_decl_column : 13
    <4208>   DW_AT_type        : <0x3384>
    <420c>   DW_AT_location    : 3 byte block: 91 88 75 	(DW_OP_fbreg: -1400)
 <5><4210>: Abbrev Number: 26 (DW_TAG_variable)
    <4211>   DW_AT_name        : (indirect string, offset: 0x2710): _incr
    <4215>   DW_AT_decl_file   : 1
    <4216>   DW_AT_decl_line   : 1131
    <4218>   DW_AT_decl_column : 13
    <4219>   DW_AT_type        : <0x3384>
    <421d>   DW_AT_location    : 3 byte block: 91 90 75 	(DW_OP_fbreg: -1392)
 <5><4221>: Abbrev Number: 29 (DW_TAG_lexical_block)
    <4222>   DW_AT_low_pc      : 0x702a
    <422a>   DW_AT_high_pc     : 0x9b
 <6><4232>: Abbrev Number: 26 (DW_TAG_variable)
    <4233>   DW_AT_name        : (indirect string, offset: 0x26c2): _delta
    <4237>   DW_AT_decl_file   : 1
    <4238>   DW_AT_decl_line   : 1131
    <423a>   DW_AT_decl_column : 13
    <423b>   DW_AT_type        : <0x3384>
    <423f>   DW_AT_location    : 3 byte block: 91 98 75 	(DW_OP_fbreg: -1384)
 <6><4243>: Abbrev Number: 30 (DW_TAG_lexical_block)
    <4244>   DW_AT_low_pc      : 0x7051
    <424c>   DW_AT_high_pc     : 0x39
    <4254>   DW_AT_sibling     : <0x4269>
 <7><4258>: Abbrev Number: 27 (DW_TAG_variable)
    <4259>   DW_AT_name        : _i
    <425c>   DW_AT_decl_file   : 1
    <425d>   DW_AT_decl_line   : 1131
    <425f>   DW_AT_decl_column : 13
    <4260>   DW_AT_type        : <0x3384>
    <4264>   DW_AT_location    : 3 byte block: 91 90 73 	(DW_OP_fbreg: -1648)
 <7><4268>: Abbrev Number: 0
 <6><4269>: Abbrev Number: 29 (DW_TAG_lexical_block)
    <426a>   DW_AT_low_pc      : 0x708c
    <4272>   DW_AT_high_pc     : 0x39
 <7><427a>: Abbrev Number: 27 (DW_TAG_variable)
    <427b>   DW_AT_name        : _i
    <427e>   DW_AT_decl_file   : 1
    <427f>   DW_AT_decl_line   : 1131
    <4281>   DW_AT_decl_column : 13
    <4282>   DW_AT_type        : <0x3384>
    <4286>   DW_AT_location    : 3 byte block: 91 98 73 	(DW_OP_fbreg: -1640)
 <7><428a>: Abbrev Number: 0
 <6><428b>: Abbrev Number: 0
 <5><428c>: Abbrev Number: 0
 <4><428d>: Abbrev Number: 0
 <3><428e>: Abbrev Number: 30 (DW_TAG_lexical_block)
    <428f>   DW_AT_low_pc      : 0x70d8
    <4297>   DW_AT_high_pc     : 0x15b
    <429f>   DW_AT_sibling     : <0x4340>
 <4><42a3>: Abbrev Number: 27 (DW_TAG_variable)
    <42a4>   DW_AT_name        : _n
    <42a7>   DW_AT_decl_file   : 1
    <42a8>   DW_AT_decl_line   : 1137
    <42aa>   DW_AT_decl_column : 11
    <42ab>   DW_AT_type        : <0x3384>
    <42af>   DW_AT_location    : 3 byte block: 91 a0 74 	(DW_OP_fbreg: -1504)
 <4><42b3>: Abbrev Number: 27 (DW_TAG_variable)
    <42b4>   DW_AT_name        : _w
    <42b7>   DW_AT_decl_file   : 1
    <42b8>   DW_AT_decl_line   : 1137
    <42ba>   DW_AT_decl_column : 11
    <42bb>   DW_AT_type        : <0x3384>
    <42bf>   DW_AT_location    : 3 byte block: 91 a8 74 	(DW_OP_fbreg: -1496)
 <4><42c3>: Abbrev Number: 26 (DW_TAG_variable)
    <42c4>   DW_AT_name        : (indirect string, offset: 0x2710): _incr
    <42c8>   DW_AT_decl_file   : 1
    <42c9>   DW_AT_decl_line   : 1137
    <42cb>   DW_AT_decl_column : 11
    <42cc>   DW_AT_type        : <0x3384>
    <42d0>   DW_AT_location    : 3 byte block: 91 b0 74 	(DW_OP_fbreg: -1488)
 <4><42d4>: Abbrev Number: 29 (DW_TAG_lexical_block)
    <42d5>   DW_AT_low_pc      : 0x7176
    <42dd>   DW_AT_high_pc     : 0x9b
 <5><42e5>: Abbrev Number: 26 (DW_TAG_variable)
    <42e6>   DW_AT_name        : (indirect string, offset: 0x26c2): _delta
    <42ea>   DW_AT_decl_file   : 1
    <42eb>   DW_AT_decl_line   : 1137
    <42ed>   DW_AT_decl_column : 11
    <42ee>   DW_AT_type        : <0x3384>
    <42f2>   DW_AT_location    : 3 byte block: 91 b8 74 	(DW_OP_fbreg: -1480)
 <5><42f6>: Abbrev Number: 30 (DW_TAG_lexical_block)
    <42f7>   DW_AT_low_pc      : 0x719d
    <42ff>   DW_AT_high_pc     : 0x39
    <4307>   DW_AT_sibling     : <0x431c>
 <6><430b>: Abbrev Number: 27 (DW_TAG_variable)
    <430c>   DW_AT_name        : _i
    <430f>   DW_AT_decl_file   : 1
    <4310>   DW_AT_decl_line   : 1137
    <4312>   DW_AT_decl_column : 11
    <4313>   DW_AT_type        : <0x3384>
    <4317>   DW_AT_location    : 3 byte block: 91 a0 73 	(DW_OP_fbreg: -1632)
 <6><431b>: Abbrev Number: 0
 <5><431c>: Abbrev Number: 29 (DW_TAG_lexical_block)
    <431d>   DW_AT_low_pc      : 0x71d8
    <4325>   DW_AT_high_pc     : 0x39
 <6><432d>: Abbrev Number: 27 (DW_TAG_variable)
    <432e>   DW_AT_name        : _i
    <4331>   DW_AT_decl_file   : 1
    <4332>   DW_AT_decl_line   : 1137
    <4334>   DW_AT_decl_column : 11
    <4335>   DW_AT_type        : <0x3384>
    <4339>   DW_AT_location    : 3 byte block: 91 a8 73 	(DW_OP_fbreg: -1624)
 <6><433d>: Abbrev Number: 0
 <5><433e>: Abbrev Number: 0
 <4><433f>: Abbrev Number: 0
 <3><4340>: Abbrev Number: 31 (DW_TAG_lexical_block)
    <4341>   DW_AT_ranges      : 0x90
    <4345>   DW_AT_sibling     : <0x438b>
 <4><4349>: Abbrev Number: 27 (DW_TAG_variable)
    <434a>   DW_AT_name        : ltm
    <434e>   DW_AT_decl_file   : 1
    <434f>   DW_AT_decl_line   : 1185
    <4351>   DW_AT_decl_column : 23
    <4352>   DW_AT_type        : <0x3606>
    <4356>   DW_AT_location    : 3 byte block: 91 90 77 	(DW_OP_fbreg: -1136)
 <4><435a>: Abbrev Number: 27 (DW_TAG_variable)
    <435b>   DW_AT_name        : t
    <435d>   DW_AT_decl_file   : 1
    <435e>   DW_AT_decl_line   : 1186
    <4360>   DW_AT_decl_column : 20
    <4361>   DW_AT_type        : <0x35f3>
    <4365>   DW_AT_location    : 3 byte block: 91 b0 73 	(DW_OP_fbreg: -1616)
 <4><4369>: Abbrev Number: 29 (DW_TAG_lexical_block)
    <436a>   DW_AT_low_pc      : 0x739d
    <4372>   DW_AT_high_pc     : 0xab
 <5><437a>: Abbrev Number: 27 (DW_TAG_variable)
    <437b>   DW_AT_name        : d
    <437d>   DW_AT_decl_file   : 1
    <437e>   DW_AT_decl_line   : 1205
    <4380>   DW_AT_decl_column : 21
    <4381>   DW_AT_type        : <0x337d>
    <4385>   DW_AT_location    : 3 byte block: 91 ac 71 	(DW_OP_fbreg: -1876)
 <5><4389>: Abbrev Number: 0
 <4><438a>: Abbrev Number: 0
 <3><438b>: Abbrev Number: 30 (DW_TAG_lexical_block)
    <438c>   DW_AT_low_pc      : 0x7491
    <4394>   DW_AT_high_pc     : 0x15b
    <439c>   DW_AT_sibling     : <0x443d>
 <4><43a0>: Abbrev Number: 27 (DW_TAG_variable)
    <43a1>   DW_AT_name        : _n
    <43a4>   DW_AT_decl_file   : 1
    <43a5>   DW_AT_decl_line   : 1234
    <43a7>   DW_AT_decl_column : 11
    <43a8>   DW_AT_type        : <0x3384>
    <43ac>   DW_AT_location    : 3 byte block: 91 80 74 	(DW_OP_fbreg: -1536)
 <4><43b0>: Abbrev Number: 27 (DW_TAG_variable)
    <43b1>   DW_AT_name        : _w
    <43b4>   DW_AT_decl_file   : 1
    <43b5>   DW_AT_decl_line   : 1234
    <43b7>   DW_AT_decl_column : 11
    <43b8>   DW_AT_type        : <0x3384>
    <43bc>   DW_AT_location    : 3 byte block: 91 88 74 	(DW_OP_fbreg: -1528)
 <4><43c0>: Abbrev Number: 26 (DW_TAG_variable)
    <43c1>   DW_AT_name        : (indirect string, offset: 0x2710): _incr
    <43c5>   DW_AT_decl_file   : 1
    <43c6>   DW_AT_decl_line   : 1234
    <43c8>   DW_AT_decl_column : 11
    <43c9>   DW_AT_type        : <0x3384>
    <43cd>   DW_AT_location    : 3 byte block: 91 90 74 	(DW_OP_fbreg: -1520)
 <4><43d1>: Abbrev Number: 29 (DW_TAG_lexical_block)
    <43d2>   DW_AT_low_pc      : 0x752f
    <43da>   DW_AT_high_pc     : 0x9b
 <5><43e2>: Abbrev Number: 26 (DW_TAG_variable)
    <43e3>   DW_AT_name        : (indirect string, offset: 0x26c2): _delta
    <43e7>   DW_AT_decl_file   : 1
    <43e8>   DW_AT_decl_line   : 1234
    <43ea>   DW_AT_decl_column : 11
    <43eb>   DW_AT_type        : <0x3384>
    <43ef>   DW_AT_location    : 3 byte block: 91 98 74 	(DW_OP_fbreg: -1512)
 <5><43f3>: Abbrev Number: 30 (DW_TAG_lexical_block)
    <43f4>   DW_AT_low_pc      : 0x7556
    <43fc>   DW_AT_high_pc     : 0x39
    <4404>   DW_AT_sibling     : <0x4419>
 <6><4408>: Abbrev Number: 27 (DW_TAG_variable)
    <4409>   DW_AT_name        : _i
    <440c>   DW_AT_decl_file   : 1
    <440d>   DW_AT_decl_line   : 1234
    <440f>   DW_AT_decl_column : 11
    <4410>   DW_AT_type        : <0x3384>
    <4414>   DW_AT_location    : 3 byte block: 91 b8 73 	(DW_OP_fbreg: -1608)
 <6><4418>: Abbrev Number: 0
 <5><4419>: Abbrev Number: 29 (DW_TAG_lexical_block)
    <441a>   DW_AT_low_pc      : 0x7591
    <4422>   DW_AT_high_pc     : 0x39
 <6><442a>: Abbrev Number: 27 (DW_TAG_variable)
    <442b>   DW_AT_name        : _i
    <442e>   DW_AT_decl_file   : 1
    <442f>   DW_AT_decl_line   : 1234
    <4431>   DW_AT_decl_column : 11
    <4432>   DW_AT_type        : <0x3384>
    <4436>   DW_AT_location    : 3 byte block: 91 c0 73 	(DW_OP_fbreg: -1600)
 <6><443a>: Abbrev Number: 0
 <5><443b>: Abbrev Number: 0
 <4><443c>: Abbrev Number: 0
 <3><443d>: Abbrev Number: 30 (DW_TAG_lexical_block)
    <443e>   DW_AT_low_pc      : 0x76a1
    <4446>   DW_AT_high_pc     : 0x330
    <444e>   DW_AT_sibling     : <0x44cd>
 <4><4452>: Abbrev Number: 26 (DW_TAG_variable)
    <4453>   DW_AT_name        : (indirect string, offset: 0x279f): year
    <4457>   DW_AT_decl_file   : 1
    <4458>   DW_AT_decl_line   : 1256
    <445a>   DW_AT_decl_column : 17
    <445b>   DW_AT_type        : <0x337d>
    <445f>   DW_AT_location    : 3 byte block: 91 b4 71 	(DW_OP_fbreg: -1868)
 <4><4463>: Abbrev Number: 26 (DW_TAG_variable)
    <4464>   DW_AT_name        : (indirect string, offset: 0x2549): year_adjust
    <4468>   DW_AT_decl_file   : 1
    <4469>   DW_AT_decl_line   : 1260
    <446b>   DW_AT_decl_column : 17
    <446c>   DW_AT_type        : <0x337d>
    <4470>   DW_AT_location    : 3 byte block: 91 9c 71 	(DW_OP_fbreg: -1892)
 <4><4474>: Abbrev Number: 26 (DW_TAG_variable)
    <4475>   DW_AT_name        : (indirect string, offset: 0x27ce): days
    <4479>   DW_AT_decl_file   : 1
    <447a>   DW_AT_decl_line   : 1261
    <447c>   DW_AT_decl_column : 17
    <447d>   DW_AT_type        : <0x337d>
    <4481>   DW_AT_location    : 3 byte block: 91 a0 71 	(DW_OP_fbreg: -1888)
 <4><4485>: Abbrev Number: 30 (DW_TAG_lexical_block)
    <4486>   DW_AT_low_pc      : 0x77b7
    <448e>   DW_AT_high_pc     : 0xba
    <4496>   DW_AT_sibling     : <0x44aa>
 <5><449a>: Abbrev Number: 27 (DW_TAG_variable)
    <449b>   DW_AT_name        : d
    <449d>   DW_AT_decl_file   : 1
    <449e>   DW_AT_decl_line   : 1272
    <44a0>   DW_AT_decl_column : 21
    <44a1>   DW_AT_type        : <0x337d>
    <44a5>   DW_AT_location    : 3 byte block: 91 b8 71 	(DW_OP_fbreg: -1864)
 <5><44a9>: Abbrev Number: 0
 <4><44aa>: Abbrev Number: 29 (DW_TAG_lexical_block)
    <44ab>   DW_AT_low_pc      : 0x7890
    <44b3>   DW_AT_high_pc     : 0xb9
 <5><44bb>: Abbrev Number: 27 (DW_TAG_variable)
    <44bc>   DW_AT_name        : yy
    <44bf>   DW_AT_decl_file   : 1
    <44c0>   DW_AT_decl_line   : 1286
    <44c2>   DW_AT_decl_column : 23
    <44c3>   DW_AT_type        : <0x337d>
    <44c7>   DW_AT_location    : 3 byte block: 91 bc 71 	(DW_OP_fbreg: -1860)
 <5><44cb>: Abbrev Number: 0
 <4><44cc>: Abbrev Number: 0
 <3><44cd>: Abbrev Number: 30 (DW_TAG_lexical_block)
    <44ce>   DW_AT_low_pc      : 0x7ae3
    <44d6>   DW_AT_high_pc     : 0x8e
    <44de>   DW_AT_sibling     : <0x44f3>
 <4><44e2>: Abbrev Number: 27 (DW_TAG_variable)
    <44e3>   DW_AT_name        : yy
    <44e6>   DW_AT_decl_file   : 1
    <44e7>   DW_AT_decl_line   : 1362
    <44e9>   DW_AT_decl_column : 17
    <44ea>   DW_AT_type        : <0x337d>
    <44ee>   DW_AT_location    : 3 byte block: 91 a4 71 	(DW_OP_fbreg: -1884)
 <4><44f2>: Abbrev Number: 0
 <3><44f3>: Abbrev Number: 30 (DW_TAG_lexical_block)
    <44f4>   DW_AT_low_pc      : 0x7b88
    <44fc>   DW_AT_high_pc     : 0x1cd
    <4504>   DW_AT_sibling     : <0x45a5>
 <4><4508>: Abbrev Number: 27 (DW_TAG_variable)
    <4509>   DW_AT_name        : _n
    <450c>   DW_AT_decl_file   : 1
    <450d>   DW_AT_decl_line   : 1385
    <450f>   DW_AT_decl_column : 11
    <4510>   DW_AT_type        : <0x3384>
    <4514>   DW_AT_location    : 3 byte block: 91 c0 74 	(DW_OP_fbreg: -1472)
 <4><4518>: Abbrev Number: 27 (DW_TAG_variable)
    <4519>   DW_AT_name        : _w
    <451c>   DW_AT_decl_file   : 1
    <451d>   DW_AT_decl_line   : 1385
    <451f>   DW_AT_decl_column : 11
    <4520>   DW_AT_type        : <0x3384>
    <4524>   DW_AT_location    : 3 byte block: 91 c8 74 	(DW_OP_fbreg: -1464)
 <4><4528>: Abbrev Number: 26 (DW_TAG_variable)
    <4529>   DW_AT_name        : (indirect string, offset: 0x2710): _incr
    <452d>   DW_AT_decl_file   : 1
    <452e>   DW_AT_decl_line   : 1385
    <4530>   DW_AT_decl_column : 11
    <4531>   DW_AT_type        : <0x3384>
    <4535>   DW_AT_location    : 3 byte block: 91 d0 74 	(DW_OP_fbreg: -1456)
 <4><4539>: Abbrev Number: 29 (DW_TAG_lexical_block)
    <453a>   DW_AT_low_pc      : 0x7c31
    <4542>   DW_AT_high_pc     : 0x9b
 <5><454a>: Abbrev Number: 26 (DW_TAG_variable)
    <454b>   DW_AT_name        : (indirect string, offset: 0x26c2): _delta
    <454f>   DW_AT_decl_file   : 1
    <4550>   DW_AT_decl_line   : 1385
    <4552>   DW_AT_decl_column : 11
    <4553>   DW_AT_type        : <0x3384>
    <4557>   DW_AT_location    : 3 byte block: 91 d8 74 	(DW_OP_fbreg: -1448)
 <5><455b>: Abbrev Number: 30 (DW_TAG_lexical_block)
    <455c>   DW_AT_low_pc      : 0x7c58
    <4564>   DW_AT_high_pc     : 0x39
    <456c>   DW_AT_sibling     : <0x4581>
 <6><4570>: Abbrev Number: 27 (DW_TAG_variable)
    <4571>   DW_AT_name        : _i
    <4574>   DW_AT_decl_file   : 1
    <4575>   DW_AT_decl_line   : 1385
    <4577>   DW_AT_decl_column : 11
    <4578>   DW_AT_type        : <0x3384>
    <457c>   DW_AT_location    : 3 byte block: 91 c8 73 	(DW_OP_fbreg: -1592)
 <6><4580>: Abbrev Number: 0
 <5><4581>: Abbrev Number: 29 (DW_TAG_lexical_block)
    <4582>   DW_AT_low_pc      : 0x7c93
    <458a>   DW_AT_high_pc     : 0x39
 <6><4592>: Abbrev Number: 27 (DW_TAG_variable)
    <4593>   DW_AT_name        : _i
    <4596>   DW_AT_decl_file   : 1
    <4597>   DW_AT_decl_line   : 1385
    <4599>   DW_AT_decl_column : 11
    <459a>   DW_AT_type        : <0x3384>
    <459e>   DW_AT_location    : 3 byte block: 91 d0 73 	(DW_OP_fbreg: -1584)
 <6><45a2>: Abbrev Number: 0
 <5><45a3>: Abbrev Number: 0
 <4><45a4>: Abbrev Number: 0
 <3><45a5>: Abbrev Number: 31 (DW_TAG_lexical_block)
    <45a6>   DW_AT_ranges      : 0xc0
    <45aa>   DW_AT_sibling     : <0x45f3>
 <4><45ae>: Abbrev Number: 26 (DW_TAG_variable)
    <45af>   DW_AT_name        : (indirect string, offset: 0x26b1): diff
    <45b3>   DW_AT_decl_file   : 1
    <45b4>   DW_AT_decl_line   : 1407
    <45b6>   DW_AT_decl_column : 17
    <45b7>   DW_AT_type        : <0x337d>
    <45bb>   DW_AT_location    : 3 byte block: 91 c4 71 	(DW_OP_fbreg: -1852)
 <4><45bf>: Abbrev Number: 26 (DW_TAG_variable)
    <45c0>   DW_AT_name        : (indirect string, offset: 0x2738): hour_diff
    <45c4>   DW_AT_decl_file   : 1
    <45c5>   DW_AT_decl_line   : 1408
    <45c7>   DW_AT_decl_column : 17
    <45c8>   DW_AT_type        : <0x337d>
    <45cc>   DW_AT_location    : 3 byte block: 91 c8 71 	(DW_OP_fbreg: -1848)
 <4><45d0>: Abbrev Number: 26 (DW_TAG_variable)
    <45d1>   DW_AT_name        : (indirect string, offset: 0x25b2): min_diff
    <45d5>   DW_AT_decl_file   : 1
    <45d6>   DW_AT_decl_line   : 1409
    <45d8>   DW_AT_decl_column : 17
    <45d9>   DW_AT_type        : <0x337d>
    <45dd>   DW_AT_location    : 3 byte block: 91 cc 71 	(DW_OP_fbreg: -1844)
 <4><45e1>: Abbrev Number: 26 (DW_TAG_variable)
    <45e2>   DW_AT_name        : (indirect string, offset: 0x26ad): sec_diff
    <45e6>   DW_AT_decl_file   : 1
    <45e7>   DW_AT_decl_line   : 1410
    <45e9>   DW_AT_decl_column : 17
    <45ea>   DW_AT_type        : <0x337d>
    <45ee>   DW_AT_location    : 3 byte block: 91 d0 71 	(DW_OP_fbreg: -1840)
 <4><45f2>: Abbrev Number: 0
 <3><45f3>: Abbrev Number: 29 (DW_TAG_lexical_block)
    <45f4>   DW_AT_low_pc      : 0x803b
    <45fc>   DW_AT_high_pc     : 0x1d0
 <4><4604>: Abbrev Number: 27 (DW_TAG_variable)
    <4605>   DW_AT_name        : _n
    <4608>   DW_AT_decl_file   : 1
    <4609>   DW_AT_decl_line   : 1479
    <460b>   DW_AT_decl_column : 11
    <460c>   DW_AT_type        : <0x3384>
    <4610>   DW_AT_location    : 3 byte block: 91 d0 76 	(DW_OP_fbreg: -1200)
 <4><4614>: Abbrev Number: 27 (DW_TAG_variable)
    <4615>   DW_AT_name        : _w
    <4618>   DW_AT_decl_file   : 1
    <4619>   DW_AT_decl_line   : 1479
    <461b>   DW_AT_decl_column : 11
    <461c>   DW_AT_type        : <0x3384>
    <4620>   DW_AT_location    : 3 byte block: 91 d8 76 	(DW_OP_fbreg: -1192)
 <4><4624>: Abbrev Number: 26 (DW_TAG_variable)
    <4625>   DW_AT_name        : (indirect string, offset: 0x2710): _incr
    <4629>   DW_AT_decl_file   : 1
    <462a>   DW_AT_decl_line   : 1479
    <462c>   DW_AT_decl_column : 11
    <462d>   DW_AT_type        : <0x3384>
    <4631>   DW_AT_location    : 3 byte block: 91 e0 76 	(DW_OP_fbreg: -1184)
 <4><4635>: Abbrev Number: 29 (DW_TAG_lexical_block)
    <4636>   DW_AT_low_pc      : 0x80e7
    <463e>   DW_AT_high_pc     : 0x9b
 <5><4646>: Abbrev Number: 26 (DW_TAG_variable)
    <4647>   DW_AT_name        : (indirect string, offset: 0x26c2): _delta
    <464b>   DW_AT_decl_file   : 1
    <464c>   DW_AT_decl_line   : 1479
    <464e>   DW_AT_decl_column : 11
    <464f>   DW_AT_type        : <0x3384>
    <4653>   DW_AT_location    : 3 byte block: 91 e8 76 	(DW_OP_fbreg: -1176)
 <5><4657>: Abbrev Number: 30 (DW_TAG_lexical_block)
    <4658>   DW_AT_low_pc      : 0x810e
    <4660>   DW_AT_high_pc     : 0x39
    <4668>   DW_AT_sibling     : <0x467d>
 <6><466c>: Abbrev Number: 27 (DW_TAG_variable)
    <466d>   DW_AT_name        : _i
    <4670>   DW_AT_decl_file   : 1
    <4671>   DW_AT_decl_line   : 1479
    <4673>   DW_AT_decl_column : 11
    <4674>   DW_AT_type        : <0x3384>
    <4678>   DW_AT_location    : 3 byte block: 91 d8 73 	(DW_OP_fbreg: -1576)
 <6><467c>: Abbrev Number: 0
 <5><467d>: Abbrev Number: 29 (DW_TAG_lexical_block)
    <467e>   DW_AT_low_pc      : 0x8149
    <4686>   DW_AT_high_pc     : 0x39
 <6><468e>: Abbrev Number: 27 (DW_TAG_variable)
    <468f>   DW_AT_name        : _i
    <4692>   DW_AT_decl_file   : 1
    <4693>   DW_AT_decl_line   : 1479
    <4695>   DW_AT_decl_column : 11
    <4696>   DW_AT_type        : <0x3384>
    <469a>   DW_AT_location    : 3 byte block: 91 e0 73 	(DW_OP_fbreg: -1568)
 <6><469e>: Abbrev Number: 0
 <5><469f>: Abbrev Number: 0
 <4><46a0>: Abbrev Number: 0
 <3><46a1>: Abbrev Number: 0
 <2><46a2>: Abbrev Number: 0
 <1><46a3>: Abbrev Number: 4 (DW_TAG_base_type)
    <46a4>   DW_AT_byte_size   : 1
    <46a5>   DW_AT_encoding    : 2	(boolean)
    <46a6>   DW_AT_name        : (indirect string, offset: 0x1d4): _Bool
 <1><46aa>: Abbrev Number: 2 (DW_TAG_pointer_type)
    <46ab>   DW_AT_byte_size   : 8
    <46ac>   DW_AT_type        : <0x46a3>
 <1><46b0>: Abbrev Number: 13 (DW_TAG_array_type)
    <46b1>   DW_AT_type        : <0x3371>
    <46b5>   DW_AT_sibling     : <0x46c0>
 <2><46b9>: Abbrev Number: 14 (DW_TAG_subrange_type)
    <46ba>   DW_AT_type        : <0x3390>
    <46be>   DW_AT_upper_bound : 22
 <2><46bf>: Abbrev Number: 0
 <1><46c0>: Abbrev Number: 13 (DW_TAG_array_type)
    <46c1>   DW_AT_type        : <0x3371>
    <46c5>   DW_AT_sibling     : <0x46d0>
 <2><46c9>: Abbrev Number: 14 (DW_TAG_subrange_type)
    <46ca>   DW_AT_type        : <0x3390>
    <46ce>   DW_AT_upper_bound : 4
 <2><46cf>: Abbrev Number: 0
 <1><46d0>: Abbrev Number: 13 (DW_TAG_array_type)
    <46d1>   DW_AT_type        : <0x3371>
    <46d5>   DW_AT_sibling     : <0x46e1>
 <2><46d9>: Abbrev Number: 33 (DW_TAG_subrange_type)
    <46da>   DW_AT_type        : <0x3390>
    <46de>   DW_AT_upper_bound : 1023
 <2><46e0>: Abbrev Number: 0
 <1><46e1>: Abbrev Number: 34 (DW_TAG_subprogram)
    <46e2>   DW_AT_external    : 1
    <46e2>   DW_AT_name        : (indirect string, offset: 0x101d): fprintftime
    <46e6>   DW_AT_decl_file   : 1
    <46e7>   DW_AT_decl_line   : 420
    <46e9>   DW_AT_decl_column : 1
    <46ea>   DW_AT_prototyped  : 1
    <46ea>   DW_AT_type        : <0x3384>
    <46ee>   DW_AT_low_pc      : 0x57af
    <46f6>   DW_AT_high_pc     : 0x82
    <46fe>   DW_AT_frame_base  : 1 byte block: 9c 	(DW_OP_call_frame_cfa)
    <4700>   DW_AT_GNU_all_tail_call_sites: 1
    <4700>   DW_AT_sibling     : <0x4761>
 <2><4704>: Abbrev Number: 24 (DW_TAG_formal_parameter)
    <4705>   DW_AT_name        : s
    <4707>   DW_AT_decl_file   : 1
    <4708>   DW_AT_decl_line   : 420
    <470a>   DW_AT_decl_column : 32
    <470b>   DW_AT_type        : <0x35da>
    <470f>   DW_AT_location    : 2 byte block: 91 58 	(DW_OP_fbreg: -40)
 <2><4712>: Abbrev Number: 25 (DW_TAG_formal_parameter)
    <4713>   DW_AT_name        : (indirect string, offset: 0x4f4): format
    <4717>   DW_AT_decl_file   : 1
    <4718>   DW_AT_decl_line   : 421
    <471a>   DW_AT_decl_column : 28
    <471b>   DW_AT_type        : <0x35cf>
    <471f>   DW_AT_location    : 2 byte block: 91 50 	(DW_OP_fbreg: -48)
 <2><4722>: Abbrev Number: 24 (DW_TAG_formal_parameter)
    <4723>   DW_AT_name        : tp
    <4726>   DW_AT_decl_file   : 1
    <4727>   DW_AT_decl_line   : 422
    <4729>   DW_AT_decl_column : 31
    <472a>   DW_AT_type        : <0x3793>
    <472e>   DW_AT_location    : 2 byte block: 91 48 	(DW_OP_fbreg: -56)
 <2><4731>: Abbrev Number: 24 (DW_TAG_formal_parameter)
    <4732>   DW_AT_name        : tz
    <4735>   DW_AT_decl_file   : 1
    <4736>   DW_AT_decl_line   : 422
    <4738>   DW_AT_decl_column : 34
    <4739>   DW_AT_type        : <0x36a7>
    <473d>   DW_AT_location    : 2 byte block: 91 40 	(DW_OP_fbreg: -64)
 <2><4740>: Abbrev Number: 24 (DW_TAG_formal_parameter)
    <4741>   DW_AT_name        : ns
    <4744>   DW_AT_decl_file   : 1
    <4745>   DW_AT_decl_line   : 422
    <4747>   DW_AT_decl_column : 34
    <4748>   DW_AT_type        : <0x337d>
    <474c>   DW_AT_location    : 3 byte block: 91 bc 7f 	(DW_OP_fbreg: -68)
 <2><4750>: Abbrev Number: 26 (DW_TAG_variable)
    <4751>   DW_AT_name        : (indirect string, offset: 0x2555): tzset_called
    <4755>   DW_AT_decl_file   : 1
    <4756>   DW_AT_decl_line   : 424
    <4758>   DW_AT_decl_column : 8
    <4759>   DW_AT_type        : <0x46a3>
    <475d>   DW_AT_location    : 2 byte block: 91 67 	(DW_OP_fbreg: -25)
 <2><4760>: Abbrev Number: 0
 <1><4761>: Abbrev Number: 35 (DW_TAG_subprogram)
    <4762>   DW_AT_name        : (indirect string, offset: 0x27c5): iso_week_days
    <4766>   DW_AT_decl_file   : 1
    <4767>   DW_AT_decl_line   : 371
    <4769>   DW_AT_decl_column : 1
    <476a>   DW_AT_prototyped  : 1
    <476a>   DW_AT_type        : <0x337d>
    <476e>   DW_AT_low_pc      : 0x575f
    <4776>   DW_AT_high_pc     : 0x50
    <477e>   DW_AT_frame_base  : 1 byte block: 9c 	(DW_OP_call_frame_cfa)
    <4780>   DW_AT_GNU_all_call_sites: 1
    <4780>   DW_AT_sibling     : <0x47b5>
 <2><4784>: Abbrev Number: 25 (DW_TAG_formal_parameter)
    <4785>   DW_AT_name        : (indirect string, offset: 0x10a5): yday
    <4789>   DW_AT_decl_file   : 1
    <478a>   DW_AT_decl_line   : 371
    <478c>   DW_AT_decl_column : 20
    <478d>   DW_AT_type        : <0x337d>
    <4791>   DW_AT_location    : 2 byte block: 91 5c 	(DW_OP_fbreg: -36)
 <2><4794>: Abbrev Number: 25 (DW_TAG_formal_parameter)
    <4795>   DW_AT_name        : (indirect string, offset: 0x1207): wday
    <4799>   DW_AT_decl_file   : 1
    <479a>   DW_AT_decl_line   : 371
    <479c>   DW_AT_decl_column : 30
    <479d>   DW_AT_type        : <0x337d>
    <47a1>   DW_AT_location    : 2 byte block: 91 58 	(DW_OP_fbreg: -40)
 <2><47a4>: Abbrev Number: 26 (DW_TAG_variable)
    <47a5>   DW_AT_name        : (indirect string, offset: 0x2599): big_enough_multiple_of_7
    <47a9>   DW_AT_decl_file   : 1
    <47aa>   DW_AT_decl_line   : 374
    <47ac>   DW_AT_decl_column : 7
    <47ad>   DW_AT_type        : <0x337d>
    <47b1>   DW_AT_location    : 2 byte block: 91 6c 	(DW_OP_fbreg: -20)
 <2><47b4>: Abbrev Number: 0
 <1><47b5>: Abbrev Number: 36 (DW_TAG_subprogram)
    <47b6>   DW_AT_name        : (indirect string, offset: 0x2623): fwrite_uppcase
    <47ba>   DW_AT_decl_file   : 1
    <47bb>   DW_AT_decl_line   : 300
    <47bd>   DW_AT_decl_column : 1
    <47be>   DW_AT_prototyped  : 1
    <47be>   DW_AT_low_pc      : 0x570a
    <47c6>   DW_AT_high_pc     : 0x55
    <47ce>   DW_AT_frame_base  : 1 byte block: 9c 	(DW_OP_call_frame_cfa)
    <47d0>   DW_AT_GNU_all_tail_call_sites: 1
    <47d0>   DW_AT_sibling     : <0x4804>
 <2><47d4>: Abbrev Number: 24 (DW_TAG_formal_parameter)
    <47d5>   DW_AT_name        : fp
    <47d8>   DW_AT_decl_file   : 1
    <47d9>   DW_AT_decl_line   : 300
    <47db>   DW_AT_decl_column : 23
    <47dc>   DW_AT_type        : <0x35da>
    <47e0>   DW_AT_location    : 2 byte block: 91 68 	(DW_OP_fbreg: -24)
 <2><47e3>: Abbrev Number: 24 (DW_TAG_formal_parameter)
    <47e4>   DW_AT_name        : src
    <47e8>   DW_AT_decl_file   : 1
    <47e9>   DW_AT_decl_line   : 300
    <47eb>   DW_AT_decl_column : 41
    <47ec>   DW_AT_type        : <0x35cf>
    <47f0>   DW_AT_location    : 2 byte block: 91 60 	(DW_OP_fbreg: -32)
 <2><47f3>: Abbrev Number: 24 (DW_TAG_formal_parameter)
    <47f4>   DW_AT_name        : len
    <47f8>   DW_AT_decl_file   : 1
    <47f9>   DW_AT_decl_line   : 300
    <47fb>   DW_AT_decl_column : 53
    <47fc>   DW_AT_type        : <0x3384>
    <4800>   DW_AT_location    : 2 byte block: 91 58 	(DW_OP_fbreg: -40)
 <2><4803>: Abbrev Number: 0
 <1><4804>: Abbrev Number: 37 (DW_TAG_subprogram)
    <4805>   DW_AT_name        : (indirect string, offset: 0x25f8): fwrite_lowcase
    <4809>   DW_AT_decl_file   : 1
    <480a>   DW_AT_decl_line   : 290
    <480c>   DW_AT_decl_column : 1
    <480d>   DW_AT_prototyped  : 1
    <480d>   DW_AT_low_pc      : 0x56b5
    <4815>   DW_AT_high_pc     : 0x55
    <481d>   DW_AT_frame_base  : 1 byte block: 9c 	(DW_OP_call_frame_cfa)
    <481f>   DW_AT_GNU_all_tail_call_sites: 1
 <2><481f>: Abbrev Number: 24 (DW_TAG_formal_parameter)
    <4820>   DW_AT_name        : fp
    <4823>   DW_AT_decl_file   : 1
    <4824>   DW_AT_decl_line   : 290
    <4826>   DW_AT_decl_column : 23
    <4827>   DW_AT_type        : <0x35da>
    <482b>   DW_AT_location    : 2 byte block: 91 68 	(DW_OP_fbreg: -24)
 <2><482e>: Abbrev Number: 24 (DW_TAG_formal_parameter)
    <482f>   DW_AT_name        : src
    <4833>   DW_AT_decl_file   : 1
    <4834>   DW_AT_decl_line   : 290
    <4836>   DW_AT_decl_column : 41
    <4837>   DW_AT_type        : <0x35cf>
    <483b>   DW_AT_location    : 2 byte block: 91 60 	(DW_OP_fbreg: -32)
 <2><483e>: Abbrev Number: 24 (DW_TAG_formal_parameter)
    <483f>   DW_AT_name        : len
    <4843>   DW_AT_decl_file   : 1
    <4844>   DW_AT_decl_line   : 290
    <4846>   DW_AT_decl_column : 53
    <4847>   DW_AT_type        : <0x3384>
    <484b>   DW_AT_location    : 2 byte block: 91 58 	(DW_OP_fbreg: -40)
 <2><484e>: Abbrev Number: 0
 <1><484f>: Abbrev Number: 0
  Compilation Unit @ offset 0x4850:
   Length:        0xed (32-bit)
   Version:       4
   Abbrev Offset: 0xc16
   Pointer Size:  8
 <0><485b>: Abbrev Number: 1 (DW_TAG_compile_unit)
    <485c>   DW_AT_producer    : (indirect string, offset: 0x81e): GNU C17 11.1.0 -mtune=generic -march=x86-64 -g -O0 -fasynchronous-unwind-tables -fstack-protector-strong -fstack-clash-protection -fcf-protection
    <4860>   DW_AT_language    : 12	(ANSI C99)
    <4861>   DW_AT_name        : (indirect string, offset: 0x27d3): lib/free.c
    <4865>   DW_AT_comp_dir    : (indirect string, offset: 0xb3f): /home/jacekline/dev/research/programs/coreutils-9.1
    <4869>   DW_AT_low_pc      : 0x8263
    <4871>   DW_AT_high_pc     : 0x83
    <4879>   DW_AT_stmt_list   : 0x1d62
 <1><487d>: Abbrev Number: 2 (DW_TAG_base_type)
    <487e>   DW_AT_byte_size   : 8
    <487f>   DW_AT_encoding    : 7	(unsigned)
    <4880>   DW_AT_name        : (indirect string, offset: 0x1bf6): long unsigned int
 <1><4884>: Abbrev Number: 3 (DW_TAG_base_type)
    <4885>   DW_AT_byte_size   : 4
    <4886>   DW_AT_encoding    : 5	(signed)
    <4887>   DW_AT_name        : int
 <1><488b>: Abbrev Number: 2 (DW_TAG_base_type)
    <488c>   DW_AT_byte_size   : 4
    <488d>   DW_AT_encoding    : 7	(unsigned)
    <488e>   DW_AT_name        : (indirect string, offset: 0x1bfb): unsigned int
 <1><4892>: Abbrev Number: 2 (DW_TAG_base_type)
    <4893>   DW_AT_byte_size   : 8
    <4894>   DW_AT_encoding    : 5	(signed)
    <4895>   DW_AT_name        : (indirect string, offset: 0x1ea4): long int
 <1><4899>: Abbrev Number: 2 (DW_TAG_base_type)
    <489a>   DW_AT_byte_size   : 8
    <489b>   DW_AT_encoding    : 5	(signed)
    <489c>   DW_AT_name        : (indirect string, offset: 0x1e9f): long long int
 <1><48a0>: Abbrev Number: 2 (DW_TAG_base_type)
    <48a1>   DW_AT_byte_size   : 2
    <48a2>   DW_AT_encoding    : 7	(unsigned)
    <48a3>   DW_AT_name        : (indirect string, offset: 0x1116): short unsigned int
 <1><48a7>: Abbrev Number: 2 (DW_TAG_base_type)
    <48a8>   DW_AT_byte_size   : 1
    <48a9>   DW_AT_encoding    : 6	(signed char)
    <48aa>   DW_AT_name        : (indirect string, offset: 0x7c8): char
 <1><48ae>: Abbrev Number: 2 (DW_TAG_base_type)
    <48af>   DW_AT_byte_size   : 1
    <48b0>   DW_AT_encoding    : 8	(unsigned char)
    <48b1>   DW_AT_name        : (indirect string, offset: 0x7bf): unsigned char
 <1><48b5>: Abbrev Number: 2 (DW_TAG_base_type)
    <48b6>   DW_AT_byte_size   : 1
    <48b7>   DW_AT_encoding    : 6	(signed char)
    <48b8>   DW_AT_name        : (indirect string, offset: 0x7c1): signed char
 <1><48bc>: Abbrev Number: 2 (DW_TAG_base_type)
    <48bd>   DW_AT_byte_size   : 2
    <48be>   DW_AT_encoding    : 5	(signed)
    <48bf>   DW_AT_name        : (indirect string, offset: 0x21d3): short int
 <1><48c3>: Abbrev Number: 4 (DW_TAG_array_type)
    <48c4>   DW_AT_type        : <0x4884>
    <48c8>   DW_AT_sibling     : <0x48d3>
 <2><48cc>: Abbrev Number: 5 (DW_TAG_subrange_type)
    <48cd>   DW_AT_type        : <0x487d>
    <48d1>   DW_AT_upper_bound : 1
 <2><48d2>: Abbrev Number: 0
 <1><48d3>: Abbrev Number: 6 (DW_TAG_pointer_type)
    <48d4>   DW_AT_byte_size   : 8
 <1><48d5>: Abbrev Number: 2 (DW_TAG_base_type)
    <48d6>   DW_AT_byte_size   : 8
    <48d7>   DW_AT_encoding    : 7	(unsigned)
    <48d8>   DW_AT_name        : (indirect string, offset: 0x1bf1): long long unsigned int
 <1><48dc>: Abbrev Number: 2 (DW_TAG_base_type)
    <48dd>   DW_AT_byte_size   : 16
    <48de>   DW_AT_encoding    : 4	(float)
    <48df>   DW_AT_name        : (indirect string, offset: 0x1507): long double
 <1><48e3>: Abbrev Number: 7 (DW_TAG_subprogram)
    <48e4>   DW_AT_external    : 1
    <48e4>   DW_AT_name        : (indirect string, offset: 0x3704): free
    <48e8>   DW_AT_decl_file   : 2
    <48e9>   DW_AT_decl_line   : 565
    <48eb>   DW_AT_decl_column : 13
    <48ec>   DW_AT_prototyped  : 1
    <48ec>   DW_AT_declaration : 1
    <48ec>   DW_AT_sibling     : <0x48f6>
 <2><48f0>: Abbrev Number: 8 (DW_TAG_formal_parameter)
    <48f1>   DW_AT_type        : <0x48d3>
 <2><48f5>: Abbrev Number: 0
 <1><48f6>: Abbrev Number: 9 (DW_TAG_subprogram)
    <48f7>   DW_AT_external    : 1
    <48f7>   DW_AT_name        : (indirect string, offset: 0x15d5): __errno_location
    <48fb>   DW_AT_decl_file   : 3
    <48fc>   DW_AT_decl_line   : 37
    <48fd>   DW_AT_decl_column : 13
    <48fe>   DW_AT_prototyped  : 1
    <48fe>   DW_AT_type        : <0x4902>
    <4902>   DW_AT_declaration : 1
 <1><4902>: Abbrev Number: 10 (DW_TAG_pointer_type)
    <4903>   DW_AT_byte_size   : 8
    <4904>   DW_AT_type        : <0x4884>
 <1><4908>: Abbrev Number: 11 (DW_TAG_subprogram)
    <4909>   DW_AT_external    : 1
    <4909>   DW_AT_name        : (indirect string, offset: 0x20a4): rpl_free
    <490d>   DW_AT_decl_file   : 4
    <490e>   DW_AT_decl_line   : 739
    <4910>   DW_AT_decl_column : 1
    <4911>   DW_AT_prototyped  : 1
    <4911>   DW_AT_low_pc      : 0x8263
    <4919>   DW_AT_high_pc     : 0x83
    <4921>   DW_AT_frame_base  : 1 byte block: 9c 	(DW_OP_call_frame_cfa)
    <4923>   DW_AT_GNU_all_tail_call_sites: 1
 <2><4923>: Abbrev Number: 12 (DW_TAG_formal_parameter)
    <4924>   DW_AT_name        : p
    <4926>   DW_AT_decl_file   : 1
    <4927>   DW_AT_decl_line   : 31
    <4928>   DW_AT_decl_column : 17
    <4929>   DW_AT_type        : <0x48d3>
    <492d>   DW_AT_location    : 2 byte block: 91 48 	(DW_OP_fbreg: -56)
 <2><4930>: Abbrev Number: 13 (DW_TAG_variable)
    <4931>   DW_AT_name        : err
    <4935>   DW_AT_decl_file   : 1
    <4936>   DW_AT_decl_line   : 40
    <4937>   DW_AT_decl_column : 7
    <4938>   DW_AT_type        : <0x48c3>
    <493c>   DW_AT_location    : 2 byte block: 91 50 	(DW_OP_fbreg: -48)
 <2><493f>: Abbrev Number: 0
 <1><4940>: Abbrev Number: 0
  Compilation Unit @ offset 0x4941:
   Length:        0x369 (32-bit)
   Version:       4
   Abbrev Offset: 0xccf
   Pointer Size:  8
 <0><494c>: Abbrev Number: 1 (DW_TAG_compile_unit)
    <494d>   DW_AT_producer    : (indirect string, offset: 0x81e): GNU C17 11.1.0 -mtune=generic -march=x86-64 -g -O0 -fasynchronous-unwind-tables -fstack-protector-strong -fstack-clash-protection -fcf-protection
    <4951>   DW_AT_language    : 12	(ANSI C99)
    <4952>   DW_AT_name        : (indirect string, offset: 0x27de): lib/fseeko.c
    <4956>   DW_AT_comp_dir    : (indirect string, offset: 0xb3f): /home/jacekline/dev/research/programs/coreutils-9.1
    <495a>   DW_AT_low_pc      : 0x82e6
    <4962>   DW_AT_high_pc     : 0xbe
    <496a>   DW_AT_stmt_list   : 0x1e01
 <1><496e>: Abbrev Number: 2 (DW_TAG_typedef)
    <496f>   DW_AT_name        : (indirect string, offset: 0x1155): size_t
    <4973>   DW_AT_decl_file   : 2
    <4974>   DW_AT_decl_line   : 209
    <4975>   DW_AT_decl_column : 23
    <4976>   DW_AT_type        : <0x497a>
 <1><497a>: Abbrev Number: 3 (DW_TAG_base_type)
    <497b>   DW_AT_byte_size   : 8
    <497c>   DW_AT_encoding    : 7	(unsigned)
    <497d>   DW_AT_name        : (indirect string, offset: 0x1bf6): long unsigned int
 <1><4981>: Abbrev Number: 3 (DW_TAG_base_type)
    <4982>   DW_AT_byte_size   : 4
    <4983>   DW_AT_encoding    : 7	(unsigned)
    <4984>   DW_AT_name        : (indirect string, offset: 0x1bfb): unsigned int
 <1><4988>: Abbrev Number: 4 (DW_TAG_pointer_type)
    <4989>   DW_AT_byte_size   : 8
 <1><498a>: Abbrev Number: 3 (DW_TAG_base_type)
    <498b>   DW_AT_byte_size   : 1
    <498c>   DW_AT_encoding    : 8	(unsigned char)
    <498d>   DW_AT_name        : (indirect string, offset: 0x7bf): unsigned char
 <1><4991>: Abbrev Number: 3 (DW_TAG_base_type)
    <4992>   DW_AT_byte_size   : 2
    <4993>   DW_AT_encoding    : 7	(unsigned)
    <4994>   DW_AT_name        : (indirect string, offset: 0x1116): short unsigned int
 <1><4998>: Abbrev Number: 3 (DW_TAG_base_type)
    <4999>   DW_AT_byte_size   : 1
    <499a>   DW_AT_encoding    : 6	(signed char)
    <499b>   DW_AT_name        : (indirect string, offset: 0x7c1): signed char
 <1><499f>: Abbrev Number: 3 (DW_TAG_base_type)
    <49a0>   DW_AT_byte_size   : 2
    <49a1>   DW_AT_encoding    : 5	(signed)
    <49a2>   DW_AT_name        : (indirect string, offset: 0x21d3): short int
 <1><49a6>: Abbrev Number: 5 (DW_TAG_base_type)
    <49a7>   DW_AT_byte_size   : 4
    <49a8>   DW_AT_encoding    : 5	(signed)
    <49a9>   DW_AT_name        : int
 <1><49ad>: Abbrev Number: 3 (DW_TAG_base_type)
    <49ae>   DW_AT_byte_size   : 8
    <49af>   DW_AT_encoding    : 5	(signed)
    <49b0>   DW_AT_name        : (indirect string, offset: 0x1ea4): long int
 <1><49b4>: Abbrev Number: 2 (DW_TAG_typedef)
    <49b5>   DW_AT_name        : (indirect string, offset: 0x2c5): __off_t
    <49b9>   DW_AT_decl_file   : 3
    <49ba>   DW_AT_decl_line   : 152
    <49bb>   DW_AT_decl_column : 25
    <49bc>   DW_AT_type        : <0x49ad>
 <1><49c0>: Abbrev Number: 2 (DW_TAG_typedef)
    <49c1>   DW_AT_name        : (indirect string, offset: 0x120c): __off64_t
    <49c5>   DW_AT_decl_file   : 3
    <49c6>   DW_AT_decl_line   : 153
    <49c7>   DW_AT_decl_column : 27
    <49c8>   DW_AT_type        : <0x49ad>
 <1><49cc>: Abbrev Number: 6 (DW_TAG_pointer_type)
    <49cd>   DW_AT_byte_size   : 8
    <49ce>   DW_AT_type        : <0x49d2>
 <1><49d2>: Abbrev Number: 3 (DW_TAG_base_type)
    <49d3>   DW_AT_byte_size   : 1
    <49d4>   DW_AT_encoding    : 6	(signed char)
    <49d5>   DW_AT_name        : (indirect string, offset: 0x7c8): char
 <1><49d9>: Abbrev Number: 7 (DW_TAG_structure_type)
    <49da>   DW_AT_name        : (indirect string, offset: 0x16c9): _IO_FILE
    <49de>   DW_AT_byte_size   : 216
    <49df>   DW_AT_decl_file   : 4
    <49e0>   DW_AT_decl_line   : 49
    <49e1>   DW_AT_decl_column : 8
    <49e2>   DW_AT_sibling     : <0x4b60>
 <2><49e6>: Abbrev Number: 8 (DW_TAG_member)
    <49e7>   DW_AT_name        : (indirect string, offset: 0x160b): _flags
    <49eb>   DW_AT_decl_file   : 4
    <49ec>   DW_AT_decl_line   : 51
    <49ed>   DW_AT_decl_column : 7
    <49ee>   DW_AT_type        : <0x49a6>
    <49f2>   DW_AT_data_member_location: 0
 <2><49f3>: Abbrev Number: 8 (DW_TAG_member)
    <49f4>   DW_AT_name        : (indirect string, offset: 0x1cf2): _IO_read_ptr
    <49f8>   DW_AT_decl_file   : 4
    <49f9>   DW_AT_decl_line   : 54
    <49fa>   DW_AT_decl_column : 9
    <49fb>   DW_AT_type        : <0x49cc>
    <49ff>   DW_AT_data_member_location: 8
 <2><4a00>: Abbrev Number: 8 (DW_TAG_member)
    <4a01>   DW_AT_name        : (indirect string, offset: 0x16a5): _IO_read_end
    <4a05>   DW_AT_decl_file   : 4
    <4a06>   DW_AT_decl_line   : 55
    <4a07>   DW_AT_decl_column : 9
    <4a08>   DW_AT_type        : <0x49cc>
    <4a0c>   DW_AT_data_member_location: 16
 <2><4a0d>: Abbrev Number: 8 (DW_TAG_member)
    <4a0e>   DW_AT_name        : (indirect string, offset: 0x123b): _IO_read_base
    <4a12>   DW_AT_decl_file   : 4
    <4a13>   DW_AT_decl_line   : 56
    <4a14>   DW_AT_decl_column : 9
    <4a15>   DW_AT_type        : <0x49cc>
    <4a19>   DW_AT_data_member_location: 24
 <2><4a1a>: Abbrev Number: 8 (DW_TAG_member)
    <4a1b>   DW_AT_name        : (indirect string, offset: 0x12dd): _IO_write_base
    <4a1f>   DW_AT_decl_file   : 4
    <4a20>   DW_AT_decl_line   : 57
    <4a21>   DW_AT_decl_column : 9
    <4a22>   DW_AT_type        : <0x49cc>
    <4a26>   DW_AT_data_member_location: 32
 <2><4a27>: Abbrev Number: 8 (DW_TAG_member)
    <4a28>   DW_AT_name        : (indirect string, offset: 0x9ba): _IO_write_ptr
    <4a2c>   DW_AT_decl_file   : 4
    <4a2d>   DW_AT_decl_line   : 58
    <4a2e>   DW_AT_decl_column : 9
    <4a2f>   DW_AT_type        : <0x49cc>
    <4a33>   DW_AT_data_member_location: 40
 <2><4a34>: Abbrev Number: 8 (DW_TAG_member)
    <4a35>   DW_AT_name        : (indirect string, offset: 0x4b3): _IO_write_end
    <4a39>   DW_AT_decl_file   : 4
    <4a3a>   DW_AT_decl_line   : 59
    <4a3b>   DW_AT_decl_column : 9
    <4a3c>   DW_AT_type        : <0x49cc>
    <4a40>   DW_AT_data_member_location: 48
 <2><4a41>: Abbrev Number: 8 (DW_TAG_member)
    <4a42>   DW_AT_name        : (indirect string, offset: 0x163e): _IO_buf_base
    <4a46>   DW_AT_decl_file   : 4
    <4a47>   DW_AT_decl_line   : 60
    <4a48>   DW_AT_decl_column : 9
    <4a49>   DW_AT_type        : <0x49cc>
    <4a4d>   DW_AT_data_member_location: 56
 <2><4a4e>: Abbrev Number: 8 (DW_TAG_member)
    <4a4f>   DW_AT_name        : (indirect string, offset: 0x1276): _IO_buf_end
    <4a53>   DW_AT_decl_file   : 4
    <4a54>   DW_AT_decl_line   : 61
    <4a55>   DW_AT_decl_column : 9
    <4a56>   DW_AT_type        : <0x49cc>
    <4a5a>   DW_AT_data_member_location: 64
 <2><4a5b>: Abbrev Number: 8 (DW_TAG_member)
    <4a5c>   DW_AT_name        : (indirect string, offset: 0xbe6): _IO_save_base
    <4a60>   DW_AT_decl_file   : 4
    <4a61>   DW_AT_decl_line   : 64
