
factor_O0_debug:     file format elf64-x86-64

Contents of the .eh_frame section (loaded from factor_O0_debug):


00000000 0000000000000014 00000000 CIE
  Version:               1
  Augmentation:          "zR"
  Code alignment factor: 1
  Data alignment factor: -8
  Return address column: 16
  Augmentation data:     1b
  DW_CFA_def_cfa: r7 (rsp) ofs 8
  DW_CFA_offset: r16 (rip) at cfa-8
  DW_CFA_nop
  DW_CFA_nop

00000018 0000000000000014 0000001c FDE cie=00000000 pc=0000000000002b40..0000000000002b6f
  DW_CFA_advance_loc: 4 to 0000000000002b44
  DW_CFA_undefined: r16 (rip)
  DW_CFA_nop
  DW_CFA_nop
  DW_CFA_nop
  DW_CFA_nop

00000030 0000000000000024 00000034 FDE cie=00000000 pc=0000000000002020..00000000000025b0
  DW_CFA_def_cfa_offset: 16
  DW_CFA_advance_loc: 6 to 0000000000002026
  DW_CFA_def_cfa_offset: 24
  DW_CFA_advance_loc: 10 to 0000000000002030
  DW_CFA_def_cfa_expression (DW_OP_breg7 (rsp): 8; DW_OP_breg16 (rip): 0; DW_OP_lit15; DW_OP_and; DW_OP_lit10; DW_OP_ge; DW_OP_lit3; DW_OP_shl; DW_OP_plus)
  DW_CFA_nop
  DW_CFA_nop
  DW_CFA_nop
  DW_CFA_nop

00000058 0000000000000014 0000005c FDE cie=00000000 pc=00000000000025b0..00000000000025c0
  DW_CFA_nop
  DW_CFA_nop
  DW_CFA_nop
  DW_CFA_nop
  DW_CFA_nop
  DW_CFA_nop
  DW_CFA_nop

00000070 0000000000000014 00000074 FDE cie=00000000 pc=00000000000025c0..0000000000002b40
  DW_CFA_nop
  DW_CFA_nop
  DW_CFA_nop
  DW_CFA_nop
  DW_CFA_nop
  DW_CFA_nop
  DW_CFA_nop

00000088 0000000000000020 0000008c FDE cie=00000000 pc=0000000000002c29..0000000000002ec0
  DW_CFA_advance_loc: 1 to 0000000000002c2a
  DW_CFA_def_cfa_offset: 16
  DW_CFA_offset: r6 (rbp) at cfa-16
  DW_CFA_advance_loc: 3 to 0000000000002c2d
  DW_CFA_def_cfa_register: r6 (rbp)
  DW_CFA_advance_loc: 8 to 0000000000002c35
  DW_CFA_offset: r3 (rbx) at cfa-24
  DW_CFA_advance_loc2: 650 to 0000000000002ebf
  DW_CFA_def_cfa: r7 (rsp) ofs 8
  DW_CFA_nop
  DW_CFA_nop

000000ac 000000000000001c 000000b0 FDE cie=00000000 pc=0000000000002ec0..0000000000003005
  DW_CFA_advance_loc: 5 to 0000000000002ec5
  DW_CFA_def_cfa_offset: 16
  DW_CFA_offset: r6 (rbp) at cfa-16
  DW_CFA_advance_loc: 3 to 0000000000002ec8
  DW_CFA_def_cfa_register: r6 (rbp)
  DW_CFA_advance_loc2: 316 to 0000000000003004
  DW_CFA_def_cfa: r7 (rsp) ofs 8
  DW_CFA_nop

000000cc 000000000000001c 000000d0 FDE cie=00000000 pc=0000000000003005..00000000000030ac
  DW_CFA_advance_loc: 5 to 000000000000300a
  DW_CFA_def_cfa_offset: 16
  DW_CFA_offset: r6 (rbp) at cfa-16
  DW_CFA_advance_loc: 3 to 000000000000300d
  DW_CFA_def_cfa_register: r6 (rbp)
  DW_CFA_advance_loc1: 158 to 00000000000030ab
  DW_CFA_def_cfa: r7 (rsp) ofs 8
  DW_CFA_nop
  DW_CFA_nop

000000ec 000000000000001c 000000f0 FDE cie=00000000 pc=00000000000030ac..0000000000003250
  DW_CFA_advance_loc: 5 to 00000000000030b1
  DW_CFA_def_cfa_offset: 16
  DW_CFA_offset: r6 (rbp) at cfa-16
  DW_CFA_advance_loc: 3 to 00000000000030b4
  DW_CFA_def_cfa_register: r6 (rbp)
  DW_CFA_advance_loc2: 411 to 000000000000324f
  DW_CFA_def_cfa: r7 (rsp) ofs 8
  DW_CFA_nop

0000010c 000000000000001c 00000110 FDE cie=00000000 pc=0000000000003250..00000000000033c7
  DW_CFA_advance_loc: 5 to 0000000000003255
  DW_CFA_def_cfa_offset: 16
  DW_CFA_offset: r6 (rbp) at cfa-16
  DW_CFA_advance_loc: 3 to 0000000000003258
  DW_CFA_def_cfa_register: r6 (rbp)
  DW_CFA_advance_loc2: 366 to 00000000000033c6
  DW_CFA_def_cfa: r7 (rsp) ofs 8
  DW_CFA_nop

0000012c 000000000000001c 00000130 FDE cie=00000000 pc=00000000000033c7..000000000000344f
  DW_CFA_advance_loc: 5 to 00000000000033cc
  DW_CFA_def_cfa_offset: 16
  DW_CFA_offset: r6 (rbp) at cfa-16
  DW_CFA_advance_loc: 3 to 00000000000033cf
  DW_CFA_def_cfa_register: r6 (rbp)
  DW_CFA_advance_loc1: 127 to 000000000000344e
  DW_CFA_def_cfa: r7 (rsp) ofs 8
  DW_CFA_nop
  DW_CFA_nop

0000014c 000000000000001c 00000150 FDE cie=00000000 pc=000000000000344f..0000000000003481
  DW_CFA_advance_loc: 5 to 0000000000003454
  DW_CFA_def_cfa_offset: 16
  DW_CFA_offset: r6 (rbp) at cfa-16
  DW_CFA_advance_loc: 3 to 0000000000003457
  DW_CFA_def_cfa_register: r6 (rbp)
  DW_CFA_advance_loc: 41 to 0000000000003480
  DW_CFA_def_cfa: r7 (rsp) ofs 8
  DW_CFA_nop
  DW_CFA_nop
  DW_CFA_nop

0000016c 000000000000001c 00000170 FDE cie=00000000 pc=0000000000003481..00000000000034e9
  DW_CFA_advance_loc: 5 to 0000000000003486
  DW_CFA_def_cfa_offset: 16
  DW_CFA_offset: r6 (rbp) at cfa-16
  DW_CFA_advance_loc: 3 to 0000000000003489
  DW_CFA_def_cfa_register: r6 (rbp)
  DW_CFA_advance_loc1: 95 to 00000000000034e8
  DW_CFA_def_cfa: r7 (rsp) ofs 8
  DW_CFA_nop
  DW_CFA_nop

0000018c 000000000000001c 00000190 FDE cie=00000000 pc=00000000000034e9..0000000000003711
  DW_CFA_advance_loc: 5 to 00000000000034ee
  DW_CFA_def_cfa_offset: 16
  DW_CFA_offset: r6 (rbp) at cfa-16
  DW_CFA_advance_loc: 3 to 00000000000034f1
  DW_CFA_def_cfa_register: r6 (rbp)
  DW_CFA_advance_loc2: 543 to 0000000000003710
  DW_CFA_def_cfa: r7 (rsp) ofs 8
  DW_CFA_nop

000001ac 000000000000001c 000001b0 FDE cie=00000000 pc=0000000000003711..000000000000377d
  DW_CFA_advance_loc: 5 to 0000000000003716
  DW_CFA_def_cfa_offset: 16
  DW_CFA_offset: r6 (rbp) at cfa-16
  DW_CFA_advance_loc: 3 to 0000000000003719
  DW_CFA_def_cfa_register: r6 (rbp)
  DW_CFA_advance_loc1: 99 to 000000000000377c
  DW_CFA_def_cfa: r7 (rsp) ofs 8
  DW_CFA_nop
  DW_CFA_nop

000001cc 000000000000001c 000001d0 FDE cie=00000000 pc=000000000000377d..00000000000037e3
  DW_CFA_advance_loc: 5 to 0000000000003782
  DW_CFA_def_cfa_offset: 16
  DW_CFA_offset: r6 (rbp) at cfa-16
  DW_CFA_advance_loc: 3 to 0000000000003785
  DW_CFA_def_cfa_register: r6 (rbp)
  DW_CFA_advance_loc1: 93 to 00000000000037e2
  DW_CFA_def_cfa: r7 (rsp) ofs 8
  DW_CFA_nop
  DW_CFA_nop

000001ec 000000000000001c 000001f0 FDE cie=00000000 pc=00000000000037e3..0000000000003cbc
  DW_CFA_advance_loc: 5 to 00000000000037e8
  DW_CFA_def_cfa_offset: 16
  DW_CFA_offset: r6 (rbp) at cfa-16
  DW_CFA_advance_loc: 3 to 00000000000037eb
  DW_CFA_def_cfa_register: r6 (rbp)
  DW_CFA_advance_loc2: 1232 to 0000000000003cbb
  DW_CFA_def_cfa: r7 (rsp) ofs 8
  DW_CFA_nop

0000020c 000000000000001c 00000210 FDE cie=00000000 pc=0000000000003cbc..0000000000003e23
  DW_CFA_advance_loc: 5 to 0000000000003cc1
  DW_CFA_def_cfa_offset: 16
  DW_CFA_offset: r6 (rbp) at cfa-16
  DW_CFA_advance_loc: 3 to 0000000000003cc4
  DW_CFA_def_cfa_register: r6 (rbp)
  DW_CFA_advance_loc2: 350 to 0000000000003e22
  DW_CFA_def_cfa: r7 (rsp) ofs 8
  DW_CFA_nop

0000022c 000000000000001c 00000230 FDE cie=00000000 pc=0000000000003e23..0000000000003e88
  DW_CFA_advance_loc: 1 to 0000000000003e24
  DW_CFA_def_cfa_offset: 16
  DW_CFA_offset: r6 (rbp) at cfa-16
  DW_CFA_advance_loc: 3 to 0000000000003e27
  DW_CFA_def_cfa_register: r6 (rbp)
  DW_CFA_advance_loc1: 96 to 0000000000003e87
  DW_CFA_def_cfa: r7 (rsp) ofs 8
  DW_CFA_nop
  DW_CFA_nop

0000024c 000000000000001c 00000250 FDE cie=00000000 pc=0000000000003e88..0000000000004102
  DW_CFA_advance_loc: 5 to 0000000000003e8d
  DW_CFA_def_cfa_offset: 16
  DW_CFA_offset: r6 (rbp) at cfa-16
  DW_CFA_advance_loc: 3 to 0000000000003e90
  DW_CFA_def_cfa_register: r6 (rbp)
  DW_CFA_advance_loc2: 625 to 0000000000004101
  DW_CFA_def_cfa: r7 (rsp) ofs 8
  DW_CFA_nop

0000026c 000000000000001c 00000270 FDE cie=00000000 pc=0000000000004102..0000000000004195
  DW_CFA_advance_loc: 5 to 0000000000004107
  DW_CFA_def_cfa_offset: 16
  DW_CFA_offset: r6 (rbp) at cfa-16
  DW_CFA_advance_loc: 3 to 000000000000410a
  DW_CFA_def_cfa_register: r6 (rbp)
  DW_CFA_advance_loc1: 138 to 0000000000004194
  DW_CFA_def_cfa: r7 (rsp) ofs 8
  DW_CFA_nop
  DW_CFA_nop

0000028c 000000000000001c 00000290 FDE cie=00000000 pc=0000000000004195..0000000000004378
  DW_CFA_advance_loc: 5 to 000000000000419a
  DW_CFA_def_cfa_offset: 16
  DW_CFA_offset: r6 (rbp) at cfa-16
  DW_CFA_advance_loc: 3 to 000000000000419d
  DW_CFA_def_cfa_register: r6 (rbp)
  DW_CFA_advance_loc2: 474 to 0000000000004377
  DW_CFA_def_cfa: r7 (rsp) ofs 8
  DW_CFA_nop

000002ac 000000000000001c 000002b0 FDE cie=00000000 pc=0000000000004378..0000000000004440
  DW_CFA_advance_loc: 5 to 000000000000437d
  DW_CFA_def_cfa_offset: 16
  DW_CFA_offset: r6 (rbp) at cfa-16
  DW_CFA_advance_loc: 3 to 0000000000004380
  DW_CFA_def_cfa_register: r6 (rbp)
  DW_CFA_advance_loc1: 191 to 000000000000443f
  DW_CFA_def_cfa: r7 (rsp) ofs 8
  DW_CFA_nop
  DW_CFA_nop

000002cc 000000000000001c 000002d0 FDE cie=00000000 pc=0000000000004440..00000000000045d9
  DW_CFA_advance_loc: 5 to 0000000000004445
  DW_CFA_def_cfa_offset: 16
  DW_CFA_offset: r6 (rbp) at cfa-16
  DW_CFA_advance_loc: 3 to 0000000000004448
  DW_CFA_def_cfa_register: r6 (rbp)
  DW_CFA_advance_loc2: 400 to 00000000000045d8
  DW_CFA_def_cfa: r7 (rsp) ofs 8
  DW_CFA_nop

000002ec 000000000000001c 000002f0 FDE cie=00000000 pc=00000000000045d9..00000000000046be
  DW_CFA_advance_loc: 5 to 00000000000045de
  DW_CFA_def_cfa_offset: 16
  DW_CFA_offset: r6 (rbp) at cfa-16
  DW_CFA_advance_loc: 3 to 00000000000045e1
  DW_CFA_def_cfa_register: r6 (rbp)
  DW_CFA_advance_loc1: 220 to 00000000000046bd
  DW_CFA_def_cfa: r7 (rsp) ofs 8
  DW_CFA_nop
  DW_CFA_nop

0000030c 000000000000001c 00000310 FDE cie=00000000 pc=00000000000046be..0000000000004d53
  DW_CFA_advance_loc: 5 to 00000000000046c3
  DW_CFA_def_cfa_offset: 16
  DW_CFA_offset: r6 (rbp) at cfa-16
  DW_CFA_advance_loc: 3 to 00000000000046c6
  DW_CFA_def_cfa_register: r6 (rbp)
  DW_CFA_advance_loc2: 1676 to 0000000000004d52
  DW_CFA_def_cfa: r7 (rsp) ofs 8
  DW_CFA_nop

0000032c 000000000000001c 00000330 FDE cie=00000000 pc=0000000000004d53..000000000000578d
  DW_CFA_advance_loc: 5 to 0000000000004d58
  DW_CFA_def_cfa_offset: 16
  DW_CFA_offset: r6 (rbp) at cfa-16
  DW_CFA_advance_loc: 3 to 0000000000004d5b
  DW_CFA_def_cfa_register: r6 (rbp)
  DW_CFA_advance_loc2: 2609 to 000000000000578c
  DW_CFA_def_cfa: r7 (rsp) ofs 8
  DW_CFA_nop

0000034c 000000000000001c 00000350 FDE cie=00000000 pc=000000000000578d..0000000000005a9a
  DW_CFA_advance_loc: 5 to 0000000000005792
  DW_CFA_def_cfa_offset: 16
  DW_CFA_offset: r6 (rbp) at cfa-16
  DW_CFA_advance_loc: 3 to 0000000000005795
  DW_CFA_def_cfa_register: r6 (rbp)
  DW_CFA_advance_loc2: 772 to 0000000000005a99
  DW_CFA_def_cfa: r7 (rsp) ofs 8
  DW_CFA_nop

0000036c 000000000000001c 00000370 FDE cie=00000000 pc=0000000000005a9a..0000000000006135
  DW_CFA_advance_loc: 5 to 0000000000005a9f
  DW_CFA_def_cfa_offset: 16
  DW_CFA_offset: r6 (rbp) at cfa-16
  DW_CFA_advance_loc: 3 to 0000000000005aa2
  DW_CFA_def_cfa_register: r6 (rbp)
  DW_CFA_advance_loc2: 1682 to 0000000000006134
  DW_CFA_def_cfa: r7 (rsp) ofs 8
  DW_CFA_nop

0000038c 000000000000001c 00000390 FDE cie=00000000 pc=0000000000006135..0000000000006d29
  DW_CFA_advance_loc: 5 to 000000000000613a
  DW_CFA_def_cfa_offset: 16
  DW_CFA_offset: r6 (rbp) at cfa-16
  DW_CFA_advance_loc: 3 to 000000000000613d
  DW_CFA_def_cfa_register: r6 (rbp)
  DW_CFA_advance_loc2: 3051 to 0000000000006d28
  DW_CFA_def_cfa: r7 (rsp) ofs 8
  DW_CFA_nop

000003ac 000000000000001c 000003b0 FDE cie=00000000 pc=0000000000006d29..00000000000071b6
  DW_CFA_advance_loc: 5 to 0000000000006d2e
  DW_CFA_def_cfa_offset: 16
  DW_CFA_offset: r6 (rbp) at cfa-16
  DW_CFA_advance_loc: 3 to 0000000000006d31
  DW_CFA_def_cfa_register: r6 (rbp)
  DW_CFA_advance_loc2: 1156 to 00000000000071b5
  DW_CFA_def_cfa: r7 (rsp) ofs 8
  DW_CFA_nop

000003cc 000000000000001c 000003d0 FDE cie=00000000 pc=00000000000071b6..0000000000007299
  DW_CFA_advance_loc: 5 to 00000000000071bb
  DW_CFA_def_cfa_offset: 16
  DW_CFA_offset: r6 (rbp) at cfa-16
  DW_CFA_advance_loc: 3 to 00000000000071be
  DW_CFA_def_cfa_register: r6 (rbp)
  DW_CFA_advance_loc1: 218 to 0000000000007298
  DW_CFA_def_cfa: r7 (rsp) ofs 8
  DW_CFA_nop
  DW_CFA_nop

000003ec 000000000000001c 000003f0 FDE cie=00000000 pc=0000000000007299..0000000000007366
  DW_CFA_advance_loc: 5 to 000000000000729e
  DW_CFA_def_cfa_offset: 16
  DW_CFA_offset: r6 (rbp) at cfa-16
  DW_CFA_advance_loc: 3 to 00000000000072a1
  DW_CFA_def_cfa_register: r6 (rbp)
  DW_CFA_advance_loc1: 196 to 0000000000007365
  DW_CFA_def_cfa: r7 (rsp) ofs 8
  DW_CFA_nop
  DW_CFA_nop

0000040c 000000000000001c 00000410 FDE cie=00000000 pc=0000000000007366..00000000000074f1
  DW_CFA_advance_loc: 5 to 000000000000736b
  DW_CFA_def_cfa_offset: 16
  DW_CFA_offset: r6 (rbp) at cfa-16
  DW_CFA_advance_loc: 3 to 000000000000736e
  DW_CFA_def_cfa_register: r6 (rbp)
  DW_CFA_advance_loc2: 386 to 00000000000074f0
  DW_CFA_def_cfa: r7 (rsp) ofs 8
  DW_CFA_nop

0000042c 000000000000001c 00000430 FDE cie=00000000 pc=00000000000074f1..0000000000007529
  DW_CFA_advance_loc: 5 to 00000000000074f6
  DW_CFA_def_cfa_offset: 16
  DW_CFA_offset: r6 (rbp) at cfa-16
  DW_CFA_advance_loc: 3 to 00000000000074f9
  DW_CFA_def_cfa_register: r6 (rbp)
  DW_CFA_advance_loc: 47 to 0000000000007528
  DW_CFA_def_cfa: r7 (rsp) ofs 8
  DW_CFA_nop
  DW_CFA_nop
  DW_CFA_nop

0000044c 0000000000000020 00000450 FDE cie=00000000 pc=0000000000007529..00000000000075b2
  DW_CFA_advance_loc: 5 to 000000000000752e
  DW_CFA_def_cfa_offset: 16
  DW_CFA_offset: r6 (rbp) at cfa-16
  DW_CFA_advance_loc: 3 to 0000000000007531
  DW_CFA_def_cfa_register: r6 (rbp)
  DW_CFA_advance_loc: 5 to 0000000000007536
  DW_CFA_offset: r3 (rbx) at cfa-24
  DW_CFA_advance_loc1: 123 to 00000000000075b1
  DW_CFA_def_cfa: r7 (rsp) ofs 8
  DW_CFA_nop
  DW_CFA_nop
  DW_CFA_nop

00000470 000000000000001c 00000474 FDE cie=00000000 pc=00000000000075b2..00000000000076d0
  DW_CFA_advance_loc: 5 to 00000000000075b7
  DW_CFA_def_cfa_offset: 16
  DW_CFA_offset: r6 (rbp) at cfa-16
  DW_CFA_advance_loc: 3 to 00000000000075ba
  DW_CFA_def_cfa_register: r6 (rbp)
  DW_CFA_advance_loc2: 277 to 00000000000076cf
  DW_CFA_def_cfa: r7 (rsp) ofs 8
  DW_CFA_nop

00000490 000000000000001c 00000494 FDE cie=00000000 pc=00000000000076d0..0000000000007798
  DW_CFA_advance_loc: 5 to 00000000000076d5
  DW_CFA_def_cfa_offset: 16
  DW_CFA_offset: r6 (rbp) at cfa-16
  DW_CFA_advance_loc: 3 to 00000000000076d8
  DW_CFA_def_cfa_register: r6 (rbp)
  DW_CFA_advance_loc1: 191 to 0000000000007797
  DW_CFA_def_cfa: r7 (rsp) ofs 8
  DW_CFA_nop
  DW_CFA_nop

000004b0 000000000000001c 000004b4 FDE cie=00000000 pc=0000000000007798..0000000000007919
  DW_CFA_advance_loc: 5 to 000000000000779d
  DW_CFA_def_cfa_offset: 16
  DW_CFA_offset: r6 (rbp) at cfa-16
  DW_CFA_advance_loc: 3 to 00000000000077a0
  DW_CFA_def_cfa_register: r6 (rbp)
  DW_CFA_advance_loc2: 376 to 0000000000007918
  DW_CFA_def_cfa: r7 (rsp) ofs 8
  DW_CFA_nop

000004d0 000000000000001c 000004d4 FDE cie=00000000 pc=0000000000007919..0000000000007a4c
  DW_CFA_advance_loc: 5 to 000000000000791e
  DW_CFA_def_cfa_offset: 16
  DW_CFA_offset: r6 (rbp) at cfa-16
  DW_CFA_advance_loc: 3 to 0000000000007921
  DW_CFA_def_cfa_register: r6 (rbp)
  DW_CFA_advance_loc2: 298 to 0000000000007a4b
  DW_CFA_def_cfa: r7 (rsp) ofs 8
  DW_CFA_nop

000004f0 0000000000000020 000004f4 FDE cie=00000000 pc=0000000000007a4c..0000000000007cb6
  DW_CFA_advance_loc: 5 to 0000000000007a51
  DW_CFA_def_cfa_offset: 16
  DW_CFA_offset: r6 (rbp) at cfa-16
  DW_CFA_advance_loc: 3 to 0000000000007a54
  DW_CFA_def_cfa_register: r6 (rbp)
  DW_CFA_advance_loc: 8 to 0000000000007a5c
  DW_CFA_offset: r3 (rbx) at cfa-24
  DW_CFA_advance_loc2: 601 to 0000000000007cb5
  DW_CFA_def_cfa: r7 (rsp) ofs 8
  DW_CFA_nop
  DW_CFA_nop

00000514 000000000000001c 00000518 FDE cie=00000000 pc=0000000000007cb6..0000000000007db2
  DW_CFA_advance_loc: 5 to 0000000000007cbb
  DW_CFA_def_cfa_offset: 16
  DW_CFA_offset: r6 (rbp) at cfa-16
  DW_CFA_advance_loc: 3 to 0000000000007cbe
  DW_CFA_def_cfa_register: r6 (rbp)
  DW_CFA_advance_loc: 7 to 0000000000007cc5
  DW_CFA_offset: r12 (r12) at cfa-24
  DW_CFA_offset: r3 (rbx) at cfa-32
  DW_CFA_nop
  DW_CFA_nop

00000534 000000000000001c 00000538 FDE cie=00000000 pc=0000000000007db2..0000000000007e50
  DW_CFA_advance_loc: 5 to 0000000000007db7
  DW_CFA_def_cfa_offset: 16
  DW_CFA_offset: r6 (rbp) at cfa-16
  DW_CFA_advance_loc: 3 to 0000000000007dba
  DW_CFA_def_cfa_register: r6 (rbp)
  DW_CFA_advance_loc1: 149 to 0000000000007e4f
  DW_CFA_def_cfa: r7 (rsp) ofs 8
  DW_CFA_nop
  DW_CFA_nop

00000554 0000000000000020 00000558 FDE cie=00000000 pc=0000000000007e50..000000000000803f
  DW_CFA_advance_loc: 5 to 0000000000007e55
  DW_CFA_def_cfa_offset: 16
  DW_CFA_offset: r6 (rbp) at cfa-16
  DW_CFA_advance_loc: 3 to 0000000000007e58
  DW_CFA_def_cfa_register: r6 (rbp)
  DW_CFA_advance_loc: 5 to 0000000000007e5d
  DW_CFA_offset: r3 (rbx) at cfa-24
  DW_CFA_advance_loc2: 481 to 000000000000803e
  DW_CFA_def_cfa: r7 (rsp) ofs 8
  DW_CFA_nop
  DW_CFA_nop

00000578 000000000000001c 0000057c FDE cie=00000000 pc=000000000000803f..0000000000008059
  DW_CFA_advance_loc: 5 to 0000000000008044
  DW_CFA_def_cfa_offset: 16
  DW_CFA_offset: r6 (rbp) at cfa-16
  DW_CFA_advance_loc: 3 to 0000000000008047
  DW_CFA_def_cfa_register: r6 (rbp)
  DW_CFA_advance_loc: 17 to 0000000000008058
  DW_CFA_def_cfa: r7 (rsp) ofs 8
  DW_CFA_nop
  DW_CFA_nop
  DW_CFA_nop

00000598 000000000000001c 0000059c FDE cie=00000000 pc=0000000000008059..0000000000008073
  DW_CFA_advance_loc: 5 to 000000000000805e
  DW_CFA_def_cfa_offset: 16
  DW_CFA_offset: r6 (rbp) at cfa-16
  DW_CFA_advance_loc: 3 to 0000000000008061
  DW_CFA_def_cfa_register: r6 (rbp)
  DW_CFA_advance_loc: 17 to 0000000000008072
  DW_CFA_def_cfa: r7 (rsp) ofs 8
  DW_CFA_nop
  DW_CFA_nop
  DW_CFA_nop

000005b8 0000000000000024 000005bc FDE cie=00000000 pc=0000000000008073..000000000000816b
  DW_CFA_advance_loc: 5 to 0000000000008078
  DW_CFA_def_cfa_offset: 16
  DW_CFA_offset: r6 (rbp) at cfa-16
  DW_CFA_advance_loc: 3 to 000000000000807b
  DW_CFA_def_cfa_register: r6 (rbp)
  DW_CFA_advance_loc: 5 to 0000000000008080
  DW_CFA_offset: r3 (rbx) at cfa-24
  DW_CFA_advance_loc1: 234 to 000000000000816a
  DW_CFA_def_cfa: r7 (rsp) ofs 8
  DW_CFA_nop
  DW_CFA_nop
  DW_CFA_nop
  DW_CFA_nop
  DW_CFA_nop
  DW_CFA_nop
  DW_CFA_nop

000005e0 0000000000000024 000005e4 FDE cie=00000000 pc=000000000000816b..00000000000081ee
  DW_CFA_advance_loc: 5 to 0000000000008170
  DW_CFA_def_cfa_offset: 16
  DW_CFA_offset: r6 (rbp) at cfa-16
  DW_CFA_advance_loc: 3 to 0000000000008173
  DW_CFA_def_cfa_register: r6 (rbp)
  DW_CFA_advance_loc: 5 to 0000000000008178
  DW_CFA_offset: r3 (rbx) at cfa-24
  DW_CFA_advance_loc1: 117 to 00000000000081ed
  DW_CFA_def_cfa: r7 (rsp) ofs 8
  DW_CFA_nop
  DW_CFA_nop
  DW_CFA_nop
  DW_CFA_nop
  DW_CFA_nop
  DW_CFA_nop
  DW_CFA_nop

00000608 000000000000001c 0000060c FDE cie=00000000 pc=00000000000081ee..0000000000008273
  DW_CFA_advance_loc: 5 to 00000000000081f3
  DW_CFA_def_cfa_offset: 16
  DW_CFA_offset: r6 (rbp) at cfa-16
  DW_CFA_advance_loc: 3 to 00000000000081f6
  DW_CFA_def_cfa_register: r6 (rbp)
  DW_CFA_advance_loc1: 124 to 0000000000008272
  DW_CFA_def_cfa: r7 (rsp) ofs 8
  DW_CFA_nop
  DW_CFA_nop

00000628 000000000000001c 0000062c FDE cie=00000000 pc=0000000000008273..00000000000082fc
  DW_CFA_advance_loc: 5 to 0000000000008278
  DW_CFA_def_cfa_offset: 16
  DW_CFA_offset: r6 (rbp) at cfa-16
  DW_CFA_advance_loc: 3 to 000000000000827b
  DW_CFA_def_cfa_register: r6 (rbp)
  DW_CFA_advance_loc1: 128 to 00000000000082fb
  DW_CFA_def_cfa: r7 (rsp) ofs 8
  DW_CFA_nop
  DW_CFA_nop

00000648 000000000000001c 0000064c FDE cie=00000000 pc=00000000000082fc..00000000000083f1
  DW_CFA_advance_loc: 5 to 0000000000008301
  DW_CFA_def_cfa_offset: 16
  DW_CFA_offset: r6 (rbp) at cfa-16
  DW_CFA_advance_loc: 3 to 0000000000008304
  DW_CFA_def_cfa_register: r6 (rbp)
  DW_CFA_advance_loc1: 236 to 00000000000083f0
  DW_CFA_def_cfa: r7 (rsp) ofs 8
  DW_CFA_nop
  DW_CFA_nop

00000668 000000000000001c 0000066c FDE cie=00000000 pc=00000000000083f1..00000000000088c7
  DW_CFA_advance_loc: 5 to 00000000000083f6
  DW_CFA_def_cfa_offset: 16
  DW_CFA_offset: r6 (rbp) at cfa-16
  DW_CFA_advance_loc: 3 to 00000000000083f9
  DW_CFA_def_cfa_register: r6 (rbp)
  DW_CFA_advance_loc2: 1229 to 00000000000088c6
  DW_CFA_def_cfa: r7 (rsp) ofs 8
  DW_CFA_nop

00000688 0000000000000020 0000068c FDE cie=00000000 pc=00000000000088c7..000000000000896d
  DW_CFA_advance_loc: 5 to 00000000000088cc
  DW_CFA_def_cfa_offset: 16
  DW_CFA_offset: r6 (rbp) at cfa-16
  DW_CFA_advance_loc: 3 to 00000000000088cf
  DW_CFA_def_cfa_register: r6 (rbp)
  DW_CFA_advance_loc: 5 to 00000000000088d4
  DW_CFA_offset: r3 (rbx) at cfa-24
  DW_CFA_advance_loc1: 152 to 000000000000896c
  DW_CFA_def_cfa: r7 (rsp) ofs 8
  DW_CFA_nop
  DW_CFA_nop
  DW_CFA_nop

000006ac 0000000000000020 000006b0 FDE cie=00000000 pc=000000000000896d..0000000000008c50
  DW_CFA_advance_loc: 5 to 0000000000008972
  DW_CFA_def_cfa_offset: 16
  DW_CFA_offset: r6 (rbp) at cfa-16
  DW_CFA_advance_loc: 3 to 0000000000008975
  DW_CFA_def_cfa_register: r6 (rbp)
  DW_CFA_advance_loc: 5 to 000000000000897a
  DW_CFA_offset: r3 (rbx) at cfa-24
  DW_CFA_advance_loc2: 725 to 0000000000008c4f
  DW_CFA_def_cfa: r7 (rsp) ofs 8
  DW_CFA_nop
  DW_CFA_nop

000006d0 000000000000001c 000006d4 FDE cie=00000000 pc=0000000000008c50..0000000000008c9f
  DW_CFA_advance_loc: 5 to 0000000000008c55
  DW_CFA_def_cfa_offset: 16
  DW_CFA_offset: r6 (rbp) at cfa-16
  DW_CFA_advance_loc: 3 to 0000000000008c58
  DW_CFA_def_cfa_register: r6 (rbp)
  DW_CFA_advance_loc1: 70 to 0000000000008c9e
  DW_CFA_def_cfa: r7 (rsp) ofs 8
  DW_CFA_nop
  DW_CFA_nop

000006f0 000000000000001c 000006f4 FDE cie=00000000 pc=0000000000008c9f..0000000000008cc3
  DW_CFA_advance_loc: 5 to 0000000000008ca4
  DW_CFA_def_cfa_offset: 16
  DW_CFA_offset: r6 (rbp) at cfa-16
  DW_CFA_advance_loc: 3 to 0000000000008ca7
  DW_CFA_def_cfa_register: r6 (rbp)
  DW_CFA_advance_loc: 27 to 0000000000008cc2
  DW_CFA_def_cfa: r7 (rsp) ofs 8
  DW_CFA_nop
  DW_CFA_nop
  DW_CFA_nop

00000710 000000000000001c 00000714 FDE cie=00000000 pc=0000000000008cc3..0000000000008cee
  DW_CFA_advance_loc: 5 to 0000000000008cc8
  DW_CFA_def_cfa_offset: 16
  DW_CFA_offset: r6 (rbp) at cfa-16
  DW_CFA_advance_loc: 3 to 0000000000008ccb
  DW_CFA_def_cfa_register: r6 (rbp)
  DW_CFA_advance_loc: 34 to 0000000000008ced
  DW_CFA_def_cfa: r7 (rsp) ofs 8
  DW_CFA_nop
  DW_CFA_nop
  DW_CFA_nop

00000730 000000000000001c 00000734 FDE cie=00000000 pc=0000000000008cee..0000000000008d7e
  DW_CFA_advance_loc: 5 to 0000000000008cf3
  DW_CFA_def_cfa_offset: 16
  DW_CFA_offset: r6 (rbp) at cfa-16
  DW_CFA_advance_loc: 3 to 0000000000008cf6
  DW_CFA_def_cfa_register: r6 (rbp)
  DW_CFA_advance_loc1: 135 to 0000000000008d7d
  DW_CFA_def_cfa: r7 (rsp) ofs 8
  DW_CFA_nop
  DW_CFA_nop

00000750 000000000000001c 00000754 FDE cie=00000000 pc=0000000000008d7e..0000000000008db8
  DW_CFA_advance_loc: 5 to 0000000000008d83
  DW_CFA_def_cfa_offset: 16
  DW_CFA_offset: r6 (rbp) at cfa-16
  DW_CFA_advance_loc: 3 to 0000000000008d86
  DW_CFA_def_cfa_register: r6 (rbp)
  DW_CFA_advance_loc: 49 to 0000000000008db7
  DW_CFA_def_cfa: r7 (rsp) ofs 8
  DW_CFA_nop
  DW_CFA_nop
  DW_CFA_nop

00000770 000000000000001c 00000774 FDE cie=00000000 pc=0000000000008db8..0000000000008e1a
  DW_CFA_advance_loc: 5 to 0000000000008dbd
  DW_CFA_def_cfa_offset: 16
  DW_CFA_offset: r6 (rbp) at cfa-16
  DW_CFA_advance_loc: 3 to 0000000000008dc0
  DW_CFA_def_cfa_register: r6 (rbp)
  DW_CFA_advance_loc1: 89 to 0000000000008e19
  DW_CFA_def_cfa: r7 (rsp) ofs 8
  DW_CFA_nop
  DW_CFA_nop

00000790 0000000000000020 00000794 FDE cie=00000000 pc=0000000000008e1a..0000000000008edf
  DW_CFA_advance_loc: 5 to 0000000000008e1f
  DW_CFA_def_cfa_offset: 16
  DW_CFA_offset: r6 (rbp) at cfa-16
  DW_CFA_advance_loc: 3 to 0000000000008e22
  DW_CFA_def_cfa_register: r6 (rbp)
  DW_CFA_advance_loc: 5 to 0000000000008e27
  DW_CFA_offset: r3 (rbx) at cfa-24
  DW_CFA_advance_loc1: 183 to 0000000000008ede
  DW_CFA_def_cfa: r7 (rsp) ofs 8
  DW_CFA_nop
  DW_CFA_nop
  DW_CFA_nop

000007b4 000000000000001c 000007b8 FDE cie=00000000 pc=0000000000008edf..0000000000008fa4
  DW_CFA_advance_loc: 5 to 0000000000008ee4
  DW_CFA_def_cfa_offset: 16
  DW_CFA_offset: r6 (rbp) at cfa-16
  DW_CFA_advance_loc: 3 to 0000000000008ee7
  DW_CFA_def_cfa_register: r6 (rbp)
  DW_CFA_advance_loc1: 188 to 0000000000008fa3
  DW_CFA_def_cfa: r7 (rsp) ofs 8
  DW_CFA_nop
  DW_CFA_nop

000007d4 0000000000000020 000007d8 FDE cie=00000000 pc=0000000000008fa4..000000000000a065
  DW_CFA_advance_loc: 5 to 0000000000008fa9
  DW_CFA_def_cfa_offset: 16
  DW_CFA_offset: r6 (rbp) at cfa-16
  DW_CFA_advance_loc: 3 to 0000000000008fac
  DW_CFA_def_cfa_register: r6 (rbp)
  DW_CFA_advance_loc: 8 to 0000000000008fb4
  DW_CFA_offset: r3 (rbx) at cfa-24
  DW_CFA_advance_loc2: 4272 to 000000000000a064
  DW_CFA_def_cfa: r7 (rsp) ofs 8
  DW_CFA_nop
  DW_CFA_nop

000007f8 000000000000001c 000007fc FDE cie=00000000 pc=000000000000a065..000000000000a10d
  DW_CFA_advance_loc: 5 to 000000000000a06a
  DW_CFA_def_cfa_offset: 16
  DW_CFA_offset: r6 (rbp) at cfa-16
  DW_CFA_advance_loc: 3 to 000000000000a06d
  DW_CFA_def_cfa_register: r6 (rbp)
  DW_CFA_advance_loc1: 159 to 000000000000a10c
  DW_CFA_def_cfa: r7 (rsp) ofs 8
  DW_CFA_nop
  DW_CFA_nop

00000818 000000000000001c 0000081c FDE cie=00000000 pc=000000000000a10d..000000000000a143
  DW_CFA_advance_loc: 5 to 000000000000a112
  DW_CFA_def_cfa_offset: 16
  DW_CFA_offset: r6 (rbp) at cfa-16
  DW_CFA_advance_loc: 3 to 000000000000a115
  DW_CFA_def_cfa_register: r6 (rbp)
  DW_CFA_advance_loc: 45 to 000000000000a142
  DW_CFA_def_cfa: r7 (rsp) ofs 8
  DW_CFA_nop
  DW_CFA_nop
  DW_CFA_nop

00000838 000000000000001c 0000083c FDE cie=00000000 pc=000000000000a143..000000000000a26f
  DW_CFA_advance_loc: 5 to 000000000000a148
  DW_CFA_def_cfa_offset: 16
  DW_CFA_offset: r6 (rbp) at cfa-16
  DW_CFA_advance_loc: 3 to 000000000000a14b
  DW_CFA_def_cfa_register: r6 (rbp)
  DW_CFA_advance_loc2: 291 to 000000000000a26e
  DW_CFA_def_cfa: r7 (rsp) ofs 8
  DW_CFA_nop

00000858 000000000000001c 0000085c FDE cie=00000000 pc=000000000000a26f..000000000000a32e
  DW_CFA_advance_loc: 5 to 000000000000a274
  DW_CFA_def_cfa_offset: 16
  DW_CFA_offset: r6 (rbp) at cfa-16
  DW_CFA_advance_loc: 3 to 000000000000a277
  DW_CFA_def_cfa_register: r6 (rbp)
  DW_CFA_advance_loc1: 182 to 000000000000a32d
  DW_CFA_def_cfa: r7 (rsp) ofs 8
  DW_CFA_nop
  DW_CFA_nop

00000878 000000000000001c 0000087c FDE cie=00000000 pc=000000000000a32e..000000000000a5dd
  DW_CFA_advance_loc: 5 to 000000000000a333
  DW_CFA_def_cfa_offset: 16
  DW_CFA_offset: r6 (rbp) at cfa-16
  DW_CFA_advance_loc: 3 to 000000000000a336
  DW_CFA_def_cfa_register: r6 (rbp)
  DW_CFA_advance_loc2: 678 to 000000000000a5dc
  DW_CFA_def_cfa: r7 (rsp) ofs 8
  DW_CFA_nop

00000898 000000000000001c 0000089c FDE cie=00000000 pc=000000000000a5dd..000000000000a611
  DW_CFA_advance_loc: 5 to 000000000000a5e2
  DW_CFA_def_cfa_offset: 16
  DW_CFA_offset: r6 (rbp) at cfa-16
  DW_CFA_advance_loc: 3 to 000000000000a5e5
  DW_CFA_def_cfa_register: r6 (rbp)
  DW_CFA_advance_loc: 43 to 000000000000a610
  DW_CFA_def_cfa: r7 (rsp) ofs 8
  DW_CFA_nop
  DW_CFA_nop
  DW_CFA_nop

000008b8 000000000000001c 000008bc FDE cie=00000000 pc=000000000000a611..000000000000a643
  DW_CFA_advance_loc: 5 to 000000000000a616
  DW_CFA_def_cfa_offset: 16
  DW_CFA_offset: r6 (rbp) at cfa-16
  DW_CFA_advance_loc: 3 to 000000000000a619
  DW_CFA_def_cfa_register: r6 (rbp)
  DW_CFA_advance_loc: 41 to 000000000000a642
  DW_CFA_def_cfa: r7 (rsp) ofs 8
  DW_CFA_nop
  DW_CFA_nop
  DW_CFA_nop

000008d8 000000000000001c 000008dc FDE cie=00000000 pc=000000000000a643..000000000000a666
  DW_CFA_advance_loc: 5 to 000000000000a648
  DW_CFA_def_cfa_offset: 16
  DW_CFA_offset: r6 (rbp) at cfa-16
  DW_CFA_advance_loc: 3 to 000000000000a64b
  DW_CFA_def_cfa_register: r6 (rbp)
  DW_CFA_advance_loc: 26 to 000000000000a665
  DW_CFA_def_cfa: r7 (rsp) ofs 8
  DW_CFA_nop
  DW_CFA_nop
  DW_CFA_nop

000008f8 000000000000001c 000008fc FDE cie=00000000 pc=000000000000a666..000000000000a691
  DW_CFA_advance_loc: 5 to 000000000000a66b
  DW_CFA_def_cfa_offset: 16
  DW_CFA_offset: r6 (rbp) at cfa-16
  DW_CFA_advance_loc: 3 to 000000000000a66e
  DW_CFA_def_cfa_register: r6 (rbp)
  DW_CFA_advance_loc: 34 to 000000000000a690
  DW_CFA_def_cfa: r7 (rsp) ofs 8
  DW_CFA_nop
  DW_CFA_nop
  DW_CFA_nop

00000918 000000000000001c 0000091c FDE cie=00000000 pc=000000000000a691..000000000000a6f9
  DW_CFA_advance_loc: 5 to 000000000000a696
  DW_CFA_def_cfa_offset: 16
  DW_CFA_offset: r6 (rbp) at cfa-16
  DW_CFA_advance_loc: 3 to 000000000000a699
  DW_CFA_def_cfa_register: r6 (rbp)
  DW_CFA_advance_loc1: 95 to 000000000000a6f8
  DW_CFA_def_cfa: r7 (rsp) ofs 8
  DW_CFA_nop
  DW_CFA_nop

00000938 000000000000001c 0000093c FDE cie=00000000 pc=000000000000a6f9..000000000000a75f
  DW_CFA_advance_loc: 5 to 000000000000a6fe
  DW_CFA_def_cfa_offset: 16
  DW_CFA_offset: r6 (rbp) at cfa-16
  DW_CFA_advance_loc: 3 to 000000000000a701
  DW_CFA_def_cfa_register: r6 (rbp)
  DW_CFA_advance_loc1: 93 to 000000000000a75e
  DW_CFA_def_cfa: r7 (rsp) ofs 8
  DW_CFA_nop
  DW_CFA_nop

00000958 000000000000001c 0000095c FDE cie=00000000 pc=000000000000a75f..000000000000a787
  DW_CFA_advance_loc: 5 to 000000000000a764
  DW_CFA_def_cfa_offset: 16
  DW_CFA_offset: r6 (rbp) at cfa-16
  DW_CFA_advance_loc: 3 to 000000000000a767
  DW_CFA_def_cfa_register: r6 (rbp)
  DW_CFA_advance_loc: 31 to 000000000000a786
  DW_CFA_def_cfa: r7 (rsp) ofs 8
  DW_CFA_nop
  DW_CFA_nop
  DW_CFA_nop

00000978 000000000000001c 0000097c FDE cie=00000000 pc=000000000000a787..000000000000a7b7
  DW_CFA_advance_loc: 5 to 000000000000a78c
  DW_CFA_def_cfa_offset: 16
  DW_CFA_offset: r6 (rbp) at cfa-16
  DW_CFA_advance_loc: 3 to 000000000000a78f
  DW_CFA_def_cfa_register: r6 (rbp)
  DW_CFA_advance_loc: 39 to 000000000000a7b6
  DW_CFA_def_cfa: r7 (rsp) ofs 8
  DW_CFA_nop
  DW_CFA_nop
  DW_CFA_nop

00000998 000000000000001c 0000099c FDE cie=00000000 pc=000000000000a7b7..000000000000a872
  DW_CFA_advance_loc: 5 to 000000000000a7bc
  DW_CFA_def_cfa_offset: 16
  DW_CFA_offset: r6 (rbp) at cfa-16
  DW_CFA_advance_loc: 3 to 000000000000a7bf
  DW_CFA_def_cfa_register: r6 (rbp)
  DW_CFA_advance_loc1: 178 to 000000000000a871
  DW_CFA_def_cfa: r7 (rsp) ofs 8
  DW_CFA_nop
  DW_CFA_nop

000009b8 000000000000001c 000009bc FDE cie=00000000 pc=000000000000a872..000000000000a8a0
  DW_CFA_advance_loc: 5 to 000000000000a877
  DW_CFA_def_cfa_offset: 16
  DW_CFA_offset: r6 (rbp) at cfa-16
  DW_CFA_advance_loc: 3 to 000000000000a87a
  DW_CFA_def_cfa_register: r6 (rbp)
  DW_CFA_advance_loc: 37 to 000000000000a89f
  DW_CFA_def_cfa: r7 (rsp) ofs 8
  DW_CFA_nop
  DW_CFA_nop
  DW_CFA_nop

000009d8 000000000000001c 000009dc FDE cie=00000000 pc=000000000000a8a0..000000000000a8c3
  DW_CFA_advance_loc: 5 to 000000000000a8a5
  DW_CFA_def_cfa_offset: 16
  DW_CFA_offset: r6 (rbp) at cfa-16
  DW_CFA_advance_loc: 3 to 000000000000a8a8
  DW_CFA_def_cfa_register: r6 (rbp)
  DW_CFA_advance_loc: 26 to 000000000000a8c2
  DW_CFA_def_cfa: r7 (rsp) ofs 8
  DW_CFA_nop
  DW_CFA_nop
  DW_CFA_nop

000009f8 000000000000001c 000009fc FDE cie=00000000 pc=000000000000a8c3..000000000000a8f1
  DW_CFA_advance_loc: 5 to 000000000000a8c8
  DW_CFA_def_cfa_offset: 16
  DW_CFA_offset: r6 (rbp) at cfa-16
  DW_CFA_advance_loc: 3 to 000000000000a8cb
  DW_CFA_def_cfa_register: r6 (rbp)
  DW_CFA_advance_loc: 37 to 000000000000a8f0
  DW_CFA_def_cfa: r7 (rsp) ofs 8
  DW_CFA_nop
  DW_CFA_nop
  DW_CFA_nop

00000a18 000000000000001c 00000a1c FDE cie=00000000 pc=000000000000a8f1..000000000000a9b3
  DW_CFA_advance_loc: 5 to 000000000000a8f6
  DW_CFA_def_cfa_offset: 16
  DW_CFA_offset: r6 (rbp) at cfa-16
  DW_CFA_advance_loc: 3 to 000000000000a8f9
  DW_CFA_def_cfa_register: r6 (rbp)
  DW_CFA_advance_loc1: 185 to 000000000000a9b2
  DW_CFA_def_cfa: r7 (rsp) ofs 8
  DW_CFA_nop
  DW_CFA_nop

00000a38 000000000000001c 00000a3c FDE cie=00000000 pc=000000000000a9b3..000000000000a9ed
  DW_CFA_advance_loc: 5 to 000000000000a9b8
  DW_CFA_def_cfa_offset: 16
  DW_CFA_offset: r6 (rbp) at cfa-16
  DW_CFA_advance_loc: 3 to 000000000000a9bb
  DW_CFA_def_cfa_register: r6 (rbp)
  DW_CFA_advance_loc: 49 to 000000000000a9ec
  DW_CFA_def_cfa: r7 (rsp) ofs 8
  DW_CFA_nop
  DW_CFA_nop
  DW_CFA_nop

00000a58 000000000000001c 00000a5c FDE cie=00000000 pc=000000000000a9ed..000000000000aaab
  DW_CFA_advance_loc: 5 to 000000000000a9f2
  DW_CFA_def_cfa_offset: 16
  DW_CFA_offset: r6 (rbp) at cfa-16
  DW_CFA_advance_loc: 3 to 000000000000a9f5
  DW_CFA_def_cfa_register: r6 (rbp)
  DW_CFA_advance_loc1: 181 to 000000000000aaaa
  DW_CFA_def_cfa: r7 (rsp) ofs 8
  DW_CFA_nop
  DW_CFA_nop

00000a78 000000000000001c 00000a7c FDE cie=00000000 pc=000000000000aaab..000000000000aade
  DW_CFA_advance_loc: 5 to 000000000000aab0
  DW_CFA_def_cfa_offset: 16
  DW_CFA_offset: r6 (rbp) at cfa-16
  DW_CFA_advance_loc: 3 to 000000000000aab3
  DW_CFA_def_cfa_register: r6 (rbp)
  DW_CFA_advance_loc: 42 to 000000000000aadd
  DW_CFA_def_cfa: r7 (rsp) ofs 8
  DW_CFA_nop
  DW_CFA_nop
  DW_CFA_nop

00000a98 000000000000001c 00000a9c FDE cie=00000000 pc=000000000000aade..000000000000ab1c
  DW_CFA_advance_loc: 5 to 000000000000aae3
  DW_CFA_def_cfa_offset: 16
  DW_CFA_offset: r6 (rbp) at cfa-16
  DW_CFA_advance_loc: 3 to 000000000000aae6
  DW_CFA_def_cfa_register: r6 (rbp)
  DW_CFA_advance_loc: 53 to 000000000000ab1b
  DW_CFA_def_cfa: r7 (rsp) ofs 8
  DW_CFA_nop
  DW_CFA_nop
  DW_CFA_nop

00000ab8 000000000000001c 00000abc FDE cie=00000000 pc=000000000000ab1c..000000000000ab4e
  DW_CFA_advance_loc: 5 to 000000000000ab21
  DW_CFA_def_cfa_offset: 16
  DW_CFA_offset: r6 (rbp) at cfa-16
  DW_CFA_advance_loc: 3 to 000000000000ab24
  DW_CFA_def_cfa_register: r6 (rbp)
  DW_CFA_advance_loc: 41 to 000000000000ab4d
  DW_CFA_def_cfa: r7 (rsp) ofs 8
  DW_CFA_nop
  DW_CFA_nop
  DW_CFA_nop

00000ad8 000000000000001c 00000adc FDE cie=00000000 pc=000000000000ab4e..000000000000ab79
  DW_CFA_advance_loc: 5 to 000000000000ab53
  DW_CFA_def_cfa_offset: 16
  DW_CFA_offset: r6 (rbp) at cfa-16
  DW_CFA_advance_loc: 3 to 000000000000ab56
  DW_CFA_def_cfa_register: r6 (rbp)
  DW_CFA_advance_loc: 34 to 000000000000ab78
  DW_CFA_def_cfa: r7 (rsp) ofs 8
  DW_CFA_nop
  DW_CFA_nop
  DW_CFA_nop

00000af8 000000000000001c 00000afc FDE cie=00000000 pc=000000000000ab79..000000000000aba6
  DW_CFA_advance_loc: 5 to 000000000000ab7e
  DW_CFA_def_cfa_offset: 16
  DW_CFA_offset: r6 (rbp) at cfa-16
  DW_CFA_advance_loc: 3 to 000000000000ab81
  DW_CFA_def_cfa_register: r6 (rbp)
  DW_CFA_advance_loc: 36 to 000000000000aba5
  DW_CFA_def_cfa: r7 (rsp) ofs 8
  DW_CFA_nop
  DW_CFA_nop
  DW_CFA_nop

00000b18 000000000000001c 00000b1c FDE cie=00000000 pc=000000000000aba6..000000000000abc9
  DW_CFA_advance_loc: 5 to 000000000000abab
  DW_CFA_def_cfa_offset: 16
  DW_CFA_offset: r6 (rbp) at cfa-16
  DW_CFA_advance_loc: 3 to 000000000000abae
  DW_CFA_def_cfa_register: r6 (rbp)
  DW_CFA_advance_loc: 26 to 000000000000abc8
  DW_CFA_def_cfa: r7 (rsp) ofs 8
  DW_CFA_nop
  DW_CFA_nop
  DW_CFA_nop

00000b38 000000000000001c 00000b3c FDE cie=00000000 pc=000000000000abc9..000000000000abef
  DW_CFA_advance_loc: 5 to 000000000000abce
  DW_CFA_def_cfa_offset: 16
  DW_CFA_offset: r6 (rbp) at cfa-16
  DW_CFA_advance_loc: 3 to 000000000000abd1
  DW_CFA_def_cfa_register: r6 (rbp)
  DW_CFA_advance_loc: 29 to 000000000000abee
  DW_CFA_def_cfa: r7 (rsp) ofs 8
  DW_CFA_nop
  DW_CFA_nop
  DW_CFA_nop

00000b58 000000000000001c 00000b5c FDE cie=00000000 pc=000000000000abef..000000000000ac33
  DW_CFA_advance_loc: 5 to 000000000000abf4
  DW_CFA_def_cfa_offset: 16
  DW_CFA_offset: r6 (rbp) at cfa-16
  DW_CFA_advance_loc: 3 to 000000000000abf7
  DW_CFA_def_cfa_register: r6 (rbp)
  DW_CFA_advance_loc: 59 to 000000000000ac32
  DW_CFA_def_cfa: r7 (rsp) ofs 8
  DW_CFA_nop
  DW_CFA_nop
  DW_CFA_nop

00000b78 000000000000001c 00000b7c FDE cie=00000000 pc=000000000000ac33..000000000000ac90
  DW_CFA_advance_loc: 5 to 000000000000ac38
  DW_CFA_def_cfa_offset: 16
  DW_CFA_offset: r6 (rbp) at cfa-16
  DW_CFA_advance_loc: 3 to 000000000000ac3b
  DW_CFA_def_cfa_register: r6 (rbp)
  DW_CFA_advance_loc1: 84 to 000000000000ac8f
  DW_CFA_def_cfa: r7 (rsp) ofs 8
  DW_CFA_nop
  DW_CFA_nop

00000b98 000000000000001c 00000b9c FDE cie=00000000 pc=000000000000ac90..000000000000ae55
  DW_CFA_advance_loc: 5 to 000000000000ac95
  DW_CFA_def_cfa_offset: 16
  DW_CFA_offset: r6 (rbp) at cfa-16
  DW_CFA_advance_loc: 3 to 000000000000ac98
  DW_CFA_def_cfa_register: r6 (rbp)
  DW_CFA_advance_loc2: 444 to 000000000000ae54
  DW_CFA_def_cfa: r7 (rsp) ofs 8
  DW_CFA_nop

00000bb8 0000000000000024 00000bbc FDE cie=00000000 pc=000000000000ae55..000000000000b084
  DW_CFA_advance_loc: 5 to 000000000000ae5a
  DW_CFA_def_cfa_offset: 16
  DW_CFA_offset: r6 (rbp) at cfa-16
  DW_CFA_advance_loc: 3 to 000000000000ae5d
  DW_CFA_def_cfa_register: r6 (rbp)
  DW_CFA_advance_loc: 8 to 000000000000ae65
  DW_CFA_offset: r3 (rbx) at cfa-24
  DW_CFA_advance_loc2: 542 to 000000000000b083
  DW_CFA_def_cfa: r7 (rsp) ofs 8
  DW_CFA_nop
  DW_CFA_nop
  DW_CFA_nop
  DW_CFA_nop
  DW_CFA_nop
  DW_CFA_nop

00000be0 000000000000001c 00000be4 FDE cie=00000000 pc=000000000000b084..000000000000b0f8
  DW_CFA_advance_loc: 5 to 000000000000b089
  DW_CFA_def_cfa_offset: 16
  DW_CFA_offset: r6 (rbp) at cfa-16
  DW_CFA_advance_loc: 3 to 000000000000b08c
  DW_CFA_def_cfa_register: r6 (rbp)
  DW_CFA_advance_loc1: 107 to 000000000000b0f7
  DW_CFA_def_cfa: r7 (rsp) ofs 8
  DW_CFA_nop
  DW_CFA_nop

00000c00 0000000000000024 00000c04 FDE cie=00000000 pc=000000000000b0f8..000000000000b457
  DW_CFA_advance_loc: 5 to 000000000000b0fd
  DW_CFA_def_cfa_offset: 16
  DW_CFA_offset: r6 (rbp) at cfa-16
  DW_CFA_advance_loc: 3 to 000000000000b100
  DW_CFA_def_cfa_register: r6 (rbp)
  DW_CFA_advance_loc: 8 to 000000000000b108
  DW_CFA_offset: r3 (rbx) at cfa-24
  DW_CFA_advance_loc2: 846 to 000000000000b456
  DW_CFA_def_cfa: r7 (rsp) ofs 8
  DW_CFA_nop
  DW_CFA_nop
  DW_CFA_nop
  DW_CFA_nop
  DW_CFA_nop
  DW_CFA_nop

00000c28 0000000000000028 00000c2c FDE cie=00000000 pc=000000000000b457..000000000000ba49
  DW_CFA_advance_loc: 5 to 000000000000b45c
  DW_CFA_def_cfa_offset: 16
  DW_CFA_offset: r6 (rbp) at cfa-16
  DW_CFA_advance_loc: 3 to 000000000000b45f
  DW_CFA_def_cfa_register: r6 (rbp)
  DW_CFA_advance_loc: 13 to 000000000000b46c
  DW_CFA_offset: r15 (r15) at cfa-24
  DW_CFA_offset: r14 (r14) at cfa-32
  DW_CFA_offset: r13 (r13) at cfa-40
  DW_CFA_offset: r12 (r12) at cfa-48
  DW_CFA_offset: r3 (rbx) at cfa-56
  DW_CFA_advance_loc2: 1500 to 000000000000ba48
  DW_CFA_def_cfa: r7 (rsp) ofs 8
  DW_CFA_nop
  DW_CFA_nop

00000c54 000000000000001c 00000c58 FDE cie=00000000 pc=000000000000ba49..000000000000babc
  DW_CFA_advance_loc: 5 to 000000000000ba4e
  DW_CFA_def_cfa_offset: 16
  DW_CFA_offset: r6 (rbp) at cfa-16
  DW_CFA_advance_loc: 3 to 000000000000ba51
  DW_CFA_def_cfa_register: r6 (rbp)
  DW_CFA_advance_loc1: 106 to 000000000000babb
  DW_CFA_def_cfa: r7 (rsp) ofs 8
  DW_CFA_nop
  DW_CFA_nop

00000c74 000000000000001c 00000c78 FDE cie=00000000 pc=000000000000babc..000000000000bbc2
  DW_CFA_advance_loc: 5 to 000000000000bac1
  DW_CFA_def_cfa_offset: 16
  DW_CFA_offset: r6 (rbp) at cfa-16
  DW_CFA_advance_loc: 3 to 000000000000bac4
  DW_CFA_def_cfa_register: r6 (rbp)
  DW_CFA_advance_loc1: 253 to 000000000000bbc1
  DW_CFA_def_cfa: r7 (rsp) ofs 8
  DW_CFA_nop
  DW_CFA_nop

00000c94 000000000000001c 00000c98 FDE cie=00000000 pc=000000000000bbc2..000000000000bca6
  DW_CFA_advance_loc: 5 to 000000000000bbc7
  DW_CFA_def_cfa_offset: 16
  DW_CFA_offset: r6 (rbp) at cfa-16
  DW_CFA_advance_loc: 3 to 000000000000bbca
  DW_CFA_def_cfa_register: r6 (rbp)
  DW_CFA_advance_loc1: 219 to 000000000000bca5
  DW_CFA_def_cfa: r7 (rsp) ofs 8
  DW_CFA_nop
  DW_CFA_nop

00000cb4 0000000000000020 00000cb8 FDE cie=00000000 pc=000000000000bca6..000000000000bd4a
  DW_CFA_advance_loc: 5 to 000000000000bcab
  DW_CFA_def_cfa_offset: 16
  DW_CFA_offset: r6 (rbp) at cfa-16
  DW_CFA_advance_loc: 3 to 000000000000bcae
  DW_CFA_def_cfa_register: r6 (rbp)
  DW_CFA_advance_loc1: 155 to 000000000000bd49
  DW_CFA_def_cfa: r7 (rsp) ofs 8
  DW_CFA_nop
  DW_CFA_nop
  DW_CFA_nop
  DW_CFA_nop
  DW_CFA_nop
  DW_CFA_nop

00000cd8 000000000000001c 00000cdc FDE cie=00000000 pc=000000000000bd4a..000000000000bd7b
  DW_CFA_advance_loc: 5 to 000000000000bd4f
  DW_CFA_def_cfa_offset: 16
  DW_CFA_offset: r6 (rbp) at cfa-16
  DW_CFA_advance_loc: 3 to 000000000000bd52
  DW_CFA_def_cfa_register: r6 (rbp)
  DW_CFA_advance_loc: 40 to 000000000000bd7a
  DW_CFA_def_cfa: r7 (rsp) ofs 8
  DW_CFA_nop
  DW_CFA_nop
  DW_CFA_nop

00000cf8 000000000000001c 00000cfc FDE cie=00000000 pc=000000000000bd7b..000000000000bd9d
  DW_CFA_advance_loc: 5 to 000000000000bd80
  DW_CFA_def_cfa_offset: 16
  DW_CFA_offset: r6 (rbp) at cfa-16
  DW_CFA_advance_loc: 3 to 000000000000bd83
  DW_CFA_def_cfa_register: r6 (rbp)
  DW_CFA_advance_loc: 25 to 000000000000bd9c
  DW_CFA_def_cfa: r7 (rsp) ofs 8
  DW_CFA_nop
  DW_CFA_nop
  DW_CFA_nop

00000d18 000000000000001c 00000d1c FDE cie=00000000 pc=000000000000bd9d..000000000000bdc3
  DW_CFA_advance_loc: 5 to 000000000000bda2
  DW_CFA_def_cfa_offset: 16
  DW_CFA_offset: r6 (rbp) at cfa-16
  DW_CFA_advance_loc: 3 to 000000000000bda5
  DW_CFA_def_cfa_register: r6 (rbp)
  DW_CFA_advance_loc: 29 to 000000000000bdc2
  DW_CFA_def_cfa: r7 (rsp) ofs 8
  DW_CFA_nop
  DW_CFA_nop
  DW_CFA_nop

00000d38 000000000000001c 00000d3c FDE cie=00000000 pc=000000000000bdc3..000000000000bde9
  DW_CFA_advance_loc: 5 to 000000000000bdc8
  DW_CFA_def_cfa_offset: 16
  DW_CFA_offset: r6 (rbp) at cfa-16
  DW_CFA_advance_loc: 3 to 000000000000bdcb
  DW_CFA_def_cfa_register: r6 (rbp)
  DW_CFA_advance_loc: 29 to 000000000000bde8
  DW_CFA_def_cfa: r7 (rsp) ofs 8
  DW_CFA_nop
  DW_CFA_nop
  DW_CFA_nop

00000d58 000000000000001c 00000d5c FDE cie=00000000 pc=000000000000bde9..000000000000be07
  DW_CFA_advance_loc: 5 to 000000000000bdee
  DW_CFA_def_cfa_offset: 16
  DW_CFA_offset: r6 (rbp) at cfa-16
  DW_CFA_advance_loc: 3 to 000000000000bdf1
  DW_CFA_def_cfa_register: r6 (rbp)
  DW_CFA_advance_loc: 21 to 000000000000be06
  DW_CFA_def_cfa: r7 (rsp) ofs 8
  DW_CFA_nop
  DW_CFA_nop
  DW_CFA_nop

00000d78 000000000000001c 00000d7c FDE cie=00000000 pc=000000000000be07..000000000000be52
  DW_CFA_advance_loc: 5 to 000000000000be0c
  DW_CFA_def_cfa_offset: 16
  DW_CFA_offset: r6 (rbp) at cfa-16
  DW_CFA_advance_loc: 3 to 000000000000be0f
  DW_CFA_def_cfa_register: r6 (rbp)
  DW_CFA_advance_loc1: 66 to 000000000000be51
  DW_CFA_def_cfa: r7 (rsp) ofs 8
  DW_CFA_nop
  DW_CFA_nop

00000d98 000000000000001c 00000d9c FDE cie=00000000 pc=000000000000be52..000000000000be83
  DW_CFA_advance_loc: 5 to 000000000000be57
  DW_CFA_def_cfa_offset: 16
  DW_CFA_offset: r6 (rbp) at cfa-16
  DW_CFA_advance_loc: 3 to 000000000000be5a
  DW_CFA_def_cfa_register: r6 (rbp)
  DW_CFA_advance_loc: 40 to 000000000000be82
  DW_CFA_def_cfa: r7 (rsp) ofs 8
  DW_CFA_nop
  DW_CFA_nop
  DW_CFA_nop

00000db8 000000000000001c 00000dbc FDE cie=00000000 pc=000000000000be83..000000000000bedd
  DW_CFA_advance_loc: 5 to 000000000000be88
  DW_CFA_def_cfa_offset: 16
  DW_CFA_offset: r6 (rbp) at cfa-16
  DW_CFA_advance_loc: 3 to 000000000000be8b
  DW_CFA_def_cfa_register: r6 (rbp)
  DW_CFA_advance_loc1: 81 to 000000000000bedc
  DW_CFA_def_cfa: r7 (rsp) ofs 8
  DW_CFA_nop
  DW_CFA_nop

00000dd8 000000000000001c 00000ddc FDE cie=00000000 pc=000000000000bedd..000000000000bf16
  DW_CFA_advance_loc: 5 to 000000000000bee2
  DW_CFA_def_cfa_offset: 16
  DW_CFA_offset: r6 (rbp) at cfa-16
  DW_CFA_advance_loc: 3 to 000000000000bee5
  DW_CFA_def_cfa_register: r6 (rbp)
  DW_CFA_advance_loc: 48 to 000000000000bf15
  DW_CFA_def_cfa: r7 (rsp) ofs 8
  DW_CFA_nop
  DW_CFA_nop
  DW_CFA_nop

00000df8 000000000000001c 00000dfc FDE cie=00000000 pc=000000000000bf16..000000000000bf41
  DW_CFA_advance_loc: 5 to 000000000000bf1b
  DW_CFA_def_cfa_offset: 16
  DW_CFA_offset: r6 (rbp) at cfa-16
  DW_CFA_advance_loc: 3 to 000000000000bf1e
  DW_CFA_def_cfa_register: r6 (rbp)
  DW_CFA_advance_loc: 34 to 000000000000bf40
  DW_CFA_def_cfa: r7 (rsp) ofs 8
  DW_CFA_nop
  DW_CFA_nop
  DW_CFA_nop

00000e18 000000000000001c 00000e1c FDE cie=00000000 pc=000000000000bf41..000000000000bf6c
  DW_CFA_advance_loc: 5 to 000000000000bf46
  DW_CFA_def_cfa_offset: 16
  DW_CFA_offset: r6 (rbp) at cfa-16
  DW_CFA_advance_loc: 3 to 000000000000bf49
  DW_CFA_def_cfa_register: r6 (rbp)
  DW_CFA_advance_loc: 34 to 000000000000bf6b
  DW_CFA_def_cfa: r7 (rsp) ofs 8
  DW_CFA_nop
  DW_CFA_nop
  DW_CFA_nop

00000e38 000000000000001c 00000e3c FDE cie=00000000 pc=000000000000bf6c..000000000000bf9a
  DW_CFA_advance_loc: 5 to 000000000000bf71
  DW_CFA_def_cfa_offset: 16
  DW_CFA_offset: r6 (rbp) at cfa-16
  DW_CFA_advance_loc: 3 to 000000000000bf74
  DW_CFA_def_cfa_register: r6 (rbp)
  DW_CFA_advance_loc: 37 to 000000000000bf99
  DW_CFA_def_cfa: r7 (rsp) ofs 8
  DW_CFA_nop
  DW_CFA_nop
  DW_CFA_nop

00000e58 000000000000001c 00000e5c FDE cie=00000000 pc=000000000000bf9a..000000000000c079
  DW_CFA_advance_loc: 5 to 000000000000bf9f
  DW_CFA_def_cfa_offset: 16
  DW_CFA_offset: r6 (rbp) at cfa-16
  DW_CFA_advance_loc: 3 to 000000000000bfa2
  DW_CFA_def_cfa_register: r6 (rbp)
  DW_CFA_advance_loc1: 214 to 000000000000c078
  DW_CFA_def_cfa: r7 (rsp) ofs 8
  DW_CFA_nop
  DW_CFA_nop

00000e78 000000000000001c 00000e7c FDE cie=00000000 pc=000000000000c079..000000000000c235
  DW_CFA_advance_loc: 5 to 000000000000c07e
  DW_CFA_def_cfa_offset: 16
  DW_CFA_offset: r6 (rbp) at cfa-16
  DW_CFA_advance_loc: 3 to 000000000000c081
  DW_CFA_def_cfa_register: r6 (rbp)
  DW_CFA_advance_loc2: 435 to 000000000000c234
  DW_CFA_def_cfa: r7 (rsp) ofs 8
  DW_CFA_nop

00000e98 000000000000001c 00000e9c FDE cie=00000000 pc=000000000000c235..000000000000c258
  DW_CFA_advance_loc: 5 to 000000000000c23a
  DW_CFA_def_cfa_offset: 16
  DW_CFA_offset: r6 (rbp) at cfa-16
  DW_CFA_advance_loc: 3 to 000000000000c23d
  DW_CFA_def_cfa_register: r6 (rbp)
  DW_CFA_advance_loc: 26 to 000000000000c257
  DW_CFA_def_cfa: r7 (rsp) ofs 8
  DW_CFA_nop
  DW_CFA_nop
  DW_CFA_nop

00000eb8 000000000000001c 00000ebc FDE cie=00000000 pc=000000000000c258..000000000000c27b
  DW_CFA_advance_loc: 5 to 000000000000c25d
  DW_CFA_def_cfa_offset: 16
  DW_CFA_offset: r6 (rbp) at cfa-16
  DW_CFA_advance_loc: 3 to 000000000000c260
  DW_CFA_def_cfa_register: r6 (rbp)
  DW_CFA_advance_loc: 26 to 000000000000c27a
  DW_CFA_def_cfa: r7 (rsp) ofs 8
  DW_CFA_nop
  DW_CFA_nop
  DW_CFA_nop

00000ed8 000000000000001c 00000edc FDE cie=00000000 pc=000000000000c27b..000000000000c2ac
  DW_CFA_advance_loc: 5 to 000000000000c280
  DW_CFA_def_cfa_offset: 16
  DW_CFA_offset: r6 (rbp) at cfa-16
  DW_CFA_advance_loc: 3 to 000000000000c283
  DW_CFA_def_cfa_register: r6 (rbp)
  DW_CFA_advance_loc: 40 to 000000000000c2ab
  DW_CFA_def_cfa: r7 (rsp) ofs 8
  DW_CFA_nop
  DW_CFA_nop
  DW_CFA_nop

00000ef8 000000000000001c 00000efc FDE cie=00000000 pc=000000000000c2ac..000000000000c2dd
  DW_CFA_advance_loc: 5 to 000000000000c2b1
  DW_CFA_def_cfa_offset: 16
  DW_CFA_offset: r6 (rbp) at cfa-16
  DW_CFA_advance_loc: 3 to 000000000000c2b4
  DW_CFA_def_cfa_register: r6 (rbp)
  DW_CFA_advance_loc: 40 to 000000000000c2dc
  DW_CFA_def_cfa: r7 (rsp) ofs 8
  DW_CFA_nop
  DW_CFA_nop
  DW_CFA_nop

00000f18 000000000000001c 00000f1c FDE cie=00000000 pc=000000000000c2dd..000000000000c315
  DW_CFA_advance_loc: 5 to 000000000000c2e2
  DW_CFA_def_cfa_offset: 16
  DW_CFA_offset: r6 (rbp) at cfa-16
  DW_CFA_advance_loc: 3 to 000000000000c2e5
  DW_CFA_def_cfa_register: r6 (rbp)
  DW_CFA_advance_loc: 47 to 000000000000c314
  DW_CFA_def_cfa: r7 (rsp) ofs 8
  DW_CFA_nop
  DW_CFA_nop
  DW_CFA_nop

00000f38 000000000000001c 00000f3c FDE cie=00000000 pc=000000000000c315..000000000000c355
  DW_CFA_advance_loc: 5 to 000000000000c31a
  DW_CFA_def_cfa_offset: 16
  DW_CFA_offset: r6 (rbp) at cfa-16
  DW_CFA_advance_loc: 3 to 000000000000c31d
  DW_CFA_def_cfa_register: r6 (rbp)
  DW_CFA_advance_loc: 5 to 000000000000c322
  DW_CFA_offset: r3 (rbx) at cfa-24
  DW_CFA_advance_loc: 50 to 000000000000c354
  DW_CFA_def_cfa: r7 (rsp) ofs 8

00000f58 000000000000001c 00000f5c FDE cie=00000000 pc=000000000000c355..000000000000c3a4
  DW_CFA_advance_loc: 5 to 000000000000c35a
  DW_CFA_def_cfa_offset: 16
  DW_CFA_offset: r6 (rbp) at cfa-16
  DW_CFA_advance_loc: 3 to 000000000000c35d
  DW_CFA_def_cfa_register: r6 (rbp)
  DW_CFA_advance_loc1: 70 to 000000000000c3a3
  DW_CFA_def_cfa: r7 (rsp) ofs 8
  DW_CFA_nop
  DW_CFA_nop

00000f78 000000000000001c 00000f7c FDE cie=00000000 pc=000000000000c3a4..000000000000c3d5
  DW_CFA_advance_loc: 5 to 000000000000c3a9
  DW_CFA_def_cfa_offset: 16
  DW_CFA_offset: r6 (rbp) at cfa-16
  DW_CFA_advance_loc: 3 to 000000000000c3ac
  DW_CFA_def_cfa_register: r6 (rbp)
  DW_CFA_advance_loc: 40 to 000000000000c3d4
  DW_CFA_def_cfa: r7 (rsp) ofs 8
  DW_CFA_nop
  DW_CFA_nop
  DW_CFA_nop

00000f98 000000000000001c 00000f9c FDE cie=00000000 pc=000000000000c3d5..000000000000c415
  DW_CFA_advance_loc: 5 to 000000000000c3da
  DW_CFA_def_cfa_offset: 16
  DW_CFA_offset: r6 (rbp) at cfa-16
  DW_CFA_advance_loc: 3 to 000000000000c3dd
  DW_CFA_def_cfa_register: r6 (rbp)
  DW_CFA_nop
  DW_CFA_nop
  DW_CFA_nop
  DW_CFA_nop
  DW_CFA_nop
  DW_CFA_nop
  DW_CFA_nop

00000fb8 000000000000001c 00000fbc FDE cie=00000000 pc=000000000000c415..000000000000c473
  DW_CFA_advance_loc: 5 to 000000000000c41a
  DW_CFA_def_cfa_offset: 16
  DW_CFA_offset: r6 (rbp) at cfa-16
  DW_CFA_advance_loc: 3 to 000000000000c41d
  DW_CFA_def_cfa_register: r6 (rbp)
  DW_CFA_advance_loc1: 85 to 000000000000c472
  DW_CFA_def_cfa: r7 (rsp) ofs 8
  DW_CFA_nop
  DW_CFA_nop

00000fd8 000000000000001c 00000fdc FDE cie=00000000 pc=000000000000c473..000000000000c4bc
  DW_CFA_advance_loc: 5 to 000000000000c478
  DW_CFA_def_cfa_offset: 16
  DW_CFA_offset: r6 (rbp) at cfa-16
  DW_CFA_advance_loc: 3 to 000000000000c47b
  DW_CFA_def_cfa_register: r6 (rbp)
  DW_CFA_advance_loc1: 64 to 000000000000c4bb
  DW_CFA_def_cfa: r7 (rsp) ofs 8
  DW_CFA_nop
  DW_CFA_nop

00000ff8 000000000000001c 00000ffc FDE cie=00000000 pc=000000000000c4bc..000000000000c50d
  DW_CFA_advance_loc: 5 to 000000000000c4c1
  DW_CFA_def_cfa_offset: 16
  DW_CFA_offset: r6 (rbp) at cfa-16
  DW_CFA_advance_loc: 3 to 000000000000c4c4
  DW_CFA_def_cfa_register: r6 (rbp)
  DW_CFA_advance_loc1: 72 to 000000000000c50c
  DW_CFA_def_cfa: r7 (rsp) ofs 8
  DW_CFA_nop
  DW_CFA_nop

00001018 0000000000000024 0000101c FDE cie=00000000 pc=000000000000c50d..000000000000c587
  DW_CFA_advance_loc: 5 to 000000000000c512
  DW_CFA_def_cfa_offset: 16
  DW_CFA_offset: r6 (rbp) at cfa-16
  DW_CFA_advance_loc: 3 to 000000000000c515
  DW_CFA_def_cfa_register: r6 (rbp)
  DW_CFA_advance_loc: 7 to 000000000000c51c
  DW_CFA_offset: r12 (r12) at cfa-24
  DW_CFA_offset: r3 (rbx) at cfa-32
  DW_CFA_advance_loc1: 106 to 000000000000c586
  DW_CFA_def_cfa: r7 (rsp) ofs 8
  DW_CFA_nop
  DW_CFA_nop
  DW_CFA_nop
  DW_CFA_nop
  DW_CFA_nop

00001040 000000000000001c 00001044 FDE cie=00000000 pc=000000000000c587..000000000000c616
  DW_CFA_advance_loc: 5 to 000000000000c58c
  DW_CFA_def_cfa_offset: 16
  DW_CFA_offset: r6 (rbp) at cfa-16
  DW_CFA_advance_loc: 3 to 000000000000c58f
  DW_CFA_def_cfa_register: r6 (rbp)
  DW_CFA_advance_loc1: 134 to 000000000000c615
  DW_CFA_def_cfa: r7 (rsp) ofs 8
  DW_CFA_nop
  DW_CFA_nop

00001060 000000000000001c 00001064 FDE cie=00000000 pc=000000000000c616..000000000000c6cf
  DW_CFA_advance_loc: 5 to 000000000000c61b
  DW_CFA_def_cfa_offset: 16
  DW_CFA_offset: r6 (rbp) at cfa-16
  DW_CFA_advance_loc: 3 to 000000000000c61e
  DW_CFA_def_cfa_register: r6 (rbp)
  DW_CFA_advance_loc1: 176 to 000000000000c6ce
  DW_CFA_def_cfa: r7 (rsp) ofs 8
  DW_CFA_nop
  DW_CFA_nop

00001080 000000000000001c 00001084 FDE cie=00000000 pc=000000000000c6cf..000000000000c707
  DW_CFA_advance_loc: 5 to 000000000000c6d4
  DW_CFA_def_cfa_offset: 16
  DW_CFA_offset: r6 (rbp) at cfa-16
  DW_CFA_advance_loc: 3 to 000000000000c6d7
  DW_CFA_def_cfa_register: r6 (rbp)
  DW_CFA_advance_loc: 47 to 000000000000c706
  DW_CFA_def_cfa: r7 (rsp) ofs 8
  DW_CFA_nop
  DW_CFA_nop
  DW_CFA_nop

000010a0 000000000000001c 000010a4 FDE cie=00000000 pc=000000000000c707..000000000000c756
  DW_CFA_advance_loc: 5 to 000000000000c70c
  DW_CFA_def_cfa_offset: 16
  DW_CFA_offset: r6 (rbp) at cfa-16
  DW_CFA_advance_loc: 3 to 000000000000c70f
  DW_CFA_def_cfa_register: r6 (rbp)
  DW_CFA_advance_loc1: 70 to 000000000000c755
  DW_CFA_def_cfa: r7 (rsp) ofs 8
  DW_CFA_nop
  DW_CFA_nop

000010c0 000000000000001c 000010c4 FDE cie=00000000 pc=000000000000c756..000000000000c814
  DW_CFA_advance_loc: 5 to 000000000000c75b
  DW_CFA_def_cfa_offset: 16
  DW_CFA_offset: r6 (rbp) at cfa-16
  DW_CFA_advance_loc: 3 to 000000000000c75e
  DW_CFA_def_cfa_register: r6 (rbp)
  DW_CFA_advance_loc1: 181 to 000000000000c813
  DW_CFA_def_cfa: r7 (rsp) ofs 8
  DW_CFA_nop
  DW_CFA_nop

000010e0 000000000000001c 000010e4 FDE cie=00000000 pc=000000000000c814..000000000000c82e
  DW_CFA_advance_loc: 5 to 000000000000c819
  DW_CFA_def_cfa_offset: 16
  DW_CFA_offset: r6 (rbp) at cfa-16
  DW_CFA_advance_loc: 3 to 000000000000c81c
  DW_CFA_def_cfa_register: r6 (rbp)
  DW_CFA_advance_loc: 17 to 000000000000c82d
  DW_CFA_def_cfa: r7 (rsp) ofs 8
  DW_CFA_nop
  DW_CFA_nop
  DW_CFA_nop

00001100 000000000000001c 00001104 FDE cie=00000000 pc=000000000000c82e..000000000000c84c
  DW_CFA_advance_loc: 5 to 000000000000c833
  DW_CFA_def_cfa_offset: 16
  DW_CFA_offset: r6 (rbp) at cfa-16
  DW_CFA_advance_loc: 3 to 000000000000c836
  DW_CFA_def_cfa_register: r6 (rbp)
  DW_CFA_advance_loc: 21 to 000000000000c84b
  DW_CFA_def_cfa: r7 (rsp) ofs 8
  DW_CFA_nop
  DW_CFA_nop
  DW_CFA_nop

00001120 000000000000001c 00001124 FDE cie=00000000 pc=000000000000c84c..000000000000c883
  DW_CFA_advance_loc: 5 to 000000000000c851
  DW_CFA_def_cfa_offset: 16
  DW_CFA_offset: r6 (rbp) at cfa-16
  DW_CFA_advance_loc: 3 to 000000000000c854
  DW_CFA_def_cfa_register: r6 (rbp)
  DW_CFA_advance_loc: 46 to 000000000000c882
  DW_CFA_def_cfa: r7 (rsp) ofs 8
  DW_CFA_nop
  DW_CFA_nop
  DW_CFA_nop

00001140 000000000000001c 00001144 FDE cie=00000000 pc=000000000000c883..000000000000c8ac
  DW_CFA_advance_loc: 5 to 000000000000c888
  DW_CFA_def_cfa_offset: 16
  DW_CFA_offset: r6 (rbp) at cfa-16
  DW_CFA_advance_loc: 3 to 000000000000c88b
  DW_CFA_def_cfa_register: r6 (rbp)
  DW_CFA_advance_loc: 32 to 000000000000c8ab
  DW_CFA_def_cfa: r7 (rsp) ofs 8
  DW_CFA_nop
  DW_CFA_nop
  DW_CFA_nop

00001160 000000000000001c 00001164 FDE cie=00000000 pc=000000000000c8ac..000000000000c8fb
  DW_CFA_advance_loc: 5 to 000000000000c8b1
  DW_CFA_def_cfa_offset: 16
  DW_CFA_offset: r6 (rbp) at cfa-16
  DW_CFA_advance_loc: 3 to 000000000000c8b4
  DW_CFA_def_cfa_register: r6 (rbp)
  DW_CFA_advance_loc1: 70 to 000000000000c8fa
  DW_CFA_def_cfa: r7 (rsp) ofs 8
  DW_CFA_nop
  DW_CFA_nop

00001180 000000000000001c 00001184 FDE cie=00000000 pc=000000000000c8fb..000000000000c943
  DW_CFA_advance_loc: 5 to 000000000000c900
  DW_CFA_def_cfa_offset: 16
  DW_CFA_offset: r6 (rbp) at cfa-16
  DW_CFA_advance_loc: 3 to 000000000000c903
  DW_CFA_def_cfa_register: r6 (rbp)
  DW_CFA_advance_loc: 63 to 000000000000c942
  DW_CFA_def_cfa: r7 (rsp) ofs 8
  DW_CFA_nop
  DW_CFA_nop
  DW_CFA_nop

000011a0 000000000000001c 000011a4 FDE cie=00000000 pc=000000000000c943..000000000000cb5d
  DW_CFA_advance_loc: 5 to 000000000000c948
  DW_CFA_def_cfa_offset: 16
  DW_CFA_offset: r6 (rbp) at cfa-16
  DW_CFA_advance_loc: 3 to 000000000000c94b
  DW_CFA_def_cfa_register: r6 (rbp)
  DW_CFA_advance_loc2: 529 to 000000000000cb5c
  DW_CFA_def_cfa: r7 (rsp) ofs 8
  DW_CFA_nop

000011c0 000000000000001c 000011c4 FDE cie=00000000 pc=000000000000cb5d..000000000000cb9c
  DW_CFA_advance_loc: 5 to 000000000000cb62
  DW_CFA_def_cfa_offset: 16
  DW_CFA_offset: r6 (rbp) at cfa-16
  DW_CFA_advance_loc: 3 to 000000000000cb65
  DW_CFA_def_cfa_register: r6 (rbp)
  DW_CFA_advance_loc: 54 to 000000000000cb9b
  DW_CFA_def_cfa: r7 (rsp) ofs 8
  DW_CFA_nop
  DW_CFA_nop
  DW_CFA_nop

000011e0 000000000000001c 000011e4 FDE cie=00000000 pc=000000000000cb9c..000000000000cc38
  DW_CFA_advance_loc: 5 to 000000000000cba1
  DW_CFA_def_cfa_offset: 16
  DW_CFA_offset: r6 (rbp) at cfa-16
  DW_CFA_advance_loc: 3 to 000000000000cba4
  DW_CFA_def_cfa_register: r6 (rbp)
  DW_CFA_advance_loc1: 147 to 000000000000cc37
  DW_CFA_def_cfa: r7 (rsp) ofs 8
  DW_CFA_nop
  DW_CFA_nop

00001200 000000000000001c 00001204 FDE cie=00000000 pc=000000000000cc38..000000000000cce2
  DW_CFA_advance_loc: 5 to 000000000000cc3d
  DW_CFA_def_cfa_offset: 16
  DW_CFA_offset: r6 (rbp) at cfa-16
  DW_CFA_advance_loc: 3 to 000000000000cc40
  DW_CFA_def_cfa_register: r6 (rbp)
  DW_CFA_advance_loc1: 161 to 000000000000cce1
  DW_CFA_def_cfa: r7 (rsp) ofs 8
  DW_CFA_nop
  DW_CFA_nop

00001220 000000000000001c 00001224 FDE cie=00000000 pc=000000000000cce2..000000000000cfc9
  DW_CFA_advance_loc: 5 to 000000000000cce7
  DW_CFA_def_cfa_offset: 16
  DW_CFA_offset: r6 (rbp) at cfa-16
  DW_CFA_advance_loc: 3 to 000000000000ccea
  DW_CFA_def_cfa_register: r6 (rbp)
  DW_CFA_advance_loc2: 734 to 000000000000cfc8
  DW_CFA_def_cfa: r7 (rsp) ofs 8
  DW_CFA_nop

00001240 000000000000001c 00001244 FDE cie=00000000 pc=000000000000cfc9..000000000000d75f
  DW_CFA_advance_loc: 5 to 000000000000cfce
  DW_CFA_def_cfa_offset: 16
  DW_CFA_offset: r6 (rbp) at cfa-16
  DW_CFA_advance_loc: 3 to 000000000000cfd1
  DW_CFA_def_cfa_register: r6 (rbp)
  DW_CFA_advance_loc2: 1933 to 000000000000d75e
  DW_CFA_def_cfa: r7 (rsp) ofs 8
  DW_CFA_nop

00001260 000000000000001c 00001264 FDE cie=00000000 pc=000000000000d75f..000000000000df0d
  DW_CFA_advance_loc: 5 to 000000000000d764
  DW_CFA_def_cfa_offset: 16
  DW_CFA_offset: r6 (rbp) at cfa-16
  DW_CFA_advance_loc: 3 to 000000000000d767
  DW_CFA_def_cfa_register: r6 (rbp)
  DW_CFA_advance_loc2: 1957 to 000000000000df0c
  DW_CFA_def_cfa: r7 (rsp) ofs 8
  DW_CFA_nop

00001280 0000000000000020 00001284 FDE cie=00000000 pc=000000000000df0d..000000000000e124
  DW_CFA_advance_loc: 5 to 000000000000df12
  DW_CFA_def_cfa_offset: 16
  DW_CFA_offset: r6 (rbp) at cfa-16
  DW_CFA_advance_loc: 3 to 000000000000df15
  DW_CFA_def_cfa_register: r6 (rbp)
  DW_CFA_advance_loc: 5 to 000000000000df1a
  DW_CFA_offset: r3 (rbx) at cfa-24
  DW_CFA_advance_loc2: 521 to 000000000000e123
  DW_CFA_def_cfa: r7 (rsp) ofs 8
  DW_CFA_nop
  DW_CFA_nop

000012a4 000000000000001c 000012a8 FDE cie=00000000 pc=000000000000e124..000000000000e14e
  DW_CFA_advance_loc: 5 to 000000000000e129
  DW_CFA_def_cfa_offset: 16
  DW_CFA_offset: r6 (rbp) at cfa-16
  DW_CFA_advance_loc: 3 to 000000000000e12c
  DW_CFA_def_cfa_register: r6 (rbp)
  DW_CFA_advance_loc: 33 to 000000000000e14d
  DW_CFA_def_cfa: r7 (rsp) ofs 8
  DW_CFA_nop
  DW_CFA_nop
  DW_CFA_nop

000012c4 0000000000000020 000012c8 FDE cie=00000000 pc=000000000000e14e..000000000000e1d9
  DW_CFA_advance_loc: 5 to 000000000000e153
  DW_CFA_def_cfa_offset: 16
  DW_CFA_offset: r6 (rbp) at cfa-16
  DW_CFA_advance_loc: 3 to 000000000000e156
  DW_CFA_def_cfa_register: r6 (rbp)
  DW_CFA_advance_loc1: 130 to 000000000000e1d8
  DW_CFA_def_cfa: r7 (rsp) ofs 8
  DW_CFA_nop
  DW_CFA_nop
  DW_CFA_nop
  DW_CFA_nop
  DW_CFA_nop
  DW_CFA_nop

000012e8 000000000000001c 000012ec FDE cie=00000000 pc=000000000000e1d9..000000000000e5a2
  DW_CFA_advance_loc: 5 to 000000000000e1de
  DW_CFA_def_cfa_offset: 16
  DW_CFA_offset: r6 (rbp) at cfa-16
  DW_CFA_advance_loc: 3 to 000000000000e1e1
  DW_CFA_def_cfa_register: r6 (rbp)
  DW_CFA_advance_loc2: 960 to 000000000000e5a1
  DW_CFA_def_cfa: r7 (rsp) ofs 8
  DW_CFA_nop

00001308 000000000000001c 0000130c FDE cie=00000000 pc=000000000000e5a2..000000000000e8c5
  DW_CFA_advance_loc: 5 to 000000000000e5a7
  DW_CFA_def_cfa_offset: 16
  DW_CFA_offset: r6 (rbp) at cfa-16
  DW_CFA_advance_loc: 3 to 000000000000e5aa
  DW_CFA_def_cfa_register: r6 (rbp)
  DW_CFA_advance_loc2: 794 to 000000000000e8c4
  DW_CFA_def_cfa: r7 (rsp) ofs 8
  DW_CFA_nop

00001328 000000000000001c 0000132c FDE cie=00000000 pc=000000000000e8c5..000000000000e9b8
  DW_CFA_advance_loc: 5 to 000000000000e8ca
  DW_CFA_def_cfa_offset: 16
  DW_CFA_offset: r6 (rbp) at cfa-16
  DW_CFA_advance_loc: 3 to 000000000000e8cd
  DW_CFA_def_cfa_register: r6 (rbp)
  DW_CFA_advance_loc1: 234 to 000000000000e9b7
  DW_CFA_def_cfa: r7 (rsp) ofs 8
  DW_CFA_nop
  DW_CFA_nop

00001348 000000000000001c 0000134c FDE cie=00000000 pc=000000000000e9b8..000000000000ea00
  DW_CFA_advance_loc: 5 to 000000000000e9bd
  DW_CFA_def_cfa_offset: 16
  DW_CFA_offset: r6 (rbp) at cfa-16
  DW_CFA_advance_loc: 3 to 000000000000e9c0
  DW_CFA_def_cfa_register: r6 (rbp)
  DW_CFA_advance_loc: 63 to 000000000000e9ff
  DW_CFA_def_cfa: r7 (rsp) ofs 8
  DW_CFA_nop
  DW_CFA_nop
  DW_CFA_nop

00001368 000000000000001c 0000136c FDE cie=00000000 pc=000000000000ea00..000000000000ea3e
  DW_CFA_advance_loc: 5 to 000000000000ea05
  DW_CFA_def_cfa_offset: 16
  DW_CFA_offset: r6 (rbp) at cfa-16
  DW_CFA_advance_loc: 3 to 000000000000ea08
  DW_CFA_def_cfa_register: r6 (rbp)
  DW_CFA_advance_loc: 53 to 000000000000ea3d
  DW_CFA_def_cfa: r7 (rsp) ofs 8
  DW_CFA_nop
  DW_CFA_nop
  DW_CFA_nop

00001388 000000000000001c 0000138c FDE cie=00000000 pc=000000000000ea3e..000000000000ea70
  DW_CFA_advance_loc: 5 to 000000000000ea43
  DW_CFA_def_cfa_offset: 16
  DW_CFA_offset: r6 (rbp) at cfa-16
  DW_CFA_advance_loc: 3 to 000000000000ea46
  DW_CFA_def_cfa_register: r6 (rbp)
  DW_CFA_advance_loc: 41 to 000000000000ea6f
  DW_CFA_def_cfa: r7 (rsp) ofs 8
  DW_CFA_nop
  DW_CFA_nop
  DW_CFA_nop

000013a8 000000000000001c 000013ac FDE cie=00000000 pc=000000000000ea70..000000000000ea91
  DW_CFA_advance_loc: 5 to 000000000000ea75
  DW_CFA_def_cfa_offset: 16
  DW_CFA_offset: r6 (rbp) at cfa-16
  DW_CFA_advance_loc: 3 to 000000000000ea78
  DW_CFA_def_cfa_register: r6 (rbp)
  DW_CFA_advance_loc: 24 to 000000000000ea90
  DW_CFA_def_cfa: r7 (rsp) ofs 8
  DW_CFA_nop
  DW_CFA_nop
  DW_CFA_nop

000013c8 000000000000001c 000013cc FDE cie=00000000 pc=000000000000ea91..000000000000eab9
  DW_CFA_advance_loc: 5 to 000000000000ea96
  DW_CFA_def_cfa_offset: 16
  DW_CFA_offset: r6 (rbp) at cfa-16
  DW_CFA_advance_loc: 3 to 000000000000ea99
  DW_CFA_def_cfa_register: r6 (rbp)
  DW_CFA_advance_loc: 31 to 000000000000eab8
  DW_CFA_def_cfa: r7 (rsp) ofs 8
  DW_CFA_nop
  DW_CFA_nop
  DW_CFA_nop

000013e8 000000000000001c 000013ec FDE cie=00000000 pc=000000000000eab9..000000000000eae6
  DW_CFA_advance_loc: 5 to 000000000000eabe
  DW_CFA_def_cfa_offset: 16
  DW_CFA_offset: r6 (rbp) at cfa-16
  DW_CFA_advance_loc: 3 to 000000000000eac1
  DW_CFA_def_cfa_register: r6 (rbp)
  DW_CFA_advance_loc: 36 to 000000000000eae5
  DW_CFA_def_cfa: r7 (rsp) ofs 8
  DW_CFA_nop
  DW_CFA_nop
  DW_CFA_nop

00001408 000000000000001c 0000140c FDE cie=00000000 pc=000000000000eae6..000000000000eb0a
  DW_CFA_advance_loc: 5 to 000000000000eaeb
  DW_CFA_def_cfa_offset: 16
  DW_CFA_offset: r6 (rbp) at cfa-16
  DW_CFA_advance_loc: 3 to 000000000000eaee
  DW_CFA_def_cfa_register: r6 (rbp)
  DW_CFA_advance_loc: 27 to 000000000000eb09
  DW_CFA_def_cfa: r7 (rsp) ofs 8
  DW_CFA_nop
  DW_CFA_nop
  DW_CFA_nop

00001428 000000000000001c 0000142c FDE cie=00000000 pc=000000000000eb0a..000000000000eb2e
  DW_CFA_advance_loc: 5 to 000000000000eb0f
  DW_CFA_def_cfa_offset: 16
  DW_CFA_offset: r6 (rbp) at cfa-16
  DW_CFA_advance_loc: 3 to 000000000000eb12
  DW_CFA_def_cfa_register: r6 (rbp)
  DW_CFA_advance_loc: 27 to 000000000000eb2d
  DW_CFA_def_cfa: r7 (rsp) ofs 8
  DW_CFA_nop
  DW_CFA_nop
  DW_CFA_nop

00001448 000000000000001c 0000144c FDE cie=00000000 pc=000000000000eb2e..000000000000eb52
  DW_CFA_advance_loc: 5 to 000000000000eb33
  DW_CFA_def_cfa_offset: 16
  DW_CFA_offset: r6 (rbp) at cfa-16
  DW_CFA_advance_loc: 3 to 000000000000eb36
  DW_CFA_def_cfa_register: r6 (rbp)
  DW_CFA_advance_loc: 27 to 000000000000eb51
  DW_CFA_def_cfa: r7 (rsp) ofs 8
  DW_CFA_nop
  DW_CFA_nop
  DW_CFA_nop

00001468 000000000000001c 0000146c FDE cie=00000000 pc=000000000000eb52..000000000000eb76
  DW_CFA_advance_loc: 5 to 000000000000eb57
  DW_CFA_def_cfa_offset: 16
  DW_CFA_offset: r6 (rbp) at cfa-16
  DW_CFA_advance_loc: 3 to 000000000000eb5a
  DW_CFA_def_cfa_register: r6 (rbp)
  DW_CFA_advance_loc: 27 to 000000000000eb75
  DW_CFA_def_cfa: r7 (rsp) ofs 8
  DW_CFA_nop
  DW_CFA_nop
  DW_CFA_nop

00001488 000000000000001c 0000148c FDE cie=00000000 pc=000000000000eb76..000000000000ebc0
  DW_CFA_advance_loc: 5 to 000000000000eb7b
  DW_CFA_def_cfa_offset: 16
  DW_CFA_offset: r6 (rbp) at cfa-16
  DW_CFA_advance_loc: 3 to 000000000000eb7e
  DW_CFA_def_cfa_register: r6 (rbp)
  DW_CFA_advance_loc1: 65 to 000000000000ebbf
  DW_CFA_def_cfa: r7 (rsp) ofs 8
  DW_CFA_nop
  DW_CFA_nop

000014a8 000000000000001c 000014ac FDE cie=00000000 pc=000000000000ebc0..000000000000ebed
  DW_CFA_advance_loc: 5 to 000000000000ebc5
  DW_CFA_def_cfa_offset: 16
  DW_CFA_offset: r6 (rbp) at cfa-16
  DW_CFA_advance_loc: 3 to 000000000000ebc8
  DW_CFA_def_cfa_register: r6 (rbp)
  DW_CFA_advance_loc: 36 to 000000000000ebec
  DW_CFA_def_cfa: r7 (rsp) ofs 8
  DW_CFA_nop
  DW_CFA_nop
  DW_CFA_nop

000014c8 000000000000001c 000014cc FDE cie=00000000 pc=000000000000ebed..000000000000ec11
  DW_CFA_advance_loc: 5 to 000000000000ebf2
  DW_CFA_def_cfa_offset: 16
  DW_CFA_offset: r6 (rbp) at cfa-16
  DW_CFA_advance_loc: 3 to 000000000000ebf5
  DW_CFA_def_cfa_register: r6 (rbp)
  DW_CFA_advance_loc: 27 to 000000000000ec10
  DW_CFA_def_cfa: r7 (rsp) ofs 8
  DW_CFA_nop
  DW_CFA_nop
  DW_CFA_nop

000014e8 000000000000001c 000014ec FDE cie=00000000 pc=000000000000ec11..000000000000ec59
  DW_CFA_advance_loc: 5 to 000000000000ec16
  DW_CFA_def_cfa_offset: 16
  DW_CFA_offset: r6 (rbp) at cfa-16
  DW_CFA_advance_loc: 3 to 000000000000ec19
  DW_CFA_def_cfa_register: r6 (rbp)
  DW_CFA_advance_loc: 63 to 000000000000ec58
  DW_CFA_def_cfa: r7 (rsp) ofs 8
  DW_CFA_nop
  DW_CFA_nop
  DW_CFA_nop

00001508 000000000000001c 0000150c FDE cie=00000000 pc=000000000000ec59..000000000000ec7c
  DW_CFA_advance_loc: 5 to 000000000000ec5e
  DW_CFA_def_cfa_offset: 16
  DW_CFA_offset: r6 (rbp) at cfa-16
  DW_CFA_advance_loc: 3 to 000000000000ec61
  DW_CFA_def_cfa_register: r6 (rbp)
  DW_CFA_advance_loc: 26 to 000000000000ec7b
  DW_CFA_def_cfa: r7 (rsp) ofs 8
  DW_CFA_nop
  DW_CFA_nop
  DW_CFA_nop

00001528 000000000000001c 0000152c FDE cie=00000000 pc=000000000000ec7c..000000000000ec9f
  DW_CFA_advance_loc: 5 to 000000000000ec81
  DW_CFA_def_cfa_offset: 16
  DW_CFA_offset: r6 (rbp) at cfa-16
  DW_CFA_advance_loc: 3 to 000000000000ec84
  DW_CFA_def_cfa_register: r6 (rbp)
  DW_CFA_advance_loc: 26 to 000000000000ec9e
  DW_CFA_def_cfa: r7 (rsp) ofs 8
  DW_CFA_nop
  DW_CFA_nop
  DW_CFA_nop

00001548 000000000000001c 0000154c FDE cie=00000000 pc=000000000000ec9f..000000000000ed49
  DW_CFA_advance_loc: 5 to 000000000000eca4
  DW_CFA_def_cfa_offset: 16
  DW_CFA_offset: r6 (rbp) at cfa-16
  DW_CFA_advance_loc: 3 to 000000000000eca7
  DW_CFA_def_cfa_register: r6 (rbp)
  DW_CFA_advance_loc1: 161 to 000000000000ed48
  DW_CFA_def_cfa: r7 (rsp) ofs 8
  DW_CFA_nop
  DW_CFA_nop

00001568 000000000000001c 0000156c FDE cie=00000000 pc=000000000000ed49..000000000000ee56
  DW_CFA_advance_loc: 5 to 000000000000ed4e
  DW_CFA_def_cfa_offset: 16
  DW_CFA_offset: r6 (rbp) at cfa-16
  DW_CFA_advance_loc: 3 to 000000000000ed51
  DW_CFA_def_cfa_register: r6 (rbp)
  DW_CFA_advance_loc2: 260 to 000000000000ee55
  DW_CFA_def_cfa: r7 (rsp) ofs 8
  DW_CFA_nop

00001588 000000000000001c 0000158c FDE cie=00000000 pc=000000000000ee56..000000000000eeb1
  DW_CFA_advance_loc: 5 to 000000000000ee5b
  DW_CFA_def_cfa_offset: 16
  DW_CFA_offset: r6 (rbp) at cfa-16
  DW_CFA_advance_loc: 3 to 000000000000ee5e
  DW_CFA_def_cfa_register: r6 (rbp)
  DW_CFA_advance_loc1: 82 to 000000000000eeb0
  DW_CFA_def_cfa: r7 (rsp) ofs 8
  DW_CFA_nop
  DW_CFA_nop

000015a8 000000000000001c 000015ac FDE cie=00000000 pc=000000000000eeb1..000000000000eeec
  DW_CFA_advance_loc: 5 to 000000000000eeb6
  DW_CFA_def_cfa_offset: 16
  DW_CFA_offset: r6 (rbp) at cfa-16
  DW_CFA_advance_loc: 3 to 000000000000eeb9
  DW_CFA_def_cfa_register: r6 (rbp)
  DW_CFA_advance_loc: 50 to 000000000000eeeb
  DW_CFA_def_cfa: r7 (rsp) ofs 8
  DW_CFA_nop
  DW_CFA_nop
  DW_CFA_nop

000015c8 000000000000001c 000015cc FDE cie=00000000 pc=000000000000eeec..000000000000ef92
  DW_CFA_advance_loc: 5 to 000000000000eef1
  DW_CFA_def_cfa_offset: 16
  DW_CFA_offset: r6 (rbp) at cfa-16
  DW_CFA_advance_loc: 3 to 000000000000eef4
  DW_CFA_def_cfa_register: r6 (rbp)
  DW_CFA_advance_loc1: 157 to 000000000000ef91
  DW_CFA_def_cfa: r7 (rsp) ofs 8
  DW_CFA_nop
  DW_CFA_nop

000015e8 000000000000001c 000015ec FDE cie=00000000 pc=000000000000ef92..000000000000efd7
  DW_CFA_advance_loc: 5 to 000000000000ef97
  DW_CFA_def_cfa_offset: 16
  DW_CFA_offset: r6 (rbp) at cfa-16
  DW_CFA_advance_loc: 3 to 000000000000ef9a
  DW_CFA_def_cfa_register: r6 (rbp)
  DW_CFA_advance_loc: 60 to 000000000000efd6
  DW_CFA_def_cfa: r7 (rsp) ofs 8
  DW_CFA_nop
  DW_CFA_nop
  DW_CFA_nop

00001608 000000000000001c 0000160c FDE cie=00000000 pc=000000000000efd7..000000000000f0a7
  DW_CFA_advance_loc: 5 to 000000000000efdc
  DW_CFA_def_cfa_offset: 16
  DW_CFA_offset: r6 (rbp) at cfa-16
  DW_CFA_advance_loc: 3 to 000000000000efdf
  DW_CFA_def_cfa_register: r6 (rbp)
  DW_CFA_advance_loc1: 199 to 000000000000f0a6
  DW_CFA_def_cfa: r7 (rsp) ofs 8
  DW_CFA_nop
  DW_CFA_nop

00001628 000000000000001c 0000162c FDE cie=00000000 pc=000000000000f0a7..000000000000f0cf
  DW_CFA_advance_loc: 5 to 000000000000f0ac
  DW_CFA_def_cfa_offset: 16
  DW_CFA_offset: r6 (rbp) at cfa-16
  DW_CFA_advance_loc: 3 to 000000000000f0af
  DW_CFA_def_cfa_register: r6 (rbp)
  DW_CFA_advance_loc: 31 to 000000000000f0ce
  DW_CFA_def_cfa: r7 (rsp) ofs 8
  DW_CFA_nop
  DW_CFA_nop
  DW_CFA_nop

00001648 000000000000001c 0000164c FDE cie=00000000 pc=000000000000f0cf..000000000000f187
  DW_CFA_advance_loc: 5 to 000000000000f0d4
  DW_CFA_def_cfa_offset: 16
  DW_CFA_offset: r6 (rbp) at cfa-16
  DW_CFA_advance_loc: 3 to 000000000000f0d7
  DW_CFA_def_cfa_register: r6 (rbp)
  DW_CFA_advance_loc1: 175 to 000000000000f186
  DW_CFA_def_cfa: r7 (rsp) ofs 8
  DW_CFA_nop
  DW_CFA_nop

00001668 000000000000001c 0000166c FDE cie=00000000 pc=000000000000f187..000000000000f1b5
  DW_CFA_advance_loc: 5 to 000000000000f18c
  DW_CFA_def_cfa_offset: 16
  DW_CFA_offset: r6 (rbp) at cfa-16
  DW_CFA_advance_loc: 3 to 000000000000f18f
  DW_CFA_def_cfa_register: r6 (rbp)
  DW_CFA_advance_loc: 37 to 000000000000f1b4
  DW_CFA_def_cfa: r7 (rsp) ofs 8
  DW_CFA_nop
  DW_CFA_nop
  DW_CFA_nop

00001688 000000000000001c 0000168c FDE cie=00000000 pc=000000000000f1b5..000000000000f1d0
  DW_CFA_advance_loc: 5 to 000000000000f1ba
  DW_CFA_def_cfa_offset: 16
  DW_CFA_offset: r6 (rbp) at cfa-16
  DW_CFA_advance_loc: 3 to 000000000000f1bd
  DW_CFA_def_cfa_register: r6 (rbp)
  DW_CFA_advance_loc: 18 to 000000000000f1cf
  DW_CFA_def_cfa: r7 (rsp) ofs 8
  DW_CFA_nop
  DW_CFA_nop
  DW_CFA_nop

000016a8 0000000000000044 000016ac FDE cie=00000000 pc=000000000000f1d0..000000000000f235
  DW_CFA_advance_loc: 6 to 000000000000f1d6
  DW_CFA_def_cfa_offset: 16
  DW_CFA_offset: r15 (r15) at cfa-16
  DW_CFA_advance_loc: 9 to 000000000000f1df
  DW_CFA_def_cfa_offset: 24
  DW_CFA_offset: r14 (r14) at cfa-24
  DW_CFA_advance_loc: 5 to 000000000000f1e4
  DW_CFA_def_cfa_offset: 32
  DW_CFA_offset: r13 (r13) at cfa-32
  DW_CFA_advance_loc: 5 to 000000000000f1e9
  DW_CFA_def_cfa_offset: 40
  DW_CFA_offset: r12 (r12) at cfa-40
  DW_CFA_advance_loc: 4 to 000000000000f1ed
  DW_CFA_def_cfa_offset: 48
  DW_CFA_offset: r6 (rbp) at cfa-48
  DW_CFA_advance_loc: 8 to 000000000000f1f5
  DW_CFA_def_cfa_offset: 56
  DW_CFA_offset: r3 (rbx) at cfa-56
  DW_CFA_advance_loc: 7 to 000000000000f1fc
  DW_CFA_def_cfa_offset: 64
  DW_CFA_advance_loc: 46 to 000000000000f22a
  DW_CFA_def_cfa_offset: 56
  DW_CFA_advance_loc: 1 to 000000000000f22b
  DW_CFA_def_cfa_offset: 48
  DW_CFA_advance_loc: 1 to 000000000000f22c
  DW_CFA_def_cfa_offset: 40
  DW_CFA_advance_loc: 2 to 000000000000f22e
  DW_CFA_def_cfa_offset: 32
  DW_CFA_advance_loc: 2 to 000000000000f230
  DW_CFA_def_cfa_offset: 24
  DW_CFA_advance_loc: 2 to 000000000000f232
  DW_CFA_def_cfa_offset: 16
  DW_CFA_advance_loc: 2 to 000000000000f234
  DW_CFA_def_cfa_offset: 8
  DW_CFA_nop

000016f0 0000000000000014 000016f4 FDE cie=00000000 pc=000000000000f240..000000000000f245
  DW_CFA_nop
  DW_CFA_nop
  DW_CFA_nop
  DW_CFA_nop
  DW_CFA_nop
  DW_CFA_nop
  DW_CFA_nop

00001708 0000000000000010 0000170c FDE cie=00000000 pc=000000000000f250..000000000000f262
  DW_CFA_nop
  DW_CFA_nop
  DW_CFA_nop

0000171c ZERO terminator


Contents of the .debug_aranges section (loaded from factor_O0_debug):

  Length:                   44
  Version:                  2
  Offset into .debug_info:  0x0
  Pointer Size:             8
  Segment Size:             0

    Address            Length
    0000000000002c29 0000000000005416 
    0000000000000000 0000000000000000 
  Length:                   28
  Version:                  2
  Offset into .debug_info:  0x2fe3
  Pointer Size:             8
  Segment Size:             0

    Address            Length
    0000000000000000 0000000000000000 
  Length:                   44
  Version:                  2
  Offset into .debug_info:  0x3029
  Pointer Size:             8
  Segment Size:             0

    Address            Length
    000000000000803f 000000000000012c 
    0000000000000000 0000000000000000 
  Length:                   28
  Version:                  2
  Offset into .debug_info:  0x345e
  Pointer Size:             8
  Segment Size:             0

    Address            Length
    0000000000000000 0000000000000000 
  Length:                   44
  Version:                  2
  Offset into .debug_info:  0x34f3
  Pointer Size:             8
  Segment Size:             0

    Address            Length
    000000000000816b 0000000000000083 
    0000000000000000 0000000000000000 
  Length:                   44
  Version:                  2
  Offset into .debug_info:  0x35e4
  Pointer Size:             8
  Segment Size:             0

    Address            Length
    00000000000081ee 0000000000000085 
    0000000000000000 0000000000000000 
  Length:                   44
  Version:                  2
  Offset into .debug_info:  0x370f
  Pointer Size:             8
  Segment Size:             0

    Address            Length
    0000000000008273 0000000000000089 
    0000000000000000 0000000000000000 
  Length:                   44
  Version:                  2
  Offset into .debug_info:  0x37f0
  Pointer Size:             8
  Segment Size:             0

    Address            Length
    00000000000082fc 00000000000000f5 
    0000000000000000 0000000000000000 
  Length:                   44
  Version:                  2
  Offset into .debug_info:  0x3b65
  Pointer Size:             8
  Segment Size:             0

    Address            Length
    00000000000083f1 000000000000085f 
    0000000000000000 0000000000000000 
  Length:                   44
  Version:                  2
  Offset into .debug_info:  0x4275
  Pointer Size:             8
  Segment Size:             0

    Address            Length
    0000000000008c50 0000000000001f79 
    0000000000000000 0000000000000000 
  Length:                   44
  Version:                  2
  Offset into .debug_info:  0x572d
  Pointer Size:             8
  Segment Size:             0

    Address            Length
    000000000000abc9 00000000000004bb 
    0000000000000000 0000000000000000 
  Length:                   44
  Version:                  2
  Offset into .debug_info:  0x5de7
  Pointer Size:             8
  Segment Size:             0

    Address            Length
    000000000000b084 0000000000000074 
    0000000000000000 0000000000000000 
  Length:                   44
  Version:                  2
  Offset into .debug_info:  0x5f4b
  Pointer Size:             8
  Segment Size:             0

    Address            Length
    000000000000b0f8 000000000000035f 
    0000000000000000 0000000000000000 
  Length:                   44
  Version:                  2
  Offset into .debug_info:  0x6356
  Pointer Size:             8
  Segment Size:             0

    Address            Length
    000000000000b457 00000000000008f3 
    0000000000000000 0000000000000000 
  Length:                   28
  Version:                  2
  Offset into .debug_info:  0x692d
  Pointer Size:             8
  Segment Size:             0

    Address            Length
    0000000000000000 0000000000000000 
  Length:                   44
  Version:                  2
  Offset into .debug_info:  0x69eb
  Pointer Size:             8
  Segment Size:             0

    Address            Length
    000000000000bd4a 000000000000068b 
    0000000000000000 0000000000000000 
  Length:                   44
  Version:                  2
  Offset into .debug_info:  0x7200
  Pointer Size:             8
  Segment Size:             0

    Address            Length
    000000000000c3d5 0000000000000040 
    0000000000000000 0000000000000000 
  Length:                   44
  Version:                  2
  Offset into .debug_info:  0x72fa
  Pointer Size:             8
  Segment Size:             0

    Address            Length
    000000000000c415 00000000000000f8 
    0000000000000000 0000000000000000 
  Length:                   44
  Version:                  2
  Offset into .debug_info:  0x7559
  Pointer Size:             8
  Segment Size:             0

    Address            Length
    000000000000c50d 000000000000007a 
    0000000000000000 0000000000000000 
  Length:                   44
  Version:                  2
  Offset into .debug_info:  0x765c
  Pointer Size:             8
  Segment Size:             0

    Address            Length
    000000000000c587 000000000000008f 
    0000000000000000 0000000000000000 
  Length:                   44
  Version:                  2
  Offset into .debug_info:  0x79b9
  Pointer Size:             8
  Segment Size:             0

    Address            Length
    000000000000c616 00000000000000b9 
    0000000000000000 0000000000000000 
  Length:                   44
  Version:                  2
  Offset into .debug_info:  0x7d3c
  Pointer Size:             8
  Segment Size:             0

    Address            Length
    000000000000c6cf 0000000000000087 
    0000000000000000 0000000000000000 
  Length:                   44
  Version:                  2
  Offset into .debug_info:  0x808d
  Pointer Size:             8
  Segment Size:             0

    Address            Length
    000000000000c756 00000000000000be 
    0000000000000000 0000000000000000 
  Length:                   44
  Version:                  2
  Offset into .debug_info:  0x83fa
  Pointer Size:             8
  Segment Size:             0

    Address            Length
    000000000000c814 00000000000000e7 
    0000000000000000 0000000000000000 
  Length:                   44
  Version:                  2
  Offset into .debug_info:  0x8636
  Pointer Size:             8
  Segment Size:             0

    Address            Length
    000000000000c8fb 0000000000000048 
    0000000000000000 0000000000000000 
  Length:                   44
  Version:                  2
  Offset into .debug_info:  0x939a
  Pointer Size:             8
  Segment Size:             0

    Address            Length
    000000000000c943 00000000000002f5 
    0000000000000000 0000000000000000 
  Length:                   44
  Version:                  2
  Offset into .debug_info:  0x9760
  Pointer Size:             8
  Segment Size:             0

    Address            Length
    000000000000cc38 00000000000000aa 
    0000000000000000 0000000000000000 
  Length:                   44
  Version:                  2
  Offset into .debug_info:  0x9957
  Pointer Size:             8
  Segment Size:             0

    Address            Length
    000000000000cce2 000000000000122b 
    0000000000000000 0000000000000000 
  Length:                   44
  Version:                  2
  Offset into .debug_info:  0xa1c1
  Pointer Size:             8
  Segment Size:             0

    Address            Length
    000000000000df0d 00000000000002cc 
    0000000000000000 0000000000000000 
  Length:                   44
  Version:                  2
  Offset into .debug_info:  0xa5bf
  Pointer Size:             8
  Segment Size:             0

    Address            Length
    000000000000e1d9 00000000000007df 
    0000000000000000 0000000000000000 
  Length:                   44
  Version:                  2
  Offset into .debug_info:  0xac33
  Pointer Size:             8
  Segment Size:             0

    Address            Length
    000000000000e9b8 0000000000000048 
    0000000000000000 0000000000000000 
  Length:                   44
  Version:                  2
  Offset into .debug_info:  0xad1e
  Pointer Size:             8
  Segment Size:             0

    Address            Length
    000000000000ea00 000000000000029f 
    0000000000000000 0000000000000000 
  Length:                   44
  Version:                  2
  Offset into .debug_info:  0xb036
  Pointer Size:             8
  Segment Size:             0

    Address            Length
    000000000000ec9f 00000000000000aa 
    0000000000000000 0000000000000000 
  Length:                   44
  Version:                  2
  Offset into .debug_info:  0xb144
  Pointer Size:             8
  Segment Size:             0

    Address            Length
    000000000000ed49 0000000000000168 
    0000000000000000 0000000000000000 
  Length:                   44
  Version:                  2
  Offset into .debug_info:  0xb39a
  Pointer Size:             8
  Segment Size:             0

    Address            Length
    000000000000eeb1 0000000000000126 
    0000000000000000 0000000000000000 
  Length:                   44
  Version:                  2
  Offset into .debug_info:  0xb616
  Pointer Size:             8
  Segment Size:             0

    Address            Length
    000000000000efd7 00000000000000d0 
    0000000000000000 0000000000000000 
  Length:                   44
  Version:                  2
  Offset into .debug_info:  0xb8cd
  Pointer Size:             8
  Segment Size:             0

    Address            Length
    000000000000f0a7 0000000000000129 
    0000000000000000 0000000000000000 

Contents of the .debug_info section (loaded from factor_O0_debug):

  Compilation Unit @ offset 0x0:
   Length:        0x2fdf (32-bit)
   Version:       4
   Abbrev Offset: 0x0
   Pointer Size:  8
 <0><b>: Abbrev Number: 1 (DW_TAG_compile_unit)
    <c>   DW_AT_producer    : (indirect string, offset: 0x25c): GNU C17 11.1.0 -mtune=generic -march=x86-64 -g -O0 -fasynchronous-unwind-tables -fstack-protector-strong -fstack-clash-protection -fcf-protection
    <10>   DW_AT_language    : 12	(ANSI C99)
    <11>   DW_AT_name        : (indirect string, offset: 0x98e): src/factor.c
    <15>   DW_AT_comp_dir    : (indirect string, offset: 0x884): /home/jacekline/dev/research/programs/coreutils-9.1
    <19>   DW_AT_low_pc      : 0x2c29
    <21>   DW_AT_high_pc     : 0x5416
    <29>   DW_AT_stmt_list   : 0x0
 <1><2d>: Abbrev Number: 2 (DW_TAG_pointer_type)
    <2e>   DW_AT_byte_size   : 8
    <2f>   DW_AT_type        : <0x38>
 <1><33>: Abbrev Number: 3 (DW_TAG_const_type)
    <34>   DW_AT_type        : <0x2d>
 <1><38>: Abbrev Number: 4 (DW_TAG_base_type)
    <39>   DW_AT_byte_size   : 1
    <3a>   DW_AT_encoding    : 6	(signed char)
    <3b>   DW_AT_name        : (indirect string, offset: 0x1ed): char
 <1><3f>: Abbrev Number: 3 (DW_TAG_const_type)
    <40>   DW_AT_type        : <0x38>
 <1><44>: Abbrev Number: 5 (DW_TAG_variable)
    <45>   DW_AT_name        : (indirect string, offset: 0x487): optind
    <49>   DW_AT_decl_file   : 8
    <4a>   DW_AT_decl_line   : 50
    <4b>   DW_AT_decl_column : 12
    <4c>   DW_AT_type        : <0x50>
    <50>   DW_AT_external    : 1
    <50>   DW_AT_declaration : 1
 <1><50>: Abbrev Number: 6 (DW_TAG_base_type)
    <51>   DW_AT_byte_size   : 4
    <52>   DW_AT_encoding    : 5	(signed)
    <53>   DW_AT_name        : int
 <1><57>: Abbrev Number: 7 (DW_TAG_structure_type)
    <58>   DW_AT_name        : (indirect string, offset: 0x4cd): option
    <5c>   DW_AT_byte_size   : 32
    <5d>   DW_AT_decl_file   : 3
    <5e>   DW_AT_decl_line   : 50
    <5f>   DW_AT_decl_column : 8
    <60>   DW_AT_sibling     : <0x99>
 <2><64>: Abbrev Number: 8 (DW_TAG_member)
    <65>   DW_AT_name        : (indirect string, offset: 0x157a): name
    <69>   DW_AT_decl_file   : 3
    <6a>   DW_AT_decl_line   : 52
    <6b>   DW_AT_decl_column : 15
    <6c>   DW_AT_type        : <0x9e>
    <70>   DW_AT_data_member_location: 0
 <2><71>: Abbrev Number: 8 (DW_TAG_member)
    <72>   DW_AT_name        : (indirect string, offset: 0x126): has_arg
    <76>   DW_AT_decl_file   : 3
    <77>   DW_AT_decl_line   : 55
    <78>   DW_AT_decl_column : 7
    <79>   DW_AT_type        : <0x50>
    <7d>   DW_AT_data_member_location: 8
 <2><7e>: Abbrev Number: 8 (DW_TAG_member)
    <7f>   DW_AT_name        : (indirect string, offset: 0x646): flag
    <83>   DW_AT_decl_file   : 3
    <84>   DW_AT_decl_line   : 56
    <85>   DW_AT_decl_column : 8
    <86>   DW_AT_type        : <0xa9>
    <8a>   DW_AT_data_member_location: 16
 <2><8b>: Abbrev Number: 9 (DW_TAG_member)
    <8c>   DW_AT_name        : val
    <90>   DW_AT_decl_file   : 3
    <91>   DW_AT_decl_line   : 57
    <92>   DW_AT_decl_column : 7
    <93>   DW_AT_type        : <0x50>
    <97>   DW_AT_data_member_location: 24
 <2><98>: Abbrev Number: 0
 <1><99>: Abbrev Number: 3 (DW_TAG_const_type)
    <9a>   DW_AT_type        : <0x57>
 <1><9e>: Abbrev Number: 2 (DW_TAG_pointer_type)
    <9f>   DW_AT_byte_size   : 8
    <a0>   DW_AT_type        : <0x3f>
 <1><a4>: Abbrev Number: 10 (DW_TAG_restrict_type)
    <a5>   DW_AT_type        : <0x9e>
 <1><a9>: Abbrev Number: 2 (DW_TAG_pointer_type)
    <aa>   DW_AT_byte_size   : 8
    <ab>   DW_AT_type        : <0x50>
 <1><af>: Abbrev Number: 11 (DW_TAG_typedef)
    <b0>   DW_AT_name        : (indirect string, offset: 0x14a5): size_t
    <b4>   DW_AT_decl_file   : 4
    <b5>   DW_AT_decl_line   : 209
    <b6>   DW_AT_decl_column : 23
    <b7>   DW_AT_type        : <0xbb>
 <1><bb>: Abbrev Number: 4 (DW_TAG_base_type)
    <bc>   DW_AT_byte_size   : 8
    <bd>   DW_AT_encoding    : 7	(unsigned)
    <be>   DW_AT_name        : (indirect string, offset: 0x718): long unsigned int
 <1><c2>: Abbrev Number: 4 (DW_TAG_base_type)
    <c3>   DW_AT_byte_size   : 4
    <c4>   DW_AT_encoding    : 7	(unsigned)
    <c5>   DW_AT_name        : (indirect string, offset: 0x71d): unsigned int
 <1><c9>: Abbrev Number: 12 (DW_TAG_pointer_type)
    <ca>   DW_AT_byte_size   : 8
 <1><cb>: Abbrev Number: 4 (DW_TAG_base_type)
    <cc>   DW_AT_byte_size   : 1
    <cd>   DW_AT_encoding    : 8	(unsigned char)
    <ce>   DW_AT_name        : (indirect string, offset: 0x1e4): unsigned char
 <1><d2>: Abbrev Number: 3 (DW_TAG_const_type)
    <d3>   DW_AT_type        : <0xcb>
 <1><d7>: Abbrev Number: 4 (DW_TAG_base_type)
    <d8>   DW_AT_byte_size   : 2
    <d9>   DW_AT_encoding    : 7	(unsigned)
    <da>   DW_AT_name        : (indirect string, offset: 0x9b0): short unsigned int
 <1><de>: Abbrev Number: 4 (DW_TAG_base_type)
    <df>   DW_AT_byte_size   : 1
    <e0>   DW_AT_encoding    : 6	(signed char)
    <e1>   DW_AT_name        : (indirect string, offset: 0x1e6): signed char
 <1><e5>: Abbrev Number: 4 (DW_TAG_base_type)
    <e6>   DW_AT_byte_size   : 2
    <e7>   DW_AT_encoding    : 5	(signed)
    <e8>   DW_AT_name        : (indirect string, offset: 0x8bf): short int
 <1><ec>: Abbrev Number: 4 (DW_TAG_base_type)
    <ed>   DW_AT_byte_size   : 8
    <ee>   DW_AT_encoding    : 5	(signed)
    <ef>   DW_AT_name        : (indirect string, offset: 0x558): long int
 <1><f3>: Abbrev Number: 11 (DW_TAG_typedef)
    <f4>   DW_AT_name        : (indirect string, offset: 0x5c4): __intmax_t
    <f8>   DW_AT_decl_file   : 5
    <f9>   DW_AT_decl_line   : 72
    <fa>   DW_AT_decl_column : 18
    <fb>   DW_AT_type        : <0xec>
 <1><ff>: Abbrev Number: 11 (DW_TAG_typedef)
    <100>   DW_AT_name        : (indirect string, offset: 0x8ed): __uintmax_t
    <104>   DW_AT_decl_file   : 5
    <105>   DW_AT_decl_line   : 73
    <106>   DW_AT_decl_column : 27
    <107>   DW_AT_type        : <0xbb>
 <1><10b>: Abbrev Number: 11 (DW_TAG_typedef)
    <10c>   DW_AT_name        : (indirect string, offset: 0x750): __off_t
    <110>   DW_AT_decl_file   : 5
    <111>   DW_AT_decl_line   : 152
    <112>   DW_AT_decl_column : 25
    <113>   DW_AT_type        : <0xec>
 <1><117>: Abbrev Number: 11 (DW_TAG_typedef)
    <118>   DW_AT_name        : (indirect string, offset: 0x7f0): __off64_t
    <11c>   DW_AT_decl_file   : 5
    <11d>   DW_AT_decl_line   : 153
    <11e>   DW_AT_decl_column : 27
    <11f>   DW_AT_type        : <0xec>
 <1><123>: Abbrev Number: 11 (DW_TAG_typedef)
    <124>   DW_AT_name        : (indirect string, offset: 0x7ae): __time_t
    <128>   DW_AT_decl_file   : 5
    <129>   DW_AT_decl_line   : 160
    <12a>   DW_AT_decl_column : 26
    <12b>   DW_AT_type        : <0xec>
 <1><12f>: Abbrev Number: 7 (DW_TAG_structure_type)
    <130>   DW_AT_name        : (indirect string, offset: 0x191): _IO_FILE
    <134>   DW_AT_byte_size   : 216
    <135>   DW_AT_decl_file   : 6
    <136>   DW_AT_decl_line   : 49
    <137>   DW_AT_decl_column : 8
    <138>   DW_AT_sibling     : <0x2b6>
 <2><13c>: Abbrev Number: 8 (DW_TAG_member)
    <13d>   DW_AT_name        : (indirect string, offset: 0x1088): _flags
    <141>   DW_AT_decl_file   : 6
    <142>   DW_AT_decl_line   : 51
    <143>   DW_AT_decl_column : 7
    <144>   DW_AT_type        : <0x50>
    <148>   DW_AT_data_member_location: 0
 <2><149>: Abbrev Number: 8 (DW_TAG_member)
    <14a>   DW_AT_name        : (indirect string, offset: 0x39a): _IO_read_ptr
    <14e>   DW_AT_decl_file   : 6
    <14f>   DW_AT_decl_line   : 54
    <150>   DW_AT_decl_column : 9
    <151>   DW_AT_type        : <0x2d>
    <155>   DW_AT_data_member_location: 8
 <2><156>: Abbrev Number: 8 (DW_TAG_member)
    <157>   DW_AT_name        : (indirect string, offset: 0x92c): _IO_read_end
    <15b>   DW_AT_decl_file   : 6
    <15c>   DW_AT_decl_line   : 55
    <15d>   DW_AT_decl_column : 9
    <15e>   DW_AT_type        : <0x2d>
    <162>   DW_AT_data_member_location: 16
 <2><163>: Abbrev Number: 8 (DW_TAG_member)
    <164>   DW_AT_name        : (indirect string, offset: 0x4bf): _IO_read_base
    <168>   DW_AT_decl_file   : 6
    <169>   DW_AT_decl_line   : 56
    <16a>   DW_AT_decl_column : 9
    <16b>   DW_AT_type        : <0x2d>
    <16f>   DW_AT_data_member_location: 24
 <2><170>: Abbrev Number: 8 (DW_TAG_member)
    <171>   DW_AT_name        : (indirect string, offset: 0x64): _IO_write_base
    <175>   DW_AT_decl_file   : 6
    <176>   DW_AT_decl_line   : 57
    <177>   DW_AT_decl_column : 9
    <178>   DW_AT_type        : <0x2d>
    <17c>   DW_AT_data_member_location: 32
 <2><17d>: Abbrev Number: 8 (DW_TAG_member)
    <17e>   DW_AT_name        : (indirect string, offset: 0x9c3): _IO_write_ptr
    <182>   DW_AT_decl_file   : 6
    <183>   DW_AT_decl_line   : 58
    <184>   DW_AT_decl_column : 9
    <185>   DW_AT_type        : <0x2d>
    <189>   DW_AT_data_member_location: 40
 <2><18a>: Abbrev Number: 8 (DW_TAG_member)
    <18b>   DW_AT_name        : (indirect string, offset: 0x57c): _IO_write_end
    <18f>   DW_AT_decl_file   : 6
    <190>   DW_AT_decl_line   : 59
    <191>   DW_AT_decl_column : 9
    <192>   DW_AT_type        : <0x2d>
    <196>   DW_AT_data_member_location: 48
 <2><197>: Abbrev Number: 8 (DW_TAG_member)
    <198>   DW_AT_name        : (indirect string, offset: 0x5e3): _IO_buf_base
    <19c>   DW_AT_decl_file   : 6
    <19d>   DW_AT_decl_line   : 60
    <19e>   DW_AT_decl_column : 9
    <19f>   DW_AT_type        : <0x2d>
    <1a3>   DW_AT_data_member_location: 56
 <2><1a4>: Abbrev Number: 8 (DW_TAG_member)
    <1a5>   DW_AT_name        : (indirect string, offset: 0x82f): _IO_buf_end
    <1a9>   DW_AT_decl_file   : 6
    <1aa>   DW_AT_decl_line   : 61
    <1ab>   DW_AT_decl_column : 9
    <1ac>   DW_AT_type        : <0x2d>
    <1b0>   DW_AT_data_member_location: 64
 <2><1b1>: Abbrev Number: 8 (DW_TAG_member)
    <1b2>   DW_AT_name        : (indirect string, offset: 0xa8): _IO_save_base
    <1b6>   DW_AT_decl_file   : 6
    <1b7>   DW_AT_decl_line   : 64
    <1b8>   DW_AT_decl_column : 9
    <1b9>   DW_AT_type        : <0x2d>
    <1bd>   DW_AT_data_member_location: 72
 <2><1be>: Abbrev Number: 8 (DW_TAG_member)
    <1bf>   DW_AT_name        : (indirect string, offset: 0x7c0): _IO_backup_base
    <1c3>   DW_AT_decl_file   : 6
    <1c4>   DW_AT_decl_line   : 65
    <1c5>   DW_AT_decl_column : 9
    <1c6>   DW_AT_type        : <0x2d>
    <1ca>   DW_AT_data_member_location: 80
 <2><1cb>: Abbrev Number: 8 (DW_TAG_member)
    <1cc>   DW_AT_name        : (indirect string, offset: 0x57): _IO_save_end
    <1d0>   DW_AT_decl_file   : 6
    <1d1>   DW_AT_decl_line   : 66
    <1d2>   DW_AT_decl_column : 9
    <1d3>   DW_AT_type        : <0x2d>
    <1d7>   DW_AT_data_member_location: 88
 <2><1d8>: Abbrev Number: 8 (DW_TAG_member)
    <1d9>   DW_AT_name        : (indirect string, offset: 0x3f1): _markers
    <1dd>   DW_AT_decl_file   : 6
    <1de>   DW_AT_decl_line   : 68
    <1df>   DW_AT_decl_column : 22
    <1e0>   DW_AT_type        : <0x2cf>
    <1e4>   DW_AT_data_member_location: 96
 <2><1e5>: Abbrev Number: 8 (DW_TAG_member)
    <1e6>   DW_AT_name        : (indirect string, offset: 0xc7): _chain
    <1ea>   DW_AT_decl_file   : 6
    <1eb>   DW_AT_decl_line   : 70
    <1ec>   DW_AT_decl_column : 20
    <1ed>   DW_AT_type        : <0x2d5>
    <1f1>   DW_AT_data_member_location: 104
 <2><1f2>: Abbrev Number: 8 (DW_TAG_member)
    <1f3>   DW_AT_name        : (indirect string, offset: 0x964): _fileno
    <1f7>   DW_AT_decl_file   : 6
    <1f8>   DW_AT_decl_line   : 72
    <1f9>   DW_AT_decl_column : 7
    <1fa>   DW_AT_type        : <0x50>
    <1fe>   DW_AT_data_member_location: 112
 <2><1ff>: Abbrev Number: 8 (DW_TAG_member)
    <200>   DW_AT_name        : (indirect string, offset: 0x4ac): _flags2
    <204>   DW_AT_decl_file   : 6
    <205>   DW_AT_decl_line   : 73
    <206>   DW_AT_decl_column : 7
    <207>   DW_AT_type        : <0x50>
    <20b>   DW_AT_data_member_location: 116
 <2><20c>: Abbrev Number: 8 (DW_TAG_member)
    <20d>   DW_AT_name        : (indirect string, offset: 0x529): _old_offset
    <211>   DW_AT_decl_file   : 6
    <212>   DW_AT_decl_line   : 74
    <213>   DW_AT_decl_column : 11
    <214>   DW_AT_type        : <0x10b>
    <218>   DW_AT_data_member_location: 120
 <2><219>: Abbrev Number: 8 (DW_TAG_member)
    <21a>   DW_AT_name        : (indirect string, offset: 0xce): _cur_column
    <21e>   DW_AT_decl_file   : 6
    <21f>   DW_AT_decl_line   : 77
    <220>   DW_AT_decl_column : 18
    <221>   DW_AT_type        : <0xd7>
    <225>   DW_AT_data_member_location: 128
 <2><226>: Abbrev Number: 8 (DW_TAG_member)
    <227>   DW_AT_name        : (indirect string, offset: 0x8de): _vtable_offset
    <22b>   DW_AT_decl_file   : 6
    <22c>   DW_AT_decl_line   : 78
    <22d>   DW_AT_decl_column : 15
    <22e>   DW_AT_type        : <0xde>
    <232>   DW_AT_data_member_location: 130
 <2><233>: Abbrev Number: 8 (DW_TAG_member)
    <234>   DW_AT_name        : (indirect string, offset: 0x7da): _shortbuf
    <238>   DW_AT_decl_file   : 6
    <239>   DW_AT_decl_line   : 79
    <23a>   DW_AT_decl_column : 8
    <23b>   DW_AT_type        : <0x2db>
    <23f>   DW_AT_data_member_location: 131
 <2><240>: Abbrev Number: 8 (DW_TAG_member)
    <241>   DW_AT_name        : (indirect string, offset: 0x73): _lock
    <245>   DW_AT_decl_file   : 6
    <246>   DW_AT_decl_line   : 81
    <247>   DW_AT_decl_column : 15
    <248>   DW_AT_type        : <0x2eb>
    <24c>   DW_AT_data_member_location: 136
 <2><24d>: Abbrev Number: 8 (DW_TAG_member)
    <24e>   DW_AT_name        : (indirect string, offset: 0x52d): _offset
    <252>   DW_AT_decl_file   : 6
    <253>   DW_AT_decl_line   : 89
    <254>   DW_AT_decl_column : 13
    <255>   DW_AT_type        : <0x117>
    <259>   DW_AT_data_member_location: 144
 <2><25a>: Abbrev Number: 8 (DW_TAG_member)
    <25b>   DW_AT_name        : (indirect string, offset: 0x44): _codecvt
    <25f>   DW_AT_decl_file   : 6
    <260>   DW_AT_decl_line   : 91
    <261>   DW_AT_decl_column : 23
    <262>   DW_AT_type        : <0x2f6>
    <266>   DW_AT_data_member_location: 152
 <2><267>: Abbrev Number: 8 (DW_TAG_member)
    <268>   DW_AT_name        : (indirect string, offset: 0x1b2): _wide_data
    <26c>   DW_AT_decl_file   : 6
    <26d>   DW_AT_decl_line   : 92
    <26e>   DW_AT_decl_column : 25
    <26f>   DW_AT_type        : <0x301>
    <273>   DW_AT_data_member_location: 160
 <2><274>: Abbrev Number: 8 (DW_TAG_member)
    <275>   DW_AT_name        : (indirect string, offset: 0x1f2): _freeres_list
    <279>   DW_AT_decl_file   : 6
    <27a>   DW_AT_decl_line   : 93
    <27b>   DW_AT_decl_column : 20
    <27c>   DW_AT_type        : <0x2d5>
    <280>   DW_AT_data_member_location: 168
 <2><281>: Abbrev Number: 8 (DW_TAG_member)
    <282>   DW_AT_name        : (indirect string, offset: 0x767): _freeres_buf
    <286>   DW_AT_decl_file   : 6
    <287>   DW_AT_decl_line   : 94
    <288>   DW_AT_decl_column : 9
    <289>   DW_AT_type        : <0xc9>
    <28d>   DW_AT_data_member_location: 176
 <2><28e>: Abbrev Number: 8 (DW_TAG_member)
    <28f>   DW_AT_name        : (indirect string, offset: 0x620): __pad5
    <293>   DW_AT_decl_file   : 6
    <294>   DW_AT_decl_line   : 95
    <295>   DW_AT_decl_column : 10
    <296>   DW_AT_type        : <0xaf>
    <29a>   DW_AT_data_member_location: 184
 <2><29b>: Abbrev Number: 8 (DW_TAG_member)
    <29c>   DW_AT_name        : (indirect string, offset: 0x68a): _mode
    <2a0>   DW_AT_decl_file   : 6
    <2a1>   DW_AT_decl_line   : 96
    <2a2>   DW_AT_decl_column : 7
    <2a3>   DW_AT_type        : <0x50>
    <2a7>   DW_AT_data_member_location: 192
 <2><2a8>: Abbrev Number: 8 (DW_TAG_member)
    <2a9>   DW_AT_name        : (indirect string, offset: 0x4de): _unused2
    <2ad>   DW_AT_decl_file   : 6
    <2ae>   DW_AT_decl_line   : 98
    <2af>   DW_AT_decl_column : 8
    <2b0>   DW_AT_type        : <0x307>
    <2b4>   DW_AT_data_member_location: 196
 <2><2b5>: Abbrev Number: 0
 <1><2b6>: Abbrev Number: 11 (DW_TAG_typedef)
    <2b7>   DW_AT_name        : (indirect string, offset: 0x195): FILE
    <2bb>   DW_AT_decl_file   : 7
    <2bc>   DW_AT_decl_line   : 7
    <2bd>   DW_AT_decl_column : 25
    <2be>   DW_AT_type        : <0x12f>
 <1><2c2>: Abbrev Number: 13 (DW_TAG_typedef)
    <2c3>   DW_AT_name        : (indirect string, offset: 0x362): _IO_lock_t
    <2c7>   DW_AT_decl_file   : 6
    <2c8>   DW_AT_decl_line   : 43
    <2c9>   DW_AT_decl_column : 14
 <1><2ca>: Abbrev Number: 14 (DW_TAG_structure_type)
    <2cb>   DW_AT_name        : (indirect string, offset: 0x138): _IO_marker
    <2cf>   DW_AT_declaration : 1
 <1><2cf>: Abbrev Number: 2 (DW_TAG_pointer_type)
    <2d0>   DW_AT_byte_size   : 8
    <2d1>   DW_AT_type        : <0x2ca>
 <1><2d5>: Abbrev Number: 2 (DW_TAG_pointer_type)
    <2d6>   DW_AT_byte_size   : 8
    <2d7>   DW_AT_type        : <0x12f>
 <1><2db>: Abbrev Number: 15 (DW_TAG_array_type)
    <2dc>   DW_AT_type        : <0x38>
    <2e0>   DW_AT_sibling     : <0x2eb>
 <2><2e4>: Abbrev Number: 16 (DW_TAG_subrange_type)
    <2e5>   DW_AT_type        : <0xbb>
    <2e9>   DW_AT_upper_bound : 0
 <2><2ea>: Abbrev Number: 0
 <1><2eb>: Abbrev Number: 2 (DW_TAG_pointer_type)
    <2ec>   DW_AT_byte_size   : 8
    <2ed>   DW_AT_type        : <0x2c2>
 <1><2f1>: Abbrev Number: 14 (DW_TAG_structure_type)
    <2f2>   DW_AT_name        : (indirect string, offset: 0x41): _IO_codecvt
    <2f6>   DW_AT_declaration : 1
 <1><2f6>: Abbrev Number: 2 (DW_TAG_pointer_type)
    <2f7>   DW_AT_byte_size   : 8
    <2f8>   DW_AT_type        : <0x2f1>
 <1><2fc>: Abbrev Number: 14 (DW_TAG_structure_type)
    <2fd>   DW_AT_name        : (indirect string, offset: 0x1af): _IO_wide_data
    <301>   DW_AT_declaration : 1
 <1><301>: Abbrev Number: 2 (DW_TAG_pointer_type)
    <302>   DW_AT_byte_size   : 8
    <303>   DW_AT_type        : <0x2fc>
 <1><307>: Abbrev Number: 15 (DW_TAG_array_type)
    <308>   DW_AT_type        : <0x38>
    <30c>   DW_AT_sibling     : <0x317>
 <2><310>: Abbrev Number: 16 (DW_TAG_subrange_type)
    <311>   DW_AT_type        : <0xbb>
    <315>   DW_AT_upper_bound : 19
 <2><316>: Abbrev Number: 0
 <1><317>: Abbrev Number: 5 (DW_TAG_variable)
    <318>   DW_AT_name        : (indirect string, offset: 0x332): stdin
    <31c>   DW_AT_decl_file   : 9
    <31d>   DW_AT_decl_line   : 137
    <31e>   DW_AT_decl_column : 14
    <31f>   DW_AT_type        : <0x323>
    <323>   DW_AT_external    : 1
    <323>   DW_AT_declaration : 1
 <1><323>: Abbrev Number: 2 (DW_TAG_pointer_type)
    <324>   DW_AT_byte_size   : 8
    <325>   DW_AT_type        : <0x2b6>
 <1><329>: Abbrev Number: 10 (DW_TAG_restrict_type)
    <32a>   DW_AT_type        : <0x323>
 <1><32e>: Abbrev Number: 5 (DW_TAG_variable)
    <32f>   DW_AT_name        : (indirect string, offset: 0x9a1): stdout
    <333>   DW_AT_decl_file   : 9
    <334>   DW_AT_decl_line   : 138
    <335>   DW_AT_decl_column : 14
    <336>   DW_AT_type        : <0x323>
    <33a>   DW_AT_external    : 1
    <33a>   DW_AT_declaration : 1
 <1><33a>: Abbrev Number: 5 (DW_TAG_variable)
    <33b>   DW_AT_name        : (indirect string, offset: 0x8b8): stderr
    <33f>   DW_AT_decl_file   : 9
    <340>   DW_AT_decl_line   : 139
    <341>   DW_AT_decl_column : 14
    <342>   DW_AT_type        : <0x323>
    <346>   DW_AT_external    : 1
    <346>   DW_AT_declaration : 1
 <1><346>: Abbrev Number: 4 (DW_TAG_base_type)
    <347>   DW_AT_byte_size   : 8
    <348>   DW_AT_encoding    : 5	(signed)
    <349>   DW_AT_name        : (indirect string, offset: 0x553): long long int
 <1><34d>: Abbrev Number: 4 (DW_TAG_base_type)
    <34e>   DW_AT_byte_size   : 16
    <34f>   DW_AT_encoding    : 4	(float)
    <350>   DW_AT_name        : (indirect string, offset: 0x6b1): long double
 <1><354>: Abbrev Number: 11 (DW_TAG_typedef)
    <355>   DW_AT_name        : (indirect string, offset: 0x7b0): time_t
    <359>   DW_AT_decl_file   : 10
    <35a>   DW_AT_decl_line   : 7
    <35b>   DW_AT_decl_column : 18
    <35c>   DW_AT_type        : <0x123>
 <1><360>: Abbrev Number: 4 (DW_TAG_base_type)
    <361>   DW_AT_byte_size   : 8
    <362>   DW_AT_encoding    : 7	(unsigned)
    <363>   DW_AT_name        : (indirect string, offset: 0x713): long long unsigned int
 <1><367>: Abbrev Number: 11 (DW_TAG_typedef)
    <368>   DW_AT_name        : (indirect string, offset: 0xe9): mp_limb_t
    <36c>   DW_AT_decl_file   : 11
    <36d>   DW_AT_decl_line   : 141
    <36e>   DW_AT_decl_column : 27
    <36f>   DW_AT_type        : <0xbb>
 <1><373>: Abbrev Number: 11 (DW_TAG_typedef)
    <374>   DW_AT_name        : (indirect string, offset: 0x920): mp_bitcnt_t
    <378>   DW_AT_decl_file   : 11
    <379>   DW_AT_decl_line   : 145
    <37a>   DW_AT_decl_column : 27
    <37b>   DW_AT_type        : <0xbb>
 <1><37f>: Abbrev Number: 17 (DW_TAG_structure_type)
    <380>   DW_AT_byte_size   : 16
    <381>   DW_AT_decl_file   : 11
    <382>   DW_AT_decl_line   : 150
    <383>   DW_AT_decl_column : 9
    <384>   DW_AT_sibling     : <0x3b0>
 <2><388>: Abbrev Number: 8 (DW_TAG_member)
    <389>   DW_AT_name        : (indirect string, offset: 0x9db): _mp_alloc
    <38d>   DW_AT_decl_file   : 11
    <38e>   DW_AT_decl_line   : 152
    <38f>   DW_AT_decl_column : 7
    <390>   DW_AT_type        : <0x50>
    <394>   DW_AT_data_member_location: 0
 <2><395>: Abbrev Number: 8 (DW_TAG_member)
    <396>   DW_AT_name        : (indirect string, offset: 0x218): _mp_size
    <39a>   DW_AT_decl_file   : 11
    <39b>   DW_AT_decl_line   : 154
    <39c>   DW_AT_decl_column : 7
    <39d>   DW_AT_type        : <0x50>
    <3a1>   DW_AT_data_member_location: 4
 <2><3a2>: Abbrev Number: 8 (DW_TAG_member)
    <3a3>   DW_AT_name        : (indirect string, offset: 0x6c5): _mp_d
    <3a7>   DW_AT_decl_file   : 11
    <3a8>   DW_AT_decl_line   : 157
    <3a9>   DW_AT_decl_column : 14
    <3aa>   DW_AT_type        : <0x3b0>
    <3ae>   DW_AT_data_member_location: 8
 <2><3af>: Abbrev Number: 0
 <1><3b0>: Abbrev Number: 2 (DW_TAG_pointer_type)
    <3b1>   DW_AT_byte_size   : 8
    <3b2>   DW_AT_type        : <0x367>
 <1><3b6>: Abbrev Number: 11 (DW_TAG_typedef)
    <3b7>   DW_AT_name        : (indirect string, offset: 0x1c3): __mpz_struct
    <3bb>   DW_AT_decl_file   : 11
    <3bc>   DW_AT_decl_line   : 158
    <3bd>   DW_AT_decl_column : 3
    <3be>   DW_AT_type        : <0x37f>
 <1><3c2>: Abbrev Number: 3 (DW_TAG_const_type)
    <3c3>   DW_AT_type        : <0x3b6>
 <1><3c7>: Abbrev Number: 11 (DW_TAG_typedef)
    <3c8>   DW_AT_name        : (indirect string, offset: 0xd): mpz_t
    <3cc>   DW_AT_decl_file   : 11
    <3cd>   DW_AT_decl_line   : 164
    <3ce>   DW_AT_decl_column : 22
    <3cf>   DW_AT_type        : <0x3d3>
 <1><3d3>: Abbrev Number: 15 (DW_TAG_array_type)
    <3d4>   DW_AT_type        : <0x3b6>
    <3d8>   DW_AT_sibling     : <0x3e3>
 <2><3dc>: Abbrev Number: 16 (DW_TAG_subrange_type)
    <3dd>   DW_AT_type        : <0xbb>
    <3e1>   DW_AT_upper_bound : 0
 <2><3e2>: Abbrev Number: 0
 <1><3e3>: Abbrev Number: 11 (DW_TAG_typedef)
    <3e4>   DW_AT_name        : (indirect string, offset: 0x200): mpz_srcptr
    <3e8>   DW_AT_decl_file   : 11
    <3e9>   DW_AT_decl_line   : 224
    <3ea>   DW_AT_decl_column : 29
    <3eb>   DW_AT_type        : <0x3ef>
 <1><3ef>: Abbrev Number: 2 (DW_TAG_pointer_type)
    <3f0>   DW_AT_byte_size   : 8
    <3f1>   DW_AT_type        : <0x3c2>
 <1><3f5>: Abbrev Number: 11 (DW_TAG_typedef)
    <3f6>   DW_AT_name        : (indirect string, offset: 0x327): mpz_ptr
    <3fa>   DW_AT_decl_file   : 11
    <3fb>   DW_AT_decl_line   : 225
    <3fc>   DW_AT_decl_column : 23
    <3fd>   DW_AT_type        : <0x401>
 <1><401>: Abbrev Number: 2 (DW_TAG_pointer_type)
    <402>   DW_AT_byte_size   : 8
    <403>   DW_AT_type        : <0x3b6>
 <1><407>: Abbrev Number: 18 (DW_TAG_subroutine_type)
    <408>   DW_AT_prototyped  : 1
 <1><408>: Abbrev Number: 2 (DW_TAG_pointer_type)
    <409>   DW_AT_byte_size   : 8
    <40a>   DW_AT_type        : <0x407>
 <1><40e>: Abbrev Number: 2 (DW_TAG_pointer_type)
    <40f>   DW_AT_byte_size   : 8
    <410>   DW_AT_type        : <0x2d>
 <1><414>: Abbrev Number: 2 (DW_TAG_pointer_type)
    <415>   DW_AT_byte_size   : 8
    <416>   DW_AT_type        : <0x41a>
 <1><41a>: Abbrev Number: 19 (DW_TAG_const_type)
 <1><41b>: Abbrev Number: 5 (DW_TAG_variable)
    <41c>   DW_AT_name        : (indirect string, offset: 0x56b): Version
    <420>   DW_AT_decl_file   : 12
    <421>   DW_AT_decl_line   : 1
    <422>   DW_AT_decl_column : 20
    <423>   DW_AT_type        : <0x9e>
    <427>   DW_AT_external    : 1
    <427>   DW_AT_declaration : 1
 <1><427>: Abbrev Number: 11 (DW_TAG_typedef)
    <428>   DW_AT_name        : (indirect string, offset: 0x5c6): intmax_t
    <42c>   DW_AT_decl_file   : 13
    <42d>   DW_AT_decl_line   : 101
    <42e>   DW_AT_decl_column : 21
    <42f>   DW_AT_type        : <0xf3>
 <1><433>: Abbrev Number: 11 (DW_TAG_typedef)
    <434>   DW_AT_name        : (indirect string, offset: 0x8ef): uintmax_t
    <438>   DW_AT_decl_file   : 13
    <439>   DW_AT_decl_line   : 102
    <43a>   DW_AT_decl_column : 22
    <43b>   DW_AT_type        : <0xff>
 <1><43f>: Abbrev Number: 3 (DW_TAG_const_type)
    <440>   DW_AT_type        : <0x433>
 <1><444>: Abbrev Number: 20 (DW_TAG_enumeration_type)
    <445>   DW_AT_encoding    : 7	(unsigned)
    <446>   DW_AT_byte_size   : 4
    <447>   DW_AT_type        : <0xc2>
    <44b>   DW_AT_decl_file   : 14
    <44c>   DW_AT_decl_line   : 41
    <44d>   DW_AT_decl_column : 6
    <44e>   DW_AT_sibling     : <0x45c>
 <2><452>: Abbrev Number: 21 (DW_TAG_enumerator)
    <453>   DW_AT_name        : (indirect string, offset: 0x69d): TIMESPEC_HZ
    <457>   DW_AT_const_value : 0x3b9aca00
 <2><45b>: Abbrev Number: 0
 <1><45c>: Abbrev Number: 20 (DW_TAG_enumeration_type)
    <45d>   DW_AT_encoding    : 7	(unsigned)
    <45e>   DW_AT_byte_size   : 4
    <45f>   DW_AT_type        : <0xc2>
    <463>   DW_AT_decl_file   : 14
    <464>   DW_AT_decl_line   : 42
    <465>   DW_AT_decl_column : 6
    <466>   DW_AT_sibling     : <0x471>
 <2><46a>: Abbrev Number: 22 (DW_TAG_enumerator)
    <46b>   DW_AT_name        : (indirect string, offset: 0x697): LOG10_TIMESPEC_HZ
    <46f>   DW_AT_const_value : 9
 <2><470>: Abbrev Number: 0
 <1><471>: Abbrev Number: 23 (DW_TAG_enumeration_type)
    <472>   DW_AT_encoding    : 5	(signed)
    <473>   DW_AT_byte_size   : 4
    <474>   DW_AT_type        : <0x50>
    <478>   DW_AT_decl_file   : 1
    <479>   DW_AT_decl_line   : 330
    <47b>   DW_AT_decl_column : 1
    <47c>   DW_AT_sibling     : <0x48f>
 <2><480>: Abbrev Number: 24 (DW_TAG_enumerator)
    <481>   DW_AT_name        : (indirect string, offset: 0x1c): GETOPT_HELP_CHAR
    <485>   DW_AT_const_value : -130
 <2><487>: Abbrev Number: 24 (DW_TAG_enumerator)
    <488>   DW_AT_name        : (indirect string, offset: 0x5cf): GETOPT_VERSION_CHAR
    <48c>   DW_AT_const_value : -131
 <2><48e>: Abbrev Number: 0
 <1><48f>: Abbrev Number: 5 (DW_TAG_variable)
    <490>   DW_AT_name        : (indirect string, offset: 0xf7): program_name
    <494>   DW_AT_decl_file   : 15
    <495>   DW_AT_decl_line   : 32
    <496>   DW_AT_decl_column : 20
    <497>   DW_AT_type        : <0x9e>
    <49b>   DW_AT_external    : 1
    <49b>   DW_AT_declaration : 1
 <1><49b>: Abbrev Number: 7 (DW_TAG_structure_type)
    <49c>   DW_AT_name        : (indirect string, offset: 0xa2d): tokenbuffer
    <4a0>   DW_AT_byte_size   : 16
    <4a1>   DW_AT_decl_file   : 16
    <4a2>   DW_AT_decl_line   : 28
    <4a3>   DW_AT_decl_column : 8
    <4a4>   DW_AT_sibling     : <0x4c3>
 <2><4a8>: Abbrev Number: 8 (DW_TAG_member)
    <4a9>   DW_AT_name        : (indirect string, offset: 0x21c): size
    <4ad>   DW_AT_decl_file   : 16
    <4ae>   DW_AT_decl_line   : 30
    <4af>   DW_AT_decl_column : 10
    <4b0>   DW_AT_type        : <0xaf>
    <4b4>   DW_AT_data_member_location: 0
 <2><4b5>: Abbrev Number: 8 (DW_TAG_member)
    <4b6>   DW_AT_name        : (indirect string, offset: 0xe54): buffer
    <4ba>   DW_AT_decl_file   : 16
    <4bb>   DW_AT_decl_line   : 31
    <4bc>   DW_AT_decl_column : 9
    <4bd>   DW_AT_type        : <0x2d>
    <4c1>   DW_AT_data_member_location: 8
 <2><4c2>: Abbrev Number: 0
 <1><4c3>: Abbrev Number: 11 (DW_TAG_typedef)
    <4c4>   DW_AT_name        : (indirect string, offset: 0x6ef): token_buffer
    <4c8>   DW_AT_decl_file   : 16
    <4c9>   DW_AT_decl_line   : 33
    <4ca>   DW_AT_decl_column : 28
    <4cb>   DW_AT_type        : <0x49b>
 <1><4cf>: Abbrev Number: 25 (DW_TAG_enumeration_type)
    <4d0>   DW_AT_name        : (indirect string, offset: 0x221): strtol_error
    <4d4>   DW_AT_encoding    : 7	(unsigned)
    <4d5>   DW_AT_byte_size   : 4
    <4d6>   DW_AT_type        : <0xc2>
    <4da>   DW_AT_decl_file   : 17
    <4db>   DW_AT_decl_line   : 26
    <4dc>   DW_AT_decl_column : 6
    <4dd>   DW_AT_sibling     : <0x500>
 <2><4e1>: Abbrev Number: 22 (DW_TAG_enumerator)
    <4e2>   DW_AT_name        : (indirect string, offset: 0x6de): LONGINT_OK
    <4e6>   DW_AT_const_value : 0
 <2><4e7>: Abbrev Number: 22 (DW_TAG_enumerator)
    <4e8>   DW_AT_name        : (indirect string, offset: 0x45c): LONGINT_OVERFLOW
    <4ec>   DW_AT_const_value : 1
 <2><4ed>: Abbrev Number: 22 (DW_TAG_enumerator)
    <4ee>   DW_AT_name        : (indirect string, offset: 0x87): LONGINT_INVALID_SUFFIX_CHAR
    <4f2>   DW_AT_const_value : 2
 <2><4f3>: Abbrev Number: 22 (DW_TAG_enumerator)
    <4f4>   DW_AT_name        : (indirect string, offset: 0x406): LONGINT_INVALID_SUFFIX_CHAR_WITH_OVERFLOW
    <4f8>   DW_AT_const_value : 3
 <2><4f9>: Abbrev Number: 22 (DW_TAG_enumerator)
    <4fa>   DW_AT_name        : (indirect string, offset: 0x59e): LONGINT_INVALID
    <4fe>   DW_AT_const_value : 4
 <2><4ff>: Abbrev Number: 0
 <1><500>: Abbrev Number: 11 (DW_TAG_typedef)
    <501>   DW_AT_name        : (indirect string, offset: 0x221): strtol_error
    <505>   DW_AT_decl_file   : 17
    <506>   DW_AT_decl_line   : 39
    <507>   DW_AT_decl_column : 27
    <508>   DW_AT_type        : <0x4cf>
 <1><50c>: Abbrev Number: 11 (DW_TAG_typedef)
    <50d>   DW_AT_name        : (indirect string, offset: 0x70b): UDItype
    <511>   DW_AT_decl_file   : 2
    <512>   DW_AT_decl_line   : 168
    <513>   DW_AT_decl_column : 32
    <514>   DW_AT_type        : <0x360>
 <1><518>: Abbrev Number: 20 (DW_TAG_enumeration_type)
    <519>   DW_AT_encoding    : 7	(unsigned)
    <51a>   DW_AT_byte_size   : 4
    <51b>   DW_AT_type        : <0xc2>
    <51f>   DW_AT_decl_file   : 2
    <520>   DW_AT_decl_line   : 223
    <521>   DW_AT_decl_column : 1
    <522>   DW_AT_sibling     : <0x52d>
 <2><526>: Abbrev Number: 22 (DW_TAG_enumerator)
    <527>   DW_AT_name        : (indirect string, offset: 0x3bf): DEV_DEBUG_OPTION
    <52b>   DW_AT_const_value : 128
 <2><52c>: Abbrev Number: 0
 <1><52d>: Abbrev Number: 15 (DW_TAG_array_type)
    <52e>   DW_AT_type        : <0x99>
    <532>   DW_AT_sibling     : <0x53d>
 <2><536>: Abbrev Number: 16 (DW_TAG_subrange_type)
    <537>   DW_AT_type        : <0xbb>
    <53b>   DW_AT_upper_bound : 3
 <2><53c>: Abbrev Number: 0
 <1><53d>: Abbrev Number: 3 (DW_TAG_const_type)
    <53e>   DW_AT_type        : <0x52d>
 <1><542>: Abbrev Number: 26 (DW_TAG_variable)
    <543>   DW_AT_name        : (indirect string, offset: 0x44a): long_options
    <547>   DW_AT_decl_file   : 2
    <548>   DW_AT_decl_line   : 227
    <549>   DW_AT_decl_column : 28
    <54a>   DW_AT_type        : <0x53d>
    <54e>   DW_AT_location    : 9 byte block: 3 20 7a 1 0 0 0 0 0 	(DW_OP_addr: 17a20)
 <1><558>: Abbrev Number: 27 (DW_TAG_structure_type)
    <559>   DW_AT_name        : (indirect string, offset: 0x442): factors
    <55d>   DW_AT_byte_size   : 256
    <55f>   DW_AT_decl_file   : 2
    <560>   DW_AT_decl_line   : 235
    <561>   DW_AT_decl_column : 8
    <562>   DW_AT_sibling     : <0x597>
 <2><566>: Abbrev Number: 8 (DW_TAG_member)
    <567>   DW_AT_name        : (indirect string, offset: 0x690): plarge
    <56b>   DW_AT_decl_file   : 2
    <56c>   DW_AT_decl_line   : 237
    <56d>   DW_AT_decl_column : 17
    <56e>   DW_AT_type        : <0x597>
    <572>   DW_AT_data_member_location: 0
 <2><573>: Abbrev Number: 9 (DW_TAG_member)
    <574>   DW_AT_name        : p
    <576>   DW_AT_decl_file   : 2
    <577>   DW_AT_decl_line   : 238
    <578>   DW_AT_decl_column : 17
    <579>   DW_AT_type        : <0x5a7>
    <57d>   DW_AT_data_member_location: 16
 <2><57e>: Abbrev Number: 9 (DW_TAG_member)
    <57f>   DW_AT_name        : e
    <581>   DW_AT_decl_file   : 2
    <582>   DW_AT_decl_line   : 239
    <583>   DW_AT_decl_column : 17
    <584>   DW_AT_type        : <0x5b7>
    <588>   DW_AT_data_member_location: 224
 <2><589>: Abbrev Number: 8 (DW_TAG_member)
    <58a>   DW_AT_name        : (indirect string, offset: 0x7b7): nfactors
    <58e>   DW_AT_decl_file   : 2
    <58f>   DW_AT_decl_line   : 240
    <590>   DW_AT_decl_column : 17
    <591>   DW_AT_type        : <0xcb>
    <595>   DW_AT_data_member_location: 250
 <2><596>: Abbrev Number: 0
 <1><597>: Abbrev Number: 15 (DW_TAG_array_type)
    <598>   DW_AT_type        : <0x433>
    <59c>   DW_AT_sibling     : <0x5a7>
 <2><5a0>: Abbrev Number: 16 (DW_TAG_subrange_type)
    <5a1>   DW_AT_type        : <0xbb>
    <5a5>   DW_AT_upper_bound : 1
 <2><5a6>: Abbrev Number: 0
 <1><5a7>: Abbrev Number: 15 (DW_TAG_array_type)
    <5a8>   DW_AT_type        : <0x433>
    <5ac>   DW_AT_sibling     : <0x5b7>
 <2><5b0>: Abbrev Number: 16 (DW_TAG_subrange_type)
    <5b1>   DW_AT_type        : <0xbb>
    <5b5>   DW_AT_upper_bound : 25
 <2><5b6>: Abbrev Number: 0
 <1><5b7>: Abbrev Number: 15 (DW_TAG_array_type)
    <5b8>   DW_AT_type        : <0xcb>
    <5bc>   DW_AT_sibling     : <0x5c7>
 <2><5c0>: Abbrev Number: 16 (DW_TAG_subrange_type)
    <5c1>   DW_AT_type        : <0xbb>
    <5c5>   DW_AT_upper_bound : 25
 <2><5c6>: Abbrev Number: 0
 <1><5c7>: Abbrev Number: 7 (DW_TAG_structure_type)
    <5c8>   DW_AT_name        : (indirect string, offset: 0x43f): mp_factors
    <5cc>   DW_AT_byte_size   : 24
    <5cd>   DW_AT_decl_file   : 2
    <5ce>   DW_AT_decl_line   : 243
    <5cf>   DW_AT_decl_column : 8
    <5d0>   DW_AT_sibling     : <0x5f8>
 <2><5d4>: Abbrev Number: 9 (DW_TAG_member)
    <5d5>   DW_AT_name        : p
    <5d7>   DW_AT_decl_file   : 2
    <5d8>   DW_AT_decl_line   : 245
    <5d9>   DW_AT_decl_column : 22
    <5da>   DW_AT_type        : <0x5f8>
    <5de>   DW_AT_data_member_location: 0
 <2><5df>: Abbrev Number: 9 (DW_TAG_member)
    <5e0>   DW_AT_name        : e
    <5e2>   DW_AT_decl_file   : 2
    <5e3>   DW_AT_decl_line   : 246
    <5e4>   DW_AT_decl_column : 22
    <5e5>   DW_AT_type        : <0x5fe>
    <5e9>   DW_AT_data_member_location: 8
 <2><5ea>: Abbrev Number: 8 (DW_TAG_member)
    <5eb>   DW_AT_name        : (indirect string, offset: 0x7b7): nfactors
    <5ef>   DW_AT_decl_file   : 2
    <5f0>   DW_AT_decl_line   : 247
    <5f1>   DW_AT_decl_column : 21
    <5f2>   DW_AT_type        : <0xbb>
    <5f6>   DW_AT_data_member_location: 16
 <2><5f7>: Abbrev Number: 0
 <1><5f8>: Abbrev Number: 2 (DW_TAG_pointer_type)
    <5f9>   DW_AT_byte_size   : 8
    <5fa>   DW_AT_type        : <0x3c7>
 <1><5fe>: Abbrev Number: 2 (DW_TAG_pointer_type)
    <5ff>   DW_AT_byte_size   : 8
    <600>   DW_AT_type        : <0xbb>
 <1><604>: Abbrev Number: 23 (DW_TAG_enumeration_type)
    <605>   DW_AT_encoding    : 7	(unsigned)
    <606>   DW_AT_byte_size   : 4
    <607>   DW_AT_type        : <0xc2>
    <60b>   DW_AT_decl_file   : 2
    <60c>   DW_AT_decl_line   : 659
    <60e>   DW_AT_decl_column : 6
    <60f>   DW_AT_sibling     : <0x618>
 <2><613>: Abbrev Number: 28 (DW_TAG_enumerator)
    <614>   DW_AT_name        : W
    <616>   DW_AT_const_value : 64
 <2><617>: Abbrev Number: 0
 <1><618>: Abbrev Number: 15 (DW_TAG_array_type)
    <619>   DW_AT_type        : <0xd2>
    <61d>   DW_AT_sibling     : <0x629>
 <2><621>: Abbrev Number: 29 (DW_TAG_subrange_type)
    <622>   DW_AT_type        : <0xbb>
    <626>   DW_AT_upper_bound : 674
 <2><628>: Abbrev Number: 0
 <1><629>: Abbrev Number: 3 (DW_TAG_const_type)
    <62a>   DW_AT_type        : <0x618>
 <1><62e>: Abbrev Number: 30 (DW_TAG_variable)
    <62f>   DW_AT_name        : (indirect string, offset: 0x7e4): primes_diff
    <633>   DW_AT_decl_file   : 2
    <634>   DW_AT_decl_line   : 665
    <636>   DW_AT_decl_column : 28
    <637>   DW_AT_type        : <0x629>
    <63b>   DW_AT_location    : 9 byte block: 3 e0 1 1 0 0 0 0 0 	(DW_OP_addr: 101e0)
 <1><645>: Abbrev Number: 30 (DW_TAG_variable)
    <646>   DW_AT_name        : (indirect string, offset: 0x96c): primes_diff8
    <64a>   DW_AT_decl_file   : 2
    <64b>   DW_AT_decl_line   : 675
    <64d>   DW_AT_decl_column : 28
    <64e>   DW_AT_type        : <0x629>
    <652>   DW_AT_location    : 9 byte block: 3 a0 4 1 0 0 0 0 0 	(DW_OP_addr: 104a0)
 <1><65c>: Abbrev Number: 31 (DW_TAG_structure_type)
    <65d>   DW_AT_name        : (indirect string, offset: 0x86f): primes_dtab
    <661>   DW_AT_byte_size   : 16
    <662>   DW_AT_decl_file   : 2
    <663>   DW_AT_decl_line   : 681
    <665>   DW_AT_decl_column : 8
    <666>   DW_AT_sibling     : <0x687>
 <2><66a>: Abbrev Number: 32 (DW_TAG_member)
    <66b>   DW_AT_name        : (indirect string, offset: 0x457): binv
    <66f>   DW_AT_decl_file   : 2
    <670>   DW_AT_decl_line   : 683
    <672>   DW_AT_decl_column : 13
    <673>   DW_AT_type        : <0x433>
    <677>   DW_AT_data_member_location: 0
 <2><678>: Abbrev Number: 33 (DW_TAG_member)
    <679>   DW_AT_name        : lim
    <67d>   DW_AT_decl_file   : 2
    <67e>   DW_AT_decl_line   : 683
    <680>   DW_AT_decl_column : 19
    <681>   DW_AT_type        : <0x433>
    <685>   DW_AT_data_member_location: 8
 <2><686>: Abbrev Number: 0
 <1><687>: Abbrev Number: 3 (DW_TAG_const_type)
    <688>   DW_AT_type        : <0x65c>
 <1><68c>: Abbrev Number: 15 (DW_TAG_array_type)
    <68d>   DW_AT_type        : <0x687>
    <691>   DW_AT_sibling     : <0x69d>
 <2><695>: Abbrev Number: 29 (DW_TAG_subrange_type)
    <696>   DW_AT_type        : <0xbb>
    <69a>   DW_AT_upper_bound : 674
 <2><69c>: Abbrev Number: 0
 <1><69d>: Abbrev Number: 3 (DW_TAG_const_type)
    <69e>   DW_AT_type        : <0x68c>
 <1><6a2>: Abbrev Number: 30 (DW_TAG_variable)
    <6a3>   DW_AT_name        : (indirect string, offset: 0x86f): primes_dtab
    <6a7>   DW_AT_decl_file   : 2
    <6a8>   DW_AT_decl_line   : 687
    <6aa>   DW_AT_decl_column : 33
    <6ab>   DW_AT_type        : <0x69d>
    <6af>   DW_AT_location    : 9 byte block: 3 60 7 1 0 0 0 0 0 	(DW_OP_addr: 10760)
 <1><6b9>: Abbrev Number: 30 (DW_TAG_variable)
    <6ba>   DW_AT_name        : (indirect string, offset: 0x4e7): dev_debug
    <6be>   DW_AT_decl_file   : 2
    <6bf>   DW_AT_decl_line   : 699
    <6c1>   DW_AT_decl_column : 13
    <6c2>   DW_AT_type        : <0x6d0>
    <6c6>   DW_AT_location    : 9 byte block: 3 10 81 1 0 0 0 0 0 	(DW_OP_addr: 18110)
 <1><6d0>: Abbrev Number: 4 (DW_TAG_base_type)
    <6d1>   DW_AT_byte_size   : 1
    <6d2>   DW_AT_encoding    : 2	(boolean)
    <6d3>   DW_AT_name        : (indirect string, offset: 0x2ee): _Bool
 <1><6d7>: Abbrev Number: 30 (DW_TAG_variable)
    <6d8>   DW_AT_name        : (indirect string, offset: 0x19a): flag_prove_primality
    <6dc>   DW_AT_decl_file   : 2
    <6dd>   DW_AT_decl_line   : 702
    <6df>   DW_AT_decl_column : 13
    <6e0>   DW_AT_type        : <0x6d0>
    <6e4>   DW_AT_location    : 9 byte block: 3 10 80 1 0 0 0 0 0 	(DW_OP_addr: 18010)
 <1><6ee>: Abbrev Number: 15 (DW_TAG_array_type)
    <6ef>   DW_AT_type        : <0xd2>
    <6f3>   DW_AT_sibling     : <0x6fe>
 <2><6f7>: Abbrev Number: 16 (DW_TAG_subrange_type)
    <6f8>   DW_AT_type        : <0xbb>
    <6fc>   DW_AT_upper_bound : 127
 <2><6fd>: Abbrev Number: 0
 <1><6fe>: Abbrev Number: 3 (DW_TAG_const_type)
    <6ff>   DW_AT_type        : <0x6ee>
 <1><703>: Abbrev Number: 30 (DW_TAG_variable)
    <704>   DW_AT_name        : (indirect string, offset: 0x153): binvert_table
    <708>   DW_AT_decl_file   : 2
    <709>   DW_AT_decl_line   : 869
    <70b>   DW_AT_decl_column : 29
    <70c>   DW_AT_type        : <0x6fe>
    <710>   DW_AT_location    : 9 byte block: 3 c0 31 1 0 0 0 0 0 	(DW_OP_addr: 131c0)
 <1><71a>: Abbrev Number: 31 (DW_TAG_structure_type)
    <71b>   DW_AT_name        : (indirect string, offset: 0x3a7): lbuf_
    <71f>   DW_AT_byte_size   : 16
    <720>   DW_AT_decl_file   : 2
    <721>   DW_AT_decl_line   : 2334
    <723>   DW_AT_decl_column : 15
    <724>   DW_AT_sibling     : <0x745>
 <2><728>: Abbrev Number: 33 (DW_TAG_member)
    <729>   DW_AT_name        : buf
    <72d>   DW_AT_decl_file   : 2
    <72e>   DW_AT_decl_line   : 2336
    <730>   DW_AT_decl_column : 9
    <731>   DW_AT_type        : <0x2d>
    <735>   DW_AT_data_member_location: 0
 <2><736>: Abbrev Number: 33 (DW_TAG_member)
    <737>   DW_AT_name        : end
    <73b>   DW_AT_decl_file   : 2
    <73c>   DW_AT_decl_line   : 2337
    <73e>   DW_AT_decl_column : 9
    <73f>   DW_AT_type        : <0x2d>
    <743>   DW_AT_data_member_location: 8
 <2><744>: Abbrev Number: 0
 <1><745>: Abbrev Number: 30 (DW_TAG_variable)
    <746>   DW_AT_name        : (indirect string, offset: 0x2f4): lbuf
    <74a>   DW_AT_decl_file   : 2
    <74b>   DW_AT_decl_line   : 2338
    <74d>   DW_AT_decl_column : 3
    <74e>   DW_AT_type        : <0x71a>
    <752>   DW_AT_location    : 9 byte block: 3 20 81 1 0 0 0 0 0 	(DW_OP_addr: 18120)
 <1><75c>: Abbrev Number: 34 (DW_TAG_subprogram)
    <75d>   DW_AT_external    : 1
    <75d>   DW_AT_name        : (indirect string, offset: 0x958): getopt_long
    <761>   DW_AT_decl_file   : 3
    <762>   DW_AT_decl_line   : 66
    <763>   DW_AT_decl_column : 12
    <764>   DW_AT_prototyped  : 1
    <764>   DW_AT_type        : <0x50>
    <768>   DW_AT_declaration : 1
    <768>   DW_AT_sibling     : <0x786>
 <2><76c>: Abbrev Number: 35 (DW_TAG_formal_parameter)
    <76d>   DW_AT_type        : <0x50>
 <2><771>: Abbrev Number: 35 (DW_TAG_formal_parameter)
    <772>   DW_AT_type        : <0x786>
 <2><776>: Abbrev Number: 35 (DW_TAG_formal_parameter)
    <777>   DW_AT_type        : <0x9e>
 <2><77b>: Abbrev Number: 35 (DW_TAG_formal_parameter)
    <77c>   DW_AT_type        : <0x78c>
 <2><780>: Abbrev Number: 35 (DW_TAG_formal_parameter)
    <781>   DW_AT_type        : <0xa9>
 <2><785>: Abbrev Number: 0
 <1><786>: Abbrev Number: 2 (DW_TAG_pointer_type)
    <787>   DW_AT_byte_size   : 8
    <788>   DW_AT_type        : <0x33>
 <1><78c>: Abbrev Number: 2 (DW_TAG_pointer_type)
    <78d>   DW_AT_byte_size   : 8
    <78e>   DW_AT_type        : <0x99>
 <1><792>: Abbrev Number: 36 (DW_TAG_subprogram)
    <793>   DW_AT_external    : 1
    <793>   DW_AT_name        : (indirect string, offset: 0x389): version_etc
    <797>   DW_AT_decl_file   : 21
    <798>   DW_AT_decl_line   : 65
    <799>   DW_AT_decl_column : 13
    <79a>   DW_AT_prototyped  : 1
    <79a>   DW_AT_declaration : 1
    <79a>   DW_AT_sibling     : <0x7b4>
 <2><79e>: Abbrev Number: 35 (DW_TAG_formal_parameter)
    <79f>   DW_AT_type        : <0x323>
 <2><7a3>: Abbrev Number: 35 (DW_TAG_formal_parameter)
    <7a4>   DW_AT_type        : <0x9e>
 <2><7a8>: Abbrev Number: 35 (DW_TAG_formal_parameter)
    <7a9>   DW_AT_type        : <0x9e>
 <2><7ad>: Abbrev Number: 35 (DW_TAG_formal_parameter)
    <7ae>   DW_AT_type        : <0x9e>
 <2><7b2>: Abbrev Number: 37 (DW_TAG_unspecified_parameters)
 <2><7b3>: Abbrev Number: 0
 <1><7b4>: Abbrev Number: 34 (DW_TAG_subprogram)
    <7b5>   DW_AT_external    : 1
    <7b5>   DW_AT_name        : (indirect string, offset: 0x83b): proper_name_utf8
    <7b9>   DW_AT_decl_file   : 18
    <7ba>   DW_AT_decl_line   : 88
    <7bb>   DW_AT_decl_column : 21
    <7bc>   DW_AT_prototyped  : 1
    <7bc>   DW_AT_type        : <0x9e>
    <7c0>   DW_AT_declaration : 1
    <7c0>   DW_AT_sibling     : <0x7cf>
 <2><7c4>: Abbrev Number: 35 (DW_TAG_formal_parameter)
    <7c5>   DW_AT_type        : <0x9e>
 <2><7c9>: Abbrev Number: 35 (DW_TAG_formal_parameter)
    <7ca>   DW_AT_type        : <0x9e>
 <2><7ce>: Abbrev Number: 0
 <1><7cf>: Abbrev Number: 38 (DW_TAG_subprogram)
    <7d0>   DW_AT_external    : 1
    <7d0>   DW_AT_name        : (indirect string, offset: 0x99b): close_stdout
    <7d4>   DW_AT_decl_file   : 33
    <7d5>   DW_AT_decl_line   : 30
    <7d6>   DW_AT_decl_column : 6
    <7d7>   DW_AT_prototyped  : 1
    <7d7>   DW_AT_declaration : 1
 <1><7d7>: Abbrev Number: 39 (DW_TAG_subprogram)
    <7d8>   DW_AT_external    : 1
    <7d8>   DW_AT_name        : (indirect string, offset: 0x8d7): atexit
    <7dc>   DW_AT_decl_file   : 19
    <7dd>   DW_AT_decl_line   : 595
    <7df>   DW_AT_decl_column : 12
    <7e0>   DW_AT_prototyped  : 1
    <7e0>   DW_AT_type        : <0x50>
    <7e4>   DW_AT_declaration : 1
    <7e4>   DW_AT_sibling     : <0x7ee>
 <2><7e8>: Abbrev Number: 35 (DW_TAG_formal_parameter)
    <7e9>   DW_AT_type        : <0x408>
 <2><7ed>: Abbrev Number: 0
 <1><7ee>: Abbrev Number: 34 (DW_TAG_subprogram)
    <7ef>   DW_AT_external    : 1
    <7ef>   DW_AT_name        : (indirect string, offset: 0x9fa): textdomain
    <7f3>   DW_AT_decl_file   : 20
    <7f4>   DW_AT_decl_line   : 82
    <7f5>   DW_AT_decl_column : 14
    <7f6>   DW_AT_prototyped  : 1
    <7f6>   DW_AT_type        : <0x2d>
    <7fa>   DW_AT_declaration : 1
    <7fa>   DW_AT_sibling     : <0x804>
 <2><7fe>: Abbrev Number: 35 (DW_TAG_formal_parameter)
    <7ff>   DW_AT_type        : <0x9e>
 <2><803>: Abbrev Number: 0
 <1><804>: Abbrev Number: 34 (DW_TAG_subprogram)
    <805>   DW_AT_external    : 1
    <805>   DW_AT_name        : (indirect string, offset: 0x9f6): bindtextdomain
    <809>   DW_AT_decl_file   : 20
    <80a>   DW_AT_decl_line   : 86
    <80b>   DW_AT_decl_column : 14
    <80c>   DW_AT_prototyped  : 1
    <80c>   DW_AT_type        : <0x2d>
    <810>   DW_AT_declaration : 1
    <810>   DW_AT_sibling     : <0x81f>
 <2><814>: Abbrev Number: 35 (DW_TAG_formal_parameter)
    <815>   DW_AT_type        : <0x9e>
 <2><819>: Abbrev Number: 35 (DW_TAG_formal_parameter)
    <81a>   DW_AT_type        : <0x9e>
 <2><81e>: Abbrev Number: 0
 <1><81f>: Abbrev Number: 36 (DW_TAG_subprogram)
    <820>   DW_AT_external    : 1
    <820>   DW_AT_name        : (indirect string, offset: 0xf3): set_program_name
    <824>   DW_AT_decl_file   : 15
    <825>   DW_AT_decl_line   : 37
    <826>   DW_AT_decl_column : 13
    <827>   DW_AT_prototyped  : 1
    <827>   DW_AT_declaration : 1
    <827>   DW_AT_sibling     : <0x831>
 <2><82b>: Abbrev Number: 35 (DW_TAG_formal_parameter)
    <82c>   DW_AT_type        : <0x9e>
 <2><830>: Abbrev Number: 0
 <1><831>: Abbrev Number: 34 (DW_TAG_subprogram)
    <832>   DW_AT_external    : 1
    <832>   DW_AT_name        : (indirect string, offset: 0x4d4): readtoken
    <836>   DW_AT_decl_file   : 16
    <837>   DW_AT_decl_line   : 38
    <838>   DW_AT_decl_column : 3
    <839>   DW_AT_prototyped  : 1
    <839>   DW_AT_type        : <0xaf>
    <83d>   DW_AT_declaration : 1
    <83d>   DW_AT_sibling     : <0x856>
 <2><841>: Abbrev Number: 35 (DW_TAG_formal_parameter)
    <842>   DW_AT_type        : <0x323>
 <2><846>: Abbrev Number: 35 (DW_TAG_formal_parameter)
    <847>   DW_AT_type        : <0x9e>
 <2><84b>: Abbrev Number: 35 (DW_TAG_formal_parameter)
    <84c>   DW_AT_type        : <0xaf>
 <2><850>: Abbrev Number: 35 (DW_TAG_formal_parameter)
    <851>   DW_AT_type        : <0x856>
 <2><855>: Abbrev Number: 0
 <1><856>: Abbrev Number: 2 (DW_TAG_pointer_type)
    <857>   DW_AT_byte_size   : 8
    <858>   DW_AT_type        : <0x4c3>
 <1><85c>: Abbrev Number: 36 (DW_TAG_subprogram)
    <85d>   DW_AT_external    : 1
    <85d>   DW_AT_name        : (indirect string, offset: 0xa28): init_tokenbuffer
    <861>   DW_AT_decl_file   : 16
    <862>   DW_AT_decl_line   : 35
    <863>   DW_AT_decl_column : 6
    <864>   DW_AT_prototyped  : 1
    <864>   DW_AT_declaration : 1
    <864>   DW_AT_sibling     : <0x86e>
 <2><868>: Abbrev Number: 35 (DW_TAG_formal_parameter)
    <869>   DW_AT_type        : <0x856>
 <2><86d>: Abbrev Number: 0
 <1><86e>: Abbrev Number: 34 (DW_TAG_subprogram)
    <86f>   DW_AT_external    : 1
    <86f>   DW_AT_name        : (indirect string, offset: 0x6bd): strncmp
    <873>   DW_AT_decl_file   : 22
    <874>   DW_AT_decl_line   : 140
    <875>   DW_AT_decl_column : 12
    <876>   DW_AT_prototyped  : 1
    <876>   DW_AT_type        : <0x50>
    <87a>   DW_AT_declaration : 1
    <87a>   DW_AT_sibling     : <0x88e>
 <2><87e>: Abbrev Number: 35 (DW_TAG_formal_parameter)
    <87f>   DW_AT_type        : <0x9e>
 <2><883>: Abbrev Number: 35 (DW_TAG_formal_parameter)
    <884>   DW_AT_type        : <0x9e>
 <2><888>: Abbrev Number: 35 (DW_TAG_formal_parameter)
    <889>   DW_AT_type        : <0xaf>
 <2><88d>: Abbrev Number: 0
 <1><88e>: Abbrev Number: 34 (DW_TAG_subprogram)
    <88f>   DW_AT_external    : 1
    <88f>   DW_AT_name        : (indirect string, offset: 0x7d0): setlocale
    <893>   DW_AT_decl_file   : 23
    <894>   DW_AT_decl_line   : 122
    <895>   DW_AT_decl_column : 14
    <896>   DW_AT_prototyped  : 1
    <896>   DW_AT_type        : <0x2d>
    <89a>   DW_AT_declaration : 1
    <89a>   DW_AT_sibling     : <0x8a9>
 <2><89e>: Abbrev Number: 35 (DW_TAG_formal_parameter)
    <89f>   DW_AT_type        : <0x50>
 <2><8a3>: Abbrev Number: 35 (DW_TAG_formal_parameter)
    <8a4>   DW_AT_type        : <0x9e>
 <2><8a8>: Abbrev Number: 0
 <1><8a9>: Abbrev Number: 34 (DW_TAG_subprogram)
    <8aa>   DW_AT_external    : 1
    <8aa>   DW_AT_name        : (indirect string, offset: 0x3ad): strcmp
    <8ae>   DW_AT_decl_file   : 22
    <8af>   DW_AT_decl_line   : 137
    <8b0>   DW_AT_decl_column : 12
    <8b1>   DW_AT_prototyped  : 1
    <8b1>   DW_AT_type        : <0x50>
    <8b5>   DW_AT_declaration : 1
    <8b5>   DW_AT_sibling     : <0x8c4>
 <2><8b9>: Abbrev Number: 35 (DW_TAG_formal_parameter)
    <8ba>   DW_AT_type        : <0x9e>
 <2><8be>: Abbrev Number: 35 (DW_TAG_formal_parameter)
    <8bf>   DW_AT_type        : <0x9e>
 <2><8c3>: Abbrev Number: 0
 <1><8c4>: Abbrev Number: 40 (DW_TAG_subprogram)
    <8c5>   DW_AT_external    : 1
    <8c5>   DW_AT_name        : (indirect string, offset: 0xa6f): exit
    <8c9>   DW_AT_decl_file   : 19
    <8ca>   DW_AT_decl_line   : 617
    <8cc>   DW_AT_decl_column : 13
    <8cd>   DW_AT_prototyped  : 1
    <8cd>   DW_AT_noreturn    : 1
    <8cd>   DW_AT_declaration : 1
    <8cd>   DW_AT_sibling     : <0x8d7>
 <2><8d1>: Abbrev Number: 35 (DW_TAG_formal_parameter)
    <8d2>   DW_AT_type        : <0x50>
 <2><8d6>: Abbrev Number: 0
 <1><8d7>: Abbrev Number: 39 (DW_TAG_subprogram)
    <8d8>   DW_AT_external    : 1
    <8d8>   DW_AT_name        : (indirect string, offset: 0x430): fputs_unlocked
    <8dc>   DW_AT_decl_file   : 9
    <8dd>   DW_AT_decl_line   : 662
    <8df>   DW_AT_decl_column : 12
    <8e0>   DW_AT_prototyped  : 1
    <8e0>   DW_AT_type        : <0x50>
    <8e4>   DW_AT_declaration : 1
    <8e4>   DW_AT_sibling     : <0x8f3>
 <2><8e8>: Abbrev Number: 35 (DW_TAG_formal_parameter)
    <8e9>   DW_AT_type        : <0xa4>
 <2><8ed>: Abbrev Number: 35 (DW_TAG_formal_parameter)
    <8ee>   DW_AT_type        : <0x329>
 <2><8f2>: Abbrev Number: 0
 <1><8f3>: Abbrev Number: 39 (DW_TAG_subprogram)
    <8f4>   DW_AT_external    : 1
    <8f4>   DW_AT_name        : (indirect string, offset: 0x868): printf
    <8f8>   DW_AT_decl_file   : 9
    <8f9>   DW_AT_decl_line   : 332
    <8fb>   DW_AT_decl_column : 12
    <8fc>   DW_AT_prototyped  : 1
    <8fc>   DW_AT_type        : <0x50>
    <900>   DW_AT_declaration : 1
    <900>   DW_AT_sibling     : <0x90b>
 <2><904>: Abbrev Number: 35 (DW_TAG_formal_parameter)
    <905>   DW_AT_type        : <0x9e>
 <2><909>: Abbrev Number: 37 (DW_TAG_unspecified_parameters)
 <2><90a>: Abbrev Number: 0
 <1><90b>: Abbrev Number: 34 (DW_TAG_subprogram)
    <90c>   DW_AT_external    : 1
    <90c>   DW_AT_name        : (indirect string, offset: 0xa18): fflush_unlocked
    <910>   DW_AT_decl_file   : 9
    <911>   DW_AT_decl_line   : 227
    <912>   DW_AT_decl_column : 12
    <913>   DW_AT_prototyped  : 1
    <913>   DW_AT_type        : <0x50>
    <917>   DW_AT_declaration : 1
    <917>   DW_AT_sibling     : <0x921>
 <2><91b>: Abbrev Number: 35 (DW_TAG_formal_parameter)
    <91c>   DW_AT_type        : <0x323>
 <2><920>: Abbrev Number: 0
 <1><921>: Abbrev Number: 39 (DW_TAG_subprogram)
    <922>   DW_AT_external    : 1
    <922>   DW_AT_name        : (indirect string, offset: 0xb6): putchar_unlocked
    <926>   DW_AT_decl_file   : 9
    <927>   DW_AT_decl_line   : 546
    <929>   DW_AT_decl_column : 12
    <92a>   DW_AT_prototyped  : 1
    <92a>   DW_AT_type        : <0x50>
    <92e>   DW_AT_declaration : 1
    <92e>   DW_AT_sibling     : <0x938>
 <2><932>: Abbrev Number: 35 (DW_TAG_formal_parameter)
    <933>   DW_AT_type        : <0x50>
 <2><937>: Abbrev Number: 0
 <1><938>: Abbrev Number: 39 (DW_TAG_subprogram)
    <939>   DW_AT_external    : 1
    <939>   DW_AT_name        : (indirect string, offset: 0x46d): __gmpz_out_str
    <93d>   DW_AT_decl_file   : 11
    <93e>   DW_AT_decl_line   : 957
    <940>   DW_AT_decl_column : 23
    <941>   DW_AT_prototyped  : 1
    <941>   DW_AT_type        : <0xaf>
    <945>   DW_AT_declaration : 1
    <945>   DW_AT_sibling     : <0x959>
 <2><949>: Abbrev Number: 35 (DW_TAG_formal_parameter)
    <94a>   DW_AT_type        : <0x323>
 <2><94e>: Abbrev Number: 35 (DW_TAG_formal_parameter)
    <94f>   DW_AT_type        : <0x50>
 <2><953>: Abbrev Number: 35 (DW_TAG_formal_parameter)
    <954>   DW_AT_type        : <0x3e3>
 <2><958>: Abbrev Number: 0
 <1><959>: Abbrev Number: 39 (DW_TAG_subprogram)
    <95a>   DW_AT_external    : 1
    <95a>   DW_AT_name        : (indirect string, offset: 0x2d): __gmpz_init_set_str
    <95e>   DW_AT_decl_file   : 11
    <95f>   DW_AT_decl_line   : 870
    <961>   DW_AT_decl_column : 20
    <962>   DW_AT_prototyped  : 1
    <962>   DW_AT_type        : <0x50>
    <966>   DW_AT_declaration : 1
    <966>   DW_AT_sibling     : <0x97a>
 <2><96a>: Abbrev Number: 35 (DW_TAG_formal_parameter)
    <96b>   DW_AT_type        : <0x3f5>
 <2><96f>: Abbrev Number: 35 (DW_TAG_formal_parameter)
    <970>   DW_AT_type        : <0x9e>
 <2><974>: Abbrev Number: 35 (DW_TAG_formal_parameter)
    <975>   DW_AT_type        : <0x50>
 <2><979>: Abbrev Number: 0
 <1><97a>: Abbrev Number: 34 (DW_TAG_subprogram)
    <97b>   DW_AT_external    : 1
    <97b>   DW_AT_name        : (indirect string, offset: 0xec4): quote
    <97f>   DW_AT_decl_file   : 24
    <980>   DW_AT_decl_line   : 44
    <981>   DW_AT_decl_column : 13
    <982>   DW_AT_prototyped  : 1
    <982>   DW_AT_type        : <0x9e>
    <986>   DW_AT_declaration : 1
    <986>   DW_AT_sibling     : <0x990>
 <2><98a>: Abbrev Number: 35 (DW_TAG_formal_parameter)
    <98b>   DW_AT_type        : <0x9e>
 <2><98f>: Abbrev Number: 0
 <1><990>: Abbrev Number: 34 (DW_TAG_subprogram)
    <991>   DW_AT_external    : 1
    <991>   DW_AT_name        : (indirect string, offset: 0x916): umaxtostr
    <995>   DW_AT_decl_file   : 25
    <996>   DW_AT_decl_line   : 29
    <997>   DW_AT_decl_column : 31
    <998>   DW_AT_prototyped  : 1
    <998>   DW_AT_type        : <0x2d>
    <99c>   DW_AT_declaration : 1
    <99c>   DW_AT_sibling     : <0x9ab>
 <2><9a0>: Abbrev Number: 35 (DW_TAG_formal_parameter)
    <9a1>   DW_AT_type        : <0x433>
 <2><9a5>: Abbrev Number: 35 (DW_TAG_formal_parameter)
    <9a6>   DW_AT_type        : <0x2d>
 <2><9aa>: Abbrev Number: 0
 <1><9ab>: Abbrev Number: 34 (DW_TAG_subprogram)
    <9ac>   DW_AT_external    : 1
    <9ac>   DW_AT_name        : (indirect string, offset: 0x90f): memcpy
    <9b0>   DW_AT_decl_file   : 22
    <9b1>   DW_AT_decl_line   : 43
    <9b2>   DW_AT_decl_column : 14
    <9b3>   DW_AT_prototyped  : 1
    <9b3>   DW_AT_type        : <0xc9>
    <9b7>   DW_AT_declaration : 1
    <9b7>   DW_AT_sibling     : <0x9cb>
 <2><9bb>: Abbrev Number: 35 (DW_TAG_formal_parameter)
    <9bc>   DW_AT_type        : <0xc9>
 <2><9c0>: Abbrev Number: 35 (DW_TAG_formal_parameter)
    <9c1>   DW_AT_type        : <0x414>
 <2><9c5>: Abbrev Number: 35 (DW_TAG_formal_parameter)
    <9c6>   DW_AT_type        : <0xaf>
 <2><9ca>: Abbrev Number: 0
 <1><9cb>: Abbrev Number: 39 (DW_TAG_subprogram)
    <9cc>   DW_AT_external    : 1
    <9cc>   DW_AT_name        : (indirect string, offset: 0x49e): isatty
    <9d0>   DW_AT_decl_file   : 26
    <9d1>   DW_AT_decl_line   : 779
    <9d3>   DW_AT_decl_column : 12
    <9d4>   DW_AT_prototyped  : 1
    <9d4>   DW_AT_type        : <0x50>
    <9d8>   DW_AT_declaration : 1
    <9d8>   DW_AT_sibling     : <0x9e2>
 <2><9dc>: Abbrev Number: 35 (DW_TAG_formal_parameter)
    <9dd>   DW_AT_type        : <0x50>
 <2><9e1>: Abbrev Number: 0
 <1><9e2>: Abbrev Number: 41 (DW_TAG_subprogram)
    <9e3>   DW_AT_external    : 1
    <9e3>   DW_AT_name        : (indirect string, offset: 0x378): __errno_location
    <9e7>   DW_AT_decl_file   : 29
    <9e8>   DW_AT_decl_line   : 37
    <9e9>   DW_AT_decl_column : 13
    <9ea>   DW_AT_prototyped  : 1
    <9ea>   DW_AT_type        : <0xa9>
    <9ee>   DW_AT_declaration : 1
 <1><9ee>: Abbrev Number: 34 (DW_TAG_subprogram)
    <9ef>   DW_AT_external    : 1
    <9ef>   DW_AT_name        : (indirect string, offset: 0x535): full_write
    <9f3>   DW_AT_decl_file   : 27
    <9f4>   DW_AT_decl_line   : 29
    <9f5>   DW_AT_decl_column : 15
    <9f6>   DW_AT_prototyped  : 1
    <9f6>   DW_AT_type        : <0xaf>
    <9fa>   DW_AT_declaration : 1
    <9fa>   DW_AT_sibling     : <0xa0e>
 <2><9fe>: Abbrev Number: 35 (DW_TAG_formal_parameter)
    <9ff>   DW_AT_type        : <0x50>
 <2><a03>: Abbrev Number: 35 (DW_TAG_formal_parameter)
    <a04>   DW_AT_type        : <0x414>
 <2><a08>: Abbrev Number: 35 (DW_TAG_formal_parameter)
    <a09>   DW_AT_type        : <0xaf>
 <2><a0d>: Abbrev Number: 0
 <1><a0e>: Abbrev Number: 34 (DW_TAG_subprogram)
    <a0f>   DW_AT_external    : 1
    <a0f>   DW_AT_name        : (indirect string, offset: 0x6a9): xmalloc
    <a13>   DW_AT_decl_file   : 28
    <a14>   DW_AT_decl_line   : 57
    <a15>   DW_AT_decl_column : 7
    <a16>   DW_AT_prototyped  : 1
    <a16>   DW_AT_type        : <0xc9>
    <a1a>   DW_AT_declaration : 1
    <a1a>   DW_AT_sibling     : <0xa24>
 <2><a1e>: Abbrev Number: 35 (DW_TAG_formal_parameter)
    <a1f>   DW_AT_type        : <0xaf>
 <2><a23>: Abbrev Number: 0
 <1><a24>: Abbrev Number: 42 (DW_TAG_subprogram)
    <a25>   DW_AT_external    : 1
    <a25>   DW_AT_name        : (indirect string, offset: 0x84c): __gmpz_gcd
    <a29>   DW_AT_decl_file   : 11
    <a2a>   DW_AT_decl_line   : 815
    <a2c>   DW_AT_decl_column : 21
    <a2d>   DW_AT_prototyped  : 1
    <a2d>   DW_AT_declaration : 1
    <a2d>   DW_AT_sibling     : <0xa41>
 <2><a31>: Abbrev Number: 35 (DW_TAG_formal_parameter)
    <a32>   DW_AT_type        : <0x3f5>
 <2><a36>: Abbrev Number: 35 (DW_TAG_formal_parameter)
    <a37>   DW_AT_type        : <0x3e3>
 <2><a3b>: Abbrev Number: 35 (DW_TAG_formal_parameter)
    <a3c>   DW_AT_type        : <0x3e3>
 <2><a40>: Abbrev Number: 0
 <1><a41>: Abbrev Number: 42 (DW_TAG_subprogram)
    <a42>   DW_AT_external    : 1
    <a42>   DW_AT_name        : (indirect string, offset: 0x85c): __gmpz_sub
    <a46>   DW_AT_decl_file   : 11
    <a47>   DW_AT_decl_line   : 1056
    <a49>   DW_AT_decl_column : 21
    <a4a>   DW_AT_prototyped  : 1
    <a4a>   DW_AT_declaration : 1
    <a4a>   DW_AT_sibling     : <0xa5e>
 <2><a4e>: Abbrev Number: 35 (DW_TAG_formal_parameter)
    <a4f>   DW_AT_type        : <0x3f5>
 <2><a53>: Abbrev Number: 35 (DW_TAG_formal_parameter)
    <a54>   DW_AT_type        : <0x3e3>
 <2><a58>: Abbrev Number: 35 (DW_TAG_formal_parameter)
    <a59>   DW_AT_type        : <0x3e3>
 <2><a5d>: Abbrev Number: 0
 <1><a5e>: Abbrev Number: 42 (DW_TAG_subprogram)
    <a5f>   DW_AT_external    : 1
    <a5f>   DW_AT_name        : (indirect string, offset: 0x47c): __gmpz_mod
    <a63>   DW_AT_decl_file   : 11
    <a64>   DW_AT_decl_line   : 926
    <a66>   DW_AT_decl_column : 21
    <a67>   DW_AT_prototyped  : 1
    <a67>   DW_AT_declaration : 1
    <a67>   DW_AT_sibling     : <0xa7b>
 <2><a6b>: Abbrev Number: 35 (DW_TAG_formal_parameter)
    <a6c>   DW_AT_type        : <0x3f5>
 <2><a70>: Abbrev Number: 35 (DW_TAG_formal_parameter)
    <a71>   DW_AT_type        : <0x3e3>
 <2><a75>: Abbrev Number: 35 (DW_TAG_formal_parameter)
    <a76>   DW_AT_type        : <0x3e3>
 <2><a7a>: Abbrev Number: 0
 <1><a7b>: Abbrev Number: 42 (DW_TAG_subprogram)
    <a7c>   DW_AT_external    : 1
    <a7c>   DW_AT_name        : (indirect string, offset: 0x64b): __gmpz_mul
    <a80>   DW_AT_decl_file   : 11
    <a81>   DW_AT_decl_line   : 931
    <a83>   DW_AT_decl_column : 21
    <a84>   DW_AT_prototyped  : 1
    <a84>   DW_AT_declaration : 1
    <a84>   DW_AT_sibling     : <0xa98>
 <2><a88>: Abbrev Number: 35 (DW_TAG_formal_parameter)
    <a89>   DW_AT_type        : <0x3f5>
 <2><a8d>: Abbrev Number: 35 (DW_TAG_formal_parameter)
    <a8e>   DW_AT_type        : <0x3e3>
 <2><a92>: Abbrev Number: 35 (DW_TAG_formal_parameter)
    <a93>   DW_AT_type        : <0x3e3>
 <2><a97>: Abbrev Number: 0
 <1><a98>: Abbrev Number: 42 (DW_TAG_subprogram)
    <a99>   DW_AT_external    : 1
    <a99>   DW_AT_name        : (indirect string, offset: 0x633): __gmpz_init_set_si
    <a9d>   DW_AT_decl_file   : 11
    <a9e>   DW_AT_decl_line   : 867
    <aa0>   DW_AT_decl_column : 21
    <aa1>   DW_AT_prototyped  : 1
    <aa1>   DW_AT_declaration : 1
    <aa1>   DW_AT_sibling     : <0xab0>
 <2><aa5>: Abbrev Number: 35 (DW_TAG_formal_parameter)
    <aa6>   DW_AT_type        : <0x3f5>
 <2><aaa>: Abbrev Number: 35 (DW_TAG_formal_parameter)
    <aab>   DW_AT_type        : <0xec>
 <2><aaf>: Abbrev Number: 0
 <1><ab0>: Abbrev Number: 39 (DW_TAG_subprogram)
    <ab1>   DW_AT_external    : 1
    <ab1>   DW_AT_name        : (indirect string, offset: 0x867): fprintf
    <ab5>   DW_AT_decl_file   : 9
    <ab6>   DW_AT_decl_line   : 326
    <ab8>   DW_AT_decl_column : 12
    <ab9>   DW_AT_prototyped  : 1
    <ab9>   DW_AT_type        : <0x50>
    <abd>   DW_AT_declaration : 1
    <abd>   DW_AT_sibling     : <0xacd>
 <2><ac1>: Abbrev Number: 35 (DW_TAG_formal_parameter)
    <ac2>   DW_AT_type        : <0x329>
 <2><ac6>: Abbrev Number: 35 (DW_TAG_formal_parameter)
    <ac7>   DW_AT_type        : <0xa4>
 <2><acb>: Abbrev Number: 37 (DW_TAG_unspecified_parameters)
 <2><acc>: Abbrev Number: 0
 <1><acd>: Abbrev Number: 42 (DW_TAG_subprogram)
    <ace>   DW_AT_external    : 1
    <ace>   DW_AT_name        : (indirect string, offset: 0x94a): __gmpz_clears
    <ad2>   DW_AT_decl_file   : 11
    <ad3>   DW_AT_decl_line   : 683
    <ad5>   DW_AT_decl_column : 21
    <ad6>   DW_AT_prototyped  : 1
    <ad6>   DW_AT_declaration : 1
    <ad6>   DW_AT_sibling     : <0xae1>
 <2><ada>: Abbrev Number: 35 (DW_TAG_formal_parameter)
    <adb>   DW_AT_type        : <0x3f5>
 <2><adf>: Abbrev Number: 37 (DW_TAG_unspecified_parameters)
 <2><ae0>: Abbrev Number: 0
 <1><ae1>: Abbrev Number: 42 (DW_TAG_subprogram)
    <ae2>   DW_AT_external    : 1
    <ae2>   DW_AT_name        : (indirect string, offset: 0x7fa): __gmpz_add_ui
    <ae6>   DW_AT_decl_file   : 11
    <ae7>   DW_AT_decl_line   : 632
    <ae9>   DW_AT_decl_column : 21
    <aea>   DW_AT_prototyped  : 1
    <aea>   DW_AT_declaration : 1
    <aea>   DW_AT_sibling     : <0xafe>
 <2><aee>: Abbrev Number: 35 (DW_TAG_formal_parameter)
    <aef>   DW_AT_type        : <0x3f5>
 <2><af3>: Abbrev Number: 35 (DW_TAG_formal_parameter)
    <af4>   DW_AT_type        : <0x3e3>
 <2><af8>: Abbrev Number: 35 (DW_TAG_formal_parameter)
    <af9>   DW_AT_type        : <0xbb>
 <2><afd>: Abbrev Number: 0
 <1><afe>: Abbrev Number: 42 (DW_TAG_subprogram)
    <aff>   DW_AT_external    : 1
    <aff>   DW_AT_name        : (indirect string, offset: 0x48e): __gmpz_divexact
    <b03>   DW_AT_decl_file   : 11
    <b04>   DW_AT_decl_line   : 725
    <b06>   DW_AT_decl_column : 21
    <b07>   DW_AT_prototyped  : 1
    <b07>   DW_AT_declaration : 1
    <b07>   DW_AT_sibling     : <0xb1b>
 <2><b0b>: Abbrev Number: 35 (DW_TAG_formal_parameter)
    <b0c>   DW_AT_type        : <0x3f5>
 <2><b10>: Abbrev Number: 35 (DW_TAG_formal_parameter)
    <b11>   DW_AT_type        : <0x3e3>
 <2><b15>: Abbrev Number: 35 (DW_TAG_formal_parameter)
    <b16>   DW_AT_type        : <0x3e3>
 <2><b1a>: Abbrev Number: 0
 <1><b1b>: Abbrev Number: 42 (DW_TAG_subprogram)
    <b1c>   DW_AT_external    : 1
    <b1c>   DW_AT_name        : (indirect string, offset: 0x5f0): __gmpz_set_ui
    <b20>   DW_AT_decl_file   : 11
    <b21>   DW_AT_decl_line   : 1036
    <b23>   DW_AT_decl_column : 21
    <b24>   DW_AT_prototyped  : 1
    <b24>   DW_AT_declaration : 1
    <b24>   DW_AT_sibling     : <0xb33>
 <2><b28>: Abbrev Number: 35 (DW_TAG_formal_parameter)
    <b29>   DW_AT_type        : <0x3f5>
 <2><b2d>: Abbrev Number: 35 (DW_TAG_formal_parameter)
    <b2e>   DW_AT_type        : <0xbb>
 <2><b32>: Abbrev Number: 0
 <1><b33>: Abbrev Number: 42 (DW_TAG_subprogram)
    <b34>   DW_AT_external    : 1
    <b34>   DW_AT_name        : (indirect string, offset: 0x516): __gmpz_tdiv_q_2exp
    <b38>   DW_AT_decl_file   : 11
    <b39>   DW_AT_decl_line   : 1080
    <b3b>   DW_AT_decl_column : 21
    <b3c>   DW_AT_prototyped  : 1
    <b3c>   DW_AT_declaration : 1
    <b3c>   DW_AT_sibling     : <0xb50>
 <2><b40>: Abbrev Number: 35 (DW_TAG_formal_parameter)
    <b41>   DW_AT_type        : <0x3f5>
 <2><b45>: Abbrev Number: 35 (DW_TAG_formal_parameter)
    <b46>   DW_AT_type        : <0x3e3>
 <2><b4a>: Abbrev Number: 35 (DW_TAG_formal_parameter)
    <b4b>   DW_AT_type        : <0x373>
 <2><b4f>: Abbrev Number: 0
 <1><b50>: Abbrev Number: 42 (DW_TAG_subprogram)
    <b51>   DW_AT_external    : 1
    <b51>   DW_AT_name        : (indirect string, offset: 0x10e): __gmpz_sub_ui
    <b55>   DW_AT_decl_file   : 11
    <b56>   DW_AT_decl_line   : 1059
    <b58>   DW_AT_decl_column : 21
    <b59>   DW_AT_prototyped  : 1
    <b59>   DW_AT_declaration : 1
    <b59>   DW_AT_sibling     : <0xb6d>
 <2><b5d>: Abbrev Number: 35 (DW_TAG_formal_parameter)
    <b5e>   DW_AT_type        : <0x3f5>
 <2><b62>: Abbrev Number: 35 (DW_TAG_formal_parameter)
    <b63>   DW_AT_type        : <0x3e3>
 <2><b67>: Abbrev Number: 35 (DW_TAG_formal_parameter)
    <b68>   DW_AT_type        : <0xbb>
 <2><b6c>: Abbrev Number: 0
 <1><b6d>: Abbrev Number: 42 (DW_TAG_subprogram)
    <b6e>   DW_AT_external    : 1
    <b6e>   DW_AT_name        : (indirect string, offset: 0x161): __gmpz_inits
    <b72>   DW_AT_decl_file   : 11
    <b73>   DW_AT_decl_line   : 858
    <b75>   DW_AT_decl_column : 21
    <b76>   DW_AT_prototyped  : 1
    <b76>   DW_AT_declaration : 1
    <b76>   DW_AT_sibling     : <0xb81>
 <2><b7a>: Abbrev Number: 35 (DW_TAG_formal_parameter)
    <b7b>   DW_AT_type        : <0x3f5>
 <2><b7f>: Abbrev Number: 37 (DW_TAG_unspecified_parameters)
 <2><b80>: Abbrev Number: 0
 <1><b81>: Abbrev Number: 43 (DW_TAG_subprogram)
    <b82>   DW_AT_external    : 1
    <b82>   DW_AT_name        : (indirect string, offset: 0x1bd): abort
    <b86>   DW_AT_decl_file   : 19
    <b87>   DW_AT_decl_line   : 591
    <b89>   DW_AT_decl_column : 13
    <b8a>   DW_AT_prototyped  : 1
    <b8a>   DW_AT_noreturn    : 1
    <b8a>   DW_AT_declaration : 1
 <1><b8a>: Abbrev Number: 36 (DW_TAG_subprogram)
    <b8b>   DW_AT_external    : 1
    <b8b>   DW_AT_name        : (indirect string, offset: 0xa68): error
    <b8f>   DW_AT_decl_file   : 30
    <b90>   DW_AT_decl_line   : 33
    <b91>   DW_AT_decl_column : 13
    <b92>   DW_AT_prototyped  : 1
    <b92>   DW_AT_declaration : 1
    <b92>   DW_AT_sibling     : <0xba7>
 <2><b96>: Abbrev Number: 35 (DW_TAG_formal_parameter)
    <b97>   DW_AT_type        : <0x50>
 <2><b9b>: Abbrev Number: 35 (DW_TAG_formal_parameter)
    <b9c>   DW_AT_type        : <0x50>
 <2><ba0>: Abbrev Number: 35 (DW_TAG_formal_parameter)
    <ba1>   DW_AT_type        : <0x9e>
 <2><ba5>: Abbrev Number: 37 (DW_TAG_unspecified_parameters)
 <2><ba6>: Abbrev Number: 0
 <1><ba7>: Abbrev Number: 34 (DW_TAG_subprogram)
    <ba8>   DW_AT_external    : 1
    <ba8>   DW_AT_name        : (indirect string, offset: 0x9a8): gettext
    <bac>   DW_AT_decl_file   : 20
    <bad>   DW_AT_decl_line   : 39
    <bae>   DW_AT_decl_column : 14
    <baf>   DW_AT_prototyped  : 1
    <baf>   DW_AT_type        : <0x2d>
    <bb3>   DW_AT_declaration : 1
    <bb3>   DW_AT_sibling     : <0xbbd>
 <2><bb7>: Abbrev Number: 35 (DW_TAG_formal_parameter)
    <bb8>   DW_AT_type        : <0x9e>
 <2><bbc>: Abbrev Number: 0
 <1><bbd>: Abbrev Number: 42 (DW_TAG_subprogram)
    <bbe>   DW_AT_external    : 1
    <bbe>   DW_AT_name        : (indirect string, offset: 0x758): __gmpz_powm_ui
    <bc2>   DW_AT_decl_file   : 11
    <bc3>   DW_AT_decl_line   : 983
    <bc5>   DW_AT_decl_column : 21
    <bc6>   DW_AT_prototyped  : 1
    <bc6>   DW_AT_declaration : 1
    <bc6>   DW_AT_sibling     : <0xbdf>
 <2><bca>: Abbrev Number: 35 (DW_TAG_formal_parameter)
    <bcb>   DW_AT_type        : <0x3f5>
 <2><bcf>: Abbrev Number: 35 (DW_TAG_formal_parameter)
    <bd0>   DW_AT_type        : <0x3e3>
 <2><bd4>: Abbrev Number: 35 (DW_TAG_formal_parameter)
    <bd5>   DW_AT_type        : <0xbb>
 <2><bd9>: Abbrev Number: 35 (DW_TAG_formal_parameter)
    <bda>   DW_AT_type        : <0x3e3>
 <2><bde>: Abbrev Number: 0
 <1><bdf>: Abbrev Number: 42 (DW_TAG_subprogram)
    <be0>   DW_AT_external    : 1
    <be0>   DW_AT_name        : (indirect string, offset: 0x808): __gmpz_powm
    <be4>   DW_AT_decl_file   : 11
    <be5>   DW_AT_decl_line   : 977
    <be7>   DW_AT_decl_column : 21
    <be8>   DW_AT_prototyped  : 1
    <be8>   DW_AT_declaration : 1
    <be8>   DW_AT_sibling     : <0xc01>
 <2><bec>: Abbrev Number: 35 (DW_TAG_formal_parameter)
    <bed>   DW_AT_type        : <0x3f5>
 <2><bf1>: Abbrev Number: 35 (DW_TAG_formal_parameter)
    <bf2>   DW_AT_type        : <0x3e3>
 <2><bf6>: Abbrev Number: 35 (DW_TAG_formal_parameter)
    <bf7>   DW_AT_type        : <0x3e3>
 <2><bfb>: Abbrev Number: 35 (DW_TAG_formal_parameter)
    <bfc>   DW_AT_type        : <0x3e3>
 <2><c00>: Abbrev Number: 0
 <1><c01>: Abbrev Number: 39 (DW_TAG_subprogram)
    <c02>   DW_AT_external    : 1
    <c02>   DW_AT_name        : (indirect string, offset: 0x774): __gmpz_tdiv_q_ui
    <c06>   DW_AT_decl_file   : 11
    <c07>   DW_AT_decl_line   : 1083
    <c09>   DW_AT_decl_column : 34
    <c0a>   DW_AT_prototyped  : 1
    <c0a>   DW_AT_type        : <0xbb>
    <c0e>   DW_AT_declaration : 1
    <c0e>   DW_AT_sibling     : <0xc22>
 <2><c12>: Abbrev Number: 35 (DW_TAG_formal_parameter)
    <c13>   DW_AT_type        : <0x3f5>
 <2><c17>: Abbrev Number: 35 (DW_TAG_formal_parameter)
    <c18>   DW_AT_type        : <0x3e3>
 <2><c1c>: Abbrev Number: 35 (DW_TAG_formal_parameter)
    <c1d>   DW_AT_type        : <0xbb>
 <2><c21>: Abbrev Number: 0
 <1><c22>: Abbrev Number: 39 (DW_TAG_subprogram)
    <c23>   DW_AT_external    : 1
    <c23>   DW_AT_name        : (indirect string, offset: 0xa05): __gmpz_cmp_ui
    <c27>   DW_AT_decl_file   : 11
    <c28>   DW_AT_decl_line   : 698
    <c2a>   DW_AT_decl_column : 20
    <c2b>   DW_AT_prototyped  : 1
    <c2b>   DW_AT_type        : <0x50>
    <c2f>   DW_AT_declaration : 1
    <c2f>   DW_AT_sibling     : <0xc3e>
 <2><c33>: Abbrev Number: 35 (DW_TAG_formal_parameter)
    <c34>   DW_AT_type        : <0x3e3>
 <2><c38>: Abbrev Number: 35 (DW_TAG_formal_parameter)
    <c39>   DW_AT_type        : <0xbb>
 <2><c3d>: Abbrev Number: 0
 <1><c3e>: Abbrev Number: 39 (DW_TAG_subprogram)
    <c3f>   DW_AT_external    : 1
    <c3f>   DW_AT_name        : (indirect string, offset: 0x5ae): __gmpz_divisible_ui_p
    <c43>   DW_AT_decl_file   : 11
    <c44>   DW_AT_decl_line   : 734
    <c46>   DW_AT_decl_column : 20
    <c47>   DW_AT_prototyped  : 1
    <c47>   DW_AT_type        : <0x50>
    <c4b>   DW_AT_declaration : 1
    <c4b>   DW_AT_sibling     : <0xc5a>
 <2><c4f>: Abbrev Number: 35 (DW_TAG_formal_parameter)
    <c50>   DW_AT_type        : <0x3e3>
 <2><c54>: Abbrev Number: 35 (DW_TAG_formal_parameter)
    <c55>   DW_AT_type        : <0xbb>
 <2><c59>: Abbrev Number: 0
 <1><c5a>: Abbrev Number: 42 (DW_TAG_subprogram)
    <c5b>   DW_AT_external    : 1
    <c5b>   DW_AT_name        : (indirect string, offset: 0x4fe): __gmpz_fdiv_q_2exp
    <c5f>   DW_AT_decl_file   : 11
    <c60>   DW_AT_decl_line   : 761
    <c62>   DW_AT_decl_column : 21
    <c63>   DW_AT_prototyped  : 1
    <c63>   DW_AT_declaration : 1
    <c63>   DW_AT_sibling     : <0xc77>
 <2><c67>: Abbrev Number: 35 (DW_TAG_formal_parameter)
    <c68>   DW_AT_type        : <0x3f5>
 <2><c6c>: Abbrev Number: 35 (DW_TAG_formal_parameter)
    <c6d>   DW_AT_type        : <0x3e3>
 <2><c71>: Abbrev Number: 35 (DW_TAG_formal_parameter)
    <c72>   DW_AT_type        : <0x373>
 <2><c76>: Abbrev Number: 0
 <1><c77>: Abbrev Number: 39 (DW_TAG_subprogram)
    <c78>   DW_AT_external    : 1
    <c78>   DW_AT_name        : (indirect string, offset: 0x20b): __gmpz_scan1
    <c7c>   DW_AT_decl_file   : 11
    <c7d>   DW_AT_decl_line   : 1013
    <c7f>   DW_AT_decl_column : 28
    <c80>   DW_AT_prototyped  : 1
    <c80>   DW_AT_type        : <0x373>
    <c84>   DW_AT_declaration : 1
    <c84>   DW_AT_sibling     : <0xc93>
 <2><c88>: Abbrev Number: 35 (DW_TAG_formal_parameter)
    <c89>   DW_AT_type        : <0x3e3>
 <2><c8d>: Abbrev Number: 35 (DW_TAG_formal_parameter)
    <c8e>   DW_AT_type        : <0x373>
 <2><c92>: Abbrev Number: 0
 <1><c93>: Abbrev Number: 42 (DW_TAG_subprogram)
    <c94>   DW_AT_external    : 1
    <c94>   DW_AT_name        : (indirect string, offset: 0x6cb): __gmpz_init_set_ui
    <c98>   DW_AT_decl_file   : 11
    <c99>   DW_AT_decl_line   : 873
    <c9b>   DW_AT_decl_column : 21
    <c9c>   DW_AT_prototyped  : 1
    <c9c>   DW_AT_declaration : 1
    <c9c>   DW_AT_sibling     : <0xcab>
 <2><ca0>: Abbrev Number: 35 (DW_TAG_formal_parameter)
    <ca1>   DW_AT_type        : <0x3f5>
 <2><ca5>: Abbrev Number: 35 (DW_TAG_formal_parameter)
    <ca6>   DW_AT_type        : <0xbb>
 <2><caa>: Abbrev Number: 0
 <1><cab>: Abbrev Number: 42 (DW_TAG_subprogram)
    <cac>   DW_AT_external    : 1
    <cac>   DW_AT_name        : (indirect string, offset: 0x36d): __gmpz_set
    <cb0>   DW_AT_decl_file   : 11
    <cb1>   DW_AT_decl_line   : 1016
    <cb3>   DW_AT_decl_column : 21
    <cb4>   DW_AT_prototyped  : 1
    <cb4>   DW_AT_declaration : 1
    <cb4>   DW_AT_sibling     : <0xcc3>
 <2><cb8>: Abbrev Number: 35 (DW_TAG_formal_parameter)
    <cb9>   DW_AT_type        : <0x3f5>
 <2><cbd>: Abbrev Number: 35 (DW_TAG_formal_parameter)
    <cbe>   DW_AT_type        : <0x3e3>
 <2><cc2>: Abbrev Number: 0
 <1><cc3>: Abbrev Number: 42 (DW_TAG_subprogram)
    <cc4>   DW_AT_external    : 1
    <cc4>   DW_AT_name        : (indirect string, offset: 0x627): __gmpz_init
    <cc8>   DW_AT_decl_file   : 11
    <cc9>   DW_AT_decl_line   : 852
    <ccb>   DW_AT_decl_column : 21
    <ccc>   DW_AT_prototyped  : 1
    <ccc>   DW_AT_declaration : 1
    <ccc>   DW_AT_sibling     : <0xcd6>
 <2><cd0>: Abbrev Number: 35 (DW_TAG_formal_parameter)
    <cd1>   DW_AT_type        : <0x3f5>
 <2><cd5>: Abbrev Number: 0
 <1><cd6>: Abbrev Number: 34 (DW_TAG_subprogram)
    <cd7>   DW_AT_external    : 1
    <cd7>   DW_AT_name        : (indirect string, offset: 0x13): xrealloc
    <cdb>   DW_AT_decl_file   : 28
    <cdc>   DW_AT_decl_line   : 78
    <cdd>   DW_AT_decl_column : 7
    <cde>   DW_AT_prototyped  : 1
    <cde>   DW_AT_type        : <0xc9>
    <ce2>   DW_AT_declaration : 1
    <ce2>   DW_AT_sibling     : <0xcf1>
 <2><ce6>: Abbrev Number: 35 (DW_TAG_formal_parameter)
    <ce7>   DW_AT_type        : <0xc9>
 <2><ceb>: Abbrev Number: 35 (DW_TAG_formal_parameter)
    <cec>   DW_AT_type        : <0xaf>
 <2><cf0>: Abbrev Number: 0
 <1><cf1>: Abbrev Number: 39 (DW_TAG_subprogram)
    <cf2>   DW_AT_external    : 1
    <cf2>   DW_AT_name        : (indirect string, offset: 0x3b4): __gmpz_cmp
    <cf6>   DW_AT_decl_file   : 11
    <cf7>   DW_AT_decl_line   : 689
    <cf9>   DW_AT_decl_column : 20
    <cfa>   DW_AT_prototyped  : 1
    <cfa>   DW_AT_type        : <0x50>
    <cfe>   DW_AT_declaration : 1
    <cfe>   DW_AT_sibling     : <0xd0d>
 <2><d02>: Abbrev Number: 35 (DW_TAG_formal_parameter)
    <d03>   DW_AT_type        : <0x3e3>
 <2><d07>: Abbrev Number: 35 (DW_TAG_formal_parameter)
    <d08>   DW_AT_type        : <0x3e3>
 <2><d0c>: Abbrev Number: 0
 <1><d0d>: Abbrev Number: 42 (DW_TAG_subprogram)
    <d0e>   DW_AT_external    : 1
    <d0e>   DW_AT_name        : (indirect string, offset: 0x941): rpl_free
    <d12>   DW_AT_decl_file   : 31
    <d13>   DW_AT_decl_line   : 739
    <d15>   DW_AT_decl_column : 1
    <d16>   DW_AT_prototyped  : 1
    <d16>   DW_AT_declaration : 1
    <d16>   DW_AT_sibling     : <0xd20>
 <2><d1a>: Abbrev Number: 35 (DW_TAG_formal_parameter)
    <d1b>   DW_AT_type        : <0xc9>
 <2><d1f>: Abbrev Number: 0
 <1><d20>: Abbrev Number: 42 (DW_TAG_subprogram)
    <d21>   DW_AT_external    : 1
    <d21>   DW_AT_name        : (indirect string, offset: 0x31a): __gmpz_clear
    <d25>   DW_AT_decl_file   : 11
    <d26>   DW_AT_decl_line   : 680
    <d28>   DW_AT_decl_column : 21
    <d29>   DW_AT_prototyped  : 1
    <d29>   DW_AT_declaration : 1
    <d29>   DW_AT_sibling     : <0xd33>
 <2><d2d>: Abbrev Number: 35 (DW_TAG_formal_parameter)
    <d2e>   DW_AT_type        : <0x3f5>
 <2><d32>: Abbrev Number: 0
 <1><d33>: Abbrev Number: 44 (DW_TAG_subprogram)
    <d34>   DW_AT_external    : 1
    <d34>   DW_AT_name        : (indirect string, offset: 0x183): __assert_fail
    <d38>   DW_AT_decl_file   : 32
    <d39>   DW_AT_decl_line   : 69
    <d3a>   DW_AT_decl_column : 13
    <d3b>   DW_AT_prototyped  : 1
    <d3b>   DW_AT_noreturn    : 1
    <d3b>   DW_AT_declaration : 1
    <d3b>   DW_AT_sibling     : <0xd54>
 <2><d3f>: Abbrev Number: 35 (DW_TAG_formal_parameter)
    <d40>   DW_AT_type        : <0x9e>
 <2><d44>: Abbrev Number: 35 (DW_TAG_formal_parameter)
    <d45>   DW_AT_type        : <0x9e>
 <2><d49>: Abbrev Number: 35 (DW_TAG_formal_parameter)
    <d4a>   DW_AT_type        : <0xc2>
 <2><d4e>: Abbrev Number: 35 (DW_TAG_formal_parameter)
    <d4f>   DW_AT_type        : <0x9e>
 <2><d53>: Abbrev Number: 0
 <1><d54>: Abbrev Number: 45 (DW_TAG_subprogram)
    <d55>   DW_AT_external    : 1
    <d55>   DW_AT_name        : (indirect string, offset: 0xa00): main
    <d59>   DW_AT_decl_file   : 2
    <d5a>   DW_AT_decl_line   : 2583
    <d5c>   DW_AT_decl_column : 1
    <d5d>   DW_AT_prototyped  : 1
    <d5d>   DW_AT_type        : <0x50>
    <d61>   DW_AT_low_pc      : 0x7e50
    <d69>   DW_AT_high_pc     : 0x1ef
    <d71>   DW_AT_frame_base  : 1 byte block: 9c 	(DW_OP_call_frame_cfa)
    <d73>   DW_AT_GNU_all_tail_call_sites: 1
    <d73>   DW_AT_sibling     : <0xdd5>
 <2><d77>: Abbrev Number: 46 (DW_TAG_formal_parameter)
    <d78>   DW_AT_name        : (indirect string, offset: 0x511): argc
    <d7c>   DW_AT_decl_file   : 2
    <d7d>   DW_AT_decl_line   : 2583
    <d7f>   DW_AT_decl_column : 11
    <d80>   DW_AT_type        : <0x50>
    <d84>   DW_AT_location    : 2 byte block: 91 4c 	(DW_OP_fbreg: -52)
 <2><d87>: Abbrev Number: 46 (DW_TAG_formal_parameter)
    <d88>   DW_AT_name        : (indirect string, offset: 0x548): argv
    <d8c>   DW_AT_decl_file   : 2
    <d8d>   DW_AT_decl_line   : 2583
    <d8f>   DW_AT_decl_column : 24
    <d90>   DW_AT_type        : <0x40e>
    <d94>   DW_AT_location    : 2 byte block: 91 40 	(DW_OP_fbreg: -64)
 <2><d97>: Abbrev Number: 47 (DW_TAG_variable)
    <d98>   DW_AT_name        : c
    <d9a>   DW_AT_decl_file   : 2
    <d9b>   DW_AT_decl_line   : 2595
    <d9d>   DW_AT_decl_column : 7
    <d9e>   DW_AT_type        : <0x50>
    <da2>   DW_AT_location    : 2 byte block: 91 5c 	(DW_OP_fbreg: -36)
 <2><da5>: Abbrev Number: 47 (DW_TAG_variable)
    <da6>   DW_AT_name        : ok
    <da9>   DW_AT_decl_file   : 2
    <daa>   DW_AT_decl_line   : 2617
    <dac>   DW_AT_decl_column : 8
    <dad>   DW_AT_type        : <0x6d0>
    <db1>   DW_AT_location    : 2 byte block: 91 57 	(DW_OP_fbreg: -41)
 <2><db4>: Abbrev Number: 48 (DW_TAG_lexical_block)
    <db5>   DW_AT_low_pc      : 0x7fee
    <dbd>   DW_AT_high_pc     : 0x41
 <3><dc5>: Abbrev Number: 47 (DW_TAG_variable)
    <dc6>   DW_AT_name        : i
    <dc8>   DW_AT_decl_file   : 2
    <dc9>   DW_AT_decl_line   : 2623
    <dcb>   DW_AT_decl_column : 16
    <dcc>   DW_AT_type        : <0x50>
    <dd0>   DW_AT_location    : 2 byte block: 91 58 	(DW_OP_fbreg: -40)
 <3><dd3>: Abbrev Number: 0
 <2><dd4>: Abbrev Number: 0
 <1><dd5>: Abbrev Number: 49 (DW_TAG_subprogram)
    <dd6>   DW_AT_name        : (indirect string, offset: 0x32f): do_stdin
    <dda>   DW_AT_decl_file   : 2
    <ddb>   DW_AT_decl_line   : 2562
    <ddd>   DW_AT_decl_column : 1
    <dde>   DW_AT_prototyped  : 1
    <dde>   DW_AT_type        : <0x6d0>
    <de2>   DW_AT_low_pc      : 0x7db2
    <dea>   DW_AT_high_pc     : 0x9e
    <df2>   DW_AT_frame_base  : 1 byte block: 9c 	(DW_OP_call_frame_cfa)
    <df4>   DW_AT_GNU_all_tail_call_sites: 1
    <df4>   DW_AT_sibling     : <0xe2e>
 <2><df8>: Abbrev Number: 47 (DW_TAG_variable)
    <df9>   DW_AT_name        : ok
    <dfc>   DW_AT_decl_file   : 2
    <dfd>   DW_AT_decl_line   : 2564
    <dff>   DW_AT_decl_column : 8
    <e00>   DW_AT_type        : <0x6d0>
    <e04>   DW_AT_location    : 2 byte block: 91 47 	(DW_OP_fbreg: -57)
 <2><e07>: Abbrev Number: 30 (DW_TAG_variable)
    <e08>   DW_AT_name        : (indirect string, offset: 0xa2d): tokenbuffer
    <e0c>   DW_AT_decl_file   : 2
    <e0d>   DW_AT_decl_line   : 2565
    <e0f>   DW_AT_decl_column : 16
    <e10>   DW_AT_type        : <0x4c3>
    <e14>   DW_AT_location    : 2 byte block: 91 50 	(DW_OP_fbreg: -48)
 <2><e17>: Abbrev Number: 50 (DW_TAG_lexical_block)
    <e18>   DW_AT_ranges      : 0x120
 <3><e1c>: Abbrev Number: 30 (DW_TAG_variable)
    <e1d>   DW_AT_name        : (indirect string, offset: 0x0): token_length
    <e21>   DW_AT_decl_file   : 2
    <e22>   DW_AT_decl_line   : 2571
    <e24>   DW_AT_decl_column : 14
    <e25>   DW_AT_type        : <0xaf>
    <e29>   DW_AT_location    : 2 byte block: 91 48 	(DW_OP_fbreg: -56)
 <3><e2c>: Abbrev Number: 0
 <2><e2d>: Abbrev Number: 0
 <1><e2e>: Abbrev Number: 51 (DW_TAG_subprogram)
    <e2f>   DW_AT_external    : 1
    <e2f>   DW_AT_name        : (indirect string, offset: 0x8d1): usage
    <e33>   DW_AT_decl_file   : 2
    <e34>   DW_AT_decl_line   : 2538
    <e36>   DW_AT_decl_column : 1
    <e37>   DW_AT_prototyped  : 1
    <e37>   DW_AT_noreturn    : 1
    <e37>   DW_AT_low_pc      : 0x7cb6
    <e3f>   DW_AT_high_pc     : 0xfc
    <e47>   DW_AT_frame_base  : 1 byte block: 9c 	(DW_OP_call_frame_cfa)
    <e49>   DW_AT_GNU_all_tail_call_sites: 1
    <e49>   DW_AT_sibling     : <0xe5e>
 <2><e4d>: Abbrev Number: 46 (DW_TAG_formal_parameter)
    <e4e>   DW_AT_name        : (indirect string, offset: 0x4a5): status
    <e52>   DW_AT_decl_file   : 2
    <e53>   DW_AT_decl_line   : 2538
    <e55>   DW_AT_decl_column : 12
    <e56>   DW_AT_type        : <0x50>
    <e5a>   DW_AT_location    : 2 byte block: 91 5c 	(DW_OP_fbreg: -36)
 <2><e5d>: Abbrev Number: 0
 <1><e5e>: Abbrev Number: 49 (DW_TAG_subprogram)
    <e5f>   DW_AT_name        : (indirect string, offset: 0x354): print_factors
    <e63>   DW_AT_decl_file   : 2
    <e64>   DW_AT_decl_line   : 2477
    <e66>   DW_AT_decl_column : 1
    <e67>   DW_AT_prototyped  : 1
    <e67>   DW_AT_type        : <0x6d0>
    <e6b>   DW_AT_low_pc      : 0x7a4c
    <e73>   DW_AT_high_pc     : 0x26a
    <e7b>   DW_AT_frame_base  : 1 byte block: 9c 	(DW_OP_call_frame_cfa)
    <e7d>   DW_AT_GNU_all_tail_call_sites: 1
    <e7d>   DW_AT_sibling     : <0xf36>
 <2><e81>: Abbrev Number: 46 (DW_TAG_formal_parameter)
    <e82>   DW_AT_name        : (indirect string, offset: 0x1381): input
    <e86>   DW_AT_decl_file   : 2
    <e87>   DW_AT_decl_line   : 2477
    <e89>   DW_AT_decl_column : 28
    <e8a>   DW_AT_type        : <0x9e>
    <e8e>   DW_AT_location    : 3 byte block: 91 e8 7e 	(DW_OP_fbreg: -152)
 <2><e92>: Abbrev Number: 47 (DW_TAG_variable)
    <e93>   DW_AT_name        : str
    <e97>   DW_AT_decl_file   : 2
    <e98>   DW_AT_decl_line   : 2480
    <e9a>   DW_AT_decl_column : 15
    <e9b>   DW_AT_type        : <0x9e>
    <e9f>   DW_AT_location    : 3 byte block: 91 98 7f 	(DW_OP_fbreg: -104)
 <2><ea3>: Abbrev Number: 47 (DW_TAG_variable)
    <ea4>   DW_AT_name        : t1
    <ea7>   DW_AT_decl_file   : 2
    <ea8>   DW_AT_decl_line   : 2485
    <eaa>   DW_AT_decl_column : 13
    <eab>   DW_AT_type        : <0x433>
    <eaf>   DW_AT_location    : 3 byte block: 91 88 7f 	(DW_OP_fbreg: -120)
 <2><eb3>: Abbrev Number: 47 (DW_TAG_variable)
    <eb4>   DW_AT_name        : t0
    <eb7>   DW_AT_decl_file   : 2
    <eb8>   DW_AT_decl_line   : 2485
    <eba>   DW_AT_decl_column : 17
    <ebb>   DW_AT_type        : <0x433>
    <ebf>   DW_AT_location    : 3 byte block: 91 90 7f 	(DW_OP_fbreg: -112)
 <2><ec3>: Abbrev Number: 47 (DW_TAG_variable)
    <ec4>   DW_AT_name        : err
    <ec8>   DW_AT_decl_file   : 2
    <ec9>   DW_AT_decl_line   : 2491
    <ecb>   DW_AT_decl_column : 16
    <ecc>   DW_AT_type        : <0x500>
    <ed0>   DW_AT_location    : 3 byte block: 91 84 7f 	(DW_OP_fbreg: -124)
 <2><ed4>: Abbrev Number: 47 (DW_TAG_variable)
    <ed5>   DW_AT_name        : t
    <ed7>   DW_AT_decl_file   : 2
    <ed8>   DW_AT_decl_line   : 2514
    <eda>   DW_AT_decl_column : 9
    <edb>   DW_AT_type        : <0x3c7>
    <edf>   DW_AT_location    : 2 byte block: 91 40 	(DW_OP_fbreg: -64)
 <2><ee2>: Abbrev Number: 30 (DW_TAG_variable)
    <ee3>   DW_AT_name        : (indirect string, offset: 0x442): factors
    <ee7>   DW_AT_decl_file   : 2
    <ee8>   DW_AT_decl_line   : 2515
    <eea>   DW_AT_decl_column : 21
    <eeb>   DW_AT_type        : <0x5c7>
    <eef>   DW_AT_location    : 3 byte block: 91 a0 7f 	(DW_OP_fbreg: -96)
 <2><ef3>: Abbrev Number: 48 (DW_TAG_lexical_block)
    <ef4>   DW_AT_low_pc      : 0x7bfb
    <efc>   DW_AT_high_pc     : 0x6b
 <3><f04>: Abbrev Number: 47 (DW_TAG_variable)
    <f05>   DW_AT_name        : j
    <f07>   DW_AT_decl_file   : 2
    <f08>   DW_AT_decl_line   : 2523
    <f0a>   DW_AT_decl_column : 21
    <f0b>   DW_AT_type        : <0xc2>
    <f0f>   DW_AT_location    : 3 byte block: 91 fc 7e 	(DW_OP_fbreg: -132)
 <3><f13>: Abbrev Number: 48 (DW_TAG_lexical_block)
    <f14>   DW_AT_low_pc      : 0x7c04
    <f1c>   DW_AT_high_pc     : 0x52
 <4><f24>: Abbrev Number: 47 (DW_TAG_variable)
    <f25>   DW_AT_name        : k
    <f27>   DW_AT_decl_file   : 2
    <f28>   DW_AT_decl_line   : 2524
    <f2a>   DW_AT_decl_column : 23
    <f2b>   DW_AT_type        : <0xc2>
    <f2f>   DW_AT_location    : 3 byte block: 91 80 7f 	(DW_OP_fbreg: -128)
 <4><f33>: Abbrev Number: 0
 <3><f34>: Abbrev Number: 0
 <2><f35>: Abbrev Number: 0
 <1><f36>: Abbrev Number: 52 (DW_TAG_subprogram)
    <f37>   DW_AT_name        : (indirect string, offset: 0x16e): print_factors_single
    <f3b>   DW_AT_decl_file   : 2
    <f3c>   DW_AT_decl_line   : 2446
    <f3e>   DW_AT_decl_column : 1
    <f3f>   DW_AT_prototyped  : 1
    <f3f>   DW_AT_low_pc      : 0x7919
    <f47>   DW_AT_high_pc     : 0x133
    <f4f>   DW_AT_frame_base  : 1 byte block: 9c 	(DW_OP_call_frame_cfa)
    <f51>   DW_AT_GNU_all_tail_call_sites: 1
    <f51>   DW_AT_sibling     : <0xfc9>
 <2><f55>: Abbrev Number: 53 (DW_TAG_formal_parameter)
    <f56>   DW_AT_name        : t1
    <f59>   DW_AT_decl_file   : 2
    <f5a>   DW_AT_decl_line   : 2446
    <f5c>   DW_AT_decl_column : 33
    <f5d>   DW_AT_type        : <0x433>
    <f61>   DW_AT_location    : 3 byte block: 91 c8 7d 	(DW_OP_fbreg: -312)
 <2><f65>: Abbrev Number: 53 (DW_TAG_formal_parameter)
    <f66>   DW_AT_name        : t0
    <f69>   DW_AT_decl_file   : 2
    <f6a>   DW_AT_decl_line   : 2446
    <f6c>   DW_AT_decl_column : 47
    <f6d>   DW_AT_type        : <0x433>
    <f71>   DW_AT_location    : 3 byte block: 91 c0 7d 	(DW_OP_fbreg: -320)
 <2><f75>: Abbrev Number: 30 (DW_TAG_variable)
    <f76>   DW_AT_name        : (indirect string, offset: 0x442): factors
    <f7a>   DW_AT_decl_file   : 2
    <f7b>   DW_AT_decl_line   : 2448
    <f7d>   DW_AT_decl_column : 18
    <f7e>   DW_AT_type        : <0x558>
    <f82>   DW_AT_location    : 3 byte block: 91 e0 7d 	(DW_OP_fbreg: -288)
 <2><f86>: Abbrev Number: 48 (DW_TAG_lexical_block)
    <f87>   DW_AT_low_pc      : 0x7988
    <f8f>   DW_AT_high_pc     : 0x74
 <3><f97>: Abbrev Number: 47 (DW_TAG_variable)
    <f98>   DW_AT_name        : j
    <f9a>   DW_AT_decl_file   : 2
    <f9b>   DW_AT_decl_line   : 2455
    <f9d>   DW_AT_decl_column : 21
    <f9e>   DW_AT_type        : <0xc2>
    <fa2>   DW_AT_location    : 3 byte block: 91 d8 7d 	(DW_OP_fbreg: -296)
 <3><fa6>: Abbrev Number: 48 (DW_TAG_lexical_block)
    <fa7>   DW_AT_low_pc      : 0x7994
    <faf>   DW_AT_high_pc     : 0x52
 <4><fb7>: Abbrev Number: 47 (DW_TAG_variable)
    <fb8>   DW_AT_name        : k
    <fba>   DW_AT_decl_file   : 2
    <fbb>   DW_AT_decl_line   : 2456
    <fbd>   DW_AT_decl_column : 23
    <fbe>   DW_AT_type        : <0xc2>
    <fc2>   DW_AT_location    : 3 byte block: 91 dc 7d 	(DW_OP_fbreg: -292)
 <4><fc6>: Abbrev Number: 0
 <3><fc7>: Abbrev Number: 0
 <2><fc8>: Abbrev Number: 0
 <1><fc9>: Abbrev Number: 52 (DW_TAG_subprogram)
    <fca>   DW_AT_name        : (indirect string, offset: 0x8f9): print_uintmaxes
    <fce>   DW_AT_decl_file   : 2
    <fcf>   DW_AT_decl_line   : 2426
    <fd1>   DW_AT_decl_column : 1
    <fd2>   DW_AT_prototyped  : 1
    <fd2>   DW_AT_low_pc      : 0x7798
    <fda>   DW_AT_high_pc     : 0x181
    <fe2>   DW_AT_frame_base  : 1 byte block: 9c 	(DW_OP_call_frame_cfa)
    <fe4>   DW_AT_GNU_all_tail_call_sites: 1
    <fe4>   DW_AT_sibling     : <0x10be>
 <2><fe8>: Abbrev Number: 53 (DW_TAG_formal_parameter)
    <fe9>   DW_AT_name        : t1
    <fec>   DW_AT_decl_file   : 2
    <fed>   DW_AT_decl_line   : 2426
    <fef>   DW_AT_decl_column : 28
    <ff0>   DW_AT_type        : <0x433>
    <ff4>   DW_AT_location    : 3 byte block: 91 a8 7f 	(DW_OP_fbreg: -88)
 <2><ff8>: Abbrev Number: 53 (DW_TAG_formal_parameter)
    <ff9>   DW_AT_name        : t0
    <ffc>   DW_AT_decl_file   : 2
    <ffd>   DW_AT_decl_line   : 2426
    <fff>   DW_AT_decl_column : 42
    <1000>   DW_AT_type        : <0x433>
    <1004>   DW_AT_location    : 3 byte block: 91 a0 7f 	(DW_OP_fbreg: -96)
 <2><1008>: Abbrev Number: 47 (DW_TAG_variable)
    <1009>   DW_AT_name        : q
    <100b>   DW_AT_decl_file   : 2
    <100c>   DW_AT_decl_line   : 2428
    <100e>   DW_AT_decl_column : 13
    <100f>   DW_AT_type        : <0x433>
    <1013>   DW_AT_location    : 2 byte block: 91 60 	(DW_OP_fbreg: -32)
 <2><1016>: Abbrev Number: 47 (DW_TAG_variable)
    <1017>   DW_AT_name        : r
    <1019>   DW_AT_decl_file   : 2
    <101a>   DW_AT_decl_line   : 2428
    <101c>   DW_AT_decl_column : 16
    <101d>   DW_AT_type        : <0x433>
    <1021>   DW_AT_location    : 2 byte block: 91 68 	(DW_OP_fbreg: -24)
 <2><1024>: Abbrev Number: 54 (DW_TAG_variable)
    <1025>   DW_AT_name        : (indirect string, offset: 0x1d0): __PRETTY_FUNCTION__
    <1029>   DW_AT_type        : <0x10ce>
    <102d>   DW_AT_artificial  : 1
    <102d>   DW_AT_location    : 9 byte block: 3 0 36 1 0 0 0 0 0 	(DW_OP_addr: 13600)
 <2><1037>: Abbrev Number: 48 (DW_TAG_lexical_block)
    <1038>   DW_AT_low_pc      : 0x7819
    <1040>   DW_AT_high_pc     : 0xd9
 <3><1048>: Abbrev Number: 30 (DW_TAG_variable)
    <1049>   DW_AT_name        : (indirect string, offset: 0x566): __d1
    <104d>   DW_AT_decl_file   : 2
    <104e>   DW_AT_decl_line   : 2438
    <1050>   DW_AT_decl_column : 7
    <1051>   DW_AT_type        : <0x433>
    <1055>   DW_AT_location    : 3 byte block: 91 b8 7f 	(DW_OP_fbreg: -72)
 <3><1059>: Abbrev Number: 30 (DW_TAG_variable)
    <105a>   DW_AT_name        : (indirect string, offset: 0x561): __d0
    <105e>   DW_AT_decl_file   : 2
    <105f>   DW_AT_decl_line   : 2438
    <1061>   DW_AT_decl_column : 7
    <1062>   DW_AT_type        : <0x433>
    <1066>   DW_AT_location    : 2 byte block: 91 40 	(DW_OP_fbreg: -64)
 <3><1069>: Abbrev Number: 47 (DW_TAG_variable)
    <106a>   DW_AT_name        : __q
    <106e>   DW_AT_decl_file   : 2
    <106f>   DW_AT_decl_line   : 2438
    <1071>   DW_AT_decl_column : 7
    <1072>   DW_AT_type        : <0x433>
    <1076>   DW_AT_location    : 2 byte block: 91 48 	(DW_OP_fbreg: -56)
 <3><1079>: Abbrev Number: 30 (DW_TAG_variable)
    <107a>   DW_AT_name        : (indirect string, offset: 0x9ea): __r1
    <107e>   DW_AT_decl_file   : 2
    <107f>   DW_AT_decl_line   : 2438
    <1081>   DW_AT_decl_column : 7
    <1082>   DW_AT_type        : <0x433>
    <1086>   DW_AT_location    : 2 byte block: 91 50 	(DW_OP_fbreg: -48)
 <3><1089>: Abbrev Number: 30 (DW_TAG_variable)
    <108a>   DW_AT_name        : (indirect string, offset: 0x9e5): __r0
    <108e>   DW_AT_decl_file   : 2
    <108f>   DW_AT_decl_line   : 2438
    <1091>   DW_AT_decl_column : 7
    <1092>   DW_AT_type        : <0x433>
    <1096>   DW_AT_location    : 2 byte block: 91 58 	(DW_OP_fbreg: -40)
 <3><1099>: Abbrev Number: 48 (DW_TAG_lexical_block)
    <109a>   DW_AT_low_pc      : 0x7873
    <10a2>   DW_AT_high_pc     : 0x6f
 <4><10aa>: Abbrev Number: 47 (DW_TAG_variable)
    <10ab>   DW_AT_name        : __i
    <10af>   DW_AT_decl_file   : 2
    <10b0>   DW_AT_decl_line   : 2438
    <10b2>   DW_AT_decl_column : 7
    <10b3>   DW_AT_type        : <0xc2>
    <10b7>   DW_AT_location    : 3 byte block: 91 b4 7f 	(DW_OP_fbreg: -76)
 <4><10bb>: Abbrev Number: 0
 <3><10bc>: Abbrev Number: 0
 <2><10bd>: Abbrev Number: 0
 <1><10be>: Abbrev Number: 15 (DW_TAG_array_type)
    <10bf>   DW_AT_type        : <0x3f>
    <10c3>   DW_AT_sibling     : <0x10ce>
 <2><10c7>: Abbrev Number: 16 (DW_TAG_subrange_type)
    <10c8>   DW_AT_type        : <0xbb>
    <10cc>   DW_AT_upper_bound : 15
 <2><10cd>: Abbrev Number: 0
 <1><10ce>: Abbrev Number: 3 (DW_TAG_const_type)
    <10cf>   DW_AT_type        : <0x10be>
 <1><10d3>: Abbrev Number: 52 (DW_TAG_subprogram)
    <10d4>   DW_AT_name        : (indirect string, offset: 0x81a): lbuf_putint
    <10d8>   DW_AT_decl_file   : 2
    <10d9>   DW_AT_decl_line   : 2411
    <10db>   DW_AT_decl_column : 1
    <10dc>   DW_AT_prototyped  : 1
    <10dc>   DW_AT_low_pc      : 0x76d0
    <10e4>   DW_AT_high_pc     : 0xc8
    <10ec>   DW_AT_frame_base  : 1 byte block: 9c 	(DW_OP_call_frame_cfa)
    <10ee>   DW_AT_GNU_all_tail_call_sites: 1
    <10ee>   DW_AT_sibling     : <0x1152>
 <2><10f2>: Abbrev Number: 53 (DW_TAG_formal_parameter)
    <10f3>   DW_AT_name        : i
    <10f5>   DW_AT_decl_file   : 2
    <10f6>   DW_AT_decl_line   : 2411
    <10f8>   DW_AT_decl_column : 24
    <10f9>   DW_AT_type        : <0x433>
    <10fd>   DW_AT_location    : 3 byte block: 91 a8 7f 	(DW_OP_fbreg: -88)
 <2><1101>: Abbrev Number: 46 (DW_TAG_formal_parameter)
    <1102>   DW_AT_name        : (indirect string, offset: 0x4d): min_width
    <1106>   DW_AT_decl_file   : 2
    <1107>   DW_AT_decl_line   : 2411
    <1109>   DW_AT_decl_column : 34
    <110a>   DW_AT_type        : <0xaf>
    <110e>   DW_AT_location    : 3 byte block: 91 a0 7f 	(DW_OP_fbreg: -96)
 <2><1112>: Abbrev Number: 47 (DW_TAG_variable)
    <1113>   DW_AT_name        : buf
    <1117>   DW_AT_decl_file   : 2
    <1118>   DW_AT_decl_line   : 2413
    <111a>   DW_AT_decl_column : 8
    <111b>   DW_AT_type        : <0x1152>
    <111f>   DW_AT_location    : 2 byte block: 91 50 	(DW_OP_fbreg: -48)
 <2><1122>: Abbrev Number: 30 (DW_TAG_variable)
    <1123>   DW_AT_name        : (indirect string, offset: 0x682): umaxstr
    <1127>   DW_AT_decl_file   : 2
    <1128>   DW_AT_decl_line   : 2414
    <112a>   DW_AT_decl_column : 15
    <112b>   DW_AT_type        : <0x9e>
    <112f>   DW_AT_location    : 2 byte block: 91 40 	(DW_OP_fbreg: -64)
 <2><1132>: Abbrev Number: 30 (DW_TAG_variable)
    <1133>   DW_AT_name        : (indirect string, offset: 0x51): width
    <1137>   DW_AT_decl_file   : 2
    <1138>   DW_AT_decl_line   : 2415
    <113a>   DW_AT_decl_column : 10
    <113b>   DW_AT_type        : <0xaf>
    <113f>   DW_AT_location    : 2 byte block: 91 48 	(DW_OP_fbreg: -56)
 <2><1142>: Abbrev Number: 47 (DW_TAG_variable)
    <1143>   DW_AT_name        : z
    <1145>   DW_AT_decl_file   : 2
    <1146>   DW_AT_decl_line   : 2416
    <1148>   DW_AT_decl_column : 10
    <1149>   DW_AT_type        : <0xaf>
    <114d>   DW_AT_location    : 3 byte block: 91 b8 7f 	(DW_OP_fbreg: -72)
 <2><1151>: Abbrev Number: 0
 <1><1152>: Abbrev Number: 15 (DW_TAG_array_type)
    <1153>   DW_AT_type        : <0x38>
    <1157>   DW_AT_sibling     : <0x1162>
 <2><115b>: Abbrev Number: 16 (DW_TAG_subrange_type)
    <115c>   DW_AT_type        : <0xbb>
    <1160>   DW_AT_upper_bound : 20
 <2><1161>: Abbrev Number: 0
 <1><1162>: Abbrev Number: 52 (DW_TAG_subprogram)
    <1163>   DW_AT_name        : (indirect string, offset: 0x9d1): lbuf_putc
    <1167>   DW_AT_decl_file   : 2
    <1168>   DW_AT_decl_line   : 2373
    <116a>   DW_AT_decl_column : 1
    <116b>   DW_AT_prototyped  : 1
    <116b>   DW_AT_low_pc      : 0x75b2
    <1173>   DW_AT_high_pc     : 0x11e
    <117b>   DW_AT_frame_base  : 1 byte block: 9c 	(DW_OP_call_frame_cfa)
    <117d>   DW_AT_GNU_all_tail_call_sites: 1
    <117d>   DW_AT_sibling     : <0x11ef>
 <2><1181>: Abbrev Number: 53 (DW_TAG_formal_parameter)
    <1182>   DW_AT_name        : c
    <1184>   DW_AT_decl_file   : 2
    <1185>   DW_AT_decl_line   : 2373
    <1187>   DW_AT_decl_column : 17
    <1188>   DW_AT_type        : <0x38>
    <118c>   DW_AT_location    : 2 byte block: 91 4c 	(DW_OP_fbreg: -52)
 <2><118f>: Abbrev Number: 50 (DW_TAG_lexical_block)
    <1190>   DW_AT_ranges      : 0xf0
 <3><1194>: Abbrev Number: 30 (DW_TAG_variable)
    <1195>   DW_AT_name        : (indirect string, offset: 0x7e): buffered
    <1199>   DW_AT_decl_file   : 2
    <119a>   DW_AT_decl_line   : 2379
    <119c>   DW_AT_decl_column : 14
    <119d>   DW_AT_type        : <0xaf>
    <11a1>   DW_AT_location    : 2 byte block: 91 60 	(DW_OP_fbreg: -32)
 <3><11a4>: Abbrev Number: 30 (DW_TAG_variable)
    <11a5>   DW_AT_name        : (indirect string, offset: 0x79): line_buffered
    <11a9>   DW_AT_decl_file   : 2
    <11aa>   DW_AT_decl_line   : 2382
    <11ac>   DW_AT_decl_column : 18
    <11ad>   DW_AT_type        : <0x50>
    <11b1>   DW_AT_location    : 9 byte block: 3 14 80 1 0 0 0 0 0 	(DW_OP_addr: 18014)
 <3><11bb>: Abbrev Number: 48 (DW_TAG_lexical_block)
    <11bc>   DW_AT_low_pc      : 0x7651
    <11c4>   DW_AT_high_pc     : 0x7c
 <4><11cc>: Abbrev Number: 30 (DW_TAG_variable)
    <11cd>   DW_AT_name        : (indirect string, offset: 0xa13): tend
    <11d1>   DW_AT_decl_file   : 2
    <11d2>   DW_AT_decl_line   : 2391
    <11d4>   DW_AT_decl_column : 23
    <11d5>   DW_AT_type        : <0x9e>
    <11d9>   DW_AT_location    : 2 byte block: 91 68 	(DW_OP_fbreg: -24)
 <4><11dc>: Abbrev Number: 30 (DW_TAG_variable)
    <11dd>   DW_AT_name        : (indirect string, offset: 0x54d): tlend
    <11e1>   DW_AT_decl_file   : 2
    <11e2>   DW_AT_decl_line   : 2395
    <11e4>   DW_AT_decl_column : 17
    <11e5>   DW_AT_type        : <0x2d>
    <11e9>   DW_AT_location    : 2 byte block: 91 58 	(DW_OP_fbreg: -40)
 <4><11ec>: Abbrev Number: 0
 <3><11ed>: Abbrev Number: 0
 <2><11ee>: Abbrev Number: 0
 <1><11ef>: Abbrev Number: 52 (DW_TAG_subprogram)
    <11f0>   DW_AT_name        : (indirect string, offset: 0x66b): lbuf_flush
    <11f4>   DW_AT_decl_file   : 2
    <11f5>   DW_AT_decl_line   : 2361
    <11f7>   DW_AT_decl_column : 1
    <11f8>   DW_AT_prototyped  : 1
    <11f8>   DW_AT_low_pc      : 0x7529
    <1200>   DW_AT_high_pc     : 0x89
    <1208>   DW_AT_frame_base  : 1 byte block: 9c 	(DW_OP_call_frame_cfa)
    <120a>   DW_AT_GNU_all_tail_call_sites: 1
    <120a>   DW_AT_sibling     : <0x1230>
 <2><120e>: Abbrev Number: 30 (DW_TAG_variable)
    <120f>   DW_AT_name        : (indirect string, offset: 0x21c): size
    <1213>   DW_AT_decl_file   : 2
    <1214>   DW_AT_decl_line   : 2363
    <1216>   DW_AT_decl_column : 10
    <1217>   DW_AT_type        : <0xaf>
    <121b>   DW_AT_location    : 2 byte block: 91 58 	(DW_OP_fbreg: -40)
 <2><121e>: Abbrev Number: 55 (DW_TAG_lexical_block)
    <121f>   DW_AT_low_pc      : 0x7569
    <1227>   DW_AT_high_pc     : 0x34
 <2><122f>: Abbrev Number: 0
 <1><1230>: Abbrev Number: 56 (DW_TAG_subprogram)
    <1231>   DW_AT_name        : (indirect string, offset: 0x4b4): lbuf_alloc
    <1235>   DW_AT_decl_file   : 2
    <1236>   DW_AT_decl_line   : 2348
    <1238>   DW_AT_decl_column : 1
    <1239>   DW_AT_prototyped  : 1
    <1239>   DW_AT_low_pc      : 0x74f1
    <1241>   DW_AT_high_pc     : 0x38
    <1249>   DW_AT_frame_base  : 1 byte block: 9c 	(DW_OP_call_frame_cfa)
    <124b>   DW_AT_GNU_all_tail_call_sites: 1
 <1><124b>: Abbrev Number: 57 (DW_TAG_subprogram)
    <124c>   DW_AT_name        : (indirect string, offset: 0x7a0): strto2uintmax
    <1250>   DW_AT_decl_file   : 2
    <1251>   DW_AT_decl_line   : 2272
    <1253>   DW_AT_decl_column : 1
    <1254>   DW_AT_prototyped  : 1
    <1254>   DW_AT_type        : <0x500>
    <1258>   DW_AT_low_pc      : 0x7366
    <1260>   DW_AT_high_pc     : 0x18b
    <1268>   DW_AT_frame_base  : 1 byte block: 9c 	(DW_OP_call_frame_cfa)
    <126a>   DW_AT_GNU_all_call_sites: 1
    <126a>   DW_AT_sibling     : <0x1318>
 <2><126e>: Abbrev Number: 53 (DW_TAG_formal_parameter)
    <126f>   DW_AT_name        : hip
    <1273>   DW_AT_decl_file   : 2
    <1274>   DW_AT_decl_line   : 2272
    <1276>   DW_AT_decl_column : 27
    <1277>   DW_AT_type        : <0x1318>
    <127b>   DW_AT_location    : 3 byte block: 91 b8 7f 	(DW_OP_fbreg: -72)
 <2><127f>: Abbrev Number: 53 (DW_TAG_formal_parameter)
    <1280>   DW_AT_name        : lop
    <1284>   DW_AT_decl_file   : 2
    <1285>   DW_AT_decl_line   : 2272
    <1287>   DW_AT_decl_column : 43
    <1288>   DW_AT_type        : <0x1318>
    <128c>   DW_AT_location    : 3 byte block: 91 b0 7f 	(DW_OP_fbreg: -80)
 <2><1290>: Abbrev Number: 53 (DW_TAG_formal_parameter)
    <1291>   DW_AT_name        : s
    <1293>   DW_AT_decl_file   : 2
    <1294>   DW_AT_decl_line   : 2272
    <1296>   DW_AT_decl_column : 60
    <1297>   DW_AT_type        : <0x9e>
    <129b>   DW_AT_location    : 3 byte block: 91 a8 7f 	(DW_OP_fbreg: -88)
 <2><129f>: Abbrev Number: 30 (DW_TAG_variable)
    <12a0>   DW_AT_name        : (indirect string, offset: 0x747): lo_carry
    <12a4>   DW_AT_decl_file   : 2
    <12a5>   DW_AT_decl_line   : 2274
    <12a7>   DW_AT_decl_column : 16
    <12a8>   DW_AT_type        : <0xc2>
    <12ac>   DW_AT_location    : 2 byte block: 91 54 	(DW_OP_fbreg: -44)
 <2><12af>: Abbrev Number: 47 (DW_TAG_variable)
    <12b0>   DW_AT_name        : hi
    <12b3>   DW_AT_decl_file   : 2
    <12b4>   DW_AT_decl_line   : 2275
    <12b6>   DW_AT_decl_column : 13
    <12b7>   DW_AT_type        : <0x433>
    <12bb>   DW_AT_location    : 2 byte block: 91 58 	(DW_OP_fbreg: -40)
 <2><12be>: Abbrev Number: 47 (DW_TAG_variable)
    <12bf>   DW_AT_name        : lo
    <12c2>   DW_AT_decl_file   : 2
    <12c3>   DW_AT_decl_line   : 2275
    <12c5>   DW_AT_decl_column : 21
    <12c6>   DW_AT_type        : <0x433>
    <12ca>   DW_AT_location    : 2 byte block: 91 60 	(DW_OP_fbreg: -32)
 <2><12cd>: Abbrev Number: 47 (DW_TAG_variable)
    <12ce>   DW_AT_name        : err
    <12d2>   DW_AT_decl_file   : 2
    <12d3>   DW_AT_decl_line   : 2277
    <12d5>   DW_AT_decl_column : 16
    <12d6>   DW_AT_type        : <0x500>
    <12da>   DW_AT_location    : 2 byte block: 91 48 	(DW_OP_fbreg: -56)
 <2><12dd>: Abbrev Number: 47 (DW_TAG_variable)
    <12de>   DW_AT_name        : p
    <12e0>   DW_AT_decl_file   : 2
    <12e1>   DW_AT_decl_line   : 2280
    <12e3>   DW_AT_decl_column : 15
    <12e4>   DW_AT_type        : <0x9e>
    <12e8>   DW_AT_location    : 2 byte block: 91 68 	(DW_OP_fbreg: -24)
 <2><12eb>: Abbrev Number: 58 (DW_TAG_lexical_block)
    <12ec>   DW_AT_ranges      : 0x90
    <12f0>   DW_AT_sibling     : <0x1303>
 <3><12f4>: Abbrev Number: 47 (DW_TAG_variable)
    <12f5>   DW_AT_name        : c
    <12f7>   DW_AT_decl_file   : 2
    <12f8>   DW_AT_decl_line   : 2283
    <12fa>   DW_AT_decl_column : 20
    <12fb>   DW_AT_type        : <0xc2>
    <12ff>   DW_AT_location    : 2 byte block: 91 4c 	(DW_OP_fbreg: -52)
 <3><1302>: Abbrev Number: 0
 <2><1303>: Abbrev Number: 50 (DW_TAG_lexical_block)
    <1304>   DW_AT_ranges      : 0xc0
 <3><1308>: Abbrev Number: 47 (DW_TAG_variable)
    <1309>   DW_AT_name        : c
    <130b>   DW_AT_decl_file   : 2
    <130c>   DW_AT_decl_line   : 2298
    <130e>   DW_AT_decl_column : 20
    <130f>   DW_AT_type        : <0xc2>
    <1313>   DW_AT_location    : 2 byte block: 91 50 	(DW_OP_fbreg: -48)
 <3><1316>: Abbrev Number: 0
 <2><1317>: Abbrev Number: 0
 <1><1318>: Abbrev Number: 2 (DW_TAG_pointer_type)
    <1319>   DW_AT_byte_size   : 8
    <131a>   DW_AT_type        : <0x433>
 <1><131e>: Abbrev Number: 52 (DW_TAG_subprogram)
    <131f>   DW_AT_name        : (indirect string, offset: 0x104): mp_factor
    <1323>   DW_AT_decl_file   : 2
    <1324>   DW_AT_decl_line   : 2252
    <1326>   DW_AT_decl_column : 1
    <1327>   DW_AT_prototyped  : 1
    <1327>   DW_AT_low_pc      : 0x7299
    <132f>   DW_AT_high_pc     : 0xcd
    <1337>   DW_AT_frame_base  : 1 byte block: 9c 	(DW_OP_call_frame_cfa)
    <1339>   DW_AT_GNU_all_tail_call_sites: 1
    <1339>   DW_AT_sibling     : <0x135c>
 <2><133d>: Abbrev Number: 53 (DW_TAG_formal_parameter)
    <133e>   DW_AT_name        : t
    <1340>   DW_AT_decl_file   : 2
    <1341>   DW_AT_decl_line   : 2252
    <1343>   DW_AT_decl_column : 18
    <1344>   DW_AT_type        : <0x401>
    <1348>   DW_AT_location    : 2 byte block: 91 68 	(DW_OP_fbreg: -24)
 <2><134b>: Abbrev Number: 46 (DW_TAG_formal_parameter)
    <134c>   DW_AT_name        : (indirect string, offset: 0x442): factors
    <1350>   DW_AT_decl_file   : 2
    <1351>   DW_AT_decl_line   : 2252
    <1353>   DW_AT_decl_column : 40
    <1354>   DW_AT_type        : <0x135c>
    <1358>   DW_AT_location    : 2 byte block: 91 60 	(DW_OP_fbreg: -32)
 <2><135b>: Abbrev Number: 0
 <1><135c>: Abbrev Number: 2 (DW_TAG_pointer_type)
    <135d>   DW_AT_byte_size   : 8
    <135e>   DW_AT_type        : <0x5c7>
 <1><1362>: Abbrev Number: 52 (DW_TAG_subprogram)
    <1363>   DW_AT_name        : (indirect string, offset: 0x107): factor
    <1367>   DW_AT_decl_file   : 2
    <1368>   DW_AT_decl_line   : 2220
    <136a>   DW_AT_decl_column : 1
    <136b>   DW_AT_prototyped  : 1
    <136b>   DW_AT_low_pc      : 0x71b6
    <1373>   DW_AT_high_pc     : 0xe3
    <137b>   DW_AT_frame_base  : 1 byte block: 9c 	(DW_OP_call_frame_cfa)
    <137d>   DW_AT_GNU_all_tail_call_sites: 1
    <137d>   DW_AT_sibling     : <0x13b0>
 <2><1381>: Abbrev Number: 53 (DW_TAG_formal_parameter)
    <1382>   DW_AT_name        : t1
    <1385>   DW_AT_decl_file   : 2
    <1386>   DW_AT_decl_line   : 2220
    <1388>   DW_AT_decl_column : 19
    <1389>   DW_AT_type        : <0x433>
    <138d>   DW_AT_location    : 2 byte block: 91 68 	(DW_OP_fbreg: -24)
 <2><1390>: Abbrev Number: 53 (DW_TAG_formal_parameter)
    <1391>   DW_AT_name        : t0
    <1394>   DW_AT_decl_file   : 2
    <1395>   DW_AT_decl_line   : 2220
    <1397>   DW_AT_decl_column : 33
    <1398>   DW_AT_type        : <0x433>
    <139c>   DW_AT_location    : 2 byte block: 91 60 	(DW_OP_fbreg: -32)
 <2><139f>: Abbrev Number: 46 (DW_TAG_formal_parameter)
    <13a0>   DW_AT_name        : (indirect string, offset: 0x442): factors
    <13a4>   DW_AT_decl_file   : 2
    <13a5>   DW_AT_decl_line   : 2220
    <13a7>   DW_AT_decl_column : 53
    <13a8>   DW_AT_type        : <0x13b0>
    <13ac>   DW_AT_location    : 2 byte block: 91 58 	(DW_OP_fbreg: -40)
 <2><13af>: Abbrev Number: 0
 <1><13b0>: Abbrev Number: 2 (DW_TAG_pointer_type)
    <13b1>   DW_AT_byte_size   : 8
    <13b2>   DW_AT_type        : <0x558>
 <1><13b6>: Abbrev Number: 52 (DW_TAG_subprogram)
    <13b7>   DW_AT_name        : (indirect string, offset: 0x338): mp_factor_using_pollard_rho
    <13bb>   DW_AT_decl_file   : 2
    <13bc>   DW_AT_decl_line   : 1668
    <13be>   DW_AT_decl_column : 1
    <13bf>   DW_AT_prototyped  : 1
    <13bf>   DW_AT_low_pc      : 0x6d29
    <13c7>   DW_AT_high_pc     : 0x48d
    <13cf>   DW_AT_frame_base  : 1 byte block: 9c 	(DW_OP_call_frame_cfa)
    <13d1>   DW_AT_GNU_all_tail_call_sites: 1
    <13d1>   DW_AT_sibling     : <0x14ae>
 <2><13d5>: Abbrev Number: 53 (DW_TAG_formal_parameter)
    <13d6>   DW_AT_name        : n
    <13d8>   DW_AT_decl_file   : 2
    <13d9>   DW_AT_decl_line   : 1668
    <13db>   DW_AT_decl_column : 36
    <13dc>   DW_AT_type        : <0x401>
    <13e0>   DW_AT_location    : 3 byte block: 91 d8 7e 	(DW_OP_fbreg: -168)
 <2><13e4>: Abbrev Number: 53 (DW_TAG_formal_parameter)
    <13e5>   DW_AT_name        : a
    <13e7>   DW_AT_decl_file   : 2
    <13e8>   DW_AT_decl_line   : 1668
    <13ea>   DW_AT_decl_column : 57
    <13eb>   DW_AT_type        : <0xbb>
    <13ef>   DW_AT_location    : 3 byte block: 91 d0 7e 	(DW_OP_fbreg: -176)
 <2><13f3>: Abbrev Number: 46 (DW_TAG_formal_parameter)
    <13f4>   DW_AT_name        : (indirect string, offset: 0x442): factors
    <13f8>   DW_AT_decl_file   : 2
    <13f9>   DW_AT_decl_line   : 1669
    <13fb>   DW_AT_decl_column : 49
    <13fc>   DW_AT_type        : <0x135c>
    <1400>   DW_AT_location    : 3 byte block: 91 c8 7e 	(DW_OP_fbreg: -184)
 <2><1404>: Abbrev Number: 47 (DW_TAG_variable)
    <1405>   DW_AT_name        : x
    <1407>   DW_AT_decl_file   : 2
    <1408>   DW_AT_decl_line   : 1671
    <140a>   DW_AT_decl_column : 9
    <140b>   DW_AT_type        : <0x3c7>
    <140f>   DW_AT_location    : 3 byte block: 91 80 7f 	(DW_OP_fbreg: -128)
 <2><1413>: Abbrev Number: 47 (DW_TAG_variable)
    <1414>   DW_AT_name        : z
    <1416>   DW_AT_decl_file   : 2
    <1417>   DW_AT_decl_line   : 1671
    <1419>   DW_AT_decl_column : 12
    <141a>   DW_AT_type        : <0x3c7>
    <141e>   DW_AT_location    : 3 byte block: 91 90 7f 	(DW_OP_fbreg: -112)
 <2><1422>: Abbrev Number: 47 (DW_TAG_variable)
    <1423>   DW_AT_name        : y
    <1425>   DW_AT_decl_file   : 2
    <1426>   DW_AT_decl_line   : 1671
    <1428>   DW_AT_decl_column : 15
    <1429>   DW_AT_type        : <0x3c7>
    <142d>   DW_AT_location    : 3 byte block: 91 a0 7f 	(DW_OP_fbreg: -96)
 <2><1431>: Abbrev Number: 47 (DW_TAG_variable)
    <1432>   DW_AT_name        : P
    <1434>   DW_AT_decl_file   : 2
    <1435>   DW_AT_decl_line   : 1671
    <1437>   DW_AT_decl_column : 18
    <1438>   DW_AT_type        : <0x3c7>
    <143c>   DW_AT_location    : 3 byte block: 91 b0 7f 	(DW_OP_fbreg: -80)
 <2><1440>: Abbrev Number: 47 (DW_TAG_variable)
    <1441>   DW_AT_name        : t
    <1443>   DW_AT_decl_file   : 2
    <1444>   DW_AT_decl_line   : 1672
    <1446>   DW_AT_decl_column : 9
    <1447>   DW_AT_type        : <0x3c7>
    <144b>   DW_AT_location    : 2 byte block: 91 40 	(DW_OP_fbreg: -64)
 <2><144e>: Abbrev Number: 47 (DW_TAG_variable)
    <144f>   DW_AT_name        : t2
    <1452>   DW_AT_decl_file   : 2
    <1453>   DW_AT_decl_line   : 1672
    <1455>   DW_AT_decl_column : 12
    <1456>   DW_AT_type        : <0x3c7>
    <145a>   DW_AT_location    : 2 byte block: 91 50 	(DW_OP_fbreg: -48)
 <2><145d>: Abbrev Number: 47 (DW_TAG_variable)
    <145e>   DW_AT_name        : k
    <1460>   DW_AT_decl_file   : 2
    <1461>   DW_AT_decl_line   : 1682
    <1463>   DW_AT_decl_column : 26
    <1464>   DW_AT_type        : <0x360>
    <1468>   DW_AT_location    : 3 byte block: 91 e8 7e 	(DW_OP_fbreg: -152)
 <2><146c>: Abbrev Number: 47 (DW_TAG_variable)
    <146d>   DW_AT_name        : l
    <146f>   DW_AT_decl_file   : 2
    <1470>   DW_AT_decl_line   : 1683
    <1472>   DW_AT_decl_column : 26
    <1473>   DW_AT_type        : <0x360>
    <1477>   DW_AT_location    : 3 byte block: 91 f0 7e 	(DW_OP_fbreg: -144)
 <2><147b>: Abbrev Number: 59 (DW_TAG_label)
    <147c>   DW_AT_name        : (indirect string, offset: 0x2f9): factor_found
    <1480>   DW_AT_decl_file   : 2
    <1481>   DW_AT_decl_line   : 1721
    <1483>   DW_AT_decl_column : 5
    <1484>   DW_AT_low_pc      : 0x6fa6
 <2><148c>: Abbrev Number: 48 (DW_TAG_lexical_block)
    <148d>   DW_AT_low_pc      : 0x6f26
    <1495>   DW_AT_high_pc     : 0x67
 <3><149d>: Abbrev Number: 47 (DW_TAG_variable)
    <149e>   DW_AT_name        : i
    <14a0>   DW_AT_decl_file   : 2
    <14a1>   DW_AT_decl_line   : 1712
    <14a3>   DW_AT_decl_column : 39
    <14a4>   DW_AT_type        : <0x360>
    <14a8>   DW_AT_location    : 3 byte block: 91 f8 7e 	(DW_OP_fbreg: -136)
 <3><14ac>: Abbrev Number: 0
 <2><14ad>: Abbrev Number: 0
 <1><14ae>: Abbrev Number: 52 (DW_TAG_subprogram)
    <14af>   DW_AT_name        : (indirect string, offset: 0x22e): factor_using_pollard_rho2
    <14b3>   DW_AT_decl_file   : 2
    <14b4>   DW_AT_decl_line   : 1544
    <14b6>   DW_AT_decl_column : 1
    <14b7>   DW_AT_prototyped  : 1
    <14b7>   DW_AT_low_pc      : 0x6135
    <14bf>   DW_AT_high_pc     : 0xbf4
    <14c7>   DW_AT_frame_base  : 1 byte block: 9c 	(DW_OP_call_frame_cfa)
    <14c9>   DW_AT_GNU_all_tail_call_sites: 1
    <14c9>   DW_AT_sibling     : <0x17e6>
 <2><14cd>: Abbrev Number: 53 (DW_TAG_formal_parameter)
    <14ce>   DW_AT_name        : n1
    <14d1>   DW_AT_decl_file   : 2
    <14d2>   DW_AT_decl_line   : 1544
    <14d4>   DW_AT_decl_column : 38
    <14d5>   DW_AT_type        : <0x433>
    <14d9>   DW_AT_location    : 3 byte block: 91 e8 7d 	(DW_OP_fbreg: -280)
 <2><14dd>: Abbrev Number: 53 (DW_TAG_formal_parameter)
    <14de>   DW_AT_name        : n0
    <14e1>   DW_AT_decl_file   : 2
    <14e2>   DW_AT_decl_line   : 1544
    <14e4>   DW_AT_decl_column : 52
    <14e5>   DW_AT_type        : <0x433>
    <14e9>   DW_AT_location    : 3 byte block: 91 e0 7d 	(DW_OP_fbreg: -288)
 <2><14ed>: Abbrev Number: 53 (DW_TAG_formal_parameter)
    <14ee>   DW_AT_name        : a
    <14f0>   DW_AT_decl_file   : 2
    <14f1>   DW_AT_decl_line   : 1544
    <14f3>   DW_AT_decl_column : 74
    <14f4>   DW_AT_type        : <0xbb>
    <14f8>   DW_AT_location    : 3 byte block: 91 d8 7d 	(DW_OP_fbreg: -296)
 <2><14fc>: Abbrev Number: 46 (DW_TAG_formal_parameter)
    <14fd>   DW_AT_name        : (indirect string, offset: 0x442): factors
    <1501>   DW_AT_decl_file   : 2
    <1502>   DW_AT_decl_line   : 1545
    <1504>   DW_AT_decl_column : 44
    <1505>   DW_AT_type        : <0x13b0>
    <1509>   DW_AT_location    : 3 byte block: 91 d0 7d 	(DW_OP_fbreg: -304)
 <2><150d>: Abbrev Number: 47 (DW_TAG_variable)
    <150e>   DW_AT_name        : x1
    <1511>   DW_AT_decl_file   : 2
    <1512>   DW_AT_decl_line   : 1547
    <1514>   DW_AT_decl_column : 13
    <1515>   DW_AT_type        : <0x433>
    <1519>   DW_AT_location    : 3 byte block: 91 f0 7d 	(DW_OP_fbreg: -272)
 <2><151d>: Abbrev Number: 47 (DW_TAG_variable)
    <151e>   DW_AT_name        : x0
    <1521>   DW_AT_decl_file   : 2
    <1522>   DW_AT_decl_line   : 1547
    <1524>   DW_AT_decl_column : 17
    <1525>   DW_AT_type        : <0x433>
    <1529>   DW_AT_location    : 3 byte block: 91 98 7e 	(DW_OP_fbreg: -232)
 <2><152d>: Abbrev Number: 47 (DW_TAG_variable)
    <152e>   DW_AT_name        : z1
    <1531>   DW_AT_decl_file   : 2
    <1532>   DW_AT_decl_line   : 1547
    <1534>   DW_AT_decl_column : 21
    <1535>   DW_AT_type        : <0x433>
    <1539>   DW_AT_location    : 3 byte block: 91 f8 7d 	(DW_OP_fbreg: -264)
 <2><153d>: Abbrev Number: 47 (DW_TAG_variable)
    <153e>   DW_AT_name        : z0
    <1541>   DW_AT_decl_file   : 2
    <1542>   DW_AT_decl_line   : 1547
    <1544>   DW_AT_decl_column : 25
    <1545>   DW_AT_type        : <0x433>
    <1549>   DW_AT_location    : 3 byte block: 91 a0 7e 	(DW_OP_fbreg: -224)
 <2><154d>: Abbrev Number: 47 (DW_TAG_variable)
    <154e>   DW_AT_name        : y1
    <1551>   DW_AT_decl_file   : 2
    <1552>   DW_AT_decl_line   : 1547
    <1554>   DW_AT_decl_column : 29
    <1555>   DW_AT_type        : <0x433>
    <1559>   DW_AT_location    : 3 byte block: 91 80 7e 	(DW_OP_fbreg: -256)
 <2><155d>: Abbrev Number: 47 (DW_TAG_variable)
    <155e>   DW_AT_name        : y0
    <1561>   DW_AT_decl_file   : 2
    <1562>   DW_AT_decl_line   : 1547
    <1564>   DW_AT_decl_column : 33
    <1565>   DW_AT_type        : <0x433>
    <1569>   DW_AT_location    : 3 byte block: 91 a8 7e 	(DW_OP_fbreg: -216)
 <2><156d>: Abbrev Number: 47 (DW_TAG_variable)
    <156e>   DW_AT_name        : P1
    <1571>   DW_AT_decl_file   : 2
    <1572>   DW_AT_decl_line   : 1547
    <1574>   DW_AT_decl_column : 37
    <1575>   DW_AT_type        : <0x433>
    <1579>   DW_AT_location    : 3 byte block: 91 b0 7e 	(DW_OP_fbreg: -208)
 <2><157d>: Abbrev Number: 47 (DW_TAG_variable)
    <157e>   DW_AT_name        : P0
    <1581>   DW_AT_decl_file   : 2
    <1582>   DW_AT_decl_line   : 1547
    <1584>   DW_AT_decl_column : 41
    <1585>   DW_AT_type        : <0x433>
    <1589>   DW_AT_location    : 3 byte block: 91 b8 7e 	(DW_OP_fbreg: -200)
 <2><158d>: Abbrev Number: 47 (DW_TAG_variable)
    <158e>   DW_AT_name        : t1
    <1591>   DW_AT_decl_file   : 2
    <1592>   DW_AT_decl_line   : 1547
    <1594>   DW_AT_decl_column : 45
    <1595>   DW_AT_type        : <0x433>
    <1599>   DW_AT_location    : 3 byte block: 91 c0 7e 	(DW_OP_fbreg: -192)
 <2><159d>: Abbrev Number: 47 (DW_TAG_variable)
    <159e>   DW_AT_name        : t0
    <15a1>   DW_AT_decl_file   : 2
    <15a2>   DW_AT_decl_line   : 1547
    <15a4>   DW_AT_decl_column : 49
    <15a5>   DW_AT_type        : <0x433>
    <15a9>   DW_AT_location    : 3 byte block: 91 c8 7e 	(DW_OP_fbreg: -184)
 <2><15ad>: Abbrev Number: 47 (DW_TAG_variable)
    <15ae>   DW_AT_name        : ni
    <15b1>   DW_AT_decl_file   : 2
    <15b2>   DW_AT_decl_line   : 1547
    <15b4>   DW_AT_decl_column : 53
    <15b5>   DW_AT_type        : <0x433>
    <15b9>   DW_AT_location    : 3 byte block: 91 90 7f 	(DW_OP_fbreg: -112)
 <2><15bd>: Abbrev Number: 47 (DW_TAG_variable)
    <15be>   DW_AT_name        : g1
    <15c1>   DW_AT_decl_file   : 2
    <15c2>   DW_AT_decl_line   : 1547
    <15c4>   DW_AT_decl_column : 57
    <15c5>   DW_AT_type        : <0x433>
    <15c9>   DW_AT_location    : 3 byte block: 91 88 7e 	(DW_OP_fbreg: -248)
 <2><15cd>: Abbrev Number: 47 (DW_TAG_variable)
    <15ce>   DW_AT_name        : g0
    <15d1>   DW_AT_decl_file   : 2
    <15d2>   DW_AT_decl_line   : 1547
    <15d4>   DW_AT_decl_column : 61
    <15d5>   DW_AT_type        : <0x433>
    <15d9>   DW_AT_location    : 3 byte block: 91 98 7f 	(DW_OP_fbreg: -104)
 <2><15dd>: Abbrev Number: 47 (DW_TAG_variable)
    <15de>   DW_AT_name        : r1m
    <15e2>   DW_AT_decl_file   : 2
    <15e3>   DW_AT_decl_line   : 1547
    <15e5>   DW_AT_decl_column : 65
    <15e6>   DW_AT_type        : <0x433>
    <15ea>   DW_AT_location    : 3 byte block: 91 90 7e 	(DW_OP_fbreg: -240)
 <2><15ee>: Abbrev Number: 47 (DW_TAG_variable)
    <15ef>   DW_AT_name        : k
    <15f1>   DW_AT_decl_file   : 2
    <15f2>   DW_AT_decl_line   : 1549
    <15f4>   DW_AT_decl_column : 21
    <15f5>   DW_AT_type        : <0xbb>
    <15f9>   DW_AT_location    : 3 byte block: 91 d0 7e 	(DW_OP_fbreg: -176)
 <2><15fd>: Abbrev Number: 47 (DW_TAG_variable)
    <15fe>   DW_AT_name        : l
    <1600>   DW_AT_decl_file   : 2
    <1601>   DW_AT_decl_line   : 1550
    <1603>   DW_AT_decl_column : 21
    <1604>   DW_AT_type        : <0xbb>
    <1608>   DW_AT_location    : 3 byte block: 91 d8 7e 	(DW_OP_fbreg: -168)
 <2><160c>: Abbrev Number: 59 (DW_TAG_label)
    <160d>   DW_AT_name        : (indirect string, offset: 0x2f9): factor_found
    <1611>   DW_AT_decl_file   : 2
    <1612>   DW_AT_decl_line   : 1595
    <1614>   DW_AT_decl_column : 5
    <1615>   DW_AT_low_pc      : 0x6758
 <2><161d>: Abbrev Number: 60 (DW_TAG_lexical_block)
    <161e>   DW_AT_low_pc      : 0x6185
    <1626>   DW_AT_high_pc     : 0x102
    <162e>   DW_AT_sibling     : <0x1665>
 <3><1632>: Abbrev Number: 47 (DW_TAG_variable)
    <1633>   DW_AT_name        : _r1
    <1637>   DW_AT_decl_file   : 2
    <1638>   DW_AT_decl_line   : 1552
    <163a>   DW_AT_decl_column : 3
    <163b>   DW_AT_type        : <0x433>
    <163f>   DW_AT_location    : 3 byte block: 91 e0 7e 	(DW_OP_fbreg: -160)
 <3><1643>: Abbrev Number: 47 (DW_TAG_variable)
    <1644>   DW_AT_name        : _r0
    <1648>   DW_AT_decl_file   : 2
    <1649>   DW_AT_decl_line   : 1552
    <164b>   DW_AT_decl_column : 3
    <164c>   DW_AT_type        : <0x433>
    <1650>   DW_AT_location    : 3 byte block: 91 e8 7e 	(DW_OP_fbreg: -152)
 <3><1654>: Abbrev Number: 47 (DW_TAG_variable)
    <1655>   DW_AT_name        : _i
    <1658>   DW_AT_decl_file   : 2
    <1659>   DW_AT_decl_line   : 1552
    <165b>   DW_AT_decl_column : 3
    <165c>   DW_AT_type        : <0x433>
    <1660>   DW_AT_location    : 3 byte block: 91 f0 7e 	(DW_OP_fbreg: -144)
 <3><1664>: Abbrev Number: 0
 <2><1665>: Abbrev Number: 60 (DW_TAG_lexical_block)
    <1666>   DW_AT_low_pc      : 0x6348
    <166e>   DW_AT_high_pc     : 0x98
    <1676>   DW_AT_sibling     : <0x16ac>
 <3><167a>: Abbrev Number: 47 (DW_TAG_variable)
    <167b>   DW_AT_name        : __n
    <167f>   DW_AT_decl_file   : 2
    <1680>   DW_AT_decl_line   : 1559
    <1682>   DW_AT_decl_column : 7
    <1683>   DW_AT_type        : <0x433>
    <1687>   DW_AT_location    : 3 byte block: 91 80 7f 	(DW_OP_fbreg: -128)
 <3><168b>: Abbrev Number: 30 (DW_TAG_variable)
    <168c>   DW_AT_name        : (indirect string, offset: 0x6e9): __inv
    <1690>   DW_AT_decl_file   : 2
    <1691>   DW_AT_decl_line   : 1559
    <1693>   DW_AT_decl_column : 7
    <1694>   DW_AT_type        : <0x433>
    <1698>   DW_AT_location    : 3 byte block: 91 88 7f 	(DW_OP_fbreg: -120)
 <3><169c>: Abbrev Number: 61 (DW_TAG_lexical_block)
 <4><169d>: Abbrev Number: 62 (DW_TAG_variable)
    <169e>   DW_AT_name        : (indirect string, offset: 0x12e): __invbits
    <16a2>   DW_AT_decl_file   : 2
    <16a3>   DW_AT_decl_line   : 1559
    <16a5>   DW_AT_decl_column : 7
    <16a6>   DW_AT_type        : <0x50>
 <4><16aa>: Abbrev Number: 0
 <3><16ab>: Abbrev Number: 0
 <2><16ac>: Abbrev Number: 60 (DW_TAG_lexical_block)
    <16ad>   DW_AT_low_pc      : 0x6638
    <16b5>   DW_AT_high_pc     : 0xfe
    <16bd>   DW_AT_sibling     : <0x16d1>
 <3><16c1>: Abbrev Number: 47 (DW_TAG_variable)
    <16c2>   DW_AT_name        : i
    <16c4>   DW_AT_decl_file   : 2
    <16c5>   DW_AT_decl_line   : 1586
    <16c7>   DW_AT_decl_column : 34
    <16c8>   DW_AT_type        : <0xbb>
    <16cc>   DW_AT_location    : 3 byte block: 91 f8 7e 	(DW_OP_fbreg: -136)
 <3><16d0>: Abbrev Number: 0
 <2><16d1>: Abbrev Number: 60 (DW_TAG_lexical_block)
    <16d2>   DW_AT_low_pc      : 0x68ef
    <16da>   DW_AT_high_pc     : 0xff
    <16e2>   DW_AT_sibling     : <0x177f>
 <3><16e6>: Abbrev Number: 47 (DW_TAG_variable)
    <16e7>   DW_AT_name        : _di
    <16eb>   DW_AT_decl_file   : 2
    <16ec>   DW_AT_decl_line   : 1610
    <16ee>   DW_AT_decl_column : 11
    <16ef>   DW_AT_type        : <0x433>
    <16f3>   DW_AT_location    : 2 byte block: 91 48 	(DW_OP_fbreg: -56)
 <3><16f6>: Abbrev Number: 47 (DW_TAG_variable)
    <16f7>   DW_AT_name        : _q0
    <16fb>   DW_AT_decl_file   : 2
    <16fc>   DW_AT_decl_line   : 1610
    <16fe>   DW_AT_decl_column : 11
    <16ff>   DW_AT_type        : <0x433>
    <1703>   DW_AT_location    : 2 byte block: 91 50 	(DW_OP_fbreg: -48)
 <3><1706>: Abbrev Number: 60 (DW_TAG_lexical_block)
    <1707>   DW_AT_low_pc      : 0x68ef
    <170f>   DW_AT_high_pc     : 0x95
    <1717>   DW_AT_sibling     : <0x174c>
 <4><171b>: Abbrev Number: 47 (DW_TAG_variable)
    <171c>   DW_AT_name        : __n
    <1720>   DW_AT_decl_file   : 2
    <1721>   DW_AT_decl_line   : 1610
    <1723>   DW_AT_decl_column : 11
    <1724>   DW_AT_type        : <0x433>
    <1728>   DW_AT_location    : 3 byte block: 91 b8 7f 	(DW_OP_fbreg: -72)
 <4><172c>: Abbrev Number: 30 (DW_TAG_variable)
    <172d>   DW_AT_name        : (indirect string, offset: 0x6e9): __inv
    <1731>   DW_AT_decl_file   : 2
    <1732>   DW_AT_decl_line   : 1610
    <1734>   DW_AT_decl_column : 11
    <1735>   DW_AT_type        : <0x433>
    <1739>   DW_AT_location    : 2 byte block: 91 40 	(DW_OP_fbreg: -64)
 <4><173c>: Abbrev Number: 61 (DW_TAG_lexical_block)
 <5><173d>: Abbrev Number: 62 (DW_TAG_variable)
    <173e>   DW_AT_name        : (indirect string, offset: 0x12e): __invbits
    <1742>   DW_AT_decl_file   : 2
    <1743>   DW_AT_decl_line   : 1610
    <1745>   DW_AT_decl_column : 11
    <1746>   DW_AT_type        : <0x50>
 <5><174a>: Abbrev Number: 0
 <4><174b>: Abbrev Number: 0
 <3><174c>: Abbrev Number: 48 (DW_TAG_lexical_block)
    <174d>   DW_AT_low_pc      : 0x69a1
    <1755>   DW_AT_high_pc     : 0x35
 <4><175d>: Abbrev Number: 47 (DW_TAG_variable)
    <175e>   DW_AT_name        : _p1
    <1762>   DW_AT_decl_file   : 2
    <1763>   DW_AT_decl_line   : 1610
    <1765>   DW_AT_decl_column : 11
    <1766>   DW_AT_type        : <0x433>
    <176a>   DW_AT_location    : 2 byte block: 91 60 	(DW_OP_fbreg: -32)
 <4><176d>: Abbrev Number: 47 (DW_TAG_variable)
    <176e>   DW_AT_name        : _p0
    <1772>   DW_AT_decl_file   : 2
    <1773>   DW_AT_decl_line   : 1610
    <1775>   DW_AT_decl_column : 11
    <1776>   DW_AT_type        : <0x427>
    <177a>   DW_AT_location    : 2 byte block: 91 58 	(DW_OP_fbreg: -40)
 <4><177d>: Abbrev Number: 0
 <3><177e>: Abbrev Number: 0
 <2><177f>: Abbrev Number: 48 (DW_TAG_lexical_block)
    <1780>   DW_AT_low_pc      : 0x6a47
    <1788>   DW_AT_high_pc     : 0x16a
 <3><1790>: Abbrev Number: 30 (DW_TAG_variable)
    <1791>   DW_AT_name        : (indirect string, offset: 0x979): ginv
    <1795>   DW_AT_decl_file   : 2
    <1796>   DW_AT_decl_line   : 1621
    <1798>   DW_AT_decl_column : 21
    <1799>   DW_AT_type        : <0x433>
    <179d>   DW_AT_location    : 3 byte block: 91 b0 7f 	(DW_OP_fbreg: -80)
 <3><17a1>: Abbrev Number: 48 (DW_TAG_lexical_block)
    <17a2>   DW_AT_low_pc      : 0x6a97
    <17aa>   DW_AT_high_pc     : 0x95
 <4><17b2>: Abbrev Number: 47 (DW_TAG_variable)
    <17b3>   DW_AT_name        : __n
    <17b7>   DW_AT_decl_file   : 2
    <17b8>   DW_AT_decl_line   : 1633
    <17ba>   DW_AT_decl_column : 11
    <17bb>   DW_AT_type        : <0x433>
    <17bf>   DW_AT_location    : 3 byte block: 91 a0 7f 	(DW_OP_fbreg: -96)
 <4><17c3>: Abbrev Number: 30 (DW_TAG_variable)
    <17c4>   DW_AT_name        : (indirect string, offset: 0x6e9): __inv
    <17c8>   DW_AT_decl_file   : 2
    <17c9>   DW_AT_decl_line   : 1633
    <17cb>   DW_AT_decl_column : 11
    <17cc>   DW_AT_type        : <0x433>
    <17d0>   DW_AT_location    : 3 byte block: 91 a8 7f 	(DW_OP_fbreg: -88)
 <4><17d4>: Abbrev Number: 61 (DW_TAG_lexical_block)
 <5><17d5>: Abbrev Number: 62 (DW_TAG_variable)
    <17d6>   DW_AT_name        : (indirect string, offset: 0x12e): __invbits
    <17da>   DW_AT_decl_file   : 2
    <17db>   DW_AT_decl_line   : 1633
    <17dd>   DW_AT_decl_column : 11
    <17de>   DW_AT_type        : <0x50>
 <5><17e2>: Abbrev Number: 0
 <4><17e3>: Abbrev Number: 0
 <3><17e4>: Abbrev Number: 0
 <2><17e5>: Abbrev Number: 0
 <1><17e6>: Abbrev Number: 52 (DW_TAG_subprogram)
    <17e7>   DW_AT_name        : (indirect string, offset: 0x33b): factor_using_pollard_rho
    <17eb>   DW_AT_decl_file   : 2
    <17ec>   DW_AT_decl_line   : 1458
    <17ee>   DW_AT_decl_column : 1
    <17ef>   DW_AT_prototyped  : 1
    <17ef>   DW_AT_low_pc      : 0x5a9a
    <17f7>   DW_AT_high_pc     : 0x69b
    <17ff>   DW_AT_frame_base  : 1 byte block: 9c 	(DW_OP_call_frame_cfa)
    <1801>   DW_AT_GNU_all_tail_call_sites: 1
    <1801>   DW_AT_sibling     : <0x1ad4>
 <2><1805>: Abbrev Number: 53 (DW_TAG_formal_parameter)
    <1806>   DW_AT_name        : n
    <1808>   DW_AT_decl_file   : 2
    <1809>   DW_AT_decl_line   : 1458
    <180b>   DW_AT_decl_column : 37
    <180c>   DW_AT_type        : <0x433>
    <1810>   DW_AT_location    : 3 byte block: 91 98 7e 	(DW_OP_fbreg: -232)
 <2><1814>: Abbrev Number: 53 (DW_TAG_formal_parameter)
    <1815>   DW_AT_name        : a
    <1817>   DW_AT_decl_file   : 2
    <1818>   DW_AT_decl_line   : 1458
    <181a>   DW_AT_decl_column : 58
    <181b>   DW_AT_type        : <0xbb>
    <181f>   DW_AT_location    : 3 byte block: 91 90 7e 	(DW_OP_fbreg: -240)
 <2><1823>: Abbrev Number: 46 (DW_TAG_formal_parameter)
    <1824>   DW_AT_name        : (indirect string, offset: 0x442): factors
    <1828>   DW_AT_decl_file   : 2
    <1829>   DW_AT_decl_line   : 1459
    <182b>   DW_AT_decl_column : 43
    <182c>   DW_AT_type        : <0x13b0>
    <1830>   DW_AT_location    : 3 byte block: 91 88 7e 	(DW_OP_fbreg: -248)
 <2><1834>: Abbrev Number: 47 (DW_TAG_variable)
    <1835>   DW_AT_name        : x
    <1837>   DW_AT_decl_file   : 2
    <1838>   DW_AT_decl_line   : 1461
    <183a>   DW_AT_decl_column : 13
    <183b>   DW_AT_type        : <0x433>
    <183f>   DW_AT_location    : 3 byte block: 91 b0 7e 	(DW_OP_fbreg: -208)
 <2><1843>: Abbrev Number: 47 (DW_TAG_variable)
    <1844>   DW_AT_name        : z
    <1846>   DW_AT_decl_file   : 2
    <1847>   DW_AT_decl_line   : 1461
    <1849>   DW_AT_decl_column : 16
    <184a>   DW_AT_type        : <0x433>
    <184e>   DW_AT_location    : 3 byte block: 91 b8 7e 	(DW_OP_fbreg: -200)
 <2><1852>: Abbrev Number: 47 (DW_TAG_variable)
    <1853>   DW_AT_name        : y
    <1855>   DW_AT_decl_file   : 2
    <1856>   DW_AT_decl_line   : 1461
    <1858>   DW_AT_decl_column : 19
    <1859>   DW_AT_type        : <0x433>
    <185d>   DW_AT_location    : 3 byte block: 91 c0 7e 	(DW_OP_fbreg: -192)
 <2><1861>: Abbrev Number: 47 (DW_TAG_variable)
    <1862>   DW_AT_name        : P
    <1864>   DW_AT_decl_file   : 2
    <1865>   DW_AT_decl_line   : 1461
    <1867>   DW_AT_decl_column : 22
    <1868>   DW_AT_type        : <0x433>
    <186c>   DW_AT_location    : 3 byte block: 91 c8 7e 	(DW_OP_fbreg: -184)
 <2><1870>: Abbrev Number: 47 (DW_TAG_variable)
    <1871>   DW_AT_name        : t
    <1873>   DW_AT_decl_file   : 2
    <1874>   DW_AT_decl_line   : 1461
    <1876>   DW_AT_decl_column : 25
    <1877>   DW_AT_type        : <0x433>
    <187b>   DW_AT_location    : 2 byte block: 91 48 	(DW_OP_fbreg: -56)
 <2><187e>: Abbrev Number: 47 (DW_TAG_variable)
    <187f>   DW_AT_name        : ni
    <1882>   DW_AT_decl_file   : 2
    <1883>   DW_AT_decl_line   : 1461
    <1885>   DW_AT_decl_column : 28
    <1886>   DW_AT_type        : <0x433>
    <188a>   DW_AT_location    : 3 byte block: 91 b0 7f 	(DW_OP_fbreg: -80)
 <2><188e>: Abbrev Number: 47 (DW_TAG_variable)
    <188f>   DW_AT_name        : g
    <1891>   DW_AT_decl_file   : 2
    <1892>   DW_AT_decl_line   : 1461
    <1894>   DW_AT_decl_column : 32
    <1895>   DW_AT_type        : <0x433>
    <1899>   DW_AT_location    : 2 byte block: 91 60 	(DW_OP_fbreg: -32)
 <2><189c>: Abbrev Number: 47 (DW_TAG_variable)
    <189d>   DW_AT_name        : k
    <189f>   DW_AT_decl_file   : 2
    <18a0>   DW_AT_decl_line   : 1463
    <18a2>   DW_AT_decl_column : 21
    <18a3>   DW_AT_type        : <0xbb>
    <18a7>   DW_AT_location    : 3 byte block: 91 d0 7e 	(DW_OP_fbreg: -176)
 <2><18ab>: Abbrev Number: 47 (DW_TAG_variable)
    <18ac>   DW_AT_name        : l
    <18ae>   DW_AT_decl_file   : 2
    <18af>   DW_AT_decl_line   : 1464
    <18b1>   DW_AT_decl_column : 21
    <18b2>   DW_AT_type        : <0xbb>
    <18b6>   DW_AT_location    : 3 byte block: 91 d8 7e 	(DW_OP_fbreg: -168)
 <2><18ba>: Abbrev Number: 54 (DW_TAG_variable)
    <18bb>   DW_AT_name        : (indirect string, offset: 0x1d0): __PRETTY_FUNCTION__
    <18bf>   DW_AT_type        : <0x1ae4>
    <18c3>   DW_AT_artificial  : 1
    <18c3>   DW_AT_location    : 9 byte block: 3 e0 35 1 0 0 0 0 0 	(DW_OP_addr: 135e0)
 <2><18cd>: Abbrev Number: 59 (DW_TAG_label)
    <18ce>   DW_AT_name        : (indirect string, offset: 0x2f9): factor_found
    <18d2>   DW_AT_decl_file   : 2
    <18d3>   DW_AT_decl_line   : 1506
    <18d5>   DW_AT_decl_column : 5
    <18d6>   DW_AT_low_pc      : 0x5f29
 <2><18de>: Abbrev Number: 60 (DW_TAG_lexical_block)
    <18df>   DW_AT_low_pc      : 0x5ad4
    <18e7>   DW_AT_high_pc     : 0x10d
    <18ef>   DW_AT_sibling     : <0x198f>
 <3><18f3>: Abbrev Number: 30 (DW_TAG_variable)
    <18f4>   DW_AT_name        : (indirect string, offset: 0x3d0): _redcify_q
    <18f8>   DW_AT_decl_file   : 2
    <18f9>   DW_AT_decl_line   : 1466
    <18fb>   DW_AT_decl_column : 3
    <18fc>   DW_AT_type        : <0x433>
    <1900>   DW_AT_location    : 3 byte block: 91 90 7f 	(DW_OP_fbreg: -112)
 <3><1904>: Abbrev Number: 48 (DW_TAG_lexical_block)
    <1905>   DW_AT_low_pc      : 0x5ad4
    <190d>   DW_AT_high_pc     : 0x10d
 <4><1915>: Abbrev Number: 30 (DW_TAG_variable)
    <1916>   DW_AT_name        : (indirect string, offset: 0x566): __d1
    <191a>   DW_AT_decl_file   : 2
    <191b>   DW_AT_decl_line   : 1466
    <191d>   DW_AT_decl_column : 3
    <191e>   DW_AT_type        : <0x433>
    <1922>   DW_AT_location    : 3 byte block: 91 e0 7e 	(DW_OP_fbreg: -160)
 <4><1926>: Abbrev Number: 30 (DW_TAG_variable)
    <1927>   DW_AT_name        : (indirect string, offset: 0x561): __d0
    <192b>   DW_AT_decl_file   : 2
    <192c>   DW_AT_decl_line   : 1466
    <192e>   DW_AT_decl_column : 3
    <192f>   DW_AT_type        : <0x433>
    <1933>   DW_AT_location    : 3 byte block: 91 e8 7e 	(DW_OP_fbreg: -152)
 <4><1937>: Abbrev Number: 47 (DW_TAG_variable)
    <1938>   DW_AT_name        : __q
    <193c>   DW_AT_decl_file   : 2
    <193d>   DW_AT_decl_line   : 1466
    <193f>   DW_AT_decl_column : 3
    <1940>   DW_AT_type        : <0x433>
    <1944>   DW_AT_location    : 3 byte block: 91 f0 7e 	(DW_OP_fbreg: -144)
 <4><1948>: Abbrev Number: 30 (DW_TAG_variable)
    <1949>   DW_AT_name        : (indirect string, offset: 0x9ea): __r1
    <194d>   DW_AT_decl_file   : 2
    <194e>   DW_AT_decl_line   : 1466
    <1950>   DW_AT_decl_column : 3
    <1951>   DW_AT_type        : <0x433>
    <1955>   DW_AT_location    : 3 byte block: 91 f8 7e 	(DW_OP_fbreg: -136)
 <4><1959>: Abbrev Number: 30 (DW_TAG_variable)
    <195a>   DW_AT_name        : (indirect string, offset: 0x9e5): __r0
    <195e>   DW_AT_decl_file   : 2
    <195f>   DW_AT_decl_line   : 1466
    <1961>   DW_AT_decl_column : 3
    <1962>   DW_AT_type        : <0x433>
    <1966>   DW_AT_location    : 3 byte block: 91 80 7f 	(DW_OP_fbreg: -128)
 <4><196a>: Abbrev Number: 48 (DW_TAG_lexical_block)
    <196b>   DW_AT_low_pc      : 0x5b37
    <1973>   DW_AT_high_pc     : 0x97
 <5><197b>: Abbrev Number: 47 (DW_TAG_variable)
    <197c>   DW_AT_name        : __i
    <1980>   DW_AT_decl_file   : 2
    <1981>   DW_AT_decl_line   : 1466
    <1983>   DW_AT_decl_column : 3
    <1984>   DW_AT_type        : <0xc2>
    <1988>   DW_AT_location    : 3 byte block: 91 ac 7e 	(DW_OP_fbreg: -212)
 <5><198c>: Abbrev Number: 0
 <4><198d>: Abbrev Number: 0
 <3><198e>: Abbrev Number: 0
 <2><198f>: Abbrev Number: 60 (DW_TAG_lexical_block)
    <1990>   DW_AT_low_pc      : 0x5be1
    <1998>   DW_AT_high_pc     : 0x52
    <19a0>   DW_AT_sibling     : <0x19b5>
 <3><19a4>: Abbrev Number: 47 (DW_TAG_variable)
    <19a5>   DW_AT_name        : _t
    <19a8>   DW_AT_decl_file   : 2
    <19a9>   DW_AT_decl_line   : 1467
    <19ab>   DW_AT_decl_column : 3
    <19ac>   DW_AT_type        : <0x433>
    <19b0>   DW_AT_location    : 3 byte block: 91 98 7f 	(DW_OP_fbreg: -104)
 <3><19b4>: Abbrev Number: 0
 <2><19b5>: Abbrev Number: 60 (DW_TAG_lexical_block)
    <19b6>   DW_AT_low_pc      : 0x5c8c
    <19be>   DW_AT_high_pc     : 0x98
    <19c6>   DW_AT_sibling     : <0x19fc>
 <3><19ca>: Abbrev Number: 47 (DW_TAG_variable)
    <19cb>   DW_AT_name        : __n
    <19cf>   DW_AT_decl_file   : 2
    <19d0>   DW_AT_decl_line   : 1474
    <19d2>   DW_AT_decl_column : 7
    <19d3>   DW_AT_type        : <0x433>
    <19d7>   DW_AT_location    : 3 byte block: 91 a0 7f 	(DW_OP_fbreg: -96)
 <3><19db>: Abbrev Number: 30 (DW_TAG_variable)
    <19dc>   DW_AT_name        : (indirect string, offset: 0x6e9): __inv
    <19e0>   DW_AT_decl_file   : 2
    <19e1>   DW_AT_decl_line   : 1474
    <19e3>   DW_AT_decl_column : 7
    <19e4>   DW_AT_type        : <0x433>
    <19e8>   DW_AT_location    : 3 byte block: 91 a8 7f 	(DW_OP_fbreg: -88)
 <3><19ec>: Abbrev Number: 61 (DW_TAG_lexical_block)
 <4><19ed>: Abbrev Number: 62 (DW_TAG_variable)
    <19ee>   DW_AT_name        : (indirect string, offset: 0x12e): __invbits
    <19f2>   DW_AT_decl_file   : 2
    <19f3>   DW_AT_decl_line   : 1474
    <19f5>   DW_AT_decl_column : 7
    <19f6>   DW_AT_type        : <0x50>
 <4><19fa>: Abbrev Number: 0
 <3><19fb>: Abbrev Number: 0
 <2><19fc>: Abbrev Number: 60 (DW_TAG_lexical_block)
    <19fd>   DW_AT_low_pc      : 0x5d4c
    <1a05>   DW_AT_high_pc     : 0x52
    <1a0d>   DW_AT_sibling     : <0x1a22>
 <3><1a11>: Abbrev Number: 47 (DW_TAG_variable)
    <1a12>   DW_AT_name        : _t
    <1a15>   DW_AT_decl_file   : 2
    <1a16>   DW_AT_decl_line   : 1481
    <1a18>   DW_AT_decl_column : 15
    <1a19>   DW_AT_type        : <0x433>
    <1a1d>   DW_AT_location    : 3 byte block: 91 b8 7f 	(DW_OP_fbreg: -72)
 <3><1a21>: Abbrev Number: 0
 <2><1a22>: Abbrev Number: 60 (DW_TAG_lexical_block)
    <1a23>   DW_AT_low_pc      : 0x5d9e
    <1a2b>   DW_AT_high_pc     : 0x3e
    <1a33>   DW_AT_sibling     : <0x1a47>
 <3><1a37>: Abbrev Number: 47 (DW_TAG_variable)
    <1a38>   DW_AT_name        : _t
    <1a3b>   DW_AT_decl_file   : 2
    <1a3c>   DW_AT_decl_line   : 1483
    <1a3e>   DW_AT_decl_column : 15
    <1a3f>   DW_AT_type        : <0x433>
    <1a43>   DW_AT_location    : 2 byte block: 91 40 	(DW_OP_fbreg: -64)
 <3><1a46>: Abbrev Number: 0
 <2><1a47>: Abbrev Number: 60 (DW_TAG_lexical_block)
    <1a48>   DW_AT_low_pc      : 0x5e7b
    <1a50>   DW_AT_high_pc     : 0x9a
    <1a58>   DW_AT_sibling     : <0x1a8d>
 <3><1a5c>: Abbrev Number: 47 (DW_TAG_variable)
    <1a5d>   DW_AT_name        : i
    <1a5f>   DW_AT_decl_file   : 2
    <1a60>   DW_AT_decl_line   : 1498
    <1a62>   DW_AT_decl_column : 34
    <1a63>   DW_AT_type        : <0xbb>
    <1a67>   DW_AT_location    : 3 byte block: 91 88 7f 	(DW_OP_fbreg: -120)
 <3><1a6b>: Abbrev Number: 48 (DW_TAG_lexical_block)
    <1a6c>   DW_AT_low_pc      : 0x5ead
    <1a74>   DW_AT_high_pc     : 0x52
 <4><1a7c>: Abbrev Number: 47 (DW_TAG_variable)
    <1a7d>   DW_AT_name        : _t
    <1a80>   DW_AT_decl_file   : 2
    <1a81>   DW_AT_decl_line   : 1501
    <1a83>   DW_AT_decl_column : 15
    <1a84>   DW_AT_type        : <0x433>
    <1a88>   DW_AT_location    : 2 byte block: 91 68 	(DW_OP_fbreg: -24)
 <4><1a8b>: Abbrev Number: 0
 <3><1a8c>: Abbrev Number: 0
 <2><1a8d>: Abbrev Number: 60 (DW_TAG_lexical_block)
    <1a8e>   DW_AT_low_pc      : 0x5f51
    <1a96>   DW_AT_high_pc     : 0x52
    <1a9e>   DW_AT_sibling     : <0x1ab2>
 <3><1aa2>: Abbrev Number: 47 (DW_TAG_variable)
    <1aa3>   DW_AT_name        : _t
    <1aa6>   DW_AT_decl_file   : 2
    <1aa7>   DW_AT_decl_line   : 1510
    <1aa9>   DW_AT_decl_column : 11
    <1aaa>   DW_AT_type        : <0x433>
    <1aae>   DW_AT_location    : 2 byte block: 91 50 	(DW_OP_fbreg: -48)
 <3><1ab1>: Abbrev Number: 0
 <2><1ab2>: Abbrev Number: 48 (DW_TAG_lexical_block)
    <1ab3>   DW_AT_low_pc      : 0x5fa3
    <1abb>   DW_AT_high_pc     : 0x3e
 <3><1ac3>: Abbrev Number: 47 (DW_TAG_variable)
    <1ac4>   DW_AT_name        : _t
    <1ac7>   DW_AT_decl_file   : 2
    <1ac8>   DW_AT_decl_line   : 1512
    <1aca>   DW_AT_decl_column : 11
    <1acb>   DW_AT_type        : <0x433>
    <1acf>   DW_AT_location    : 2 byte block: 91 58 	(DW_OP_fbreg: -40)
 <3><1ad2>: Abbrev Number: 0
 <2><1ad3>: Abbrev Number: 0
 <1><1ad4>: Abbrev Number: 15 (DW_TAG_array_type)
    <1ad5>   DW_AT_type        : <0x3f>
    <1ad9>   DW_AT_sibling     : <0x1ae4>
 <2><1add>: Abbrev Number: 16 (DW_TAG_subrange_type)
    <1ade>   DW_AT_type        : <0xbb>
    <1ae2>   DW_AT_upper_bound : 24
 <2><1ae3>: Abbrev Number: 0
 <1><1ae4>: Abbrev Number: 3 (DW_TAG_const_type)
    <1ae5>   DW_AT_type        : <0x1ad4>
 <1><1ae9>: Abbrev Number: 49 (DW_TAG_subprogram)
    <1aea>   DW_AT_name        : (indirect string, offset: 0x143): mp_prime_p
    <1aee>   DW_AT_decl_file   : 2
    <1aef>   DW_AT_decl_line   : 1375
    <1af1>   DW_AT_decl_column : 1
    <1af2>   DW_AT_prototyped  : 1
    <1af2>   DW_AT_type        : <0x6d0>
    <1af6>   DW_AT_low_pc      : 0x578d
    <1afe>   DW_AT_high_pc     : 0x30d
    <1b06>   DW_AT_frame_base  : 1 byte block: 9c 	(DW_OP_call_frame_cfa)
    <1b08>   DW_AT_GNU_all_tail_call_sites: 1
    <1b08>   DW_AT_sibling     : <0x1be3>
 <2><1b0c>: Abbrev Number: 53 (DW_TAG_formal_parameter)
    <1b0d>   DW_AT_name        : n
    <1b0f>   DW_AT_decl_file   : 2
    <1b10>   DW_AT_decl_line   : 1375
    <1b12>   DW_AT_decl_column : 19
    <1b13>   DW_AT_type        : <0x401>
    <1b17>   DW_AT_location    : 3 byte block: 91 d8 7e 	(DW_OP_fbreg: -168)
 <2><1b1b>: Abbrev Number: 30 (DW_TAG_variable)
    <1b1c>   DW_AT_name        : (indirect string, offset: 0x5fe): is_prime
    <1b20>   DW_AT_decl_file   : 2
    <1b21>   DW_AT_decl_line   : 1377
    <1b23>   DW_AT_decl_column : 8
    <1b24>   DW_AT_type        : <0x6d0>
    <1b28>   DW_AT_location    : 3 byte block: 91 eb 7e 	(DW_OP_fbreg: -149)
 <2><1b2c>: Abbrev Number: 47 (DW_TAG_variable)
    <1b2d>   DW_AT_name        : q
    <1b2f>   DW_AT_decl_file   : 2
    <1b30>   DW_AT_decl_line   : 1378
    <1b32>   DW_AT_decl_column : 9
    <1b33>   DW_AT_type        : <0x3c7>
    <1b37>   DW_AT_location    : 3 byte block: 91 a0 7f 	(DW_OP_fbreg: -96)
 <2><1b3b>: Abbrev Number: 47 (DW_TAG_variable)
    <1b3c>   DW_AT_name        : a
    <1b3e>   DW_AT_decl_file   : 2
    <1b3f>   DW_AT_decl_line   : 1378
    <1b41>   DW_AT_decl_column : 12
    <1b42>   DW_AT_type        : <0x3c7>
    <1b46>   DW_AT_location    : 3 byte block: 91 b0 7f 	(DW_OP_fbreg: -80)
 <2><1b4a>: Abbrev Number: 47 (DW_TAG_variable)
    <1b4b>   DW_AT_name        : nm1
    <1b4f>   DW_AT_decl_file   : 2
    <1b50>   DW_AT_decl_line   : 1378
    <1b52>   DW_AT_decl_column : 15
    <1b53>   DW_AT_type        : <0x3c7>
    <1b57>   DW_AT_location    : 2 byte block: 91 40 	(DW_OP_fbreg: -64)
 <2><1b5a>: Abbrev Number: 47 (DW_TAG_variable)
    <1b5b>   DW_AT_name        : tmp
    <1b5f>   DW_AT_decl_file   : 2
    <1b60>   DW_AT_decl_line   : 1378
    <1b62>   DW_AT_decl_column : 20
    <1b63>   DW_AT_type        : <0x3c7>
    <1b67>   DW_AT_location    : 2 byte block: 91 50 	(DW_OP_fbreg: -48)
 <2><1b6a>: Abbrev Number: 30 (DW_TAG_variable)
    <1b6b>   DW_AT_name        : (indirect string, offset: 0x442): factors
    <1b6f>   DW_AT_decl_file   : 2
    <1b70>   DW_AT_decl_line   : 1379
    <1b72>   DW_AT_decl_column : 21
    <1b73>   DW_AT_type        : <0x5c7>
    <1b77>   DW_AT_location    : 3 byte block: 91 80 7f 	(DW_OP_fbreg: -128)
 <2><1b7b>: Abbrev Number: 47 (DW_TAG_variable)
    <1b7c>   DW_AT_name        : k
    <1b7e>   DW_AT_decl_file   : 2
    <1b7f>   DW_AT_decl_line   : 1394
    <1b81>   DW_AT_decl_column : 21
    <1b82>   DW_AT_type        : <0xbb>
    <1b86>   DW_AT_location    : 3 byte block: 91 f8 7e 	(DW_OP_fbreg: -136)
 <2><1b8a>: Abbrev Number: 59 (DW_TAG_label)
    <1b8b>   DW_AT_name        : (indirect string, offset: 0x121): ret2
    <1b8f>   DW_AT_decl_file   : 2
    <1b90>   DW_AT_decl_line   : 1451
    <1b92>   DW_AT_decl_column : 2
    <1b93>   DW_AT_low_pc      : 0x5a5a
 <2><1b9b>: Abbrev Number: 59 (DW_TAG_label)
    <1b9c>   DW_AT_name        : (indirect string, offset: 0x11c): ret1
    <1ba0>   DW_AT_decl_file   : 2
    <1ba1>   DW_AT_decl_line   : 1448
    <1ba3>   DW_AT_decl_column : 2
    <1ba4>   DW_AT_low_pc      : 0x5a40
 <2><1bac>: Abbrev Number: 50 (DW_TAG_lexical_block)
    <1bad>   DW_AT_ranges      : 0x60
 <3><1bb1>: Abbrev Number: 47 (DW_TAG_variable)
    <1bb2>   DW_AT_name        : r
    <1bb4>   DW_AT_decl_file   : 2
    <1bb5>   DW_AT_decl_line   : 1415
    <1bb7>   DW_AT_decl_column : 21
    <1bb8>   DW_AT_type        : <0xc2>
    <1bbc>   DW_AT_location    : 3 byte block: 91 ec 7e 	(DW_OP_fbreg: -148)
 <3><1bc0>: Abbrev Number: 48 (DW_TAG_lexical_block)
    <1bc1>   DW_AT_low_pc      : 0x5903
    <1bc9>   DW_AT_high_pc     : 0x7d
 <4><1bd1>: Abbrev Number: 47 (DW_TAG_variable)
    <1bd2>   DW_AT_name        : i
    <1bd4>   DW_AT_decl_file   : 2
    <1bd5>   DW_AT_decl_line   : 1420
    <1bd7>   DW_AT_decl_column : 34
    <1bd8>   DW_AT_type        : <0xbb>
    <1bdc>   DW_AT_location    : 3 byte block: 91 f0 7e 	(DW_OP_fbreg: -144)
 <4><1be0>: Abbrev Number: 0
 <3><1be1>: Abbrev Number: 0
 <2><1be2>: Abbrev Number: 0
 <1><1be3>: Abbrev Number: 49 (DW_TAG_subprogram)
    <1be4>   DW_AT_name        : (indirect string, offset: 0x826): prime2_p
    <1be8>   DW_AT_decl_file   : 2
    <1be9>   DW_AT_decl_line   : 1275
    <1beb>   DW_AT_decl_column : 1
    <1bec>   DW_AT_prototyped  : 1
    <1bec>   DW_AT_type        : <0x6d0>
    <1bf0>   DW_AT_low_pc      : 0x4d53
    <1bf8>   DW_AT_high_pc     : 0xa3a
    <1c00>   DW_AT_frame_base  : 1 byte block: 9c 	(DW_OP_call_frame_cfa)
    <1c02>   DW_AT_GNU_all_tail_call_sites: 1
    <1c02>   DW_AT_sibling     : <0x1f2a>
 <2><1c06>: Abbrev Number: 53 (DW_TAG_formal_parameter)
    <1c07>   DW_AT_name        : n1
    <1c0a>   DW_AT_decl_file   : 2
    <1c0b>   DW_AT_decl_line   : 1275
    <1c0d>   DW_AT_decl_column : 21
    <1c0e>   DW_AT_type        : <0x433>
    <1c12>   DW_AT_location    : 3 byte block: 91 b8 7b 	(DW_OP_fbreg: -584)
 <2><1c16>: Abbrev Number: 53 (DW_TAG_formal_parameter)
    <1c17>   DW_AT_name        : n0
    <1c1a>   DW_AT_decl_file   : 2
    <1c1b>   DW_AT_decl_line   : 1275
    <1c1d>   DW_AT_decl_column : 35
    <1c1e>   DW_AT_type        : <0x433>
    <1c22>   DW_AT_location    : 3 byte block: 91 b0 7b 	(DW_OP_fbreg: -592)
 <2><1c26>: Abbrev Number: 47 (DW_TAG_variable)
    <1c27>   DW_AT_name        : q
    <1c29>   DW_AT_decl_file   : 2
    <1c2a>   DW_AT_decl_line   : 1277
    <1c2c>   DW_AT_decl_column : 13
    <1c2d>   DW_AT_type        : <0x597>
    <1c31>   DW_AT_location    : 3 byte block: 91 f0 7c 	(DW_OP_fbreg: -400)
 <2><1c35>: Abbrev Number: 47 (DW_TAG_variable)
    <1c36>   DW_AT_name        : nm1
    <1c3a>   DW_AT_decl_file   : 2
    <1c3b>   DW_AT_decl_line   : 1277
    <1c3d>   DW_AT_decl_column : 19
    <1c3e>   DW_AT_type        : <0x597>
    <1c42>   DW_AT_location    : 3 byte block: 91 80 7d 	(DW_OP_fbreg: -384)
 <2><1c46>: Abbrev Number: 30 (DW_TAG_variable)
    <1c47>   DW_AT_name        : (indirect string, offset: 0x9ef): a_prim
    <1c4b>   DW_AT_decl_file   : 2
    <1c4c>   DW_AT_decl_line   : 1278
    <1c4e>   DW_AT_decl_column : 13
    <1c4f>   DW_AT_type        : <0x597>
    <1c53>   DW_AT_location    : 3 byte block: 91 90 7d 	(DW_OP_fbreg: -368)
 <2><1c57>: Abbrev Number: 47 (DW_TAG_variable)
    <1c58>   DW_AT_name        : one
    <1c5c>   DW_AT_decl_file   : 2
    <1c5d>   DW_AT_decl_line   : 1279
    <1c5f>   DW_AT_decl_column : 13
    <1c60>   DW_AT_type        : <0x597>
    <1c64>   DW_AT_location    : 3 byte block: 91 a0 7d 	(DW_OP_fbreg: -352)
 <2><1c68>: Abbrev Number: 47 (DW_TAG_variable)
    <1c69>   DW_AT_name        : na
    <1c6c>   DW_AT_decl_file   : 2
    <1c6d>   DW_AT_decl_line   : 1280
    <1c6f>   DW_AT_decl_column : 13
    <1c70>   DW_AT_type        : <0x597>
    <1c74>   DW_AT_location    : 3 byte block: 91 b0 7d 	(DW_OP_fbreg: -336)
 <2><1c78>: Abbrev Number: 47 (DW_TAG_variable)
    <1c79>   DW_AT_name        : ni
    <1c7c>   DW_AT_decl_file   : 2
    <1c7d>   DW_AT_decl_line   : 1281
    <1c7f>   DW_AT_decl_column : 13
    <1c80>   DW_AT_type        : <0x433>
    <1c84>   DW_AT_location    : 3 byte block: 91 a0 7c 	(DW_OP_fbreg: -480)
 <2><1c88>: Abbrev Number: 47 (DW_TAG_variable)
    <1c89>   DW_AT_name        : k
    <1c8b>   DW_AT_decl_file   : 2
    <1c8c>   DW_AT_decl_line   : 1282
    <1c8e>   DW_AT_decl_column : 16
    <1c8f>   DW_AT_type        : <0xc2>
    <1c93>   DW_AT_location    : 3 byte block: 91 d0 7b 	(DW_OP_fbreg: -560)
 <2><1c97>: Abbrev Number: 30 (DW_TAG_variable)
    <1c98>   DW_AT_name        : (indirect string, offset: 0x442): factors
    <1c9c>   DW_AT_decl_file   : 2
    <1c9d>   DW_AT_decl_line   : 1283
    <1c9f>   DW_AT_decl_column : 18
    <1ca0>   DW_AT_type        : <0x558>
    <1ca4>   DW_AT_location    : 3 byte block: 91 e0 7d 	(DW_OP_fbreg: -288)
 <2><1ca8>: Abbrev Number: 47 (DW_TAG_variable)
    <1ca9>   DW_AT_name        : a
    <1cab>   DW_AT_decl_file   : 2
    <1cac>   DW_AT_decl_line   : 1304
    <1cae>   DW_AT_decl_column : 13
    <1caf>   DW_AT_type        : <0x433>
    <1cb3>   DW_AT_location    : 3 byte block: 91 f0 7b 	(DW_OP_fbreg: -528)
 <2><1cb7>: Abbrev Number: 60 (DW_TAG_lexical_block)
    <1cb8>   DW_AT_low_pc      : 0x4e8c
    <1cc0>   DW_AT_high_pc     : 0xcb
    <1cc8>   DW_AT_sibling     : <0x1cfe>
 <3><1ccc>: Abbrev Number: 47 (DW_TAG_variable)
    <1ccd>   DW_AT_name        : __n
    <1cd1>   DW_AT_decl_file   : 2
    <1cd2>   DW_AT_decl_line   : 1305
    <1cd4>   DW_AT_decl_column : 3
    <1cd5>   DW_AT_type        : <0x433>
    <1cd9>   DW_AT_location    : 3 byte block: 91 90 7c 	(DW_OP_fbreg: -496)
 <3><1cdd>: Abbrev Number: 30 (DW_TAG_variable)
    <1cde>   DW_AT_name        : (indirect string, offset: 0x6e9): __inv
    <1ce2>   DW_AT_decl_file   : 2
    <1ce3>   DW_AT_decl_line   : 1305
    <1ce5>   DW_AT_decl_column : 3
    <1ce6>   DW_AT_type        : <0x433>
    <1cea>   DW_AT_location    : 3 byte block: 91 98 7c 	(DW_OP_fbreg: -488)
 <3><1cee>: Abbrev Number: 61 (DW_TAG_lexical_block)
 <4><1cef>: Abbrev Number: 62 (DW_TAG_variable)
    <1cf0>   DW_AT_name        : (indirect string, offset: 0x12e): __invbits
    <1cf4>   DW_AT_decl_file   : 2
    <1cf5>   DW_AT_decl_line   : 1305
    <1cf7>   DW_AT_decl_column : 3
    <1cf8>   DW_AT_type        : <0x50>
 <4><1cfc>: Abbrev Number: 0
 <3><1cfd>: Abbrev Number: 0
 <2><1cfe>: Abbrev Number: 60 (DW_TAG_lexical_block)
    <1cff>   DW_AT_low_pc      : 0x4f57
    <1d07>   DW_AT_high_pc     : 0x10e
    <1d0f>   DW_AT_sibling     : <0x1d46>
 <3><1d13>: Abbrev Number: 47 (DW_TAG_variable)
    <1d14>   DW_AT_name        : _r1
    <1d18>   DW_AT_decl_file   : 2
    <1d19>   DW_AT_decl_line   : 1306
    <1d1b>   DW_AT_decl_column : 3
    <1d1c>   DW_AT_type        : <0x433>
    <1d20>   DW_AT_location    : 3 byte block: 91 e0 7b 	(DW_OP_fbreg: -544)
 <3><1d24>: Abbrev Number: 47 (DW_TAG_variable)
    <1d25>   DW_AT_name        : _r0
    <1d29>   DW_AT_decl_file   : 2
    <1d2a>   DW_AT_decl_line   : 1306
    <1d2c>   DW_AT_decl_column : 3
    <1d2d>   DW_AT_type        : <0x433>
    <1d31>   DW_AT_location    : 3 byte block: 91 e8 7b 	(DW_OP_fbreg: -536)
 <3><1d35>: Abbrev Number: 47 (DW_TAG_variable)
    <1d36>   DW_AT_name        : _i
    <1d39>   DW_AT_decl_file   : 2
    <1d3a>   DW_AT_decl_line   : 1306
    <1d3c>   DW_AT_decl_column : 3
    <1d3d>   DW_AT_type        : <0x433>
    <1d41>   DW_AT_location    : 3 byte block: 91 d8 7b 	(DW_OP_fbreg: -552)
 <3><1d45>: Abbrev Number: 0
 <2><1d46>: Abbrev Number: 48 (DW_TAG_lexical_block)
    <1d47>   DW_AT_low_pc      : 0x517e
    <1d4f>   DW_AT_high_pc     : 0x5ce
 <3><1d57>: Abbrev Number: 47 (DW_TAG_variable)
    <1d58>   DW_AT_name        : r
    <1d5a>   DW_AT_decl_file   : 2
    <1d5b>   DW_AT_decl_line   : 1324
    <1d5d>   DW_AT_decl_column : 21
    <1d5e>   DW_AT_type        : <0xc2>
    <1d62>   DW_AT_location    : 3 byte block: 91 cc 7b 	(DW_OP_fbreg: -564)
 <3><1d66>: Abbrev Number: 48 (DW_TAG_lexical_block)
    <1d67>   DW_AT_low_pc      : 0x518d
    <1d6f>   DW_AT_high_pc     : 0x5a8
 <4><1d77>: Abbrev Number: 30 (DW_TAG_variable)
    <1d78>   DW_AT_name        : (indirect string, offset: 0x5fe): is_prime
    <1d7c>   DW_AT_decl_file   : 2
    <1d7d>   DW_AT_decl_line   : 1326
    <1d7f>   DW_AT_decl_column : 12
    <1d80>   DW_AT_type        : <0x6d0>
    <1d84>   DW_AT_location    : 3 byte block: 91 cb 7b 	(DW_OP_fbreg: -565)
 <4><1d88>: Abbrev Number: 47 (DW_TAG_variable)
    <1d89>   DW_AT_name        : e
    <1d8b>   DW_AT_decl_file   : 2
    <1d8c>   DW_AT_decl_line   : 1327
    <1d8e>   DW_AT_decl_column : 17
    <1d8f>   DW_AT_type        : <0x597>
    <1d93>   DW_AT_location    : 3 byte block: 91 c0 7d 	(DW_OP_fbreg: -320)
 <4><1d97>: Abbrev Number: 47 (DW_TAG_variable)
    <1d98>   DW_AT_name        : y
    <1d9a>   DW_AT_decl_file   : 2
    <1d9b>   DW_AT_decl_line   : 1327
    <1d9d>   DW_AT_decl_column : 23
    <1d9e>   DW_AT_type        : <0x597>
    <1da2>   DW_AT_location    : 3 byte block: 91 d0 7d 	(DW_OP_fbreg: -304)
 <4><1da6>: Abbrev Number: 60 (DW_TAG_lexical_block)
    <1da7>   DW_AT_low_pc      : 0x51b3
    <1daf>   DW_AT_high_pc     : 0x168
    <1db7>   DW_AT_sibling     : <0x1e0f>
 <5><1dbb>: Abbrev Number: 47 (DW_TAG_variable)
    <1dbc>   DW_AT_name        : pi
    <1dbf>   DW_AT_decl_file   : 2
    <1dc0>   DW_AT_decl_line   : 1334
    <1dc2>   DW_AT_decl_column : 25
    <1dc3>   DW_AT_type        : <0x433>
    <1dc7>   DW_AT_location    : 3 byte block: 91 b8 7c 	(DW_OP_fbreg: -456)
 <5><1dcb>: Abbrev Number: 48 (DW_TAG_lexical_block)
    <1dcc>   DW_AT_low_pc      : 0x51b3
    <1dd4>   DW_AT_high_pc     : 0xcb
 <6><1ddc>: Abbrev Number: 47 (DW_TAG_variable)
    <1ddd>   DW_AT_name        : __n
    <1de1>   DW_AT_decl_file   : 2
    <1de2>   DW_AT_decl_line   : 1335
    <1de4>   DW_AT_decl_column : 15
    <1de5>   DW_AT_type        : <0x433>
    <1de9>   DW_AT_location    : 3 byte block: 91 a8 7c 	(DW_OP_fbreg: -472)
 <6><1ded>: Abbrev Number: 30 (DW_TAG_variable)
    <1dee>   DW_AT_name        : (indirect string, offset: 0x6e9): __inv
    <1df2>   DW_AT_decl_file   : 2
    <1df3>   DW_AT_decl_line   : 1335
    <1df5>   DW_AT_decl_column : 15
    <1df6>   DW_AT_type        : <0x433>
    <1dfa>   DW_AT_location    : 3 byte block: 91 b0 7c 	(DW_OP_fbreg: -464)
 <6><1dfe>: Abbrev Number: 61 (DW_TAG_lexical_block)
 <7><1dff>: Abbrev Number: 62 (DW_TAG_variable)
    <1e00>   DW_AT_name        : (indirect string, offset: 0x12e): __invbits
    <1e04>   DW_AT_decl_file   : 2
    <1e05>   DW_AT_decl_line   : 1335
    <1e07>   DW_AT_decl_column : 15
    <1e08>   DW_AT_type        : <0x50>
 <7><1e0c>: Abbrev Number: 0
 <6><1e0d>: Abbrev Number: 0
 <5><1e0e>: Abbrev Number: 0
 <4><1e0f>: Abbrev Number: 60 (DW_TAG_lexical_block)
    <1e10>   DW_AT_low_pc      : 0x531b
    <1e18>   DW_AT_high_pc     : 0x27d
    <1e20>   DW_AT_sibling     : <0x1ee3>
 <5><1e24>: Abbrev Number: 47 (DW_TAG_variable)
    <1e25>   DW_AT_name        : i
    <1e27>   DW_AT_decl_file   : 2
    <1e28>   DW_AT_decl_line   : 1341
    <1e2a>   DW_AT_decl_column : 29
    <1e2b>   DW_AT_type        : <0xc2>
    <1e2f>   DW_AT_location    : 3 byte block: 91 d4 7b 	(DW_OP_fbreg: -556)
 <5><1e33>: Abbrev Number: 48 (DW_TAG_lexical_block)
    <1e34>   DW_AT_low_pc      : 0x537a
    <1e3c>   DW_AT_high_pc     : 0x17d
 <6><1e44>: Abbrev Number: 47 (DW_TAG_variable)
    <1e45>   DW_AT_name        : _di
    <1e49>   DW_AT_decl_file   : 2
    <1e4a>   DW_AT_decl_line   : 1349
    <1e4c>   DW_AT_decl_column : 17
    <1e4d>   DW_AT_type        : <0x433>
    <1e51>   DW_AT_location    : 3 byte block: 91 d0 7c 	(DW_OP_fbreg: -432)
 <6><1e55>: Abbrev Number: 47 (DW_TAG_variable)
    <1e56>   DW_AT_name        : _q0
    <1e5a>   DW_AT_decl_file   : 2
    <1e5b>   DW_AT_decl_line   : 1349
    <1e5d>   DW_AT_decl_column : 17
    <1e5e>   DW_AT_type        : <0x433>
    <1e62>   DW_AT_location    : 3 byte block: 91 d8 7c 	(DW_OP_fbreg: -424)
 <6><1e66>: Abbrev Number: 60 (DW_TAG_lexical_block)
    <1e67>   DW_AT_low_pc      : 0x537a
    <1e6f>   DW_AT_high_pc     : 0xd6
    <1e77>   DW_AT_sibling     : <0x1ead>
 <7><1e7b>: Abbrev Number: 47 (DW_TAG_variable)
    <1e7c>   DW_AT_name        : __n
    <1e80>   DW_AT_decl_file   : 2
    <1e81>   DW_AT_decl_line   : 1349
    <1e83>   DW_AT_decl_column : 17
    <1e84>   DW_AT_type        : <0x433>
    <1e88>   DW_AT_location    : 3 byte block: 91 c0 7c 	(DW_OP_fbreg: -448)
 <7><1e8c>: Abbrev Number: 30 (DW_TAG_variable)
    <1e8d>   DW_AT_name        : (indirect string, offset: 0x6e9): __inv
    <1e91>   DW_AT_decl_file   : 2
    <1e92>   DW_AT_decl_line   : 1349
    <1e94>   DW_AT_decl_column : 17
    <1e95>   DW_AT_type        : <0x433>
    <1e99>   DW_AT_location    : 3 byte block: 91 c8 7c 	(DW_OP_fbreg: -440)
 <7><1e9d>: Abbrev Number: 61 (DW_TAG_lexical_block)
 <8><1e9e>: Abbrev Number: 62 (DW_TAG_variable)
    <1e9f>   DW_AT_name        : (indirect string, offset: 0x12e): __invbits
    <1ea3>   DW_AT_decl_file   : 2
    <1ea4>   DW_AT_decl_line   : 1349
    <1ea6>   DW_AT_decl_column : 17
    <1ea7>   DW_AT_type        : <0x50>
 <8><1eab>: Abbrev Number: 0
 <7><1eac>: Abbrev Number: 0
 <6><1ead>: Abbrev Number: 48 (DW_TAG_lexical_block)
    <1eae>   DW_AT_low_pc      : 0x5487
    <1eb6>   DW_AT_high_pc     : 0x55
 <7><1ebe>: Abbrev Number: 47 (DW_TAG_variable)
    <1ebf>   DW_AT_name        : _p1
    <1ec3>   DW_AT_decl_file   : 2
    <1ec4>   DW_AT_decl_line   : 1349
    <1ec6>   DW_AT_decl_column : 17
    <1ec7>   DW_AT_type        : <0x433>
    <1ecb>   DW_AT_location    : 3 byte block: 91 e8 7c 	(DW_OP_fbreg: -408)
 <7><1ecf>: Abbrev Number: 47 (DW_TAG_variable)
    <1ed0>   DW_AT_name        : _p0
    <1ed4>   DW_AT_decl_file   : 2
    <1ed5>   DW_AT_decl_line   : 1349
    <1ed7>   DW_AT_decl_column : 17
    <1ed8>   DW_AT_type        : <0x427>
    <1edc>   DW_AT_location    : 3 byte block: 91 e0 7c 	(DW_OP_fbreg: -416)
 <7><1ee0>: Abbrev Number: 0
 <6><1ee1>: Abbrev Number: 0
 <5><1ee2>: Abbrev Number: 0
 <4><1ee3>: Abbrev Number: 48 (DW_TAG_lexical_block)
    <1ee4>   DW_AT_low_pc      : 0x55d6
    <1eec>   DW_AT_high_pc     : 0x11a
 <5><1ef4>: Abbrev Number: 47 (DW_TAG_variable)
    <1ef5>   DW_AT_name        : _r1
    <1ef9>   DW_AT_decl_file   : 2
    <1efa>   DW_AT_decl_line   : 1364
    <1efc>   DW_AT_decl_column : 7
    <1efd>   DW_AT_type        : <0x433>
    <1f01>   DW_AT_location    : 3 byte block: 91 f8 7b 	(DW_OP_fbreg: -520)
 <5><1f05>: Abbrev Number: 47 (DW_TAG_variable)
    <1f06>   DW_AT_name        : _r0
    <1f0a>   DW_AT_decl_file   : 2
    <1f0b>   DW_AT_decl_line   : 1364
    <1f0d>   DW_AT_decl_column : 7
    <1f0e>   DW_AT_type        : <0x433>
    <1f12>   DW_AT_location    : 3 byte block: 91 80 7c 	(DW_OP_fbreg: -512)
 <5><1f16>: Abbrev Number: 47 (DW_TAG_variable)
    <1f17>   DW_AT_name        : _i
    <1f1a>   DW_AT_decl_file   : 2
    <1f1b>   DW_AT_decl_line   : 1364
    <1f1d>   DW_AT_decl_column : 7
    <1f1e>   DW_AT_type        : <0x433>
    <1f22>   DW_AT_location    : 3 byte block: 91 88 7c 	(DW_OP_fbreg: -504)
 <5><1f26>: Abbrev Number: 0
 <4><1f27>: Abbrev Number: 0
 <3><1f28>: Abbrev Number: 0
 <2><1f29>: Abbrev Number: 0
 <1><1f2a>: Abbrev Number: 49 (DW_TAG_subprogram)
    <1f2b>   DW_AT_name        : (indirect string, offset: 0x146): prime_p
    <1f2f>   DW_AT_decl_file   : 2
    <1f30>   DW_AT_decl_line   : 1193
    <1f32>   DW_AT_decl_column : 1
    <1f33>   DW_AT_prototyped  : 1
    <1f33>   DW_AT_type        : <0x6d0>
    <1f37>   DW_AT_low_pc      : 0x46be
    <1f3f>   DW_AT_high_pc     : 0x695
    <1f47>   DW_AT_frame_base  : 1 byte block: 9c 	(DW_OP_call_frame_cfa)
    <1f49>   DW_AT_GNU_all_tail_call_sites: 1
    <1f49>   DW_AT_sibling     : <0x2234>
 <2><1f4d>: Abbrev Number: 53 (DW_TAG_formal_parameter)
    <1f4e>   DW_AT_name        : n
    <1f50>   DW_AT_decl_file   : 2
    <1f51>   DW_AT_decl_line   : 1193
    <1f53>   DW_AT_decl_column : 20
    <1f54>   DW_AT_type        : <0x433>
    <1f58>   DW_AT_location    : 3 byte block: 91 88 7c 	(DW_OP_fbreg: -504)
 <2><1f5c>: Abbrev Number: 47 (DW_TAG_variable)
    <1f5d>   DW_AT_name        : k
    <1f5f>   DW_AT_decl_file   : 2
    <1f60>   DW_AT_decl_line   : 1195
    <1f62>   DW_AT_decl_column : 7
    <1f63>   DW_AT_type        : <0x50>
    <1f67>   DW_AT_location    : 3 byte block: 91 9c 7c 	(DW_OP_fbreg: -484)
 <2><1f6b>: Abbrev Number: 30 (DW_TAG_variable)
    <1f6c>   DW_AT_name        : (indirect string, offset: 0x5fe): is_prime
    <1f70>   DW_AT_decl_file   : 2
    <1f71>   DW_AT_decl_line   : 1196
    <1f73>   DW_AT_decl_column : 8
    <1f74>   DW_AT_type        : <0x6d0>
    <1f78>   DW_AT_location    : 3 byte block: 91 9b 7c 	(DW_OP_fbreg: -485)
 <2><1f7c>: Abbrev Number: 30 (DW_TAG_variable)
    <1f7d>   DW_AT_name        : (indirect string, offset: 0x9ef): a_prim
    <1f81>   DW_AT_decl_file   : 2
    <1f82>   DW_AT_decl_line   : 1197
    <1f84>   DW_AT_decl_column : 13
    <1f85>   DW_AT_type        : <0x433>
    <1f89>   DW_AT_location    : 3 byte block: 91 b0 7c 	(DW_OP_fbreg: -464)
 <2><1f8d>: Abbrev Number: 47 (DW_TAG_variable)
    <1f8e>   DW_AT_name        : one
    <1f92>   DW_AT_decl_file   : 2
    <1f93>   DW_AT_decl_line   : 1197
    <1f95>   DW_AT_decl_column : 21
    <1f96>   DW_AT_type        : <0x433>
    <1f9a>   DW_AT_location    : 3 byte block: 91 b0 7d 	(DW_OP_fbreg: -336)
 <2><1f9e>: Abbrev Number: 47 (DW_TAG_variable)
    <1f9f>   DW_AT_name        : ni
    <1fa2>   DW_AT_decl_file   : 2
    <1fa3>   DW_AT_decl_line   : 1197
    <1fa5>   DW_AT_decl_column : 26
    <1fa6>   DW_AT_type        : <0x433>
    <1faa>   DW_AT_location    : 3 byte block: 91 a8 7d 	(DW_OP_fbreg: -344)
 <2><1fae>: Abbrev Number: 30 (DW_TAG_variable)
    <1faf>   DW_AT_name        : (indirect string, offset: 0x442): factors
    <1fb3>   DW_AT_decl_file   : 2
    <1fb4>   DW_AT_decl_line   : 1198
    <1fb6>   DW_AT_decl_column : 18
    <1fb7>   DW_AT_type        : <0x558>
    <1fbb>   DW_AT_location    : 3 byte block: 91 e0 7d 	(DW_OP_fbreg: -288)
 <2><1fbf>: Abbrev Number: 47 (DW_TAG_variable)
    <1fc0>   DW_AT_name        : q
    <1fc2>   DW_AT_decl_file   : 2
    <1fc3>   DW_AT_decl_line   : 1208
    <1fc5>   DW_AT_decl_column : 13
    <1fc6>   DW_AT_type        : <0x433>
    <1fca>   DW_AT_location    : 3 byte block: 91 b8 7c 	(DW_OP_fbreg: -456)
 <2><1fce>: Abbrev Number: 47 (DW_TAG_variable)
    <1fcf>   DW_AT_name        : a
    <1fd1>   DW_AT_decl_file   : 2
    <1fd2>   DW_AT_decl_line   : 1212
    <1fd4>   DW_AT_decl_column : 13
    <1fd5>   DW_AT_type        : <0x433>
    <1fd9>   DW_AT_location    : 3 byte block: 91 c0 7c 	(DW_OP_fbreg: -448)
 <2><1fdd>: Abbrev Number: 54 (DW_TAG_variable)
    <1fde>   DW_AT_name        : (indirect string, offset: 0x1d0): __PRETTY_FUNCTION__
    <1fe2>   DW_AT_type        : <0x2244>
    <1fe6>   DW_AT_artificial  : 1
    <1fe6>   DW_AT_location    : 9 byte block: 3 d8 35 1 0 0 0 0 0 	(DW_OP_addr: 135d8)
 <2><1ff0>: Abbrev Number: 60 (DW_TAG_lexical_block)
    <1ff1>   DW_AT_low_pc      : 0x4754
    <1ff9>   DW_AT_high_pc     : 0xcb
    <2001>   DW_AT_sibling     : <0x2037>
 <3><2005>: Abbrev Number: 47 (DW_TAG_variable)
    <2006>   DW_AT_name        : __n
    <200a>   DW_AT_decl_file   : 2
    <200b>   DW_AT_decl_line   : 1213
    <200d>   DW_AT_decl_column : 3
    <200e>   DW_AT_type        : <0x433>
    <2012>   DW_AT_location    : 3 byte block: 91 98 7d 	(DW_OP_fbreg: -360)
 <3><2016>: Abbrev Number: 30 (DW_TAG_variable)
    <2017>   DW_AT_name        : (indirect string, offset: 0x6e9): __inv
    <201b>   DW_AT_decl_file   : 2
    <201c>   DW_AT_decl_line   : 1213
    <201e>   DW_AT_decl_column : 3
    <201f>   DW_AT_type        : <0x433>
    <2023>   DW_AT_location    : 3 byte block: 91 a0 7d 	(DW_OP_fbreg: -352)
 <3><2027>: Abbrev Number: 61 (DW_TAG_lexical_block)
 <4><2028>: Abbrev Number: 62 (DW_TAG_variable)
    <2029>   DW_AT_name        : (indirect string, offset: 0x12e): __invbits
    <202d>   DW_AT_decl_file   : 2
    <202e>   DW_AT_decl_line   : 1213
    <2030>   DW_AT_decl_column : 3
    <2031>   DW_AT_type        : <0x50>
 <4><2035>: Abbrev Number: 0
 <3><2036>: Abbrev Number: 0
 <2><2037>: Abbrev Number: 60 (DW_TAG_lexical_block)
    <2038>   DW_AT_low_pc      : 0x481f
    <2040>   DW_AT_high_pc     : 0x13d
    <2048>   DW_AT_sibling     : <0x20e8>
 <3><204c>: Abbrev Number: 30 (DW_TAG_variable)
    <204d>   DW_AT_name        : (indirect string, offset: 0x3d0): _redcify_q
    <2051>   DW_AT_decl_file   : 2
    <2052>   DW_AT_decl_line   : 1214
    <2054>   DW_AT_decl_column : 3
    <2055>   DW_AT_type        : <0x433>
    <2059>   DW_AT_location    : 3 byte block: 91 b8 7d 	(DW_OP_fbreg: -328)
 <3><205d>: Abbrev Number: 48 (DW_TAG_lexical_block)
    <205e>   DW_AT_low_pc      : 0x481f
    <2066>   DW_AT_high_pc     : 0x13d
 <4><206e>: Abbrev Number: 30 (DW_TAG_variable)
    <206f>   DW_AT_name        : (indirect string, offset: 0x566): __d1
    <2073>   DW_AT_decl_file   : 2
    <2074>   DW_AT_decl_line   : 1214
    <2076>   DW_AT_decl_column : 3
    <2077>   DW_AT_type        : <0x433>
    <207b>   DW_AT_location    : 3 byte block: 91 c8 7c 	(DW_OP_fbreg: -440)
 <4><207f>: Abbrev Number: 30 (DW_TAG_variable)
    <2080>   DW_AT_name        : (indirect string, offset: 0x561): __d0
    <2084>   DW_AT_decl_file   : 2
    <2085>   DW_AT_decl_line   : 1214
    <2087>   DW_AT_decl_column : 3
    <2088>   DW_AT_type        : <0x433>
    <208c>   DW_AT_location    : 3 byte block: 91 d0 7c 	(DW_OP_fbreg: -432)
 <4><2090>: Abbrev Number: 47 (DW_TAG_variable)
    <2091>   DW_AT_name        : __q
    <2095>   DW_AT_decl_file   : 2
    <2096>   DW_AT_decl_line   : 1214
    <2098>   DW_AT_decl_column : 3
    <2099>   DW_AT_type        : <0x433>
    <209d>   DW_AT_location    : 3 byte block: 91 d8 7c 	(DW_OP_fbreg: -424)
 <4><20a1>: Abbrev Number: 30 (DW_TAG_variable)
    <20a2>   DW_AT_name        : (indirect string, offset: 0x9ea): __r1
    <20a6>   DW_AT_decl_file   : 2
    <20a7>   DW_AT_decl_line   : 1214
    <20a9>   DW_AT_decl_column : 3
    <20aa>   DW_AT_type        : <0x433>
    <20ae>   DW_AT_location    : 3 byte block: 91 e0 7c 	(DW_OP_fbreg: -416)
 <4><20b2>: Abbrev Number: 30 (DW_TAG_variable)
    <20b3>   DW_AT_name        : (indirect string, offset: 0x9e5): __r0
    <20b7>   DW_AT_decl_file   : 2
    <20b8>   DW_AT_decl_line   : 1214
    <20ba>   DW_AT_decl_column : 3
    <20bb>   DW_AT_type        : <0x433>
    <20bf>   DW_AT_location    : 3 byte block: 91 e8 7c 	(DW_OP_fbreg: -408)
 <4><20c3>: Abbrev Number: 48 (DW_TAG_lexical_block)
    <20c4>   DW_AT_low_pc      : 0x488b
    <20cc>   DW_AT_high_pc     : 0xb5
 <5><20d4>: Abbrev Number: 47 (DW_TAG_variable)
    <20d5>   DW_AT_name        : __i
    <20d9>   DW_AT_decl_file   : 2
    <20da>   DW_AT_decl_line   : 1214
    <20dc>   DW_AT_decl_column : 3
    <20dd>   DW_AT_type        : <0xc2>
    <20e1>   DW_AT_location    : 3 byte block: 91 a0 7c 	(DW_OP_fbreg: -480)
 <5><20e5>: Abbrev Number: 0
 <4><20e6>: Abbrev Number: 0
 <3><20e7>: Abbrev Number: 0
 <2><20e8>: Abbrev Number: 60 (DW_TAG_lexical_block)
    <20e9>   DW_AT_low_pc      : 0x495c
    <20f1>   DW_AT_high_pc     : 0x58
    <20f9>   DW_AT_sibling     : <0x210e>
 <3><20fd>: Abbrev Number: 47 (DW_TAG_variable)
    <20fe>   DW_AT_name        : _t
    <2101>   DW_AT_decl_file   : 2
    <2102>   DW_AT_decl_line   : 1215
    <2104>   DW_AT_decl_column : 3
    <2105>   DW_AT_type        : <0x433>
    <2109>   DW_AT_location    : 3 byte block: 91 c0 7d 	(DW_OP_fbreg: -320)
 <3><210d>: Abbrev Number: 0
 <2><210e>: Abbrev Number: 48 (DW_TAG_lexical_block)
    <210f>   DW_AT_low_pc      : 0x4a29
    <2117>   DW_AT_high_pc     : 0x2e9
 <3><211f>: Abbrev Number: 47 (DW_TAG_variable)
    <2120>   DW_AT_name        : r
    <2122>   DW_AT_decl_file   : 2
    <2123>   DW_AT_decl_line   : 1229
    <2125>   DW_AT_decl_column : 21
    <2126>   DW_AT_type        : <0xc2>
    <212a>   DW_AT_location    : 3 byte block: 91 a4 7c 	(DW_OP_fbreg: -476)
 <3><212e>: Abbrev Number: 60 (DW_TAG_lexical_block)
    <212f>   DW_AT_low_pc      : 0x4a4e
    <2137>   DW_AT_high_pc     : 0x93
    <213f>   DW_AT_sibling     : <0x2153>
 <4><2143>: Abbrev Number: 47 (DW_TAG_variable)
    <2144>   DW_AT_name        : i
    <2146>   DW_AT_decl_file   : 2
    <2147>   DW_AT_decl_line   : 1234
    <2149>   DW_AT_decl_column : 29
    <214a>   DW_AT_type        : <0xc2>
    <214e>   DW_AT_location    : 3 byte block: 91 a8 7c 	(DW_OP_fbreg: -472)
 <4><2152>: Abbrev Number: 0
 <3><2153>: Abbrev Number: 48 (DW_TAG_lexical_block)
    <2154>   DW_AT_low_pc      : 0x4b1f
    <215c>   DW_AT_high_pc     : 0x197
 <4><2164>: Abbrev Number: 47 (DW_TAG_variable)
    <2165>   DW_AT_name        : s1
    <2168>   DW_AT_decl_file   : 2
    <2169>   DW_AT_decl_line   : 1255
    <216b>   DW_AT_decl_column : 19
    <216c>   DW_AT_type        : <0x433>
    <2170>   DW_AT_location    : 3 byte block: 91 d0 7d 	(DW_OP_fbreg: -304)
 <4><2174>: Abbrev Number: 47 (DW_TAG_variable)
    <2175>   DW_AT_name        : s0
    <2178>   DW_AT_decl_file   : 2
    <2179>   DW_AT_decl_line   : 1255
    <217b>   DW_AT_decl_column : 23
    <217c>   DW_AT_type        : <0x433>
    <2180>   DW_AT_location    : 3 byte block: 91 c8 7d 	(DW_OP_fbreg: -312)
 <4><2184>: Abbrev Number: 48 (DW_TAG_lexical_block)
    <2185>   DW_AT_low_pc      : 0x4b6d
    <218d>   DW_AT_high_pc     : 0x149
 <5><2195>: Abbrev Number: 30 (DW_TAG_variable)
    <2196>   DW_AT_name        : (indirect string, offset: 0x814): dummy
    <219a>   DW_AT_decl_file   : 2
    <219b>   DW_AT_decl_line   : 1261
    <219d>   DW_AT_decl_column : 36
    <219e>   DW_AT_type        : <0x433>
    <21a2>   DW_AT_location    : 3 byte block: 91 d8 7d 	(DW_OP_fbreg: -296)
 <5><21a6>: Abbrev Number: 48 (DW_TAG_lexical_block)
    <21a7>   DW_AT_low_pc      : 0x4b6d
    <21af>   DW_AT_high_pc     : 0x149
 <6><21b7>: Abbrev Number: 30 (DW_TAG_variable)
    <21b8>   DW_AT_name        : (indirect string, offset: 0x566): __d1
    <21bc>   DW_AT_decl_file   : 2
    <21bd>   DW_AT_decl_line   : 1262
    <21bf>   DW_AT_decl_column : 13
    <21c0>   DW_AT_type        : <0x433>
    <21c4>   DW_AT_location    : 3 byte block: 91 f0 7c 	(DW_OP_fbreg: -400)
 <6><21c8>: Abbrev Number: 30 (DW_TAG_variable)
    <21c9>   DW_AT_name        : (indirect string, offset: 0x561): __d0
    <21cd>   DW_AT_decl_file   : 2
    <21ce>   DW_AT_decl_line   : 1262
    <21d0>   DW_AT_decl_column : 13
    <21d1>   DW_AT_type        : <0x433>
    <21d5>   DW_AT_location    : 3 byte block: 91 f8 7c 	(DW_OP_fbreg: -392)
 <6><21d9>: Abbrev Number: 47 (DW_TAG_variable)
    <21da>   DW_AT_name        : __q
    <21de>   DW_AT_decl_file   : 2
    <21df>   DW_AT_decl_line   : 1262
    <21e1>   DW_AT_decl_column : 13
    <21e2>   DW_AT_type        : <0x433>
    <21e6>   DW_AT_location    : 3 byte block: 91 80 7d 	(DW_OP_fbreg: -384)
 <6><21ea>: Abbrev Number: 30 (DW_TAG_variable)
    <21eb>   DW_AT_name        : (indirect string, offset: 0x9ea): __r1
    <21ef>   DW_AT_decl_file   : 2
    <21f0>   DW_AT_decl_line   : 1262
    <21f2>   DW_AT_decl_column : 13
    <21f3>   DW_AT_type        : <0x433>
    <21f7>   DW_AT_location    : 3 byte block: 91 88 7d 	(DW_OP_fbreg: -376)
 <6><21fb>: Abbrev Number: 30 (DW_TAG_variable)
    <21fc>   DW_AT_name        : (indirect string, offset: 0x9e5): __r0
    <2200>   DW_AT_decl_file   : 2
    <2201>   DW_AT_decl_line   : 1262
    <2203>   DW_AT_decl_column : 13
    <2204>   DW_AT_type        : <0x433>
    <2208>   DW_AT_location    : 3 byte block: 91 90 7d 	(DW_OP_fbreg: -368)
 <6><220c>: Abbrev Number: 48 (DW_TAG_lexical_block)
    <220d>   DW_AT_low_pc      : 0x4be5
    <2215>   DW_AT_high_pc     : 0xb5
 <7><221d>: Abbrev Number: 47 (DW_TAG_variable)
    <221e>   DW_AT_name        : __i
    <2222>   DW_AT_decl_file   : 2
    <2223>   DW_AT_decl_line   : 1262
    <2225>   DW_AT_decl_column : 13
    <2226>   DW_AT_type        : <0xc2>
    <222a>   DW_AT_location    : 3 byte block: 91 ac 7c 	(DW_OP_fbreg: -468)
 <7><222e>: Abbrev Number: 0
 <6><222f>: Abbrev Number: 0
 <5><2230>: Abbrev Number: 0
 <4><2231>: Abbrev Number: 0
 <3><2232>: Abbrev Number: 0
 <2><2233>: Abbrev Number: 0
 <1><2234>: Abbrev Number: 15 (DW_TAG_array_type)
    <2235>   DW_AT_type        : <0x3f>
    <2239>   DW_AT_sibling     : <0x2244>
 <2><223d>: Abbrev Number: 16 (DW_TAG_subrange_type)
    <223e>   DW_AT_type        : <0xbb>
    <2242>   DW_AT_upper_bound : 7
 <2><2243>: Abbrev Number: 0
 <1><2244>: Abbrev Number: 3 (DW_TAG_const_type)
    <2245>   DW_AT_type        : <0x2234>
 <1><2249>: Abbrev Number: 49 (DW_TAG_subprogram)
    <224a>   DW_AT_name        : (indirect string, offset: 0xda): mp_millerrabin
    <224e>   DW_AT_decl_file   : 2
    <224f>   DW_AT_decl_line   : 1171
    <2251>   DW_AT_decl_column : 1
    <2252>   DW_AT_prototyped  : 1
    <2252>   DW_AT_type        : <0x6d0>
    <2256>   DW_AT_low_pc      : 0x45d9
    <225e>   DW_AT_high_pc     : 0xe5
    <2266>   DW_AT_frame_base  : 1 byte block: 9c 	(DW_OP_call_frame_cfa)
    <2268>   DW_AT_GNU_all_tail_call_sites: 1
    <2268>   DW_AT_sibling     : <0x22e5>
 <2><226c>: Abbrev Number: 53 (DW_TAG_formal_parameter)
    <226d>   DW_AT_name        : n
    <226f>   DW_AT_decl_file   : 2
    <2270>   DW_AT_decl_line   : 1171
    <2272>   DW_AT_decl_column : 28
    <2273>   DW_AT_type        : <0x3e3>
    <2277>   DW_AT_location    : 2 byte block: 91 58 	(DW_OP_fbreg: -40)
 <2><227a>: Abbrev Number: 53 (DW_TAG_formal_parameter)
    <227b>   DW_AT_name        : nm1
    <227f>   DW_AT_decl_file   : 2
    <2280>   DW_AT_decl_line   : 1171
    <2282>   DW_AT_decl_column : 42
    <2283>   DW_AT_type        : <0x3e3>
    <2287>   DW_AT_location    : 2 byte block: 91 50 	(DW_OP_fbreg: -48)
 <2><228a>: Abbrev Number: 53 (DW_TAG_formal_parameter)
    <228b>   DW_AT_name        : x
    <228d>   DW_AT_decl_file   : 2
    <228e>   DW_AT_decl_line   : 1171
    <2290>   DW_AT_decl_column : 55
    <2291>   DW_AT_type        : <0x3f5>
    <2295>   DW_AT_location    : 2 byte block: 91 48 	(DW_OP_fbreg: -56)
 <2><2298>: Abbrev Number: 53 (DW_TAG_formal_parameter)
    <2299>   DW_AT_name        : y
    <229b>   DW_AT_decl_file   : 2
    <229c>   DW_AT_decl_line   : 1171
    <229e>   DW_AT_decl_column : 66
    <229f>   DW_AT_type        : <0x3f5>
    <22a3>   DW_AT_location    : 2 byte block: 91 40 	(DW_OP_fbreg: -64)
 <2><22a6>: Abbrev Number: 53 (DW_TAG_formal_parameter)
    <22a7>   DW_AT_name        : q
    <22a9>   DW_AT_decl_file   : 2
    <22aa>   DW_AT_decl_line   : 1172
    <22ac>   DW_AT_decl_column : 28
    <22ad>   DW_AT_type        : <0x3e3>
    <22b1>   DW_AT_location    : 3 byte block: 91 b8 7f 	(DW_OP_fbreg: -72)
 <2><22b5>: Abbrev Number: 53 (DW_TAG_formal_parameter)
    <22b6>   DW_AT_name        : k
    <22b8>   DW_AT_decl_file   : 2
    <22b9>   DW_AT_decl_line   : 1172
    <22bb>   DW_AT_decl_column : 49
    <22bc>   DW_AT_type        : <0xbb>
    <22c0>   DW_AT_location    : 3 byte block: 91 b0 7f 	(DW_OP_fbreg: -80)
 <2><22c4>: Abbrev Number: 48 (DW_TAG_lexical_block)
    <22c5>   DW_AT_low_pc      : 0x4648
    <22cd>   DW_AT_high_pc     : 0x6f
 <3><22d5>: Abbrev Number: 47 (DW_TAG_variable)
    <22d6>   DW_AT_name        : i
    <22d8>   DW_AT_decl_file   : 2
    <22d9>   DW_AT_decl_line   : 1179
    <22db>   DW_AT_decl_column : 26
    <22dc>   DW_AT_type        : <0xbb>
    <22e0>   DW_AT_location    : 2 byte block: 91 68 	(DW_OP_fbreg: -24)
 <3><22e3>: Abbrev Number: 0
 <2><22e4>: Abbrev Number: 0
 <1><22e5>: Abbrev Number: 49 (DW_TAG_subprogram)
    <22e6>   DW_AT_name        : (indirect string, offset: 0x4f1): millerrabin2
    <22ea>   DW_AT_decl_file   : 2
    <22eb>   DW_AT_decl_line   : 1141
    <22ed>   DW_AT_decl_column : 1
    <22ee>   DW_AT_prototyped  : 1
    <22ee>   DW_AT_type        : <0x6d0>
    <22f2>   DW_AT_low_pc      : 0x4440
    <22fa>   DW_AT_high_pc     : 0x199
    <2302>   DW_AT_frame_base  : 1 byte block: 9c 	(DW_OP_call_frame_cfa)
    <2304>   DW_AT_GNU_all_tail_call_sites: 1
    <2304>   DW_AT_sibling     : <0x23d8>
 <2><2308>: Abbrev Number: 53 (DW_TAG_formal_parameter)
    <2309>   DW_AT_name        : np
    <230c>   DW_AT_decl_file   : 2
    <230d>   DW_AT_decl_line   : 1141
    <230f>   DW_AT_decl_column : 32
    <2310>   DW_AT_type        : <0x23d8>
    <2314>   DW_AT_location    : 3 byte block: 91 a8 7f 	(DW_OP_fbreg: -88)
 <2><2318>: Abbrev Number: 53 (DW_TAG_formal_parameter)
    <2319>   DW_AT_name        : ni
    <231c>   DW_AT_decl_file   : 2
    <231d>   DW_AT_decl_line   : 1141
    <231f>   DW_AT_decl_column : 46
    <2320>   DW_AT_type        : <0x433>
    <2324>   DW_AT_location    : 3 byte block: 91 a0 7f 	(DW_OP_fbreg: -96)
 <2><2328>: Abbrev Number: 53 (DW_TAG_formal_parameter)
    <2329>   DW_AT_name        : bp
    <232c>   DW_AT_decl_file   : 2
    <232d>   DW_AT_decl_line   : 1141
    <232f>   DW_AT_decl_column : 67
    <2330>   DW_AT_type        : <0x23d8>
    <2334>   DW_AT_location    : 3 byte block: 91 98 7f 	(DW_OP_fbreg: -104)
 <2><2338>: Abbrev Number: 53 (DW_TAG_formal_parameter)
    <2339>   DW_AT_name        : qp
    <233c>   DW_AT_decl_file   : 2
    <233d>   DW_AT_decl_line   : 1142
    <233f>   DW_AT_decl_column : 32
    <2340>   DW_AT_type        : <0x23d8>
    <2344>   DW_AT_location    : 3 byte block: 91 90 7f 	(DW_OP_fbreg: -112)
 <2><2348>: Abbrev Number: 53 (DW_TAG_formal_parameter)
    <2349>   DW_AT_name        : k
    <234b>   DW_AT_decl_file   : 2
    <234c>   DW_AT_decl_line   : 1142
    <234e>   DW_AT_decl_column : 49
    <234f>   DW_AT_type        : <0xc2>
    <2353>   DW_AT_location    : 3 byte block: 91 8c 7f 	(DW_OP_fbreg: -116)
 <2><2357>: Abbrev Number: 53 (DW_TAG_formal_parameter)
    <2358>   DW_AT_name        : one
    <235c>   DW_AT_decl_file   : 2
    <235d>   DW_AT_decl_line   : 1142
    <235f>   DW_AT_decl_column : 69
    <2360>   DW_AT_type        : <0x23d8>
    <2364>   DW_AT_location    : 3 byte block: 91 80 7f 	(DW_OP_fbreg: -128)
 <2><2368>: Abbrev Number: 47 (DW_TAG_variable)
    <2369>   DW_AT_name        : y1
    <236c>   DW_AT_decl_file   : 2
    <236d>   DW_AT_decl_line   : 1144
    <236f>   DW_AT_decl_column : 13
    <2370>   DW_AT_type        : <0x433>
    <2374>   DW_AT_location    : 2 byte block: 91 48 	(DW_OP_fbreg: -56)
 <2><2377>: Abbrev Number: 47 (DW_TAG_variable)
    <2378>   DW_AT_name        : y0
    <237b>   DW_AT_decl_file   : 2
    <237c>   DW_AT_decl_line   : 1144
    <237e>   DW_AT_decl_column : 17
    <237f>   DW_AT_type        : <0x433>
    <2383>   DW_AT_location    : 2 byte block: 91 50 	(DW_OP_fbreg: -48)
 <2><2386>: Abbrev Number: 30 (DW_TAG_variable)
    <2387>   DW_AT_name        : (indirect string, offset: 0x65c): nm1_1
    <238b>   DW_AT_decl_file   : 2
    <238c>   DW_AT_decl_line   : 1144
    <238e>   DW_AT_decl_column : 21
    <238f>   DW_AT_type        : <0x433>
    <2393>   DW_AT_location    : 2 byte block: 91 58 	(DW_OP_fbreg: -40)
 <2><2396>: Abbrev Number: 30 (DW_TAG_variable)
    <2397>   DW_AT_name        : (indirect string, offset: 0x656): nm1_0
    <239b>   DW_AT_decl_file   : 2
    <239c>   DW_AT_decl_line   : 1144
    <239e>   DW_AT_decl_column : 28
    <239f>   DW_AT_type        : <0x433>
    <23a3>   DW_AT_location    : 2 byte block: 91 60 	(DW_OP_fbreg: -32)
 <2><23a6>: Abbrev Number: 47 (DW_TAG_variable)
    <23a7>   DW_AT_name        : r1m
    <23ab>   DW_AT_decl_file   : 2
    <23ac>   DW_AT_decl_line   : 1144
    <23ae>   DW_AT_decl_column : 35
    <23af>   DW_AT_type        : <0x433>
    <23b3>   DW_AT_location    : 2 byte block: 91 40 	(DW_OP_fbreg: -64)
 <2><23b6>: Abbrev Number: 48 (DW_TAG_lexical_block)
    <23b7>   DW_AT_low_pc      : 0x4520
    <23bf>   DW_AT_high_pc     : 0x9e
 <3><23c7>: Abbrev Number: 47 (DW_TAG_variable)
    <23c8>   DW_AT_name        : i
    <23ca>   DW_AT_decl_file   : 2
    <23cb>   DW_AT_decl_line   : 1157
    <23cd>   DW_AT_decl_column : 21
    <23ce>   DW_AT_type        : <0xc2>
    <23d2>   DW_AT_location    : 3 byte block: 91 bc 7f 	(DW_OP_fbreg: -68)
 <3><23d6>: Abbrev Number: 0
 <2><23d7>: Abbrev Number: 0
 <1><23d8>: Abbrev Number: 2 (DW_TAG_pointer_type)
    <23d9>   DW_AT_byte_size   : 8
    <23da>   DW_AT_type        : <0x43f>
 <1><23de>: Abbrev Number: 49 (DW_TAG_subprogram)
    <23df>   DW_AT_name        : (indirect string, offset: 0xdd): millerrabin
    <23e3>   DW_AT_decl_file   : 2
    <23e4>   DW_AT_decl_line   : 1118
    <23e6>   DW_AT_decl_column : 1
    <23e7>   DW_AT_prototyped  : 1
    <23e7>   DW_AT_type        : <0x6d0>
    <23eb>   DW_AT_low_pc      : 0x4378
    <23f3>   DW_AT_high_pc     : 0xc8
    <23fb>   DW_AT_frame_base  : 1 byte block: 9c 	(DW_OP_call_frame_cfa)
    <23fd>   DW_AT_GNU_all_tail_call_sites: 1
    <23fd>   DW_AT_sibling     : <0x249b>
 <2><2401>: Abbrev Number: 53 (DW_TAG_formal_parameter)
    <2402>   DW_AT_name        : n
    <2404>   DW_AT_decl_file   : 2
    <2405>   DW_AT_decl_line   : 1118
    <2407>   DW_AT_decl_column : 24
    <2408>   DW_AT_type        : <0x433>
    <240c>   DW_AT_location    : 2 byte block: 91 48 	(DW_OP_fbreg: -56)
 <2><240f>: Abbrev Number: 53 (DW_TAG_formal_parameter)
    <2410>   DW_AT_name        : ni
    <2413>   DW_AT_decl_file   : 2
    <2414>   DW_AT_decl_line   : 1118
    <2416>   DW_AT_decl_column : 37
    <2417>   DW_AT_type        : <0x433>
    <241b>   DW_AT_location    : 2 byte block: 91 40 	(DW_OP_fbreg: -64)
 <2><241e>: Abbrev Number: 53 (DW_TAG_formal_parameter)
    <241f>   DW_AT_name        : b
    <2421>   DW_AT_decl_file   : 2
    <2422>   DW_AT_decl_line   : 1118
    <2424>   DW_AT_decl_column : 51
    <2425>   DW_AT_type        : <0x433>
    <2429>   DW_AT_location    : 3 byte block: 91 b8 7f 	(DW_OP_fbreg: -72)
 <2><242d>: Abbrev Number: 53 (DW_TAG_formal_parameter)
    <242e>   DW_AT_name        : q
    <2430>   DW_AT_decl_file   : 2
    <2431>   DW_AT_decl_line   : 1118
    <2433>   DW_AT_decl_column : 64
    <2434>   DW_AT_type        : <0x433>
    <2438>   DW_AT_location    : 3 byte block: 91 b0 7f 	(DW_OP_fbreg: -80)
 <2><243c>: Abbrev Number: 53 (DW_TAG_formal_parameter)
    <243d>   DW_AT_name        : k
    <243f>   DW_AT_decl_file   : 2
    <2440>   DW_AT_decl_line   : 1119
    <2442>   DW_AT_decl_column : 27
    <2443>   DW_AT_type        : <0xc2>
    <2447>   DW_AT_location    : 3 byte block: 91 ac 7f 	(DW_OP_fbreg: -84)
 <2><244b>: Abbrev Number: 53 (DW_TAG_formal_parameter)
    <244c>   DW_AT_name        : one
    <2450>   DW_AT_decl_file   : 2
    <2451>   DW_AT_decl_line   : 1119
    <2453>   DW_AT_decl_column : 40
    <2454>   DW_AT_type        : <0x433>
    <2458>   DW_AT_location    : 3 byte block: 91 a0 7f 	(DW_OP_fbreg: -96)
 <2><245c>: Abbrev Number: 47 (DW_TAG_variable)
    <245d>   DW_AT_name        : y
    <245f>   DW_AT_decl_file   : 2
    <2460>   DW_AT_decl_line   : 1121
    <2462>   DW_AT_decl_column : 13
    <2463>   DW_AT_type        : <0x433>
    <2467>   DW_AT_location    : 2 byte block: 91 60 	(DW_OP_fbreg: -32)
 <2><246a>: Abbrev Number: 47 (DW_TAG_variable)
    <246b>   DW_AT_name        : nm1
    <246f>   DW_AT_decl_file   : 2
    <2470>   DW_AT_decl_line   : 1123
    <2472>   DW_AT_decl_column : 13
    <2473>   DW_AT_type        : <0x433>
    <2477>   DW_AT_location    : 2 byte block: 91 68 	(DW_OP_fbreg: -24)
 <2><247a>: Abbrev Number: 48 (DW_TAG_lexical_block)
    <247b>   DW_AT_low_pc      : 0x43e6
    <2483>   DW_AT_high_pc     : 0x53
 <3><248b>: Abbrev Number: 47 (DW_TAG_variable)
    <248c>   DW_AT_name        : i
    <248e>   DW_AT_decl_file   : 2
    <248f>   DW_AT_decl_line   : 1128
    <2491>   DW_AT_decl_column : 21
    <2492>   DW_AT_type        : <0xc2>
    <2496>   DW_AT_location    : 2 byte block: 91 5c 	(DW_OP_fbreg: -36)
 <3><2499>: Abbrev Number: 0
 <2><249a>: Abbrev Number: 0
 <1><249b>: Abbrev Number: 49 (DW_TAG_subprogram)
    <249c>   DW_AT_name        : (indirect string, offset: 0x909): powm2
    <24a0>   DW_AT_decl_file   : 2
    <24a1>   DW_AT_decl_line   : 1076
    <24a3>   DW_AT_decl_column : 1
    <24a4>   DW_AT_prototyped  : 1
    <24a4>   DW_AT_type        : <0x433>
    <24a8>   DW_AT_low_pc      : 0x4195
    <24b0>   DW_AT_high_pc     : 0x1e3
    <24b8>   DW_AT_frame_base  : 1 byte block: 9c 	(DW_OP_call_frame_cfa)
    <24ba>   DW_AT_GNU_all_tail_call_sites: 1
    <24ba>   DW_AT_sibling     : <0x2599>
 <2><24be>: Abbrev Number: 53 (DW_TAG_formal_parameter)
    <24bf>   DW_AT_name        : r1m
    <24c3>   DW_AT_decl_file   : 2
    <24c4>   DW_AT_decl_line   : 1076
    <24c6>   DW_AT_decl_column : 19
    <24c7>   DW_AT_type        : <0x1318>
    <24cb>   DW_AT_location    : 3 byte block: 91 a8 7f 	(DW_OP_fbreg: -88)
 <2><24cf>: Abbrev Number: 53 (DW_TAG_formal_parameter)
    <24d0>   DW_AT_name        : bp
    <24d3>   DW_AT_decl_file   : 2
    <24d4>   DW_AT_decl_line   : 1077
    <24d6>   DW_AT_decl_column : 25
    <24d7>   DW_AT_type        : <0x23d8>
    <24db>   DW_AT_location    : 3 byte block: 91 a0 7f 	(DW_OP_fbreg: -96)
 <2><24df>: Abbrev Number: 53 (DW_TAG_formal_parameter)
    <24e0>   DW_AT_name        : ep
    <24e3>   DW_AT_decl_file   : 2
    <24e4>   DW_AT_decl_line   : 1077
    <24e6>   DW_AT_decl_column : 46
    <24e7>   DW_AT_type        : <0x23d8>
    <24eb>   DW_AT_location    : 3 byte block: 91 98 7f 	(DW_OP_fbreg: -104)
 <2><24ef>: Abbrev Number: 53 (DW_TAG_formal_parameter)
    <24f0>   DW_AT_name        : np
    <24f3>   DW_AT_decl_file   : 2
    <24f4>   DW_AT_decl_line   : 1077
    <24f6>   DW_AT_decl_column : 67
    <24f7>   DW_AT_type        : <0x23d8>
    <24fb>   DW_AT_location    : 3 byte block: 91 90 7f 	(DW_OP_fbreg: -112)
 <2><24ff>: Abbrev Number: 53 (DW_TAG_formal_parameter)
    <2500>   DW_AT_name        : ni
    <2503>   DW_AT_decl_file   : 2
    <2504>   DW_AT_decl_line   : 1078
    <2506>   DW_AT_decl_column : 18
    <2507>   DW_AT_type        : <0x433>
    <250b>   DW_AT_location    : 3 byte block: 91 88 7f 	(DW_OP_fbreg: -120)
 <2><250f>: Abbrev Number: 53 (DW_TAG_formal_parameter)
    <2510>   DW_AT_name        : one
    <2514>   DW_AT_decl_file   : 2
    <2515>   DW_AT_decl_line   : 1078
    <2517>   DW_AT_decl_column : 39
    <2518>   DW_AT_type        : <0x23d8>
    <251c>   DW_AT_location    : 3 byte block: 91 80 7f 	(DW_OP_fbreg: -128)
 <2><2520>: Abbrev Number: 47 (DW_TAG_variable)
    <2521>   DW_AT_name        : r1
    <2524>   DW_AT_decl_file   : 2
    <2525>   DW_AT_decl_line   : 1080
    <2527>   DW_AT_decl_column : 13
    <2528>   DW_AT_type        : <0x433>
    <252c>   DW_AT_location    : 3 byte block: 91 b8 7f 	(DW_OP_fbreg: -72)
 <2><2530>: Abbrev Number: 47 (DW_TAG_variable)
    <2531>   DW_AT_name        : r0
    <2534>   DW_AT_decl_file   : 2
    <2535>   DW_AT_decl_line   : 1080
    <2537>   DW_AT_decl_column : 17
    <2538>   DW_AT_type        : <0x433>
    <253c>   DW_AT_location    : 2 byte block: 91 40 	(DW_OP_fbreg: -64)
 <2><253f>: Abbrev Number: 47 (DW_TAG_variable)
    <2540>   DW_AT_name        : b1
    <2543>   DW_AT_decl_file   : 2
    <2544>   DW_AT_decl_line   : 1080
    <2546>   DW_AT_decl_column : 21
    <2547>   DW_AT_type        : <0x433>
    <254b>   DW_AT_location    : 2 byte block: 91 48 	(DW_OP_fbreg: -56)
 <2><254e>: Abbrev Number: 47 (DW_TAG_variable)
    <254f>   DW_AT_name        : b0
    <2552>   DW_AT_decl_file   : 2
    <2553>   DW_AT_decl_line   : 1080
    <2555>   DW_AT_decl_column : 25
    <2556>   DW_AT_type        : <0x433>
    <255a>   DW_AT_location    : 2 byte block: 91 50 	(DW_OP_fbreg: -48)
 <2><255d>: Abbrev Number: 47 (DW_TAG_variable)
    <255e>   DW_AT_name        : n1
    <2561>   DW_AT_decl_file   : 2
    <2562>   DW_AT_decl_line   : 1080
    <2564>   DW_AT_decl_column : 29
    <2565>   DW_AT_type        : <0x433>
    <2569>   DW_AT_location    : 2 byte block: 91 68 	(DW_OP_fbreg: -24)
 <2><256c>: Abbrev Number: 47 (DW_TAG_variable)
    <256d>   DW_AT_name        : n0
    <2570>   DW_AT_decl_file   : 2
    <2571>   DW_AT_decl_line   : 1080
    <2573>   DW_AT_decl_column : 33
    <2574>   DW_AT_type        : <0x433>
    <2578>   DW_AT_location    : 2 byte block: 91 60 	(DW_OP_fbreg: -32)
 <2><257b>: Abbrev Number: 47 (DW_TAG_variable)
    <257c>   DW_AT_name        : i
    <257e>   DW_AT_decl_file   : 2
    <257f>   DW_AT_decl_line   : 1081
    <2581>   DW_AT_decl_column : 16
    <2582>   DW_AT_type        : <0xc2>
    <2586>   DW_AT_location    : 3 byte block: 91 b4 7f 	(DW_OP_fbreg: -76)
 <2><258a>: Abbrev Number: 47 (DW_TAG_variable)
    <258b>   DW_AT_name        : e
    <258d>   DW_AT_decl_file   : 2
    <258e>   DW_AT_decl_line   : 1082
    <2590>   DW_AT_decl_column : 13
    <2591>   DW_AT_type        : <0x433>
    <2595>   DW_AT_location    : 2 byte block: 91 58 	(DW_OP_fbreg: -40)
 <2><2598>: Abbrev Number: 0
 <1><2599>: Abbrev Number: 49 (DW_TAG_subprogram)
    <259a>   DW_AT_name        : (indirect string, offset: 0x80f): powm
    <259e>   DW_AT_decl_file   : 2
    <259f>   DW_AT_decl_line   : 1056
    <25a1>   DW_AT_decl_column : 1
    <25a2>   DW_AT_prototyped  : 1
    <25a2>   DW_AT_type        : <0x433>
    <25a6>   DW_AT_low_pc      : 0x4102
    <25ae>   DW_AT_high_pc     : 0x93
    <25b6>   DW_AT_frame_base  : 1 byte block: 9c 	(DW_OP_call_frame_cfa)
    <25b8>   DW_AT_GNU_all_tail_call_sites: 1
    <25b8>   DW_AT_sibling     : <0x2615>
 <2><25bc>: Abbrev Number: 53 (DW_TAG_formal_parameter)
    <25bd>   DW_AT_name        : b
    <25bf>   DW_AT_decl_file   : 2
    <25c0>   DW_AT_decl_line   : 1056
    <25c2>   DW_AT_decl_column : 17
    <25c3>   DW_AT_type        : <0x433>
    <25c7>   DW_AT_location    : 2 byte block: 91 58 	(DW_OP_fbreg: -40)
 <2><25ca>: Abbrev Number: 53 (DW_TAG_formal_parameter)
    <25cb>   DW_AT_name        : e
    <25cd>   DW_AT_decl_file   : 2
    <25ce>   DW_AT_decl_line   : 1056
    <25d0>   DW_AT_decl_column : 30
    <25d1>   DW_AT_type        : <0x433>
    <25d5>   DW_AT_location    : 2 byte block: 91 50 	(DW_OP_fbreg: -48)
 <2><25d8>: Abbrev Number: 53 (DW_TAG_formal_parameter)
    <25d9>   DW_AT_name        : n
    <25db>   DW_AT_decl_file   : 2
    <25dc>   DW_AT_decl_line   : 1056
    <25de>   DW_AT_decl_column : 43
    <25df>   DW_AT_type        : <0x433>
    <25e3>   DW_AT_location    : 2 byte block: 91 48 	(DW_OP_fbreg: -56)
 <2><25e6>: Abbrev Number: 53 (DW_TAG_formal_parameter)
    <25e7>   DW_AT_name        : ni
    <25ea>   DW_AT_decl_file   : 2
    <25eb>   DW_AT_decl_line   : 1056
    <25ed>   DW_AT_decl_column : 56
    <25ee>   DW_AT_type        : <0x433>
    <25f2>   DW_AT_location    : 2 byte block: 91 40 	(DW_OP_fbreg: -64)
 <2><25f5>: Abbrev Number: 53 (DW_TAG_formal_parameter)
    <25f6>   DW_AT_name        : one
    <25fa>   DW_AT_decl_file   : 2
    <25fb>   DW_AT_decl_line   : 1056
    <25fd>   DW_AT_decl_column : 70
    <25fe>   DW_AT_type        : <0x433>
    <2602>   DW_AT_location    : 3 byte block: 91 b8 7f 	(DW_OP_fbreg: -72)
 <2><2606>: Abbrev Number: 47 (DW_TAG_variable)
    <2607>   DW_AT_name        : y
    <2609>   DW_AT_decl_file   : 2
    <260a>   DW_AT_decl_line   : 1058
    <260c>   DW_AT_decl_column : 13
    <260d>   DW_AT_type        : <0x433>
    <2611>   DW_AT_location    : 2 byte block: 91 68 	(DW_OP_fbreg: -24)
 <2><2614>: Abbrev Number: 0
 <1><2615>: Abbrev Number: 49 (DW_TAG_subprogram)
    <2616>   DW_AT_name        : (indirect string, offset: 0x662): mulredc2
    <261a>   DW_AT_decl_file   : 2
    <261b>   DW_AT_decl_line   : 986
    <261d>   DW_AT_decl_column : 1
    <261e>   DW_AT_prototyped  : 1
    <261e>   DW_AT_type        : <0x433>
    <2622>   DW_AT_low_pc      : 0x3e88
    <262a>   DW_AT_high_pc     : 0x27a
    <2632>   DW_AT_frame_base  : 1 byte block: 9c 	(DW_OP_call_frame_cfa)
    <2634>   DW_AT_GNU_all_tail_call_sites: 1
    <2634>   DW_AT_sibling     : <0x2754>
 <2><2638>: Abbrev Number: 53 (DW_TAG_formal_parameter)
    <2639>   DW_AT_name        : r1p
    <263d>   DW_AT_decl_file   : 2
    <263e>   DW_AT_decl_line   : 986
    <2640>   DW_AT_decl_column : 22
    <2641>   DW_AT_type        : <0x1318>
    <2645>   DW_AT_location    : 3 byte block: 91 98 7f 	(DW_OP_fbreg: -104)
 <2><2649>: Abbrev Number: 53 (DW_TAG_formal_parameter)
    <264a>   DW_AT_name        : a1
    <264d>   DW_AT_decl_file   : 2
    <264e>   DW_AT_decl_line   : 987
    <2650>   DW_AT_decl_column : 21
    <2651>   DW_AT_type        : <0x433>
    <2655>   DW_AT_location    : 3 byte block: 91 90 7f 	(DW_OP_fbreg: -112)
 <2><2659>: Abbrev Number: 53 (DW_TAG_formal_parameter)
    <265a>   DW_AT_name        : a0
    <265d>   DW_AT_decl_file   : 2
    <265e>   DW_AT_decl_line   : 987
    <2660>   DW_AT_decl_column : 35
    <2661>   DW_AT_type        : <0x433>
    <2665>   DW_AT_location    : 3 byte block: 91 88 7f 	(DW_OP_fbreg: -120)
 <2><2669>: Abbrev Number: 53 (DW_TAG_formal_parameter)
    <266a>   DW_AT_name        : b1
    <266d>   DW_AT_decl_file   : 2
    <266e>   DW_AT_decl_line   : 987
    <2670>   DW_AT_decl_column : 49
    <2671>   DW_AT_type        : <0x433>
    <2675>   DW_AT_location    : 3 byte block: 91 80 7f 	(DW_OP_fbreg: -128)
 <2><2679>: Abbrev Number: 53 (DW_TAG_formal_parameter)
    <267a>   DW_AT_name        : b0
    <267d>   DW_AT_decl_file   : 2
    <267e>   DW_AT_decl_line   : 987
    <2680>   DW_AT_decl_column : 63
    <2681>   DW_AT_type        : <0x433>
    <2685>   DW_AT_location    : 3 byte block: 91 f8 7e 	(DW_OP_fbreg: -136)
 <2><2689>: Abbrev Number: 53 (DW_TAG_formal_parameter)
    <268a>   DW_AT_name        : m1
    <268d>   DW_AT_decl_file   : 2
    <268e>   DW_AT_decl_line   : 988
    <2690>   DW_AT_decl_column : 21
    <2691>   DW_AT_type        : <0x433>
    <2695>   DW_AT_location    : 3 byte block: 91 f0 7e 	(DW_OP_fbreg: -144)
 <2><2699>: Abbrev Number: 53 (DW_TAG_formal_parameter)
    <269a>   DW_AT_name        : m0
    <269d>   DW_AT_decl_file   : 2
    <269e>   DW_AT_decl_line   : 988
    <26a0>   DW_AT_decl_column : 35
    <26a1>   DW_AT_type        : <0x433>
    <26a5>   DW_AT_location    : 2 byte block: 91 0 	(DW_OP_fbreg: 0)
 <2><26a8>: Abbrev Number: 53 (DW_TAG_formal_parameter)
    <26a9>   DW_AT_name        : mi
    <26ac>   DW_AT_decl_file   : 2
    <26ad>   DW_AT_decl_line   : 988
    <26af>   DW_AT_decl_column : 49
    <26b0>   DW_AT_type        : <0x433>
    <26b4>   DW_AT_location    : 2 byte block: 91 8 	(DW_OP_fbreg: 8)
 <2><26b7>: Abbrev Number: 47 (DW_TAG_variable)
    <26b8>   DW_AT_name        : r1
    <26bb>   DW_AT_decl_file   : 2
    <26bc>   DW_AT_decl_line   : 990
    <26be>   DW_AT_decl_column : 13
    <26bf>   DW_AT_type        : <0x433>
    <26c3>   DW_AT_location    : 3 byte block: 91 a8 7f 	(DW_OP_fbreg: -88)
 <2><26c7>: Abbrev Number: 47 (DW_TAG_variable)
    <26c8>   DW_AT_name        : r0
    <26cb>   DW_AT_decl_file   : 2
    <26cc>   DW_AT_decl_line   : 990
    <26ce>   DW_AT_decl_column : 17
    <26cf>   DW_AT_type        : <0x433>
    <26d3>   DW_AT_location    : 3 byte block: 91 b0 7f 	(DW_OP_fbreg: -80)
 <2><26d7>: Abbrev Number: 47 (DW_TAG_variable)
    <26d8>   DW_AT_name        : q
    <26da>   DW_AT_decl_file   : 2
    <26db>   DW_AT_decl_line   : 990
    <26dd>   DW_AT_decl_column : 21
    <26de>   DW_AT_type        : <0x433>
    <26e2>   DW_AT_location    : 2 byte block: 91 48 	(DW_OP_fbreg: -56)
 <2><26e5>: Abbrev Number: 47 (DW_TAG_variable)
    <26e6>   DW_AT_name        : p1
    <26e9>   DW_AT_decl_file   : 2
    <26ea>   DW_AT_decl_line   : 990
    <26ec>   DW_AT_decl_column : 24
    <26ed>   DW_AT_type        : <0x433>
    <26f1>   DW_AT_location    : 2 byte block: 91 58 	(DW_OP_fbreg: -40)
 <2><26f4>: Abbrev Number: 47 (DW_TAG_variable)
    <26f5>   DW_AT_name        : t1
    <26f8>   DW_AT_decl_file   : 2
    <26f9>   DW_AT_decl_line   : 990
    <26fb>   DW_AT_decl_column : 28
    <26fc>   DW_AT_type        : <0x433>
    <2700>   DW_AT_location    : 2 byte block: 91 40 	(DW_OP_fbreg: -64)
 <2><2703>: Abbrev Number: 47 (DW_TAG_variable)
    <2704>   DW_AT_name        : t0
    <2707>   DW_AT_decl_file   : 2
    <2708>   DW_AT_decl_line   : 990
    <270a>   DW_AT_decl_column : 32
    <270b>   DW_AT_type        : <0x433>
    <270f>   DW_AT_location    : 3 byte block: 91 b8 7f 	(DW_OP_fbreg: -72)
 <2><2713>: Abbrev Number: 47 (DW_TAG_variable)
    <2714>   DW_AT_name        : s1
    <2717>   DW_AT_decl_file   : 2
    <2718>   DW_AT_decl_line   : 990
    <271a>   DW_AT_decl_column : 36
    <271b>   DW_AT_type        : <0x433>
    <271f>   DW_AT_location    : 2 byte block: 91 68 	(DW_OP_fbreg: -24)
 <2><2722>: Abbrev Number: 47 (DW_TAG_variable)
    <2723>   DW_AT_name        : s0
    <2726>   DW_AT_decl_file   : 2
    <2727>   DW_AT_decl_line   : 990
    <2729>   DW_AT_decl_column : 40
    <272a>   DW_AT_type        : <0x433>
    <272e>   DW_AT_location    : 2 byte block: 91 60 	(DW_OP_fbreg: -32)
 <2><2731>: Abbrev Number: 47 (DW_TAG_variable)
    <2732>   DW_AT_name        : p0
    <2735>   DW_AT_decl_file   : 2
    <2736>   DW_AT_decl_line   : 991
    <2738>   DW_AT_decl_column : 26
    <2739>   DW_AT_type        : <0x433>
    <273d>   DW_AT_location    : 2 byte block: 91 50 	(DW_OP_fbreg: -48)
 <2><2740>: Abbrev Number: 54 (DW_TAG_variable)
    <2741>   DW_AT_name        : (indirect string, offset: 0x1d0): __PRETTY_FUNCTION__
    <2745>   DW_AT_type        : <0x2764>
    <2749>   DW_AT_artificial  : 1
    <2749>   DW_AT_location    : 9 byte block: 3 c8 35 1 0 0 0 0 0 	(DW_OP_addr: 135c8)
 <2><2753>: Abbrev Number: 0
 <1><2754>: Abbrev Number: 15 (DW_TAG_array_type)
    <2755>   DW_AT_type        : <0x3f>
    <2759>   DW_AT_sibling     : <0x2764>
 <2><275d>: Abbrev Number: 16 (DW_TAG_subrange_type)
    <275e>   DW_AT_type        : <0xbb>
    <2762>   DW_AT_upper_bound : 8
 <2><2763>: Abbrev Number: 0
 <1><2764>: Abbrev Number: 3 (DW_TAG_const_type)
    <2765>   DW_AT_type        : <0x2754>
 <1><2769>: Abbrev Number: 57 (DW_TAG_subprogram)
    <276a>   DW_AT_name        : (indirect string, offset: 0x73f): mulredc
    <276e>   DW_AT_decl_file   : 2
    <276f>   DW_AT_decl_line   : 967
    <2771>   DW_AT_decl_column : 1
    <2772>   DW_AT_prototyped  : 1
    <2772>   DW_AT_type        : <0x433>
    <2776>   DW_AT_low_pc      : 0x3e23
    <277e>   DW_AT_high_pc     : 0x65
    <2786>   DW_AT_frame_base  : 1 byte block: 9c 	(DW_OP_call_frame_cfa)
    <2788>   DW_AT_GNU_all_call_sites: 1
    <2788>   DW_AT_sibling     : <0x2823>
 <2><278c>: Abbrev Number: 53 (DW_TAG_formal_parameter)
    <278d>   DW_AT_name        : a
    <278f>   DW_AT_decl_file   : 2
    <2790>   DW_AT_decl_line   : 967
    <2792>   DW_AT_decl_column : 20
    <2793>   DW_AT_type        : <0x433>
    <2797>   DW_AT_location    : 3 byte block: 91 b8 7f 	(DW_OP_fbreg: -72)
 <2><279b>: Abbrev Number: 53 (DW_TAG_formal_parameter)
    <279c>   DW_AT_name        : b
    <279e>   DW_AT_decl_file   : 2
    <279f>   DW_AT_decl_line   : 967
    <27a1>   DW_AT_decl_column : 33
    <27a2>   DW_AT_type        : <0x433>
    <27a6>   DW_AT_location    : 3 byte block: 91 b0 7f 	(DW_OP_fbreg: -80)
 <2><27aa>: Abbrev Number: 53 (DW_TAG_formal_parameter)
    <27ab>   DW_AT_name        : m
    <27ad>   DW_AT_decl_file   : 2
    <27ae>   DW_AT_decl_line   : 967
    <27b0>   DW_AT_decl_column : 46
    <27b1>   DW_AT_type        : <0x433>
    <27b5>   DW_AT_location    : 3 byte block: 91 a8 7f 	(DW_OP_fbreg: -88)
 <2><27b9>: Abbrev Number: 53 (DW_TAG_formal_parameter)
    <27ba>   DW_AT_name        : mi
    <27bd>   DW_AT_decl_file   : 2
    <27be>   DW_AT_decl_line   : 967
    <27c0>   DW_AT_decl_column : 59
    <27c1>   DW_AT_type        : <0x433>
    <27c5>   DW_AT_location    : 3 byte block: 91 a0 7f 	(DW_OP_fbreg: -96)
 <2><27c9>: Abbrev Number: 47 (DW_TAG_variable)
    <27ca>   DW_AT_name        : rh
    <27cd>   DW_AT_decl_file   : 2
    <27ce>   DW_AT_decl_line   : 969
    <27d0>   DW_AT_decl_column : 13
    <27d1>   DW_AT_type        : <0x433>
    <27d5>   DW_AT_location    : 2 byte block: 91 50 	(DW_OP_fbreg: -48)
 <2><27d8>: Abbrev Number: 47 (DW_TAG_variable)
    <27d9>   DW_AT_name        : rl
    <27dc>   DW_AT_decl_file   : 2
    <27dd>   DW_AT_decl_line   : 969
    <27df>   DW_AT_decl_column : 17
    <27e0>   DW_AT_type        : <0x433>
    <27e4>   DW_AT_location    : 2 byte block: 91 48 	(DW_OP_fbreg: -56)
 <2><27e7>: Abbrev Number: 47 (DW_TAG_variable)
    <27e8>   DW_AT_name        : q
    <27ea>   DW_AT_decl_file   : 2
    <27eb>   DW_AT_decl_line   : 969
    <27ed>   DW_AT_decl_column : 21
    <27ee>   DW_AT_type        : <0x433>
    <27f2>   DW_AT_location    : 2 byte block: 91 58 	(DW_OP_fbreg: -40)
 <2><27f5>: Abbrev Number: 47 (DW_TAG_variable)
    <27f6>   DW_AT_name        : th
    <27f9>   DW_AT_decl_file   : 2
    <27fa>   DW_AT_decl_line   : 969
    <27fc>   DW_AT_decl_column : 24
    <27fd>   DW_AT_type        : <0x433>
    <2801>   DW_AT_location    : 2 byte block: 91 68 	(DW_OP_fbreg: -24)
 <2><2804>: Abbrev Number: 47 (DW_TAG_variable)
    <2805>   DW_AT_name        : xh
    <2808>   DW_AT_decl_file   : 2
    <2809>   DW_AT_decl_line   : 969
    <280b>   DW_AT_decl_column : 28
    <280c>   DW_AT_type        : <0x433>
    <2810>   DW_AT_location    : 2 byte block: 91 40 	(DW_OP_fbreg: -64)
 <2><2813>: Abbrev Number: 47 (DW_TAG_variable)
    <2814>   DW_AT_name        : tl
    <2817>   DW_AT_decl_file   : 2
    <2818>   DW_AT_decl_line   : 970
    <281a>   DW_AT_decl_column : 26
    <281b>   DW_AT_type        : <0x433>
    <281f>   DW_AT_location    : 2 byte block: 91 60 	(DW_OP_fbreg: -32)
 <2><2822>: Abbrev Number: 0
 <1><2823>: Abbrev Number: 52 (DW_TAG_subprogram)
    <2824>   DW_AT_name        : (indirect string, offset: 0x607): mp_factor_using_division
    <2828>   DW_AT_decl_file   : 2
    <2829>   DW_AT_decl_line   : 832
    <282b>   DW_AT_decl_column : 1
    <282c>   DW_AT_prototyped  : 1
    <282c>   DW_AT_low_pc      : 0x3cbc
    <2834>   DW_AT_high_pc     : 0x167
    <283c>   DW_AT_frame_base  : 1 byte block: 9c 	(DW_OP_call_frame_cfa)
    <283e>   DW_AT_GNU_all_tail_call_sites: 1
    <283e>   DW_AT_sibling     : <0x289f>
 <2><2842>: Abbrev Number: 53 (DW_TAG_formal_parameter)
    <2843>   DW_AT_name        : t
    <2845>   DW_AT_decl_file   : 2
    <2846>   DW_AT_decl_line   : 832
    <2848>   DW_AT_decl_column : 33
    <2849>   DW_AT_type        : <0x401>
    <284d>   DW_AT_location    : 3 byte block: 91 b8 7f 	(DW_OP_fbreg: -72)
 <2><2851>: Abbrev Number: 46 (DW_TAG_formal_parameter)
    <2852>   DW_AT_name        : (indirect string, offset: 0x442): factors
    <2856>   DW_AT_decl_file   : 2
    <2857>   DW_AT_decl_line   : 832
    <2859>   DW_AT_decl_column : 55
    <285a>   DW_AT_type        : <0x135c>
    <285e>   DW_AT_location    : 3 byte block: 91 b0 7f 	(DW_OP_fbreg: -80)
 <2><2862>: Abbrev Number: 47 (DW_TAG_variable)
    <2863>   DW_AT_name        : q
    <2865>   DW_AT_decl_file   : 2
    <2866>   DW_AT_decl_line   : 834
    <2868>   DW_AT_decl_column : 9
    <2869>   DW_AT_type        : <0x3c7>
    <286d>   DW_AT_location    : 2 byte block: 91 50 	(DW_OP_fbreg: -48)
 <2><2870>: Abbrev Number: 47 (DW_TAG_variable)
    <2871>   DW_AT_name        : p
    <2873>   DW_AT_decl_file   : 2
    <2874>   DW_AT_decl_line   : 835
    <2876>   DW_AT_decl_column : 21
    <2877>   DW_AT_type        : <0xbb>
    <287b>   DW_AT_location    : 2 byte block: 91 48 	(DW_OP_fbreg: -56)
 <2><287e>: Abbrev Number: 48 (DW_TAG_lexical_block)
    <287f>   DW_AT_low_pc      : 0x3d6c
    <2887>   DW_AT_high_pc     : 0x94
 <3><288f>: Abbrev Number: 47 (DW_TAG_variable)
    <2890>   DW_AT_name        : i
    <2892>   DW_AT_decl_file   : 2
    <2893>   DW_AT_decl_line   : 850
    <2895>   DW_AT_decl_column : 21
    <2896>   DW_AT_type        : <0xc2>
    <289a>   DW_AT_location    : 2 byte block: 91 44 	(DW_OP_fbreg: -60)
 <3><289d>: Abbrev Number: 0
 <2><289e>: Abbrev Number: 0
 <1><289f>: Abbrev Number: 49 (DW_TAG_subprogram)
    <28a0>   DW_AT_name        : (indirect string, offset: 0x60a): factor_using_division
    <28a4>   DW_AT_decl_file   : 2
    <28a5>   DW_AT_decl_line   : 750
    <28a7>   DW_AT_decl_column : 1
    <28a8>   DW_AT_prototyped  : 1
    <28a8>   DW_AT_type        : <0x433>
    <28ac>   DW_AT_low_pc      : 0x37e3
    <28b4>   DW_AT_high_pc     : 0x4d9
    <28bc>   DW_AT_frame_base  : 1 byte block: 9c 	(DW_OP_call_frame_cfa)
    <28be>   DW_AT_GNU_all_tail_call_sites: 1
    <28be>   DW_AT_sibling     : <0x29b3>
 <2><28c2>: Abbrev Number: 53 (DW_TAG_formal_parameter)
    <28c3>   DW_AT_name        : t1p
    <28c7>   DW_AT_decl_file   : 2
    <28c8>   DW_AT_decl_line   : 750
    <28ca>   DW_AT_decl_column : 35
    <28cb>   DW_AT_type        : <0x1318>
    <28cf>   DW_AT_location    : 3 byte block: 91 a8 7f 	(DW_OP_fbreg: -88)
 <2><28d3>: Abbrev Number: 53 (DW_TAG_formal_parameter)
    <28d4>   DW_AT_name        : t1
    <28d7>   DW_AT_decl_file   : 2
    <28d8>   DW_AT_decl_line   : 750
    <28da>   DW_AT_decl_column : 50
    <28db>   DW_AT_type        : <0x433>
    <28df>   DW_AT_location    : 3 byte block: 91 a0 7f 	(DW_OP_fbreg: -96)
 <2><28e3>: Abbrev Number: 53 (DW_TAG_formal_parameter)
    <28e4>   DW_AT_name        : t0
    <28e7>   DW_AT_decl_file   : 2
    <28e8>   DW_AT_decl_line   : 750
    <28ea>   DW_AT_decl_column : 64
    <28eb>   DW_AT_type        : <0x433>
    <28ef>   DW_AT_location    : 3 byte block: 91 98 7f 	(DW_OP_fbreg: -104)
 <2><28f3>: Abbrev Number: 46 (DW_TAG_formal_parameter)
    <28f4>   DW_AT_name        : (indirect string, offset: 0x442): factors
    <28f8>   DW_AT_decl_file   : 2
    <28f9>   DW_AT_decl_line   : 751
    <28fb>   DW_AT_decl_column : 40
    <28fc>   DW_AT_type        : <0x13b0>
    <2900>   DW_AT_location    : 3 byte block: 91 90 7f 	(DW_OP_fbreg: -112)
 <2><2904>: Abbrev Number: 47 (DW_TAG_variable)
    <2905>   DW_AT_name        : p
    <2907>   DW_AT_decl_file   : 2
    <2908>   DW_AT_decl_line   : 773
    <290a>   DW_AT_decl_column : 13
    <290b>   DW_AT_type        : <0x433>
    <290f>   DW_AT_location    : 3 byte block: 91 b8 7f 	(DW_OP_fbreg: -72)
 <2><2913>: Abbrev Number: 47 (DW_TAG_variable)
    <2914>   DW_AT_name        : i
    <2916>   DW_AT_decl_file   : 2
    <2917>   DW_AT_decl_line   : 774
    <2919>   DW_AT_decl_column : 16
    <291a>   DW_AT_type        : <0xc2>
    <291e>   DW_AT_location    : 3 byte block: 91 b4 7f 	(DW_OP_fbreg: -76)
 <2><2922>: Abbrev Number: 60 (DW_TAG_lexical_block)
    <2923>   DW_AT_low_pc      : 0x380b
    <292b>   DW_AT_high_pc     : 0x7f
    <2933>   DW_AT_sibling     : <0x2949>
 <3><2937>: Abbrev Number: 47 (DW_TAG_variable)
    <2938>   DW_AT_name        : cnt
    <293c>   DW_AT_decl_file   : 2
    <293d>   DW_AT_decl_line   : 755
    <293f>   DW_AT_decl_column : 20
    <2940>   DW_AT_type        : <0xc2>
    <2944>   DW_AT_location    : 3 byte block: 91 b0 7f 	(DW_OP_fbreg: -80)
 <3><2948>: Abbrev Number: 0
 <2><2949>: Abbrev Number: 58 (DW_TAG_lexical_block)
    <294a>   DW_AT_ranges      : 0x0
    <294e>   DW_AT_sibling     : <0x298f>
 <3><2952>: Abbrev Number: 47 (DW_TAG_variable)
    <2953>   DW_AT_name        : q1
    <2956>   DW_AT_decl_file   : 2
    <2957>   DW_AT_decl_line   : 779
    <2959>   DW_AT_decl_column : 21
    <295a>   DW_AT_type        : <0x433>
    <295e>   DW_AT_location    : 2 byte block: 91 58 	(DW_OP_fbreg: -40)
 <3><2961>: Abbrev Number: 47 (DW_TAG_variable)
    <2962>   DW_AT_name        : q0
    <2965>   DW_AT_decl_file   : 2
    <2966>   DW_AT_decl_line   : 779
    <2968>   DW_AT_decl_column : 25
    <2969>   DW_AT_type        : <0x433>
    <296d>   DW_AT_location    : 2 byte block: 91 40 	(DW_OP_fbreg: -64)
 <3><2970>: Abbrev Number: 47 (DW_TAG_variable)
    <2971>   DW_AT_name        : hi
    <2974>   DW_AT_decl_file   : 2
    <2975>   DW_AT_decl_line   : 779
    <2977>   DW_AT_decl_column : 29
    <2978>   DW_AT_type        : <0x433>
    <297c>   DW_AT_location    : 2 byte block: 91 50 	(DW_OP_fbreg: -48)
 <3><297f>: Abbrev Number: 47 (DW_TAG_variable)
    <2980>   DW_AT_name        : lo
    <2983>   DW_AT_decl_file   : 2
    <2984>   DW_AT_decl_line   : 780
    <2986>   DW_AT_decl_column : 34
    <2987>   DW_AT_type        : <0x433>
    <298b>   DW_AT_location    : 2 byte block: 91 48 	(DW_OP_fbreg: -56)
 <3><298e>: Abbrev Number: 0
 <2><298f>: Abbrev Number: 50 (DW_TAG_lexical_block)
    <2990>   DW_AT_ranges      : 0x30
 <3><2994>: Abbrev Number: 47 (DW_TAG_variable)
    <2995>   DW_AT_name        : q
    <2997>   DW_AT_decl_file   : 2
    <2998>   DW_AT_decl_line   : 812
    <299a>   DW_AT_decl_column : 17
    <299b>   DW_AT_type        : <0x433>
    <299f>   DW_AT_location    : 2 byte block: 91 68 	(DW_OP_fbreg: -24)
 <3><29a2>: Abbrev Number: 47 (DW_TAG_variable)
    <29a3>   DW_AT_name        : pd
    <29a6>   DW_AT_decl_file   : 2
    <29a7>   DW_AT_decl_line   : 813
    <29a9>   DW_AT_decl_column : 33
    <29aa>   DW_AT_type        : <0x29b3>
    <29ae>   DW_AT_location    : 2 byte block: 91 60 	(DW_OP_fbreg: -32)
 <3><29b1>: Abbrev Number: 0
 <2><29b2>: Abbrev Number: 0
 <1><29b3>: Abbrev Number: 2 (DW_TAG_pointer_type)
    <29b4>   DW_AT_byte_size   : 8
    <29b5>   DW_AT_type        : <0x687>
 <1><29b9>: Abbrev Number: 52 (DW_TAG_subprogram)
    <29ba>   DW_AT_name        : (indirect string, offset: 0x72a): factor_insert_refind
    <29be>   DW_AT_decl_file   : 2
    <29bf>   DW_AT_decl_line   : 708
    <29c1>   DW_AT_decl_column : 1
    <29c2>   DW_AT_prototyped  : 1
    <29c2>   DW_AT_low_pc      : 0x377d
    <29ca>   DW_AT_high_pc     : 0x66
    <29d2>   DW_AT_frame_base  : 1 byte block: 9c 	(DW_OP_call_frame_cfa)
    <29d4>   DW_AT_GNU_all_tail_call_sites: 1
    <29d4>   DW_AT_sibling     : <0x2a35>
 <2><29d8>: Abbrev Number: 46 (DW_TAG_formal_parameter)
    <29d9>   DW_AT_name        : (indirect string, offset: 0x442): factors
    <29dd>   DW_AT_decl_file   : 2
    <29de>   DW_AT_decl_line   : 708
    <29e0>   DW_AT_decl_column : 39
    <29e1>   DW_AT_type        : <0x13b0>
    <29e5>   DW_AT_location    : 2 byte block: 91 58 	(DW_OP_fbreg: -40)
 <2><29e8>: Abbrev Number: 53 (DW_TAG_formal_parameter)
    <29e9>   DW_AT_name        : p
    <29eb>   DW_AT_decl_file   : 2
    <29ec>   DW_AT_decl_line   : 708
    <29ee>   DW_AT_decl_column : 58
    <29ef>   DW_AT_type        : <0x433>
    <29f3>   DW_AT_location    : 2 byte block: 91 50 	(DW_OP_fbreg: -48)
 <2><29f6>: Abbrev Number: 53 (DW_TAG_formal_parameter)
    <29f7>   DW_AT_name        : i
    <29f9>   DW_AT_decl_file   : 2
    <29fa>   DW_AT_decl_line   : 708
    <29fc>   DW_AT_decl_column : 74
    <29fd>   DW_AT_type        : <0xc2>
    <2a01>   DW_AT_location    : 2 byte block: 91 4c 	(DW_OP_fbreg: -52)
 <2><2a04>: Abbrev Number: 53 (DW_TAG_formal_parameter)
    <2a05>   DW_AT_name        : off
    <2a09>   DW_AT_decl_file   : 2
    <2a0a>   DW_AT_decl_line   : 709
    <2a0c>   DW_AT_decl_column : 36
    <2a0d>   DW_AT_type        : <0xc2>
    <2a11>   DW_AT_location    : 2 byte block: 91 48 	(DW_OP_fbreg: -56)
 <2><2a14>: Abbrev Number: 48 (DW_TAG_lexical_block)
    <2a15>   DW_AT_low_pc      : 0x3797
    <2a1d>   DW_AT_high_pc     : 0x31
 <3><2a25>: Abbrev Number: 47 (DW_TAG_variable)
    <2a26>   DW_AT_name        : j
    <2a28>   DW_AT_decl_file   : 2
    <2a29>   DW_AT_decl_line   : 711
    <2a2b>   DW_AT_decl_column : 21
    <2a2c>   DW_AT_type        : <0xc2>
    <2a30>   DW_AT_location    : 2 byte block: 91 6c 	(DW_OP_fbreg: -20)
 <3><2a33>: Abbrev Number: 0
 <2><2a34>: Abbrev Number: 0
 <1><2a35>: Abbrev Number: 52 (DW_TAG_subprogram)
    <2a36>   DW_AT_name        : (indirect string, offset: 0x58a): mp_factor_insert_ui
    <2a3a>   DW_AT_decl_file   : 2
    <2a3b>   DW_AT_decl_line   : 648
    <2a3d>   DW_AT_decl_column : 1
    <2a3e>   DW_AT_prototyped  : 1
    <2a3e>   DW_AT_low_pc      : 0x3711
    <2a46>   DW_AT_high_pc     : 0x6c
    <2a4e>   DW_AT_frame_base  : 1 byte block: 9c 	(DW_OP_call_frame_cfa)
    <2a50>   DW_AT_GNU_all_tail_call_sites: 1
    <2a50>   DW_AT_sibling     : <0x2a84>
 <2><2a54>: Abbrev Number: 46 (DW_TAG_formal_parameter)
    <2a55>   DW_AT_name        : (indirect string, offset: 0x442): factors
    <2a59>   DW_AT_decl_file   : 2
    <2a5a>   DW_AT_decl_line   : 648
    <2a5c>   DW_AT_decl_column : 41
    <2a5d>   DW_AT_type        : <0x135c>
    <2a61>   DW_AT_location    : 2 byte block: 91 48 	(DW_OP_fbreg: -56)
 <2><2a64>: Abbrev Number: 46 (DW_TAG_formal_parameter)
    <2a65>   DW_AT_name        : (indirect string, offset: 0x601): prime
    <2a69>   DW_AT_decl_file   : 2
    <2a6a>   DW_AT_decl_line   : 648
    <2a6c>   DW_AT_decl_column : 68
    <2a6d>   DW_AT_type        : <0xbb>
    <2a71>   DW_AT_location    : 2 byte block: 91 40 	(DW_OP_fbreg: -64)
 <2><2a74>: Abbrev Number: 47 (DW_TAG_variable)
    <2a75>   DW_AT_name        : pz
    <2a78>   DW_AT_decl_file   : 2
    <2a79>   DW_AT_decl_line   : 650
    <2a7b>   DW_AT_decl_column : 9
    <2a7c>   DW_AT_type        : <0x3c7>
    <2a80>   DW_AT_location    : 2 byte block: 91 50 	(DW_OP_fbreg: -48)
 <2><2a83>: Abbrev Number: 0
 <1><2a84>: Abbrev Number: 52 (DW_TAG_subprogram)
    <2a85>   DW_AT_name        : (indirect string, offset: 0x3e0): mp_factor_insert
    <2a89>   DW_AT_decl_file   : 2
    <2a8a>   DW_AT_decl_line   : 609
    <2a8c>   DW_AT_decl_column : 1
    <2a8d>   DW_AT_prototyped  : 1
    <2a8d>   DW_AT_low_pc      : 0x34e9
    <2a95>   DW_AT_high_pc     : 0x228
    <2a9d>   DW_AT_frame_base  : 1 byte block: 9c 	(DW_OP_call_frame_cfa)
    <2a9f>   DW_AT_GNU_all_tail_call_sites: 1
    <2a9f>   DW_AT_sibling     : <0x2b20>
 <2><2aa3>: Abbrev Number: 46 (DW_TAG_formal_parameter)
    <2aa4>   DW_AT_name        : (indirect string, offset: 0x442): factors
    <2aa8>   DW_AT_decl_file   : 2
    <2aa9>   DW_AT_decl_line   : 609
    <2aab>   DW_AT_decl_column : 38
    <2aac>   DW_AT_type        : <0x135c>
    <2ab0>   DW_AT_location    : 3 byte block: 91 b8 7f 	(DW_OP_fbreg: -72)
 <2><2ab4>: Abbrev Number: 46 (DW_TAG_formal_parameter)
    <2ab5>   DW_AT_name        : (indirect string, offset: 0x601): prime
    <2ab9>   DW_AT_decl_file   : 2
    <2aba>   DW_AT_decl_line   : 609
    <2abc>   DW_AT_decl_column : 53
    <2abd>   DW_AT_type        : <0x401>
    <2ac1>   DW_AT_location    : 3 byte block: 91 b0 7f 	(DW_OP_fbreg: -80)
 <2><2ac5>: Abbrev Number: 30 (DW_TAG_variable)
    <2ac6>   DW_AT_name        : (indirect string, offset: 0x7b7): nfactors
    <2aca>   DW_AT_decl_file   : 2
    <2acb>   DW_AT_decl_line   : 611
    <2acd>   DW_AT_decl_column : 21
    <2ace>   DW_AT_type        : <0xbb>
    <2ad2>   DW_AT_location    : 2 byte block: 91 58 	(DW_OP_fbreg: -40)
 <2><2ad5>: Abbrev Number: 47 (DW_TAG_variable)
    <2ad6>   DW_AT_name        : p
    <2ad8>   DW_AT_decl_file   : 2
    <2ad9>   DW_AT_decl_line   : 612
    <2adb>   DW_AT_decl_column : 18
    <2adc>   DW_AT_type        : <0x5f8>
    <2ae0>   DW_AT_location    : 2 byte block: 91 60 	(DW_OP_fbreg: -32)
 <2><2ae3>: Abbrev Number: 47 (DW_TAG_variable)
    <2ae4>   DW_AT_name        : e
    <2ae6>   DW_AT_decl_file   : 2
    <2ae7>   DW_AT_decl_line   : 613
    <2ae9>   DW_AT_decl_column : 22
    <2aea>   DW_AT_type        : <0x5fe>
    <2aee>   DW_AT_location    : 2 byte block: 91 68 	(DW_OP_fbreg: -24)
 <2><2af1>: Abbrev Number: 47 (DW_TAG_variable)
    <2af2>   DW_AT_name        : i
    <2af4>   DW_AT_decl_file   : 2
    <2af5>   DW_AT_decl_line   : 614
    <2af7>   DW_AT_decl_column : 8
    <2af8>   DW_AT_type        : <0xec>
    <2afc>   DW_AT_location    : 2 byte block: 91 48 	(DW_OP_fbreg: -56)
 <2><2aff>: Abbrev Number: 48 (DW_TAG_lexical_block)
    <2b00>   DW_AT_low_pc      : 0x35f1
    <2b08>   DW_AT_high_pc     : 0x80
 <3><2b10>: Abbrev Number: 47 (DW_TAG_variable)
    <2b11>   DW_AT_name        : j
    <2b13>   DW_AT_decl_file   : 2
    <2b14>   DW_AT_decl_line   : 629
    <2b16>   DW_AT_decl_column : 17
    <2b17>   DW_AT_type        : <0xec>
    <2b1b>   DW_AT_location    : 2 byte block: 91 50 	(DW_OP_fbreg: -48)
 <3><2b1e>: Abbrev Number: 0
 <2><2b1f>: Abbrev Number: 0
 <1><2b20>: Abbrev Number: 52 (DW_TAG_subprogram)
    <2b21>   DW_AT_name        : (indirect string, offset: 0x97e): mp_factor_clear
    <2b25>   DW_AT_decl_file   : 2
    <2b26>   DW_AT_decl_line   : 599
    <2b28>   DW_AT_decl_column : 1
    <2b29>   DW_AT_prototyped  : 1
    <2b29>   DW_AT_low_pc      : 0x3481
    <2b31>   DW_AT_high_pc     : 0x68
    <2b39>   DW_AT_frame_base  : 1 byte block: 9c 	(DW_OP_call_frame_cfa)
    <2b3b>   DW_AT_GNU_all_tail_call_sites: 1
    <2b3b>   DW_AT_sibling     : <0x2b70>
 <2><2b3f>: Abbrev Number: 46 (DW_TAG_formal_parameter)
    <2b40>   DW_AT_name        : (indirect string, offset: 0x442): factors
    <2b44>   DW_AT_decl_file   : 2
    <2b45>   DW_AT_decl_line   : 599
    <2b47>   DW_AT_decl_column : 37
    <2b48>   DW_AT_type        : <0x135c>
    <2b4c>   DW_AT_location    : 2 byte block: 91 58 	(DW_OP_fbreg: -40)
 <2><2b4f>: Abbrev Number: 48 (DW_TAG_lexical_block)
    <2b50>   DW_AT_low_pc      : 0x3491
    <2b58>   DW_AT_high_pc     : 0x36
 <3><2b60>: Abbrev Number: 47 (DW_TAG_variable)
    <2b61>   DW_AT_name        : i
    <2b63>   DW_AT_decl_file   : 2
    <2b64>   DW_AT_decl_line   : 601
    <2b66>   DW_AT_decl_column : 21
    <2b67>   DW_AT_type        : <0xc2>
    <2b6b>   DW_AT_location    : 2 byte block: 91 6c 	(DW_OP_fbreg: -20)
 <3><2b6e>: Abbrev Number: 0
 <2><2b6f>: Abbrev Number: 0
 <1><2b70>: Abbrev Number: 63 (DW_TAG_subprogram)
    <2b71>   DW_AT_name        : (indirect string, offset: 0x6fc): mp_factor_init
    <2b75>   DW_AT_decl_file   : 2
    <2b76>   DW_AT_decl_line   : 591
    <2b78>   DW_AT_decl_column : 1
    <2b79>   DW_AT_prototyped  : 1
    <2b79>   DW_AT_low_pc      : 0x344f
    <2b81>   DW_AT_high_pc     : 0x32
    <2b89>   DW_AT_frame_base  : 1 byte block: 9c 	(DW_OP_call_frame_cfa)
    <2b8b>   DW_AT_GNU_all_call_sites: 1
    <2b8b>   DW_AT_sibling     : <0x2ba0>
 <2><2b8f>: Abbrev Number: 46 (DW_TAG_formal_parameter)
    <2b90>   DW_AT_name        : (indirect string, offset: 0x442): factors
    <2b94>   DW_AT_decl_file   : 2
    <2b95>   DW_AT_decl_line   : 591
    <2b97>   DW_AT_decl_column : 36
    <2b98>   DW_AT_type        : <0x135c>
    <2b9c>   DW_AT_location    : 2 byte block: 91 68 	(DW_OP_fbreg: -24)
 <2><2b9f>: Abbrev Number: 0
 <1><2ba0>: Abbrev Number: 52 (DW_TAG_subprogram)
    <2ba1>   DW_AT_name        : (indirect string, offset: 0x306): factor_insert_large
    <2ba5>   DW_AT_decl_file   : 2
    <2ba6>   DW_AT_decl_line   : 553
    <2ba8>   DW_AT_decl_column : 1
    <2ba9>   DW_AT_prototyped  : 1
    <2ba9>   DW_AT_low_pc      : 0x33c7
    <2bb1>   DW_AT_high_pc     : 0x88
    <2bb9>   DW_AT_frame_base  : 1 byte block: 9c 	(DW_OP_call_frame_cfa)
    <2bbb>   DW_AT_GNU_all_tail_call_sites: 1
    <2bbb>   DW_AT_sibling     : <0x2c01>
 <2><2bbf>: Abbrev Number: 46 (DW_TAG_formal_parameter)
    <2bc0>   DW_AT_name        : (indirect string, offset: 0x442): factors
    <2bc4>   DW_AT_decl_file   : 2
    <2bc5>   DW_AT_decl_line   : 553
    <2bc7>   DW_AT_decl_column : 38
    <2bc8>   DW_AT_type        : <0x13b0>
    <2bcc>   DW_AT_location    : 2 byte block: 91 68 	(DW_OP_fbreg: -24)
 <2><2bcf>: Abbrev Number: 53 (DW_TAG_formal_parameter)
    <2bd0>   DW_AT_name        : p1
    <2bd3>   DW_AT_decl_file   : 2
    <2bd4>   DW_AT_decl_line   : 554
    <2bd6>   DW_AT_decl_column : 32
    <2bd7>   DW_AT_type        : <0x433>
    <2bdb>   DW_AT_location    : 2 byte block: 91 60 	(DW_OP_fbreg: -32)
 <2><2bde>: Abbrev Number: 53 (DW_TAG_formal_parameter)
    <2bdf>   DW_AT_name        : p0
    <2be2>   DW_AT_decl_file   : 2
    <2be3>   DW_AT_decl_line   : 554
    <2be5>   DW_AT_decl_column : 46
    <2be6>   DW_AT_type        : <0x433>
    <2bea>   DW_AT_location    : 2 byte block: 91 58 	(DW_OP_fbreg: -40)
 <2><2bed>: Abbrev Number: 54 (DW_TAG_variable)
    <2bee>   DW_AT_name        : (indirect string, offset: 0x1d0): __PRETTY_FUNCTION__
    <2bf2>   DW_AT_type        : <0x2c11>
    <2bf6>   DW_AT_artificial  : 1
    <2bf6>   DW_AT_location    : 9 byte block: 3 b0 35 1 0 0 0 0 0 	(DW_OP_addr: 135b0)
 <2><2c00>: Abbrev Number: 0
 <1><2c01>: Abbrev Number: 15 (DW_TAG_array_type)
    <2c02>   DW_AT_type        : <0x3f>
    <2c06>   DW_AT_sibling     : <0x2c11>
 <2><2c0a>: Abbrev Number: 16 (DW_TAG_subrange_type)
    <2c0b>   DW_AT_type        : <0xbb>
    <2c0f>   DW_AT_upper_bound : 19
 <2><2c10>: Abbrev Number: 0
 <1><2c11>: Abbrev Number: 3 (DW_TAG_const_type)
    <2c12>   DW_AT_type        : <0x2c01>
 <1><2c16>: Abbrev Number: 63 (DW_TAG_subprogram)
    <2c17>   DW_AT_name        : (indirect string, offset: 0x785): factor_insert_multiplicity
    <2c1b>   DW_AT_decl_file   : 2
    <2c1c>   DW_AT_decl_line   : 518
    <2c1e>   DW_AT_decl_column : 1
    <2c1f>   DW_AT_prototyped  : 1
    <2c1f>   DW_AT_low_pc      : 0x3250
    <2c27>   DW_AT_high_pc     : 0x177
    <2c2f>   DW_AT_frame_base  : 1 byte block: 9c 	(DW_OP_call_frame_cfa)
    <2c31>   DW_AT_GNU_all_call_sites: 1
    <2c31>   DW_AT_sibling     : <0x2cbf>
 <2><2c35>: Abbrev Number: 46 (DW_TAG_formal_parameter)
    <2c36>   DW_AT_name        : (indirect string, offset: 0x442): factors
    <2c3a>   DW_AT_decl_file   : 2
    <2c3b>   DW_AT_decl_line   : 518
    <2c3d>   DW_AT_decl_column : 45
    <2c3e>   DW_AT_type        : <0x13b0>
    <2c42>   DW_AT_location    : 2 byte block: 91 48 	(DW_OP_fbreg: -56)
 <2><2c45>: Abbrev Number: 46 (DW_TAG_formal_parameter)
    <2c46>   DW_AT_name        : (indirect string, offset: 0x601): prime
    <2c4a>   DW_AT_decl_file   : 2
    <2c4b>   DW_AT_decl_line   : 519
    <2c4d>   DW_AT_decl_column : 39
    <2c4e>   DW_AT_type        : <0x433>
    <2c52>   DW_AT_location    : 2 byte block: 91 40 	(DW_OP_fbreg: -64)
 <2><2c55>: Abbrev Number: 53 (DW_TAG_formal_parameter)
    <2c56>   DW_AT_name        : m
    <2c58>   DW_AT_decl_file   : 2
    <2c59>   DW_AT_decl_line   : 519
    <2c5b>   DW_AT_decl_column : 59
    <2c5c>   DW_AT_type        : <0xc2>
    <2c60>   DW_AT_location    : 3 byte block: 91 bc 7f 	(DW_OP_fbreg: -68)
 <2><2c64>: Abbrev Number: 30 (DW_TAG_variable)
    <2c65>   DW_AT_name        : (indirect string, offset: 0x7b7): nfactors
    <2c69>   DW_AT_decl_file   : 2
    <2c6a>   DW_AT_decl_line   : 521
    <2c6c>   DW_AT_decl_column : 16
    <2c6d>   DW_AT_type        : <0xc2>
    <2c71>   DW_AT_location    : 2 byte block: 91 5c 	(DW_OP_fbreg: -36)
 <2><2c74>: Abbrev Number: 47 (DW_TAG_variable)
    <2c75>   DW_AT_name        : p
    <2c77>   DW_AT_decl_file   : 2
    <2c78>   DW_AT_decl_line   : 522
    <2c7a>   DW_AT_decl_column : 14
    <2c7b>   DW_AT_type        : <0x1318>
    <2c7f>   DW_AT_location    : 2 byte block: 91 60 	(DW_OP_fbreg: -32)
 <2><2c82>: Abbrev Number: 47 (DW_TAG_variable)
    <2c83>   DW_AT_name        : e
    <2c85>   DW_AT_decl_file   : 2
    <2c86>   DW_AT_decl_line   : 523
    <2c88>   DW_AT_decl_column : 18
    <2c89>   DW_AT_type        : <0x2cbf>
    <2c8d>   DW_AT_location    : 2 byte block: 91 68 	(DW_OP_fbreg: -24)
 <2><2c90>: Abbrev Number: 47 (DW_TAG_variable)
    <2c91>   DW_AT_name        : i
    <2c93>   DW_AT_decl_file   : 2
    <2c94>   DW_AT_decl_line   : 526
    <2c96>   DW_AT_decl_column : 7
    <2c97>   DW_AT_type        : <0x50>
    <2c9b>   DW_AT_location    : 2 byte block: 91 54 	(DW_OP_fbreg: -44)
 <2><2c9e>: Abbrev Number: 48 (DW_TAG_lexical_block)
    <2c9f>   DW_AT_low_pc      : 0x32ea
    <2ca7>   DW_AT_high_pc     : 0x6d
 <3><2caf>: Abbrev Number: 47 (DW_TAG_variable)
    <2cb0>   DW_AT_name        : j
    <2cb2>   DW_AT_decl_file   : 2
    <2cb3>   DW_AT_decl_line   : 535
    <2cb5>   DW_AT_decl_column : 16
    <2cb6>   DW_AT_type        : <0x50>
    <2cba>   DW_AT_location    : 2 byte block: 91 58 	(DW_OP_fbreg: -40)
 <3><2cbd>: Abbrev Number: 0
 <2><2cbe>: Abbrev Number: 0
 <1><2cbf>: Abbrev Number: 2 (DW_TAG_pointer_type)
    <2cc0>   DW_AT_byte_size   : 8
    <2cc1>   DW_AT_type        : <0xcb>
 <1><2cc5>: Abbrev Number: 49 (DW_TAG_subprogram)
    <2cc6>   DW_AT_name        : (indirect string, offset: 0x573): gcd2_odd
    <2cca>   DW_AT_decl_file   : 2
    <2ccb>   DW_AT_decl_line   : 474
    <2ccd>   DW_AT_decl_column : 1
    <2cce>   DW_AT_prototyped  : 1
    <2cce>   DW_AT_type        : <0x433>
    <2cd2>   DW_AT_low_pc      : 0x30ac
    <2cda>   DW_AT_high_pc     : 0x1a4
    <2ce2>   DW_AT_frame_base  : 1 byte block: 9c 	(DW_OP_call_frame_cfa)
    <2ce4>   DW_AT_GNU_all_tail_call_sites: 1
    <2ce4>   DW_AT_sibling     : <0x2d47>
 <2><2ce8>: Abbrev Number: 53 (DW_TAG_formal_parameter)
    <2ce9>   DW_AT_name        : r1
    <2cec>   DW_AT_decl_file   : 2
    <2ced>   DW_AT_decl_line   : 474
    <2cef>   DW_AT_decl_column : 22
    <2cf0>   DW_AT_type        : <0x1318>
    <2cf4>   DW_AT_location    : 2 byte block: 91 68 	(DW_OP_fbreg: -24)
 <2><2cf7>: Abbrev Number: 53 (DW_TAG_formal_parameter)
    <2cf8>   DW_AT_name        : a1
    <2cfb>   DW_AT_decl_file   : 2
    <2cfc>   DW_AT_decl_line   : 474
    <2cfe>   DW_AT_decl_column : 36
    <2cff>   DW_AT_type        : <0x433>
    <2d03>   DW_AT_location    : 2 byte block: 91 60 	(DW_OP_fbreg: -32)
 <2><2d06>: Abbrev Number: 53 (DW_TAG_formal_parameter)
    <2d07>   DW_AT_name        : a0
    <2d0a>   DW_AT_decl_file   : 2
    <2d0b>   DW_AT_decl_line   : 474
    <2d0d>   DW_AT_decl_column : 50
    <2d0e>   DW_AT_type        : <0x433>
    <2d12>   DW_AT_location    : 2 byte block: 91 58 	(DW_OP_fbreg: -40)
 <2><2d15>: Abbrev Number: 53 (DW_TAG_formal_parameter)
    <2d16>   DW_AT_name        : b1
    <2d19>   DW_AT_decl_file   : 2
    <2d1a>   DW_AT_decl_line   : 474
    <2d1c>   DW_AT_decl_column : 64
    <2d1d>   DW_AT_type        : <0x433>
    <2d21>   DW_AT_location    : 2 byte block: 91 50 	(DW_OP_fbreg: -48)
 <2><2d24>: Abbrev Number: 53 (DW_TAG_formal_parameter)
    <2d25>   DW_AT_name        : b0
    <2d28>   DW_AT_decl_file   : 2
    <2d29>   DW_AT_decl_line   : 474
    <2d2b>   DW_AT_decl_column : 78
    <2d2c>   DW_AT_type        : <0x433>
    <2d30>   DW_AT_location    : 2 byte block: 91 48 	(DW_OP_fbreg: -56)
 <2><2d33>: Abbrev Number: 54 (DW_TAG_variable)
    <2d34>   DW_AT_name        : (indirect string, offset: 0x1d0): __PRETTY_FUNCTION__
    <2d38>   DW_AT_type        : <0x2764>
    <2d3c>   DW_AT_artificial  : 1
    <2d3c>   DW_AT_location    : 9 byte block: 3 a0 35 1 0 0 0 0 0 	(DW_OP_addr: 135a0)
 <2><2d46>: Abbrev Number: 0
 <1><2d47>: Abbrev Number: 57 (DW_TAG_subprogram)
    <2d48>   DW_AT_name        : (indirect string, offset: 0x939): gcd_odd
    <2d4c>   DW_AT_decl_file   : 2
    <2d4d>   DW_AT_decl_line   : 436
    <2d4f>   DW_AT_decl_column : 1
    <2d50>   DW_AT_prototyped  : 1
    <2d50>   DW_AT_type        : <0x433>
    <2d54>   DW_AT_low_pc      : 0x3005
    <2d5c>   DW_AT_high_pc     : 0xa7
    <2d64>   DW_AT_frame_base  : 1 byte block: 9c 	(DW_OP_call_frame_cfa)
    <2d66>   DW_AT_GNU_all_call_sites: 1
    <2d66>   DW_AT_sibling     : <0x2ddb>
 <2><2d6a>: Abbrev Number: 53 (DW_TAG_formal_parameter)
    <2d6b>   DW_AT_name        : a
    <2d6d>   DW_AT_decl_file   : 2
    <2d6e>   DW_AT_decl_line   : 436
    <2d70>   DW_AT_decl_column : 20
    <2d71>   DW_AT_type        : <0x433>
    <2d75>   DW_AT_location    : 2 byte block: 91 48 	(DW_OP_fbreg: -56)
 <2><2d78>: Abbrev Number: 53 (DW_TAG_formal_parameter)
    <2d79>   DW_AT_name        : b
    <2d7b>   DW_AT_decl_file   : 2
    <2d7c>   DW_AT_decl_line   : 436
    <2d7e>   DW_AT_decl_column : 33
    <2d7f>   DW_AT_type        : <0x433>
    <2d83>   DW_AT_location    : 2 byte block: 91 40 	(DW_OP_fbreg: -64)
 <2><2d86>: Abbrev Number: 60 (DW_TAG_lexical_block)
    <2d87>   DW_AT_low_pc      : 0x3021
    <2d8f>   DW_AT_high_pc     : 0x18
    <2d97>   DW_AT_sibling     : <0x2daa>
 <3><2d9b>: Abbrev Number: 47 (DW_TAG_variable)
    <2d9c>   DW_AT_name        : t
    <2d9e>   DW_AT_decl_file   : 2
    <2d9f>   DW_AT_decl_line   : 440
    <2da1>   DW_AT_decl_column : 17
    <2da2>   DW_AT_type        : <0x433>
    <2da6>   DW_AT_location    : 2 byte block: 91 58 	(DW_OP_fbreg: -40)
 <3><2da9>: Abbrev Number: 0
 <2><2daa>: Abbrev Number: 48 (DW_TAG_lexical_block)
    <2dab>   DW_AT_low_pc      : 0x304a
    <2db3>   DW_AT_high_pc     : 0x5e
 <3><2dbb>: Abbrev Number: 47 (DW_TAG_variable)
    <2dbc>   DW_AT_name        : t
    <2dbe>   DW_AT_decl_file   : 2
    <2dbf>   DW_AT_decl_line   : 452
    <2dc1>   DW_AT_decl_column : 17
    <2dc2>   DW_AT_type        : <0x433>
    <2dc6>   DW_AT_location    : 2 byte block: 91 60 	(DW_OP_fbreg: -32)
 <3><2dc9>: Abbrev Number: 30 (DW_TAG_variable)
    <2dca>   DW_AT_name        : (indirect string, offset: 0x14e): bgta
    <2dce>   DW_AT_decl_file   : 2
    <2dcf>   DW_AT_decl_line   : 453
    <2dd1>   DW_AT_decl_column : 17
    <2dd2>   DW_AT_type        : <0x433>
    <2dd6>   DW_AT_location    : 2 byte block: 91 68 	(DW_OP_fbreg: -24)
 <3><2dd9>: Abbrev Number: 0
 <2><2dda>: Abbrev Number: 0
 <1><2ddb>: Abbrev Number: 49 (DW_TAG_subprogram)
    <2ddc>   DW_AT_name        : (indirect string, offset: 0x857): mod2
    <2de0>   DW_AT_decl_file   : 2
    <2de1>   DW_AT_decl_line   : 407
    <2de3>   DW_AT_decl_column : 1
    <2de4>   DW_AT_prototyped  : 1
    <2de4>   DW_AT_type        : <0x433>
    <2de8>   DW_AT_low_pc      : 0x2ec0
    <2df0>   DW_AT_high_pc     : 0x145
    <2df8>   DW_AT_frame_base  : 1 byte block: 9c 	(DW_OP_call_frame_cfa)
    <2dfa>   DW_AT_GNU_all_tail_call_sites: 1
    <2dfa>   DW_AT_sibling     : <0x2efc>
 <2><2dfe>: Abbrev Number: 53 (DW_TAG_formal_parameter)
    <2dff>   DW_AT_name        : r1
    <2e02>   DW_AT_decl_file   : 2
    <2e03>   DW_AT_decl_line   : 407
    <2e05>   DW_AT_decl_column : 18
    <2e06>   DW_AT_type        : <0x1318>
    <2e0a>   DW_AT_location    : 2 byte block: 91 48 	(DW_OP_fbreg: -56)
 <2><2e0d>: Abbrev Number: 53 (DW_TAG_formal_parameter)
    <2e0e>   DW_AT_name        : a1
    <2e11>   DW_AT_decl_file   : 2
    <2e12>   DW_AT_decl_line   : 407
    <2e14>   DW_AT_decl_column : 32
    <2e15>   DW_AT_type        : <0x433>
    <2e19>   DW_AT_location    : 2 byte block: 91 40 	(DW_OP_fbreg: -64)
 <2><2e1c>: Abbrev Number: 53 (DW_TAG_formal_parameter)
    <2e1d>   DW_AT_name        : a0
    <2e20>   DW_AT_decl_file   : 2
    <2e21>   DW_AT_decl_line   : 407
    <2e23>   DW_AT_decl_column : 46
    <2e24>   DW_AT_type        : <0x433>
    <2e28>   DW_AT_location    : 3 byte block: 91 b8 7f 	(DW_OP_fbreg: -72)
 <2><2e2c>: Abbrev Number: 53 (DW_TAG_formal_parameter)
    <2e2d>   DW_AT_name        : d1
    <2e30>   DW_AT_decl_file   : 2
    <2e31>   DW_AT_decl_line   : 407
    <2e33>   DW_AT_decl_column : 60
    <2e34>   DW_AT_type        : <0x433>
    <2e38>   DW_AT_location    : 3 byte block: 91 b0 7f 	(DW_OP_fbreg: -80)
 <2><2e3c>: Abbrev Number: 53 (DW_TAG_formal_parameter)
    <2e3d>   DW_AT_name        : d0
    <2e40>   DW_AT_decl_file   : 2
    <2e41>   DW_AT_decl_line   : 407
    <2e43>   DW_AT_decl_column : 74
    <2e44>   DW_AT_type        : <0x433>
    <2e48>   DW_AT_location    : 3 byte block: 91 a8 7f 	(DW_OP_fbreg: -88)
 <2><2e4c>: Abbrev Number: 30 (DW_TAG_variable)
    <2e4d>   DW_AT_name        : (indirect string, offset: 0x395): cntd
    <2e51>   DW_AT_decl_file   : 2
    <2e52>   DW_AT_decl_line   : 409
    <2e54>   DW_AT_decl_column : 7
    <2e55>   DW_AT_type        : <0x50>
    <2e59>   DW_AT_location    : 2 byte block: 91 54 	(DW_OP_fbreg: -44)
 <2><2e5c>: Abbrev Number: 30 (DW_TAG_variable)
    <2e5d>   DW_AT_name        : (indirect string, offset: 0xa3): cnta
    <2e61>   DW_AT_decl_file   : 2
    <2e62>   DW_AT_decl_line   : 409
    <2e64>   DW_AT_decl_column : 13
    <2e65>   DW_AT_type        : <0x50>
    <2e69>   DW_AT_location    : 2 byte block: 91 58 	(DW_OP_fbreg: -40)
 <2><2e6c>: Abbrev Number: 54 (DW_TAG_variable)
    <2e6d>   DW_AT_name        : (indirect string, offset: 0x1d0): __PRETTY_FUNCTION__
    <2e71>   DW_AT_type        : <0x2f0c>
    <2e75>   DW_AT_artificial  : 1
    <2e75>   DW_AT_location    : 9 byte block: 3 97 35 1 0 0 0 0 0 	(DW_OP_addr: 13597)
 <2><2e7f>: Abbrev Number: 47 (DW_TAG_variable)
    <2e80>   DW_AT_name        : cnt
    <2e84>   DW_AT_decl_file   : 2
    <2e85>   DW_AT_decl_line   : 421
    <2e87>   DW_AT_decl_column : 7
    <2e88>   DW_AT_type        : <0x50>
    <2e8c>   DW_AT_location    : 2 byte block: 91 5c 	(DW_OP_fbreg: -36)
 <2><2e8f>: Abbrev Number: 60 (DW_TAG_lexical_block)
    <2e90>   DW_AT_low_pc      : 0x2f2a
    <2e98>   DW_AT_high_pc     : 0x13
    <2ea0>   DW_AT_sibling     : <0x2eb5>
 <3><2ea4>: Abbrev Number: 30 (DW_TAG_variable)
    <2ea5>   DW_AT_name        : (indirect string, offset: 0x8c9): __cbtmp
    <2ea9>   DW_AT_decl_file   : 2
    <2eaa>   DW_AT_decl_line   : 419
    <2eac>   DW_AT_decl_column : 3
    <2ead>   DW_AT_type        : <0x50c>
    <2eb1>   DW_AT_location    : 2 byte block: 91 60 	(DW_OP_fbreg: -32)
 <3><2eb4>: Abbrev Number: 0
 <2><2eb5>: Abbrev Number: 60 (DW_TAG_lexical_block)
    <2eb6>   DW_AT_low_pc      : 0x2f3d
    <2ebe>   DW_AT_high_pc     : 0x13
    <2ec6>   DW_AT_sibling     : <0x2edb>
 <3><2eca>: Abbrev Number: 30 (DW_TAG_variable)
    <2ecb>   DW_AT_name        : (indirect string, offset: 0x8c9): __cbtmp
    <2ecf>   DW_AT_decl_file   : 2
    <2ed0>   DW_AT_decl_line   : 420
    <2ed2>   DW_AT_decl_column : 3
    <2ed3>   DW_AT_type        : <0x50c>
    <2ed7>   DW_AT_location    : 2 byte block: 91 68 	(DW_OP_fbreg: -24)
 <3><2eda>: Abbrev Number: 0
 <2><2edb>: Abbrev Number: 48 (DW_TAG_lexical_block)
    <2edc>   DW_AT_low_pc      : 0x2f8c
    <2ee4>   DW_AT_high_pc     : 0x68
 <3><2eec>: Abbrev Number: 47 (DW_TAG_variable)
    <2eed>   DW_AT_name        : i
    <2eef>   DW_AT_decl_file   : 2
    <2ef0>   DW_AT_decl_line   : 423
    <2ef2>   DW_AT_decl_column : 12
    <2ef3>   DW_AT_type        : <0x50>
    <2ef7>   DW_AT_location    : 2 byte block: 91 50 	(DW_OP_fbreg: -48)
 <3><2efa>: Abbrev Number: 0
 <2><2efb>: Abbrev Number: 0
 <1><2efc>: Abbrev Number: 15 (DW_TAG_array_type)
    <2efd>   DW_AT_type        : <0x3f>
    <2f01>   DW_AT_sibling     : <0x2f0c>
 <2><2f05>: Abbrev Number: 16 (DW_TAG_subrange_type)
    <2f06>   DW_AT_type        : <0xbb>
    <2f0a>   DW_AT_upper_bound : 4
 <2><2f0b>: Abbrev Number: 0
 <1><2f0c>: Abbrev Number: 3 (DW_TAG_const_type)
    <2f0d>   DW_AT_type        : <0x2efc>
 <1><2f11>: Abbrev Number: 52 (DW_TAG_subprogram)
    <2f12>   DW_AT_name        : (indirect string, offset: 0x248): emit_ancillary_info
    <2f16>   DW_AT_decl_file   : 1
    <2f17>   DW_AT_decl_line   : 627
    <2f19>   DW_AT_decl_column : 1
    <2f1a>   DW_AT_prototyped  : 1
    <2f1a>   DW_AT_low_pc      : 0x2c29
    <2f22>   DW_AT_high_pc     : 0x297
    <2f2a>   DW_AT_frame_base  : 1 byte block: 9c 	(DW_OP_call_frame_cfa)
    <2f2c>   DW_AT_GNU_all_tail_call_sites: 1
    <2f2c>   DW_AT_sibling     : <0x2fc7>
 <2><2f30>: Abbrev Number: 46 (DW_TAG_formal_parameter)
    <2f31>   DW_AT_name        : (indirect string, offset: 0x3fe): program
    <2f35>   DW_AT_decl_file   : 1
    <2f36>   DW_AT_decl_line   : 627
    <2f38>   DW_AT_decl_column : 34
    <2f39>   DW_AT_type        : <0x9e>
    <2f3d>   DW_AT_location    : 3 byte block: 91 b8 7e 	(DW_OP_fbreg: -200)
 <2><2f41>: Abbrev Number: 31 (DW_TAG_structure_type)
    <2f42>   DW_AT_name        : (indirect string, offset: 0x540): infomap
    <2f46>   DW_AT_byte_size   : 16
    <2f47>   DW_AT_decl_file   : 1
    <2f48>   DW_AT_decl_line   : 629
    <2f4a>   DW_AT_decl_column : 10
    <2f4b>   DW_AT_sibling     : <0x2f6c>
 <3><2f4f>: Abbrev Number: 32 (DW_TAG_member)
    <2f50>   DW_AT_name        : (indirect string, offset: 0x3fe): program
    <2f54>   DW_AT_decl_file   : 1
    <2f55>   DW_AT_decl_line   : 629
    <2f57>   DW_AT_decl_column : 32
    <2f58>   DW_AT_type        : <0x9e>
    <2f5c>   DW_AT_data_member_location: 0
 <3><2f5d>: Abbrev Number: 32 (DW_TAG_member)
    <2f5e>   DW_AT_name        : (indirect string, offset: 0x3db): node
    <2f62>   DW_AT_decl_file   : 1
    <2f63>   DW_AT_decl_line   : 629
    <2f65>   DW_AT_decl_column : 53
    <2f66>   DW_AT_type        : <0x9e>
    <2f6a>   DW_AT_data_member_location: 8
 <3><2f6b>: Abbrev Number: 0
 <2><2f6c>: Abbrev Number: 3 (DW_TAG_const_type)
    <2f6d>   DW_AT_type        : <0x2f41>
 <2><2f71>: Abbrev Number: 30 (DW_TAG_variable)
    <2f72>   DW_AT_name        : (indirect string, offset: 0x540): infomap
    <2f76>   DW_AT_decl_file   : 1
    <2f77>   DW_AT_decl_line   : 629
    <2f79>   DW_AT_decl_column : 67
    <2f7a>   DW_AT_type        : <0x2fd7>
    <2f7e>   DW_AT_location    : 3 byte block: 91 e0 7e 	(DW_OP_fbreg: -160)
 <2><2f82>: Abbrev Number: 30 (DW_TAG_variable)
    <2f83>   DW_AT_name        : (indirect string, offset: 0x3db): node
    <2f87>   DW_AT_decl_file   : 1
    <2f88>   DW_AT_decl_line   : 639
    <2f8a>   DW_AT_decl_column : 15
    <2f8b>   DW_AT_type        : <0x9e>
    <2f8f>   DW_AT_location    : 3 byte block: 91 c0 7e 	(DW_OP_fbreg: -192)
 <2><2f93>: Abbrev Number: 30 (DW_TAG_variable)
    <2f94>   DW_AT_name        : (indirect string, offset: 0x87b): map_prog
    <2f98>   DW_AT_decl_file   : 1
    <2f99>   DW_AT_decl_line   : 640
    <2f9b>   DW_AT_decl_column : 25
    <2f9c>   DW_AT_type        : <0x2fdc>
    <2fa0>   DW_AT_location    : 3 byte block: 91 c8 7e 	(DW_OP_fbreg: -184)
 <2><2fa4>: Abbrev Number: 30 (DW_TAG_variable)
    <2fa5>   DW_AT_name        : (indirect string, offset: 0x676): lc_messages
    <2fa9>   DW_AT_decl_file   : 1
    <2faa>   DW_AT_decl_line   : 652
    <2fac>   DW_AT_decl_column : 15
    <2fad>   DW_AT_type        : <0x9e>
    <2fb1>   DW_AT_location    : 3 byte block: 91 d0 7e 	(DW_OP_fbreg: -176)
 <2><2fb5>: Abbrev Number: 30 (DW_TAG_variable)
    <2fb6>   DW_AT_name        : (indirect string, offset: 0x3fa): url_program
    <2fba>   DW_AT_decl_file   : 1
    <2fbb>   DW_AT_decl_line   : 665
    <2fbd>   DW_AT_decl_column : 15
    <2fbe>   DW_AT_type        : <0x9e>
    <2fc2>   DW_AT_location    : 3 byte block: 91 d8 7e 	(DW_OP_fbreg: -168)
 <2><2fc6>: Abbrev Number: 0
 <1><2fc7>: Abbrev Number: 15 (DW_TAG_array_type)
    <2fc8>   DW_AT_type        : <0x2f6c>
    <2fcc>   DW_AT_sibling     : <0x2fd7>
 <2><2fd0>: Abbrev Number: 16 (DW_TAG_subrange_type)
    <2fd1>   DW_AT_type        : <0xbb>
    <2fd5>   DW_AT_upper_bound : 6
 <2><2fd6>: Abbrev Number: 0
 <1><2fd7>: Abbrev Number: 3 (DW_TAG_const_type)
    <2fd8>   DW_AT_type        : <0x2fc7>
 <1><2fdc>: Abbrev Number: 2 (DW_TAG_pointer_type)
    <2fdd>   DW_AT_byte_size   : 8
    <2fde>   DW_AT_type        : <0x2f6c>
 <1><2fe2>: Abbrev Number: 0
  Compilation Unit @ offset 0x2fe3:
   Length:        0x42 (32-bit)
   Version:       4
   Abbrev Offset: 0x3d1
   Pointer Size:  8
 <0><2fee>: Abbrev Number: 1 (DW_TAG_compile_unit)
    <2fef>   DW_AT_producer    : (indirect string, offset: 0x25c): GNU C17 11.1.0 -mtune=generic -march=x86-64 -g -O0 -fasynchronous-unwind-tables -fstack-protector-strong -fstack-clash-protection -fcf-protection
    <2ff3>   DW_AT_language    : 12	(ANSI C99)
    <2ff4>   DW_AT_name        : (indirect string, offset: 0xa39): src/version.c
    <2ff8>   DW_AT_comp_dir    : (indirect string, offset: 0x884): /home/jacekline/dev/research/programs/coreutils-9.1
    <2ffc>   DW_AT_stmt_list   : 0x1807
 <1><3000>: Abbrev Number: 2 (DW_TAG_variable)
    <3001>   DW_AT_name        : (indirect string, offset: 0x56b): Version
    <3005>   DW_AT_decl_file   : 1
    <3006>   DW_AT_decl_line   : 2
    <3007>   DW_AT_decl_column : 13
    <3008>   DW_AT_type        : <0x3016>
    <300c>   DW_AT_external    : 1
    <300c>   DW_AT_location    : 9 byte block: 3 18 80 1 0 0 0 0 0 	(DW_OP_addr: 18018)
 <1><3016>: Abbrev Number: 3 (DW_TAG_pointer_type)
    <3017>   DW_AT_byte_size   : 8
    <3018>   DW_AT_type        : <0x3023>
 <1><301c>: Abbrev Number: 4 (DW_TAG_base_type)
    <301d>   DW_AT_byte_size   : 1
    <301e>   DW_AT_encoding    : 6	(signed char)
    <301f>   DW_AT_name        : (indirect string, offset: 0x1ed): char
 <1><3023>: Abbrev Number: 5 (DW_TAG_const_type)
    <3024>   DW_AT_type        : <0x301c>
 <1><3028>: Abbrev Number: 0
  Compilation Unit @ offset 0x3029:
   Length:        0x431 (32-bit)
   Version:       4
   Abbrev Offset: 0x40f
   Pointer Size:  8
 <0><3034>: Abbrev Number: 1 (DW_TAG_compile_unit)
    <3035>   DW_AT_producer    : (indirect string, offset: 0x25c): GNU C17 11.1.0 -mtune=generic -march=x86-64 -g -O0 -fasynchronous-unwind-tables -fstack-protector-strong -fstack-clash-protection -fcf-protection
    <3039>   DW_AT_language    : 12	(ANSI C99)
    <303a>   DW_AT_name        : (indirect string, offset: 0xacb): lib/closeout.c
    <303e>   DW_AT_comp_dir    : (indirect string, offset: 0x884): /home/jacekline/dev/research/programs/coreutils-9.1
    <3042>   DW_AT_low_pc      : 0x803f
    <304a>   DW_AT_high_pc     : 0x12c
    <3052>   DW_AT_stmt_list   : 0x1835
 <1><3056>: Abbrev Number: 2 (DW_TAG_pointer_type)
    <3057>   DW_AT_byte_size   : 8
    <3058>   DW_AT_type        : <0x305c>
 <1><305c>: Abbrev Number: 3 (DW_TAG_base_type)
    <305d>   DW_AT_byte_size   : 1
    <305e>   DW_AT_encoding    : 6	(signed char)
    <305f>   DW_AT_name        : (indirect string, offset: 0x1ed): char
 <1><3063>: Abbrev Number: 4 (DW_TAG_const_type)
    <3064>   DW_AT_type        : <0x305c>
 <1><3068>: Abbrev Number: 5 (DW_TAG_base_type)
    <3069>   DW_AT_byte_size   : 4
    <306a>   DW_AT_encoding    : 5	(signed)
    <306b>   DW_AT_name        : int
 <1><306f>: Abbrev Number: 6 (DW_TAG_volatile_type)
    <3070>   DW_AT_type        : <0x3068>
 <1><3074>: Abbrev Number: 7 (DW_TAG_typedef)
    <3075>   DW_AT_name        : (indirect string, offset: 0x14a5): size_t
    <3079>   DW_AT_decl_file   : 2
    <307a>   DW_AT_decl_line   : 209
    <307b>   DW_AT_decl_column : 23
    <307c>   DW_AT_type        : <0x3080>
 <1><3080>: Abbrev Number: 3 (DW_TAG_base_type)
    <3081>   DW_AT_byte_size   : 8
    <3082>   DW_AT_encoding    : 7	(unsigned)
    <3083>   DW_AT_name        : (indirect string, offset: 0x718): long unsigned int
 <1><3087>: Abbrev Number: 3 (DW_TAG_base_type)
    <3088>   DW_AT_byte_size   : 4
    <3089>   DW_AT_encoding    : 7	(unsigned)
    <308a>   DW_AT_name        : (indirect string, offset: 0x71d): unsigned int
 <1><308e>: Abbrev Number: 8 (DW_TAG_pointer_type)
    <308f>   DW_AT_byte_size   : 8
 <1><3090>: Abbrev Number: 3 (DW_TAG_base_type)
    <3091>   DW_AT_byte_size   : 1
    <3092>   DW_AT_encoding    : 8	(unsigned char)
    <3093>   DW_AT_name        : (indirect string, offset: 0x1e4): unsigned char
 <1><3097>: Abbrev Number: 3 (DW_TAG_base_type)
    <3098>   DW_AT_byte_size   : 2
    <3099>   DW_AT_encoding    : 7	(unsigned)
    <309a>   DW_AT_name        : (indirect string, offset: 0x9b0): short unsigned int
 <1><309e>: Abbrev Number: 3 (DW_TAG_base_type)
    <309f>   DW_AT_byte_size   : 1
    <30a0>   DW_AT_encoding    : 6	(signed char)
    <30a1>   DW_AT_name        : (indirect string, offset: 0x1e6): signed char
 <1><30a5>: Abbrev Number: 3 (DW_TAG_base_type)
    <30a6>   DW_AT_byte_size   : 2
    <30a7>   DW_AT_encoding    : 5	(signed)
    <30a8>   DW_AT_name        : (indirect string, offset: 0x8bf): short int
 <1><30ac>: Abbrev Number: 3 (DW_TAG_base_type)
    <30ad>   DW_AT_byte_size   : 8
    <30ae>   DW_AT_encoding    : 5	(signed)
    <30af>   DW_AT_name        : (indirect string, offset: 0x558): long int
 <1><30b3>: Abbrev Number: 7 (DW_TAG_typedef)
    <30b4>   DW_AT_name        : (indirect string, offset: 0x750): __off_t
    <30b8>   DW_AT_decl_file   : 3
    <30b9>   DW_AT_decl_line   : 152
    <30ba>   DW_AT_decl_column : 25
    <30bb>   DW_AT_type        : <0x30ac>
 <1><30bf>: Abbrev Number: 7 (DW_TAG_typedef)
    <30c0>   DW_AT_name        : (indirect string, offset: 0x7f0): __off64_t
    <30c4>   DW_AT_decl_file   : 3
    <30c5>   DW_AT_decl_line   : 153
    <30c6>   DW_AT_decl_column : 27
    <30c7>   DW_AT_type        : <0x30ac>
 <1><30cb>: Abbrev Number: 9 (DW_TAG_structure_type)
    <30cc>   DW_AT_name        : (indirect string, offset: 0x191): _IO_FILE
    <30d0>   DW_AT_byte_size   : 216
    <30d1>   DW_AT_decl_file   : 4
    <30d2>   DW_AT_decl_line   : 49
    <30d3>   DW_AT_decl_column : 8
    <30d4>   DW_AT_sibling     : <0x3252>
 <2><30d8>: Abbrev Number: 10 (DW_TAG_member)
    <30d9>   DW_AT_name        : (indirect string, offset: 0x1088): _flags
    <30dd>   DW_AT_decl_file   : 4
    <30de>   DW_AT_decl_line   : 51
    <30df>   DW_AT_decl_column : 7
    <30e0>   DW_AT_type        : <0x3068>
    <30e4>   DW_AT_data_member_location: 0
 <2><30e5>: Abbrev Number: 10 (DW_TAG_member)
    <30e6>   DW_AT_name        : (indirect string, offset: 0x39a): _IO_read_ptr
    <30ea>   DW_AT_decl_file   : 4
    <30eb>   DW_AT_decl_line   : 54
    <30ec>   DW_AT_decl_column : 9
    <30ed>   DW_AT_type        : <0x3056>
    <30f1>   DW_AT_data_member_location: 8
 <2><30f2>: Abbrev Number: 10 (DW_TAG_member)
    <30f3>   DW_AT_name        : (indirect string, offset: 0x92c): _IO_read_end
    <30f7>   DW_AT_decl_file   : 4
    <30f8>   DW_AT_decl_line   : 55
    <30f9>   DW_AT_decl_column : 9
    <30fa>   DW_AT_type        : <0x3056>
    <30fe>   DW_AT_data_member_location: 16
 <2><30ff>: Abbrev Number: 10 (DW_TAG_member)
    <3100>   DW_AT_name        : (indirect string, offset: 0x4bf): _IO_read_base
    <3104>   DW_AT_decl_file   : 4
    <3105>   DW_AT_decl_line   : 56
    <3106>   DW_AT_decl_column : 9
    <3107>   DW_AT_type        : <0x3056>
    <310b>   DW_AT_data_member_location: 24
 <2><310c>: Abbrev Number: 10 (DW_TAG_member)
    <310d>   DW_AT_name        : (indirect string, offset: 0x64): _IO_write_base
    <3111>   DW_AT_decl_file   : 4
    <3112>   DW_AT_decl_line   : 57
    <3113>   DW_AT_decl_column : 9
    <3114>   DW_AT_type        : <0x3056>
    <3118>   DW_AT_data_member_location: 32
 <2><3119>: Abbrev Number: 10 (DW_TAG_member)
    <311a>   DW_AT_name        : (indirect string, offset: 0x9c3): _IO_write_ptr
    <311e>   DW_AT_decl_file   : 4
    <311f>   DW_AT_decl_line   : 58
    <3120>   DW_AT_decl_column : 9
    <3121>   DW_AT_type        : <0x3056>
    <3125>   DW_AT_data_member_location: 40
 <2><3126>: Abbrev Number: 10 (DW_TAG_member)
    <3127>   DW_AT_name        : (indirect string, offset: 0x57c): _IO_write_end
    <312b>   DW_AT_decl_file   : 4
    <312c>   DW_AT_decl_line   : 59
    <312d>   DW_AT_decl_column : 9
    <312e>   DW_AT_type        : <0x3056>
    <3132>   DW_AT_data_member_location: 48
 <2><3133>: Abbrev Number: 10 (DW_TAG_member)
    <3134>   DW_AT_name        : (indirect string, offset: 0x5e3): _IO_buf_base
    <3138>   DW_AT_decl_file   : 4
    <3139>   DW_AT_decl_line   : 60
    <313a>   DW_AT_decl_column : 9
    <313b>   DW_AT_type        : <0x3056>
    <313f>   DW_AT_data_member_location: 56
 <2><3140>: Abbrev Number: 10 (DW_TAG_member)
    <3141>   DW_AT_name        : (indirect string, offset: 0x82f): _IO_buf_end
    <3145>   DW_AT_decl_file   : 4
    <3146>   DW_AT_decl_line   : 61
    <3147>   DW_AT_decl_column : 9
    <3148>   DW_AT_type        : <0x3056>
    <314c>   DW_AT_data_member_location: 64
 <2><314d>: Abbrev Number: 10 (DW_TAG_member)
    <314e>   DW_AT_name        : (indirect string, offset: 0xa8): _IO_save_base
    <3152>   DW_AT_decl_file   : 4
    <3153>   DW_AT_decl_line   : 64
    <3154>   DW_AT_decl_column : 9
    <3155>   DW_AT_type        : <0x3056>
    <3159>   DW_AT_data_member_location: 72
 <2><315a>: Abbrev Number: 10 (DW_TAG_member)
    <315b>   DW_AT_name        : (indirect string, offset: 0x7c0): _IO_backup_base
    <315f>   DW_AT_decl_file   : 4
    <3160>   DW_AT_decl_line   : 65
    <3161>   DW_AT_decl_column : 9
    <3162>   DW_AT_type        : <0x3056>
    <3166>   DW_AT_data_member_location: 80
 <2><3167>: Abbrev Number: 10 (DW_TAG_member)
    <3168>   DW_AT_name        : (indirect string, offset: 0x57): _IO_save_end
    <316c>   DW_AT_decl_file   : 4
    <316d>   DW_AT_decl_line   : 66
    <316e>   DW_AT_decl_column : 9
    <316f>   DW_AT_type        : <0x3056>
    <3173>   DW_AT_data_member_location: 88
 <2><3174>: Abbrev Number: 10 (DW_TAG_member)
    <3175>   DW_AT_name        : (indirect string, offset: 0x3f1): _markers
    <3179>   DW_AT_decl_file   : 4
    <317a>   DW_AT_decl_line   : 68
    <317b>   DW_AT_decl_column : 22
    <317c>   DW_AT_type        : <0x326b>
    <3180>   DW_AT_data_member_location: 96
 <2><3181>: Abbrev Number: 10 (DW_TAG_member)
    <3182>   DW_AT_name        : (indirect string, offset: 0xc7): _chain
    <3186>   DW_AT_decl_file   : 4
    <3187>   DW_AT_decl_line   : 70
    <3188>   DW_AT_decl_column : 20
    <3189>   DW_AT_type        : <0x3271>
    <318d>   DW_AT_data_member_location: 104
 <2><318e>: Abbrev Number: 10 (DW_TAG_member)
    <318f>   DW_AT_name        : (indirect string, offset: 0x964): _fileno
    <3193>   DW_AT_decl_file   : 4
    <3194>   DW_AT_decl_line   : 72
    <3195>   DW_AT_decl_column : 7
    <3196>   DW_AT_type        : <0x3068>
    <319a>   DW_AT_data_member_location: 112
 <2><319b>: Abbrev Number: 10 (DW_TAG_member)
    <319c>   DW_AT_name        : (indirect string, offset: 0x4ac): _flags2
    <31a0>   DW_AT_decl_file   : 4
    <31a1>   DW_AT_decl_line   : 73
    <31a2>   DW_AT_decl_column : 7
    <31a3>   DW_AT_type        : <0x3068>
    <31a7>   DW_AT_data_member_location: 116
 <2><31a8>: Abbrev Number: 10 (DW_TAG_member)
    <31a9>   DW_AT_name        : (indirect string, offset: 0x529): _old_offset
    <31ad>   DW_AT_decl_file   : 4
    <31ae>   DW_AT_decl_line   : 74
    <31af>   DW_AT_decl_column : 11
    <31b0>   DW_AT_type        : <0x30b3>
    <31b4>   DW_AT_data_member_location: 120
 <2><31b5>: Abbrev Number: 10 (DW_TAG_member)
    <31b6>   DW_AT_name        : (indirect string, offset: 0xce): _cur_column
    <31ba>   DW_AT_decl_file   : 4
    <31bb>   DW_AT_decl_line   : 77
    <31bc>   DW_AT_decl_column : 18
    <31bd>   DW_AT_type        : <0x3097>
    <31c1>   DW_AT_data_member_location: 128
 <2><31c2>: Abbrev Number: 10 (DW_TAG_member)
    <31c3>   DW_AT_name        : (indirect string, offset: 0x8de): _vtable_offset
    <31c7>   DW_AT_decl_file   : 4
    <31c8>   DW_AT_decl_line   : 78
    <31c9>   DW_AT_decl_column : 15
    <31ca>   DW_AT_type        : <0x309e>
    <31ce>   DW_AT_data_member_location: 130
 <2><31cf>: Abbrev Number: 10 (DW_TAG_member)
    <31d0>   DW_AT_name        : (indirect string, offset: 0x7da): _shortbuf
    <31d4>   DW_AT_decl_file   : 4
    <31d5>   DW_AT_decl_line   : 79
    <31d6>   DW_AT_decl_column : 8
    <31d7>   DW_AT_type        : <0x3277>
    <31db>   DW_AT_data_member_location: 131
 <2><31dc>: Abbrev Number: 10 (DW_TAG_member)
    <31dd>   DW_AT_name        : (indirect string, offset: 0x73): _lock
    <31e1>   DW_AT_decl_file   : 4
    <31e2>   DW_AT_decl_line   : 81
    <31e3>   DW_AT_decl_column : 15
    <31e4>   DW_AT_type        : <0x3287>
    <31e8>   DW_AT_data_member_location: 136
 <2><31e9>: Abbrev Number: 10 (DW_TAG_member)
    <31ea>   DW_AT_name        : (indirect string, offset: 0x52d): _offset
    <31ee>   DW_AT_decl_file   : 4
    <31ef>   DW_AT_decl_line   : 89
    <31f0>   DW_AT_decl_column : 13
    <31f1>   DW_AT_type        : <0x30bf>
    <31f5>   DW_AT_data_member_location: 144
 <2><31f6>: Abbrev Number: 10 (DW_TAG_member)
    <31f7>   DW_AT_name        : (indirect string, offset: 0x44): _codecvt
    <31fb>   DW_AT_decl_file   : 4
    <31fc>   DW_AT_decl_line   : 91
    <31fd>   DW_AT_decl_column : 23
    <31fe>   DW_AT_type        : <0x3292>
    <3202>   DW_AT_data_member_location: 152
 <2><3203>: Abbrev Number: 10 (DW_TAG_member)
    <3204>   DW_AT_name        : (indirect string, offset: 0x1b2): _wide_data
    <3208>   DW_AT_decl_file   : 4
    <3209>   DW_AT_decl_line   : 92
    <320a>   DW_AT_decl_column : 25
    <320b>   DW_AT_type        : <0x329d>
    <320f>   DW_AT_data_member_location: 160
 <2><3210>: Abbrev Number: 10 (DW_TAG_member)
    <3211>   DW_AT_name        : (indirect string, offset: 0x1f2): _freeres_list
    <3215>   DW_AT_decl_file   : 4
    <3216>   DW_AT_decl_line   : 93
    <3217>   DW_AT_decl_column : 20
    <3218>   DW_AT_type        : <0x3271>
    <321c>   DW_AT_data_member_location: 168
 <2><321d>: Abbrev Number: 10 (DW_TAG_member)
    <321e>   DW_AT_name        : (indirect string, offset: 0x767): _freeres_buf
    <3222>   DW_AT_decl_file   : 4
    <3223>   DW_AT_decl_line   : 94
    <3224>   DW_AT_decl_column : 9
    <3225>   DW_AT_type        : <0x308e>
    <3229>   DW_AT_data_member_location: 176
 <2><322a>: Abbrev Number: 10 (DW_TAG_member)
    <322b>   DW_AT_name        : (indirect string, offset: 0x620): __pad5
    <322f>   DW_AT_decl_file   : 4
    <3230>   DW_AT_decl_line   : 95
    <3231>   DW_AT_decl_column : 10
    <3232>   DW_AT_type        : <0x3074>
    <3236>   DW_AT_data_member_location: 184
 <2><3237>: Abbrev Number: 10 (DW_TAG_member)
    <3238>   DW_AT_name        : (indirect string, offset: 0x68a): _mode
    <323c>   DW_AT_decl_file   : 4
    <323d>   DW_AT_decl_line   : 96
    <323e>   DW_AT_decl_column : 7
    <323f>   DW_AT_type        : <0x3068>
    <3243>   DW_AT_data_member_location: 192
 <2><3244>: Abbrev Number: 10 (DW_TAG_member)
    <3245>   DW_AT_name        : (indirect string, offset: 0x4de): _unused2
    <3249>   DW_AT_decl_file   : 4
    <324a>   DW_AT_decl_line   : 98
    <324b>   DW_AT_decl_column : 8
    <324c>   DW_AT_type        : <0x32a3>
    <3250>   DW_AT_data_member_location: 196
 <2><3251>: Abbrev Number: 0
 <1><3252>: Abbrev Number: 7 (DW_TAG_typedef)
    <3253>   DW_AT_name        : (indirect string, offset: 0x195): FILE
    <3257>   DW_AT_decl_file   : 5
    <3258>   DW_AT_decl_line   : 7
    <3259>   DW_AT_decl_column : 25
    <325a>   DW_AT_type        : <0x30cb>
 <1><325e>: Abbrev Number: 11 (DW_TAG_typedef)
    <325f>   DW_AT_name        : (indirect string, offset: 0x362): _IO_lock_t
    <3263>   DW_AT_decl_file   : 4
    <3264>   DW_AT_decl_line   : 43
    <3265>   DW_AT_decl_column : 14
 <1><3266>: Abbrev Number: 12 (DW_TAG_structure_type)
    <3267>   DW_AT_name        : (indirect string, offset: 0x138): _IO_marker
    <326b>   DW_AT_declaration : 1
 <1><326b>: Abbrev Number: 2 (DW_TAG_pointer_type)
    <326c>   DW_AT_byte_size   : 8
    <326d>   DW_AT_type        : <0x3266>
 <1><3271>: Abbrev Number: 2 (DW_TAG_pointer_type)
    <3272>   DW_AT_byte_size   : 8
    <3273>   DW_AT_type        : <0x30cb>
 <1><3277>: Abbrev Number: 13 (DW_TAG_array_type)
    <3278>   DW_AT_type        : <0x305c>
    <327c>   DW_AT_sibling     : <0x3287>
 <2><3280>: Abbrev Number: 14 (DW_TAG_subrange_type)
    <3281>   DW_AT_type        : <0x3080>
    <3285>   DW_AT_upper_bound : 0
 <2><3286>: Abbrev Number: 0
 <1><3287>: Abbrev Number: 2 (DW_TAG_pointer_type)
    <3288>   DW_AT_byte_size   : 8
    <3289>   DW_AT_type        : <0x325e>
 <1><328d>: Abbrev Number: 12 (DW_TAG_structure_type)
    <328e>   DW_AT_name        : (indirect string, offset: 0x41): _IO_codecvt
    <3292>   DW_AT_declaration : 1
 <1><3292>: Abbrev Number: 2 (DW_TAG_pointer_type)
    <3293>   DW_AT_byte_size   : 8
    <3294>   DW_AT_type        : <0x328d>
 <1><3298>: Abbrev Number: 12 (DW_TAG_structure_type)
    <3299>   DW_AT_name        : (indirect string, offset: 0x1af): _IO_wide_data
    <329d>   DW_AT_declaration : 1
 <1><329d>: Abbrev Number: 2 (DW_TAG_pointer_type)
    <329e>   DW_AT_byte_size   : 8
    <329f>   DW_AT_type        : <0x3298>
 <1><32a3>: Abbrev Number: 13 (DW_TAG_array_type)
    <32a4>   DW_AT_type        : <0x305c>
    <32a8>   DW_AT_sibling     : <0x32b3>
 <2><32ac>: Abbrev Number: 14 (DW_TAG_subrange_type)
    <32ad>   DW_AT_type        : <0x3080>
    <32b1>   DW_AT_upper_bound : 19
 <2><32b2>: Abbrev Number: 0
 <1><32b3>: Abbrev Number: 2 (DW_TAG_pointer_type)
    <32b4>   DW_AT_byte_size   : 8
    <32b5>   DW_AT_type        : <0x3063>
 <1><32b9>: Abbrev Number: 2 (DW_TAG_pointer_type)
    <32ba>   DW_AT_byte_size   : 8
    <32bb>   DW_AT_type        : <0x3252>
 <1><32bf>: Abbrev Number: 15 (DW_TAG_variable)
    <32c0>   DW_AT_name        : (indirect string, offset: 0x9a1): stdout
    <32c4>   DW_AT_decl_file   : 6
    <32c5>   DW_AT_decl_line   : 138
    <32c6>   DW_AT_decl_column : 14
    <32c7>   DW_AT_type        : <0x32b9>
    <32cb>   DW_AT_external    : 1
    <32cb>   DW_AT_declaration : 1
 <1><32cb>: Abbrev Number: 15 (DW_TAG_variable)
    <32cc>   DW_AT_name        : (indirect string, offset: 0x8b8): stderr
    <32d0>   DW_AT_decl_file   : 6
    <32d1>   DW_AT_decl_line   : 139
    <32d2>   DW_AT_decl_column : 14
    <32d3>   DW_AT_type        : <0x32b9>
    <32d7>   DW_AT_external    : 1
    <32d7>   DW_AT_declaration : 1
 <1><32d7>: Abbrev Number: 3 (DW_TAG_base_type)
    <32d8>   DW_AT_byte_size   : 8
    <32d9>   DW_AT_encoding    : 5	(signed)
    <32da>   DW_AT_name        : (indirect string, offset: 0x553): long long int
 <1><32de>: Abbrev Number: 3 (DW_TAG_base_type)
    <32df>   DW_AT_byte_size   : 16
    <32e0>   DW_AT_encoding    : 4	(float)
    <32e1>   DW_AT_name        : (indirect string, offset: 0x6b1): long double
 <1><32e5>: Abbrev Number: 3 (DW_TAG_base_type)
    <32e6>   DW_AT_byte_size   : 8
    <32e7>   DW_AT_encoding    : 7	(unsigned)
    <32e8>   DW_AT_name        : (indirect string, offset: 0x713): long long unsigned int
 <1><32ec>: Abbrev Number: 15 (DW_TAG_variable)
    <32ed>   DW_AT_name        : (indirect string, offset: 0xada): exit_failure
    <32f1>   DW_AT_decl_file   : 7
    <32f2>   DW_AT_decl_line   : 18
    <32f3>   DW_AT_decl_column : 21
    <32f4>   DW_AT_type        : <0x306f>
    <32f8>   DW_AT_external    : 1
    <32f8>   DW_AT_declaration : 1
 <1><32f8>: Abbrev Number: 16 (DW_TAG_enumeration_type)
    <32f9>   DW_AT_encoding    : 7	(unsigned)
    <32fa>   DW_AT_byte_size   : 4
    <32fb>   DW_AT_type        : <0x3087>
    <32ff>   DW_AT_decl_file   : 1
    <3300>   DW_AT_decl_line   : 43
    <3301>   DW_AT_decl_column : 6
    <3302>   DW_AT_sibling     : <0x330d>
 <2><3306>: Abbrev Number: 17 (DW_TAG_enumerator)
    <3307>   DW_AT_name        : (indirect string, offset: 0xaba): SANITIZE_ADDRESS
    <330b>   DW_AT_const_value : 0
 <2><330c>: Abbrev Number: 0
 <1><330d>: Abbrev Number: 18 (DW_TAG_variable)
    <330e>   DW_AT_name        : (indirect string, offset: 0xa58): file_name
    <3312>   DW_AT_decl_file   : 1
    <3313>   DW_AT_decl_line   : 46
    <3314>   DW_AT_decl_column : 20
    <3315>   DW_AT_type        : <0x32b3>
    <3319>   DW_AT_location    : 9 byte block: 3 30 81 1 0 0 0 0 0 	(DW_OP_addr: 18130)
 <1><3323>: Abbrev Number: 18 (DW_TAG_variable)
    <3324>   DW_AT_name        : (indirect string, offset: 0xa8a): ignore_EPIPE
    <3328>   DW_AT_decl_file   : 1
    <3329>   DW_AT_decl_line   : 56
    <332a>   DW_AT_decl_column : 13
    <332b>   DW_AT_type        : <0x3339>
    <332f>   DW_AT_location    : 9 byte block: 3 38 81 1 0 0 0 0 0 	(DW_OP_addr: 18138)
 <1><3339>: Abbrev Number: 3 (DW_TAG_base_type)
    <333a>   DW_AT_byte_size   : 1
    <333b>   DW_AT_encoding    : 2	(boolean)
    <333c>   DW_AT_name        : (indirect string, offset: 0x2ee): _Bool
 <1><3340>: Abbrev Number: 19 (DW_TAG_subprogram)
    <3341>   DW_AT_external    : 1
    <3341>   DW_AT_name        : (indirect string, offset: 0xa6e): _exit
    <3345>   DW_AT_decl_file   : 8
    <3346>   DW_AT_decl_line   : 603
    <3348>   DW_AT_decl_column : 13
    <3349>   DW_AT_prototyped  : 1
    <3349>   DW_AT_noreturn    : 1
    <3349>   DW_AT_declaration : 1
    <3349>   DW_AT_sibling     : <0x3353>
 <2><334d>: Abbrev Number: 20 (DW_TAG_formal_parameter)
    <334e>   DW_AT_type        : <0x3068>
 <2><3352>: Abbrev Number: 0
 <1><3353>: Abbrev Number: 21 (DW_TAG_subprogram)
    <3354>   DW_AT_external    : 1
    <3354>   DW_AT_name        : (indirect string, offset: 0xa68): error
    <3358>   DW_AT_decl_file   : 12
    <3359>   DW_AT_decl_line   : 33
    <335a>   DW_AT_decl_column : 13
    <335b>   DW_AT_prototyped  : 1
    <335b>   DW_AT_declaration : 1
    <335b>   DW_AT_sibling     : <0x3370>
 <2><335f>: Abbrev Number: 20 (DW_TAG_formal_parameter)
    <3360>   DW_AT_type        : <0x3068>
 <2><3364>: Abbrev Number: 20 (DW_TAG_formal_parameter)
    <3365>   DW_AT_type        : <0x3068>
 <2><3369>: Abbrev Number: 20 (DW_TAG_formal_parameter)
    <336a>   DW_AT_type        : <0x32b3>
 <2><336e>: Abbrev Number: 22 (DW_TAG_unspecified_parameters)
 <2><336f>: Abbrev Number: 0
 <1><3370>: Abbrev Number: 23 (DW_TAG_subprogram)
    <3371>   DW_AT_external    : 1
    <3371>   DW_AT_name        : (indirect string, offset: 0xaa4): quotearg_colon
    <3375>   DW_AT_decl_file   : 9
    <3376>   DW_AT_decl_line   : 397
    <3378>   DW_AT_decl_column : 7
    <3379>   DW_AT_prototyped  : 1
    <3379>   DW_AT_type        : <0x3056>
    <337d>   DW_AT_declaration : 1
    <337d>   DW_AT_sibling     : <0x3387>
 <2><3381>: Abbrev Number: 20 (DW_TAG_formal_parameter)
    <3382>   DW_AT_type        : <0x32b3>
 <2><3386>: Abbrev Number: 0
 <1><3387>: Abbrev Number: 24 (DW_TAG_subprogram)
    <3388>   DW_AT_external    : 1
    <3388>   DW_AT_name        : (indirect string, offset: 0x9a8): gettext
    <338c>   DW_AT_decl_file   : 10
    <338d>   DW_AT_decl_line   : 39
    <338e>   DW_AT_decl_column : 14
    <338f>   DW_AT_prototyped  : 1
    <338f>   DW_AT_type        : <0x3056>
    <3393>   DW_AT_declaration : 1
    <3393>   DW_AT_sibling     : <0x339d>
 <2><3397>: Abbrev Number: 20 (DW_TAG_formal_parameter)
    <3398>   DW_AT_type        : <0x32b3>
 <2><339c>: Abbrev Number: 0
 <1><339d>: Abbrev Number: 25 (DW_TAG_subprogram)
    <339e>   DW_AT_external    : 1
    <339e>   DW_AT_name        : (indirect string, offset: 0x378): __errno_location
    <33a2>   DW_AT_decl_file   : 13
    <33a3>   DW_AT_decl_line   : 37
    <33a4>   DW_AT_decl_column : 13
    <33a5>   DW_AT_prototyped  : 1
    <33a5>   DW_AT_type        : <0x33a9>
    <33a9>   DW_AT_declaration : 1
 <1><33a9>: Abbrev Number: 2 (DW_TAG_pointer_type)
    <33aa>   DW_AT_byte_size   : 8
    <33ab>   DW_AT_type        : <0x3068>
 <1><33af>: Abbrev Number: 24 (DW_TAG_subprogram)
    <33b0>   DW_AT_external    : 1
    <33b0>   DW_AT_name        : (indirect string, offset: 0xa97): close_stream
    <33b4>   DW_AT_decl_file   : 11
    <33b5>   DW_AT_decl_line   : 20
    <33b6>   DW_AT_decl_column : 5
    <33b7>   DW_AT_prototyped  : 1
    <33b7>   DW_AT_type        : <0x3068>
    <33bb>   DW_AT_declaration : 1
    <33bb>   DW_AT_sibling     : <0x33c5>
 <2><33bf>: Abbrev Number: 20 (DW_TAG_formal_parameter)
    <33c0>   DW_AT_type        : <0x32b9>
 <2><33c4>: Abbrev Number: 0
 <1><33c5>: Abbrev Number: 26 (DW_TAG_subprogram)
    <33c6>   DW_AT_external    : 1
    <33c6>   DW_AT_name        : (indirect string, offset: 0x99b): close_stdout
    <33ca>   DW_AT_decl_file   : 1
    <33cb>   DW_AT_decl_line   : 117
    <33cc>   DW_AT_decl_column : 1
    <33cd>   DW_AT_prototyped  : 1
    <33cd>   DW_AT_low_pc      : 0x8073
    <33d5>   DW_AT_high_pc     : 0xf8
    <33dd>   DW_AT_frame_base  : 1 byte block: 9c 	(DW_OP_call_frame_cfa)
    <33df>   DW_AT_GNU_all_tail_call_sites: 1
    <33df>   DW_AT_sibling     : <0x3405>
 <2><33e3>: Abbrev Number: 27 (DW_TAG_lexical_block)
    <33e4>   DW_AT_low_pc      : 0x80b5
    <33ec>   DW_AT_high_pc     : 0x8f
 <3><33f4>: Abbrev Number: 18 (DW_TAG_variable)
    <33f5>   DW_AT_name        : (indirect string, offset: 0xa62): write_error
    <33f9>   DW_AT_decl_file   : 1
    <33fa>   DW_AT_decl_line   : 122
    <33fb>   DW_AT_decl_column : 19
    <33fc>   DW_AT_type        : <0x32b3>
    <3400>   DW_AT_location    : 2 byte block: 91 58 	(DW_OP_fbreg: -40)
 <3><3403>: Abbrev Number: 0
 <2><3404>: Abbrev Number: 0
 <1><3405>: Abbrev Number: 28 (DW_TAG_subprogram)
    <3406>   DW_AT_external    : 1
    <3406>   DW_AT_name        : (indirect string, offset: 0xa79): close_stdout_set_ignore_EPIPE
    <340a>   DW_AT_decl_file   : 1
    <340b>   DW_AT_decl_line   : 88
    <340c>   DW_AT_decl_column : 1
    <340d>   DW_AT_prototyped  : 1
    <340d>   DW_AT_low_pc      : 0x8059
    <3415>   DW_AT_high_pc     : 0x1a
    <341d>   DW_AT_frame_base  : 1 byte block: 9c 	(DW_OP_call_frame_cfa)
    <341f>   DW_AT_GNU_all_call_sites: 1
    <341f>   DW_AT_sibling     : <0x3433>
 <2><3423>: Abbrev Number: 29 (DW_TAG_formal_parameter)
    <3424>   DW_AT_name        : (indirect string, offset: 0xab3): ignore
    <3428>   DW_AT_decl_file   : 1
    <3429>   DW_AT_decl_line   : 88
    <342a>   DW_AT_decl_column : 37
    <342b>   DW_AT_type        : <0x3339>
    <342f>   DW_AT_location    : 2 byte block: 91 6c 	(DW_OP_fbreg: -20)
 <2><3432>: Abbrev Number: 0
 <1><3433>: Abbrev Number: 30 (DW_TAG_subprogram)
    <3434>   DW_AT_external    : 1
    <3434>   DW_AT_name        : (indirect string, offset: 0xa47): close_stdout_set_file_name
    <3438>   DW_AT_decl_file   : 1
    <3439>   DW_AT_decl_line   : 51
    <343a>   DW_AT_decl_column : 1
    <343b>   DW_AT_prototyped  : 1
    <343b>   DW_AT_low_pc      : 0x803f
    <3443>   DW_AT_high_pc     : 0x1a
    <344b>   DW_AT_frame_base  : 1 byte block: 9c 	(DW_OP_call_frame_cfa)
    <344d>   DW_AT_GNU_all_call_sites: 1
 <2><344d>: Abbrev Number: 29 (DW_TAG_formal_parameter)
    <344e>   DW_AT_name        : (indirect string, offset: 0xa74): file
    <3452>   DW_AT_decl_file   : 1
    <3453>   DW_AT_decl_line   : 51
    <3454>   DW_AT_decl_column : 41
    <3455>   DW_AT_type        : <0x32b3>
    <3459>   DW_AT_location    : 2 byte block: 91 68 	(DW_OP_fbreg: -24)
 <2><345c>: Abbrev Number: 0
 <1><345d>: Abbrev Number: 0
  Compilation Unit @ offset 0x345e:
   Length:        0x91 (32-bit)
   Version:       4
   Abbrev Offset: 0x5d8
   Pointer Size:  8
 <0><3469>: Abbrev Number: 1 (DW_TAG_compile_unit)
    <346a>   DW_AT_producer    : (indirect string, offset: 0x25c): GNU C17 11.1.0 -mtune=generic -march=x86-64 -g -O0 -fasynchronous-unwind-tables -fstack-protector-strong -fstack-clash-protection -fcf-protection
    <346e>   DW_AT_language    : 12	(ANSI C99)
    <346f>   DW_AT_name        : (indirect string, offset: 0xae7): lib/exitfail.c
    <3473>   DW_AT_comp_dir    : (indirect string, offset: 0x884): /home/jacekline/dev/research/programs/coreutils-9.1
    <3477>   DW_AT_stmt_list   : 0x19ed
 <1><347b>: Abbrev Number: 2 (DW_TAG_variable)
    <347c>   DW_AT_name        : (indirect string, offset: 0xada): exit_failure
    <3480>   DW_AT_decl_file   : 1
    <3481>   DW_AT_decl_line   : 18
    <3482>   DW_AT_decl_column : 21
    <3483>   DW_AT_type        : <0x348e>
    <3487>   DW_AT_external    : 1
    <3487>   DW_AT_declaration : 1
 <1><3487>: Abbrev Number: 3 (DW_TAG_base_type)
    <3488>   DW_AT_byte_size   : 4
    <3489>   DW_AT_encoding    : 5	(signed)
    <348a>   DW_AT_name        : int
 <1><348e>: Abbrev Number: 4 (DW_TAG_volatile_type)
    <348f>   DW_AT_type        : <0x3487>
 <1><3493>: Abbrev Number: 5 (DW_TAG_base_type)
    <3494>   DW_AT_byte_size   : 8
    <3495>   DW_AT_encoding    : 7	(unsigned)
    <3496>   DW_AT_name        : (indirect string, offset: 0x718): long unsigned int
 <1><349a>: Abbrev Number: 5 (DW_TAG_base_type)
    <349b>   DW_AT_byte_size   : 4
    <349c>   DW_AT_encoding    : 7	(unsigned)
    <349d>   DW_AT_name        : (indirect string, offset: 0x71d): unsigned int
 <1><34a1>: Abbrev Number: 5 (DW_TAG_base_type)
    <34a2>   DW_AT_byte_size   : 8
    <34a3>   DW_AT_encoding    : 5	(signed)
    <34a4>   DW_AT_name        : (indirect string, offset: 0x558): long int
 <1><34a8>: Abbrev Number: 5 (DW_TAG_base_type)
    <34a9>   DW_AT_byte_size   : 8
    <34aa>   DW_AT_encoding    : 5	(signed)
    <34ab>   DW_AT_name        : (indirect string, offset: 0x553): long long int
 <1><34af>: Abbrev Number: 5 (DW_TAG_base_type)
    <34b0>   DW_AT_byte_size   : 2
    <34b1>   DW_AT_encoding    : 7	(unsigned)
    <34b2>   DW_AT_name        : (indirect string, offset: 0x9b0): short unsigned int
 <1><34b6>: Abbrev Number: 5 (DW_TAG_base_type)
    <34b7>   DW_AT_byte_size   : 1
    <34b8>   DW_AT_encoding    : 6	(signed char)
    <34b9>   DW_AT_name        : (indirect string, offset: 0x1ed): char
 <1><34bd>: Abbrev Number: 5 (DW_TAG_base_type)
    <34be>   DW_AT_byte_size   : 1
    <34bf>   DW_AT_encoding    : 8	(unsigned char)
    <34c0>   DW_AT_name        : (indirect string, offset: 0x1e4): unsigned char
 <1><34c4>: Abbrev Number: 5 (DW_TAG_base_type)
    <34c5>   DW_AT_byte_size   : 1
    <34c6>   DW_AT_encoding    : 6	(signed char)
    <34c7>   DW_AT_name        : (indirect string, offset: 0x1e6): signed char
 <1><34cb>: Abbrev Number: 5 (DW_TAG_base_type)
    <34cc>   DW_AT_byte_size   : 2
    <34cd>   DW_AT_encoding    : 5	(signed)
    <34ce>   DW_AT_name        : (indirect string, offset: 0x8bf): short int
 <1><34d2>: Abbrev Number: 5 (DW_TAG_base_type)
    <34d3>   DW_AT_byte_size   : 8
    <34d4>   DW_AT_encoding    : 7	(unsigned)
    <34d5>   DW_AT_name        : (indirect string, offset: 0x713): long long unsigned int
 <1><34d9>: Abbrev Number: 5 (DW_TAG_base_type)
    <34da>   DW_AT_byte_size   : 16
    <34db>   DW_AT_encoding    : 4	(float)
    <34dc>   DW_AT_name        : (indirect string, offset: 0x6b1): long double
 <1><34e0>: Abbrev Number: 6 (DW_TAG_variable)
    <34e1>   DW_AT_specification: <0x347b>
    <34e5>   DW_AT_decl_file   : 2
    <34e6>   DW_AT_decl_line   : 24
    <34e7>   DW_AT_decl_column : 14
    <34e8>   DW_AT_location    : 9 byte block: 3 20 80 1 0 0 0 0 0 	(DW_OP_addr: 18020)
 <1><34f2>: Abbrev Number: 0
  Compilation Unit @ offset 0x34f3:
   Length:        0xed (32-bit)
   Version:       4
   Abbrev Offset: 0x627
   Pointer Size:  8
 <0><34fe>: Abbrev Number: 1 (DW_TAG_compile_unit)
    <34ff>   DW_AT_producer    : (indirect string, offset: 0x25c): GNU C17 11.1.0 -mtune=generic -march=x86-64 -g -O0 -fasynchronous-unwind-tables -fstack-protector-strong -fstack-clash-protection -fcf-protection
    <3503>   DW_AT_language    : 12	(ANSI C99)
    <3504>   DW_AT_name        : (indirect string, offset: 0xaf6): lib/free.c
    <3508>   DW_AT_comp_dir    : (indirect string, offset: 0x884): /home/jacekline/dev/research/programs/coreutils-9.1
    <350c>   DW_AT_low_pc      : 0x816b
    <3514>   DW_AT_high_pc     : 0x83
    <351c>   DW_AT_stmt_list   : 0x1a2a
 <1><3520>: Abbrev Number: 2 (DW_TAG_base_type)
    <3521>   DW_AT_byte_size   : 8
    <3522>   DW_AT_encoding    : 7	(unsigned)
    <3523>   DW_AT_name        : (indirect string, offset: 0x718): long unsigned int
 <1><3527>: Abbrev Number: 3 (DW_TAG_base_type)
    <3528>   DW_AT_byte_size   : 4
    <3529>   DW_AT_encoding    : 5	(signed)
    <352a>   DW_AT_name        : int
 <1><352e>: Abbrev Number: 2 (DW_TAG_base_type)
    <352f>   DW_AT_byte_size   : 4
    <3530>   DW_AT_encoding    : 7	(unsigned)
    <3531>   DW_AT_name        : (indirect string, offset: 0x71d): unsigned int
 <1><3535>: Abbrev Number: 2 (DW_TAG_base_type)
    <3536>   DW_AT_byte_size   : 8
    <3537>   DW_AT_encoding    : 5	(signed)
    <3538>   DW_AT_name        : (indirect string, offset: 0x558): long int
 <1><353c>: Abbrev Number: 2 (DW_TAG_base_type)
    <353d>   DW_AT_byte_size   : 8
    <353e>   DW_AT_encoding    : 5	(signed)
    <353f>   DW_AT_name        : (indirect string, offset: 0x553): long long int
 <1><3543>: Abbrev Number: 2 (DW_TAG_base_type)
    <3544>   DW_AT_byte_size   : 2
    <3545>   DW_AT_encoding    : 7	(unsigned)
    <3546>   DW_AT_name        : (indirect string, offset: 0x9b0): short unsigned int
 <1><354a>: Abbrev Number: 2 (DW_TAG_base_type)
    <354b>   DW_AT_byte_size   : 1
    <354c>   DW_AT_encoding    : 6	(signed char)
    <354d>   DW_AT_name        : (indirect string, offset: 0x1ed): char
 <1><3551>: Abbrev Number: 2 (DW_TAG_base_type)
    <3552>   DW_AT_byte_size   : 1
    <3553>   DW_AT_encoding    : 8	(unsigned char)
    <3554>   DW_AT_name        : (indirect string, offset: 0x1e4): unsigned char
 <1><3558>: Abbrev Number: 2 (DW_TAG_base_type)
    <3559>   DW_AT_byte_size   : 1
    <355a>   DW_AT_encoding    : 6	(signed char)
    <355b>   DW_AT_name        : (indirect string, offset: 0x1e6): signed char
 <1><355f>: Abbrev Number: 2 (DW_TAG_base_type)
    <3560>   DW_AT_byte_size   : 2
    <3561>   DW_AT_encoding    : 5	(signed)
    <3562>   DW_AT_name        : (indirect string, offset: 0x8bf): short int
 <1><3566>: Abbrev Number: 4 (DW_TAG_array_type)
    <3567>   DW_AT_type        : <0x3527>
    <356b>   DW_AT_sibling     : <0x3576>
 <2><356f>: Abbrev Number: 5 (DW_TAG_subrange_type)
    <3570>   DW_AT_type        : <0x3520>
    <3574>   DW_AT_upper_bound : 1
 <2><3575>: Abbrev Number: 0
 <1><3576>: Abbrev Number: 6 (DW_TAG_pointer_type)
    <3577>   DW_AT_byte_size   : 8
 <1><3578>: Abbrev Number: 2 (DW_TAG_base_type)
    <3579>   DW_AT_byte_size   : 8
    <357a>   DW_AT_encoding    : 7	(unsigned)
    <357b>   DW_AT_name        : (indirect string, offset: 0x713): long long unsigned int
 <1><357f>: Abbrev Number: 2 (DW_TAG_base_type)
    <3580>   DW_AT_byte_size   : 16
    <3581>   DW_AT_encoding    : 4	(float)
    <3582>   DW_AT_name        : (indirect string, offset: 0x6b1): long double
 <1><3586>: Abbrev Number: 7 (DW_TAG_subprogram)
    <3587>   DW_AT_external    : 1
    <3587>   DW_AT_name        : (indirect string, offset: 0x105e): free
    <358b>   DW_AT_decl_file   : 2
    <358c>   DW_AT_decl_line   : 565
    <358e>   DW_AT_decl_column : 13
    <358f>   DW_AT_prototyped  : 1
    <358f>   DW_AT_declaration : 1
    <358f>   DW_AT_sibling     : <0x3599>
 <2><3593>: Abbrev Number: 8 (DW_TAG_formal_parameter)
    <3594>   DW_AT_type        : <0x3576>
 <2><3598>: Abbrev Number: 0
 <1><3599>: Abbrev Number: 9 (DW_TAG_subprogram)
    <359a>   DW_AT_external    : 1
    <359a>   DW_AT_name        : (indirect string, offset: 0x378): __errno_location
    <359e>   DW_AT_decl_file   : 3
    <359f>   DW_AT_decl_line   : 37
    <35a0>   DW_AT_decl_column : 13
    <35a1>   DW_AT_prototyped  : 1
    <35a1>   DW_AT_type        : <0x35a5>
    <35a5>   DW_AT_declaration : 1
 <1><35a5>: Abbrev Number: 10 (DW_TAG_pointer_type)
    <35a6>   DW_AT_byte_size   : 8
    <35a7>   DW_AT_type        : <0x3527>
 <1><35ab>: Abbrev Number: 11 (DW_TAG_subprogram)
    <35ac>   DW_AT_external    : 1
    <35ac>   DW_AT_name        : (indirect string, offset: 0x941): rpl_free
    <35b0>   DW_AT_decl_file   : 4
    <35b1>   DW_AT_decl_line   : 739
    <35b3>   DW_AT_decl_column : 1
    <35b4>   DW_AT_prototyped  : 1
    <35b4>   DW_AT_low_pc      : 0x816b
    <35bc>   DW_AT_high_pc     : 0x83
    <35c4>   DW_AT_frame_base  : 1 byte block: 9c 	(DW_OP_call_frame_cfa)
    <35c6>   DW_AT_GNU_all_tail_call_sites: 1
 <2><35c6>: Abbrev Number: 12 (DW_TAG_formal_parameter)
    <35c7>   DW_AT_name        : p
    <35c9>   DW_AT_decl_file   : 1
    <35ca>   DW_AT_decl_line   : 31
    <35cb>   DW_AT_decl_column : 17
    <35cc>   DW_AT_type        : <0x3576>
    <35d0>   DW_AT_location    : 2 byte block: 91 48 	(DW_OP_fbreg: -56)
 <2><35d3>: Abbrev Number: 13 (DW_TAG_variable)
    <35d4>   DW_AT_name        : err
    <35d8>   DW_AT_decl_file   : 1
    <35d9>   DW_AT_decl_line   : 40
    <35da>   DW_AT_decl_column : 7
    <35db>   DW_AT_type        : <0x3566>
    <35df>   DW_AT_location    : 2 byte block: 91 50 	(DW_OP_fbreg: -48)
 <2><35e2>: Abbrev Number: 0
 <1><35e3>: Abbrev Number: 0
  Compilation Unit @ offset 0x35e4:
   Length:        0x127 (32-bit)
   Version:       4
   Abbrev Offset: 0x6e0
   Pointer Size:  8
 <0><35ef>: Abbrev Number: 1 (DW_TAG_compile_unit)
    <35f0>   DW_AT_producer    : (indirect string, offset: 0x25c): GNU C17 11.1.0 -mtune=generic -march=x86-64 -g -O0 -fasynchronous-unwind-tables -fstack-protector-strong -fstack-clash-protection -fcf-protection
    <35f4>   DW_AT_language    : 12	(ANSI C99)
    <35f5>   DW_AT_name        : (indirect string, offset: 0xb01): lib/full-write.c
    <35f9>   DW_AT_comp_dir    : (indirect string, offset: 0x884): /home/jacekline/dev/research/programs/coreutils-9.1
    <35fd>   DW_AT_low_pc      : 0x81ee
    <3605>   DW_AT_high_pc     : 0x85
    <360d>   DW_AT_stmt_list   : 0x1ac9
 <1><3611>: Abbrev Number: 2 (DW_TAG_base_type)
    <3612>   DW_AT_byte_size   : 8
    <3613>   DW_AT_encoding    : 5	(signed)
    <3614>   DW_AT_name        : (indirect string, offset: 0x558): long int
 <1><3618>: Abbrev Number: 3 (DW_TAG_typedef)
    <3619>   DW_AT_name        : (indirect string, offset: 0x14a5): size_t
    <361d>   DW_AT_decl_file   : 2
    <361e>   DW_AT_decl_line   : 209
    <361f>   DW_AT_decl_column : 23
    <3620>   DW_AT_type        : <0x3624>
 <1><3624>: Abbrev Number: 2 (DW_TAG_base_type)
    <3625>   DW_AT_byte_size   : 8
    <3626>   DW_AT_encoding    : 7	(unsigned)
    <3627>   DW_AT_name        : (indirect string, offset: 0x718): long unsigned int
 <1><362b>: Abbrev Number: 4 (DW_TAG_base_type)
    <362c>   DW_AT_byte_size   : 4
    <362d>   DW_AT_encoding    : 5	(signed)
    <362e>   DW_AT_name        : int
 <1><3632>: Abbrev Number: 2 (DW_TAG_base_type)
    <3633>   DW_AT_byte_size   : 8
    <3634>   DW_AT_encoding    : 5	(signed)
    <3635>   DW_AT_name        : (indirect string, offset: 0x553): long long int
 <1><3639>: Abbrev Number: 2 (DW_TAG_base_type)
    <363a>   DW_AT_byte_size   : 16
    <363b>   DW_AT_encoding    : 4	(float)
    <363c>   DW_AT_name        : (indirect string, offset: 0x6b1): long double
 <1><3640>: Abbrev Number: 2 (DW_TAG_base_type)
    <3641>   DW_AT_byte_size   : 1
    <3642>   DW_AT_encoding    : 6	(signed char)
    <3643>   DW_AT_name        : (indirect string, offset: 0x1ed): char
 <1><3647>: Abbrev Number: 5 (DW_TAG_const_type)
    <3648>   DW_AT_type        : <0x3640>
 <1><364c>: Abbrev Number: 6 (DW_TAG_subprogram)
    <364d>   DW_AT_external    : 1
    <364d>   DW_AT_name        : (indirect string, offset: 0x378): __errno_location
    <3651>   DW_AT_decl_file   : 3
    <3652>   DW_AT_decl_line   : 37
    <3653>   DW_AT_decl_column : 13
    <3654>   DW_AT_prototyped  : 1
    <3654>   DW_AT_type        : <0x3658>
    <3658>   DW_AT_declaration : 1
 <1><3658>: Abbrev Number: 7 (DW_TAG_pointer_type)
    <3659>   DW_AT_byte_size   : 8
    <365a>   DW_AT_type        : <0x362b>
 <1><365e>: Abbrev Number: 8 (DW_TAG_subprogram)
    <365f>   DW_AT_external    : 1
    <365f>   DW_AT_name        : (indirect string, offset: 0xb12): safe_write
    <3663>   DW_AT_decl_file   : 4
    <3664>   DW_AT_decl_line   : 37
    <3665>   DW_AT_decl_column : 15
    <3666>   DW_AT_prototyped  : 1
    <3666>   DW_AT_type        : <0x3618>
    <366a>   DW_AT_declaration : 1
    <366a>   DW_AT_sibling     : <0x367e>
 <2><366e>: Abbrev Number: 9 (DW_TAG_formal_parameter)
    <366f>   DW_AT_type        : <0x362b>
 <2><3673>: Abbrev Number: 9 (DW_TAG_formal_parameter)
    <3674>   DW_AT_type        : <0x367e>
 <2><3678>: Abbrev Number: 9 (DW_TAG_formal_parameter)
    <3679>   DW_AT_type        : <0x3618>
 <2><367d>: Abbrev Number: 0
 <1><367e>: Abbrev Number: 7 (DW_TAG_pointer_type)
    <367f>   DW_AT_byte_size   : 8
    <3680>   DW_AT_type        : <0x3684>
 <1><3684>: Abbrev Number: 10 (DW_TAG_const_type)
 <1><3685>: Abbrev Number: 11 (DW_TAG_subprogram)
    <3686>   DW_AT_external    : 1
    <3686>   DW_AT_name        : (indirect string, offset: 0x535): full_write
    <368a>   DW_AT_decl_file   : 1
    <368b>   DW_AT_decl_line   : 58
    <368c>   DW_AT_decl_column : 1
    <368d>   DW_AT_prototyped  : 1
    <368d>   DW_AT_type        : <0x3618>
    <3691>   DW_AT_low_pc      : 0x81ee
    <3699>   DW_AT_high_pc     : 0x85
    <36a1>   DW_AT_frame_base  : 1 byte block: 9c 	(DW_OP_call_frame_cfa)
    <36a3>   DW_AT_GNU_all_tail_call_sites: 1
    <36a3>   DW_AT_sibling     : <0x3708>
 <2><36a7>: Abbrev Number: 12 (DW_TAG_formal_parameter)
    <36a8>   DW_AT_name        : fd
    <36ab>   DW_AT_decl_file   : 1
    <36ac>   DW_AT_decl_line   : 58
    <36ad>   DW_AT_decl_column : 14
    <36ae>   DW_AT_type        : <0x362b>
    <36b2>   DW_AT_location    : 2 byte block: 91 4c 	(DW_OP_fbreg: -52)
 <2><36b5>: Abbrev Number: 12 (DW_TAG_formal_parameter)
    <36b6>   DW_AT_name        : buf
    <36ba>   DW_AT_decl_file   : 1
    <36bb>   DW_AT_decl_line   : 58
    <36bc>   DW_AT_decl_column : 30
    <36bd>   DW_AT_type        : <0x367e>
    <36c1>   DW_AT_location    : 2 byte block: 91 40 	(DW_OP_fbreg: -64)
 <2><36c4>: Abbrev Number: 13 (DW_TAG_formal_parameter)
    <36c5>   DW_AT_name        : (indirect string, offset: 0xc16): count
    <36c9>   DW_AT_decl_file   : 1
    <36ca>   DW_AT_decl_line   : 58
    <36cb>   DW_AT_decl_column : 42
    <36cc>   DW_AT_type        : <0x3618>
    <36d0>   DW_AT_location    : 3 byte block: 91 b8 7f 	(DW_OP_fbreg: -72)
 <2><36d4>: Abbrev Number: 14 (DW_TAG_variable)
    <36d5>   DW_AT_name        : (indirect string, offset: 0xb22): total
    <36d9>   DW_AT_decl_file   : 1
    <36da>   DW_AT_decl_line   : 60
    <36db>   DW_AT_decl_column : 10
    <36dc>   DW_AT_type        : <0x3618>
    <36e0>   DW_AT_location    : 2 byte block: 91 58 	(DW_OP_fbreg: -40)
 <2><36e3>: Abbrev Number: 15 (DW_TAG_variable)
    <36e4>   DW_AT_name        : ptr
    <36e8>   DW_AT_decl_file   : 1
    <36e9>   DW_AT_decl_line   : 61
    <36ea>   DW_AT_decl_column : 15
    <36eb>   DW_AT_type        : <0x3708>
    <36ef>   DW_AT_location    : 2 byte block: 91 60 	(DW_OP_fbreg: -32)
 <2><36f2>: Abbrev Number: 16 (DW_TAG_lexical_block)
    <36f3>   DW_AT_ranges      : 0x150
 <3><36f7>: Abbrev Number: 14 (DW_TAG_variable)
    <36f8>   DW_AT_name        : (indirect string, offset: 0xb1d): n_rw
    <36fc>   DW_AT_decl_file   : 1
    <36fd>   DW_AT_decl_line   : 65
    <36fe>   DW_AT_decl_column : 14
    <36ff>   DW_AT_type        : <0x3618>
    <3703>   DW_AT_location    : 2 byte block: 91 68 	(DW_OP_fbreg: -24)
 <3><3706>: Abbrev Number: 0
 <2><3707>: Abbrev Number: 0
 <1><3708>: Abbrev Number: 7 (DW_TAG_pointer_type)
    <3709>   DW_AT_byte_size   : 8
    <370a>   DW_AT_type        : <0x3647>
 <1><370e>: Abbrev Number: 0
  Compilation Unit @ offset 0x370f:
   Length:        0xdd (32-bit)
   Version:       4
   Abbrev Offset: 0x7ca
   Pointer Size:  8
 <0><371a>: Abbrev Number: 1 (DW_TAG_compile_unit)
    <371b>   DW_AT_producer    : (indirect string, offset: 0x25c): GNU C17 11.1.0 -mtune=generic -march=x86-64 -g -O0 -fasynchronous-unwind-tables -fstack-protector-strong -fstack-clash-protection -fcf-protection
    <371f>   DW_AT_language    : 12	(ANSI C99)
    <3720>   DW_AT_name        : (indirect string, offset: 0xb28): lib/umaxtostr.c
    <3724>   DW_AT_comp_dir    : (indirect string, offset: 0x884): /home/jacekline/dev/research/programs/coreutils-9.1
    <3728>   DW_AT_low_pc      : 0x8273
    <3730>   DW_AT_high_pc     : 0x89
    <3738>   DW_AT_stmt_list   : 0x1ba0
 <1><373c>: Abbrev Number: 2 (DW_TAG_base_type)
    <373d>   DW_AT_byte_size   : 1
    <373e>   DW_AT_encoding    : 8	(unsigned char)
    <373f>   DW_AT_name        : (indirect string, offset: 0x1e4): unsigned char
 <1><3743>: Abbrev Number: 2 (DW_TAG_base_type)
    <3744>   DW_AT_byte_size   : 2
    <3745>   DW_AT_encoding    : 7	(unsigned)
    <3746>   DW_AT_name        : (indirect string, offset: 0x9b0): short unsigned int
 <1><374a>: Abbrev Number: 2 (DW_TAG_base_type)
    <374b>   DW_AT_byte_size   : 4
    <374c>   DW_AT_encoding    : 7	(unsigned)
    <374d>   DW_AT_name        : (indirect string, offset: 0x71d): unsigned int
 <1><3751>: Abbrev Number: 2 (DW_TAG_base_type)
    <3752>   DW_AT_byte_size   : 8
    <3753>   DW_AT_encoding    : 7	(unsigned)
    <3754>   DW_AT_name        : (indirect string, offset: 0x718): long unsigned int
 <1><3758>: Abbrev Number: 2 (DW_TAG_base_type)
    <3759>   DW_AT_byte_size   : 1
    <375a>   DW_AT_encoding    : 6	(signed char)
    <375b>   DW_AT_name        : (indirect string, offset: 0x1e6): signed char
 <1><375f>: Abbrev Number: 2 (DW_TAG_base_type)
    <3760>   DW_AT_byte_size   : 2
    <3761>   DW_AT_encoding    : 5	(signed)
    <3762>   DW_AT_name        : (indirect string, offset: 0x8bf): short int
 <1><3766>: Abbrev Number: 3 (DW_TAG_base_type)
    <3767>   DW_AT_byte_size   : 4
    <3768>   DW_AT_encoding    : 5	(signed)
    <3769>   DW_AT_name        : int
 <1><376d>: Abbrev Number: 2 (DW_TAG_base_type)
    <376e>   DW_AT_byte_size   : 8
    <376f>   DW_AT_encoding    : 5	(signed)
    <3770>   DW_AT_name        : (indirect string, offset: 0x558): long int
 <1><3774>: Abbrev Number: 4 (DW_TAG_typedef)
    <3775>   DW_AT_name        : (indirect string, offset: 0x8ed): __uintmax_t
    <3779>   DW_AT_decl_file   : 2
    <377a>   DW_AT_decl_line   : 73
    <377b>   DW_AT_decl_column : 27
    <377c>   DW_AT_type        : <0x3751>
 <1><3780>: Abbrev Number: 5 (DW_TAG_pointer_type)
    <3781>   DW_AT_byte_size   : 8
    <3782>   DW_AT_type        : <0x3786>
 <1><3786>: Abbrev Number: 2 (DW_TAG_base_type)
    <3787>   DW_AT_byte_size   : 1
    <3788>   DW_AT_encoding    : 6	(signed char)
    <3789>   DW_AT_name        : (indirect string, offset: 0x1ed): char
 <1><378d>: Abbrev Number: 4 (DW_TAG_typedef)
    <378e>   DW_AT_name        : (indirect string, offset: 0x8ef): uintmax_t
    <3792>   DW_AT_decl_file   : 3
    <3793>   DW_AT_decl_line   : 102
    <3794>   DW_AT_decl_column : 22
    <3795>   DW_AT_type        : <0x3774>
 <1><3799>: Abbrev Number: 2 (DW_TAG_base_type)
    <379a>   DW_AT_byte_size   : 8
    <379b>   DW_AT_encoding    : 7	(unsigned)
    <379c>   DW_AT_name        : (indirect string, offset: 0x713): long long unsigned int
 <1><37a0>: Abbrev Number: 2 (DW_TAG_base_type)
    <37a1>   DW_AT_byte_size   : 8
    <37a2>   DW_AT_encoding    : 5	(signed)
    <37a3>   DW_AT_name        : (indirect string, offset: 0x553): long long int
 <1><37a7>: Abbrev Number: 6 (DW_TAG_subprogram)
    <37a8>   DW_AT_external    : 1
    <37a8>   DW_AT_name        : (indirect string, offset: 0x916): umaxtostr
    <37ac>   DW_AT_decl_file   : 1
    <37ad>   DW_AT_decl_line   : 36
    <37ae>   DW_AT_decl_column : 1
    <37af>   DW_AT_prototyped  : 1
    <37af>   DW_AT_type        : <0x3780>
    <37b3>   DW_AT_low_pc      : 0x8273
    <37bb>   DW_AT_high_pc     : 0x89
    <37c3>   DW_AT_frame_base  : 1 byte block: 9c 	(DW_OP_call_frame_cfa)
    <37c5>   DW_AT_GNU_all_call_sites: 1
 <2><37c5>: Abbrev Number: 7 (DW_TAG_formal_parameter)
    <37c6>   DW_AT_name        : i
    <37c8>   DW_AT_decl_file   : 1
    <37c9>   DW_AT_decl_line   : 36
    <37ca>   DW_AT_decl_column : 19
    <37cb>   DW_AT_type        : <0x378d>
    <37cf>   DW_AT_location    : 2 byte block: 91 58 	(DW_OP_fbreg: -40)
 <2><37d2>: Abbrev Number: 7 (DW_TAG_formal_parameter)
    <37d3>   DW_AT_name        : buf
    <37d7>   DW_AT_decl_file   : 1
    <37d8>   DW_AT_decl_line   : 36
    <37d9>   DW_AT_decl_column : 28
    <37da>   DW_AT_type        : <0x3780>
    <37de>   DW_AT_location    : 2 byte block: 91 50 	(DW_OP_fbreg: -48)
 <2><37e1>: Abbrev Number: 8 (DW_TAG_variable)
    <37e2>   DW_AT_name        : p
    <37e4>   DW_AT_decl_file   : 1
    <37e5>   DW_AT_decl_line   : 38
    <37e6>   DW_AT_decl_column : 9
    <37e7>   DW_AT_type        : <0x3780>
    <37eb>   DW_AT_location    : 2 byte block: 91 68 	(DW_OP_fbreg: -24)
 <2><37ee>: Abbrev Number: 0
 <1><37ef>: Abbrev Number: 0
  Compilation Unit @ offset 0x37f0:
   Length:        0x371 (32-bit)
   Version:       4
   Abbrev Offset: 0x84a
   Pointer Size:  8
 <0><37fb>: Abbrev Number: 1 (DW_TAG_compile_unit)
    <37fc>   DW_AT_producer    : (indirect string, offset: 0x25c): GNU C17 11.1.0 -mtune=generic -march=x86-64 -g -O0 -fasynchronous-unwind-tables -fstack-protector-strong -fstack-clash-protection -fcf-protection
    <3800>   DW_AT_language    : 12	(ANSI C99)
    <3801>   DW_AT_name        : (indirect string, offset: 0xb38): lib/progname.c
    <3805>   DW_AT_comp_dir    : (indirect string, offset: 0x884): /home/jacekline/dev/research/programs/coreutils-9.1
    <3809>   DW_AT_low_pc      : 0x82fc
    <3811>   DW_AT_high_pc     : 0xf5
    <3819>   DW_AT_stmt_list   : 0x1c6d
 <1><381d>: Abbrev Number: 2 (DW_TAG_variable)
    <381e>   DW_AT_name        : (indirect string, offset: 0xf7): program_name
    <3822>   DW_AT_decl_file   : 2
    <3823>   DW_AT_decl_line   : 32
    <3824>   DW_AT_decl_column : 20
    <3825>   DW_AT_type        : <0x3829>
    <3829>   DW_AT_external    : 1
    <3829>   DW_AT_declaration : 1
 <1><3829>: Abbrev Number: 3 (DW_TAG_pointer_type)
    <382a>   DW_AT_byte_size   : 8
    <382b>   DW_AT_type        : <0x3836>
 <1><382f>: Abbrev Number: 4 (DW_TAG_base_type)
    <3830>   DW_AT_byte_size   : 1
    <3831>   DW_AT_encoding    : 6	(signed char)
    <3832>   DW_AT_name        : (indirect string, offset: 0x1ed): char
 <1><3836>: Abbrev Number: 5 (DW_TAG_const_type)
    <3837>   DW_AT_type        : <0x382f>
 <1><383b>: Abbrev Number: 2 (DW_TAG_variable)
    <383c>   DW_AT_name        : (indirect string, offset: 0xb65): program_invocation_name
    <3840>   DW_AT_decl_file   : 3
    <3841>   DW_AT_decl_line   : 45
    <3842>   DW_AT_decl_column : 14
    <3843>   DW_AT_type        : <0x3847>
    <3847>   DW_AT_external    : 1
    <3847>   DW_AT_declaration : 1
 <1><3847>: Abbrev Number: 3 (DW_TAG_pointer_type)
    <3848>   DW_AT_byte_size   : 8
    <3849>   DW_AT_type        : <0x382f>
 <1><384d>: Abbrev Number: 2 (DW_TAG_variable)
    <384e>   DW_AT_name        : (indirect string, offset: 0xb47): program_invocation_short_name
    <3852>   DW_AT_decl_file   : 3
    <3853>   DW_AT_decl_line   : 46
    <3854>   DW_AT_decl_column : 14
    <3855>   DW_AT_type        : <0x3847>
    <3859>   DW_AT_external    : 1
    <3859>   DW_AT_declaration : 1
 <1><3859>: Abbrev Number: 6 (DW_TAG_base_type)
    <385a>   DW_AT_byte_size   : 4
    <385b>   DW_AT_encoding    : 5	(signed)
    <385c>   DW_AT_name        : int
 <1><3860>: Abbrev Number: 7 (DW_TAG_typedef)
    <3861>   DW_AT_name        : (indirect string, offset: 0x14a5): size_t
    <3865>   DW_AT_decl_file   : 4
    <3866>   DW_AT_decl_line   : 209
    <3867>   DW_AT_decl_column : 23
    <3868>   DW_AT_type        : <0x386c>
 <1><386c>: Abbrev Number: 4 (DW_TAG_base_type)
    <386d>   DW_AT_byte_size   : 8
    <386e>   DW_AT_encoding    : 7	(unsigned)
    <386f>   DW_AT_name        : (indirect string, offset: 0x718): long unsigned int
 <1><3873>: Abbrev Number: 4 (DW_TAG_base_type)
    <3874>   DW_AT_byte_size   : 4
    <3875>   DW_AT_encoding    : 7	(unsigned)
    <3876>   DW_AT_name        : (indirect string, offset: 0x71d): unsigned int
 <1><387a>: Abbrev Number: 8 (DW_TAG_pointer_type)
    <387b>   DW_AT_byte_size   : 8
 <1><387c>: Abbrev Number: 4 (DW_TAG_base_type)
    <387d>   DW_AT_byte_size   : 1
    <387e>   DW_AT_encoding    : 8	(unsigned char)
    <387f>   DW_AT_name        : (indirect string, offset: 0x1e4): unsigned char
 <1><3883>: Abbrev Number: 4 (DW_TAG_base_type)
    <3884>   DW_AT_byte_size   : 2
    <3885>   DW_AT_encoding    : 7	(unsigned)
    <3886>   DW_AT_name        : (indirect string, offset: 0x9b0): short unsigned int
 <1><388a>: Abbrev Number: 4 (DW_TAG_base_type)
    <388b>   DW_AT_byte_size   : 1
    <388c>   DW_AT_encoding    : 6	(signed char)
    <388d>   DW_AT_name        : (indirect string, offset: 0x1e6): signed char
 <1><3891>: Abbrev Number: 4 (DW_TAG_base_type)
    <3892>   DW_AT_byte_size   : 2
    <3893>   DW_AT_encoding    : 5	(signed)
    <3894>   DW_AT_name        : (indirect string, offset: 0x8bf): short int
 <1><3898>: Abbrev Number: 4 (DW_TAG_base_type)
    <3899>   DW_AT_byte_size   : 8
    <389a>   DW_AT_encoding    : 5	(signed)
    <389b>   DW_AT_name        : (indirect string, offset: 0x558): long int
 <1><389f>: Abbrev Number: 7 (DW_TAG_typedef)
    <38a0>   DW_AT_name        : (indirect string, offset: 0x750): __off_t
    <38a4>   DW_AT_decl_file   : 5
    <38a5>   DW_AT_decl_line   : 152
    <38a6>   DW_AT_decl_column : 25
    <38a7>   DW_AT_type        : <0x3898>
 <1><38ab>: Abbrev Number: 7 (DW_TAG_typedef)
    <38ac>   DW_AT_name        : (indirect string, offset: 0x7f0): __off64_t
    <38b0>   DW_AT_decl_file   : 5
    <38b1>   DW_AT_decl_line   : 153
    <38b2>   DW_AT_decl_column : 27
    <38b3>   DW_AT_type        : <0x3898>
 <1><38b7>: Abbrev Number: 9 (DW_TAG_structure_type)
    <38b8>   DW_AT_name        : (indirect string, offset: 0x191): _IO_FILE
    <38bc>   DW_AT_byte_size   : 216
    <38bd>   DW_AT_decl_file   : 6
    <38be>   DW_AT_decl_line   : 49
    <38bf>   DW_AT_decl_column : 8
    <38c0>   DW_AT_sibling     : <0x3a3e>
 <2><38c4>: Abbrev Number: 10 (DW_TAG_member)
    <38c5>   DW_AT_name        : (indirect string, offset: 0x1088): _flags
    <38c9>   DW_AT_decl_file   : 6
    <38ca>   DW_AT_decl_line   : 51
    <38cb>   DW_AT_decl_column : 7
    <38cc>   DW_AT_type        : <0x3859>
    <38d0>   DW_AT_data_member_location: 0
 <2><38d1>: Abbrev Number: 10 (DW_TAG_member)
    <38d2>   DW_AT_name        : (indirect string, offset: 0x39a): _IO_read_ptr
    <38d6>   DW_AT_decl_file   : 6
    <38d7>   DW_AT_decl_line   : 54
    <38d8>   DW_AT_decl_column : 9
    <38d9>   DW_AT_type        : <0x3847>
    <38dd>   DW_AT_data_member_location: 8
 <2><38de>: Abbrev Number: 10 (DW_TAG_member)
    <38df>   DW_AT_name        : (indirect string, offset: 0x92c): _IO_read_end
    <38e3>   DW_AT_decl_file   : 6
    <38e4>   DW_AT_decl_line   : 55
    <38e5>   DW_AT_decl_column : 9
    <38e6>   DW_AT_type        : <0x3847>
    <38ea>   DW_AT_data_member_location: 16
 <2><38eb>: Abbrev Number: 10 (DW_TAG_member)
    <38ec>   DW_AT_name        : (indirect string, offset: 0x4bf): _IO_read_base
    <38f0>   DW_AT_decl_file   : 6
    <38f1>   DW_AT_decl_line   : 56
    <38f2>   DW_AT_decl_column : 9
    <38f3>   DW_AT_type        : <0x3847>
    <38f7>   DW_AT_data_member_location: 24
 <2><38f8>: Abbrev Number: 10 (DW_TAG_member)
    <38f9>   DW_AT_name        : (indirect string, offset: 0x64): _IO_write_base
    <38fd>   DW_AT_decl_file   : 6
    <38fe>   DW_AT_decl_line   : 57
    <38ff>   DW_AT_decl_column : 9
    <3900>   DW_AT_type        : <0x3847>
    <3904>   DW_AT_data_member_location: 32
 <2><3905>: Abbrev Number: 10 (DW_TAG_member)
    <3906>   DW_AT_name        : (indirect string, offset: 0x9c3): _IO_write_ptr
    <390a>   DW_AT_decl_file   : 6
    <390b>   DW_AT_decl_line   : 58
    <390c>   DW_AT_decl_column : 9
    <390d>   DW_AT_type        : <0x3847>
    <3911>   DW_AT_data_member_location: 40
 <2><3912>: Abbrev Number: 10 (DW_TAG_member)
    <3913>   DW_AT_name        : (indirect string, offset: 0x57c): _IO_write_end
    <3917>   DW_AT_decl_file   : 6
    <3918>   DW_AT_decl_line   : 59
    <3919>   DW_AT_decl_column : 9
    <391a>   DW_AT_type        : <0x3847>
    <391e>   DW_AT_data_member_location: 48
 <2><391f>: Abbrev Number: 10 (DW_TAG_member)
    <3920>   DW_AT_name        : (indirect string, offset: 0x5e3): _IO_buf_base
    <3924>   DW_AT_decl_file   : 6
    <3925>   DW_AT_decl_line   : 60
    <3926>   DW_AT_decl_column : 9
    <3927>   DW_AT_type        : <0x3847>
    <392b>   DW_AT_data_member_location: 56
 <2><392c>: Abbrev Number: 10 (DW_TAG_member)
    <392d>   DW_AT_name        : (indirect string, offset: 0x82f): _IO_buf_end
    <3931>   DW_AT_decl_file   : 6
    <3932>   DW_AT_decl_line   : 61
    <3933>   DW_AT_decl_column : 9
    <3934>   DW_AT_type        : <0x3847>
    <3938>   DW_AT_data_member_location: 64
 <2><3939>: Abbrev Number: 10 (DW_TAG_member)
    <393a>   DW_AT_name        : (indirect string, offset: 0xa8): _IO_save_base
    <393e>   DW_AT_decl_file   : 6
    <393f>   DW_AT_decl_line   : 64
    <3940>   DW_AT_decl_column : 9
    <3941>   DW_AT_type        : <0x3847>
    <3945>   DW_AT_data_member_location: 72
 <2><3946>: Abbrev Number: 10 (DW_TAG_member)
    <3947>   DW_AT_name        : (indirect string, offset: 0x7c0): _IO_backup_base
    <394b>   DW_AT_decl_file   : 6
    <394c>   DW_AT_decl_line   : 65
    <394d>   DW_AT_decl_column : 9
    <394e>   DW_AT_type        : <0x3847>
    <3952>   DW_AT_data_member_location: 80
 <2><3953>: Abbrev Number: 10 (DW_TAG_member)
    <3954>   DW_AT_name        : (indirect string, offset: 0x57): _IO_save_end
    <3958>   DW_AT_decl_file   : 6
    <3959>   DW_AT_decl_line   : 66
    <395a>   DW_AT_decl_column : 9
    <395b>   DW_AT_type        : <0x3847>
    <395f>   DW_AT_data_member_location: 88
 <2><3960>: Abbrev Number: 10 (DW_TAG_member)
    <3961>   DW_AT_name        : (indirect string, offset: 0x3f1): _markers
    <3965>   DW_AT_decl_file   : 6
    <3966>   DW_AT_decl_line   : 68
    <3967>   DW_AT_decl_column : 22
    <3968>   DW_AT_type        : <0x3a57>
    <396c>   DW_AT_data_member_location: 96
 <2><396d>: Abbrev Number: 10 (DW_TAG_member)
    <396e>   DW_AT_name        : (indirect string, offset: 0xc7): _chain
    <3972>   DW_AT_decl_file   : 6
    <3973>   DW_AT_decl_line   : 70
    <3974>   DW_AT_decl_column : 20
    <3975>   DW_AT_type        : <0x3a5d>
    <3979>   DW_AT_data_member_location: 104
 <2><397a>: Abbrev Number: 10 (DW_TAG_member)
    <397b>   DW_AT_name        : (indirect string, offset: 0x964): _fileno
    <397f>   DW_AT_decl_file   : 6
    <3980>   DW_AT_decl_line   : 72
    <3981>   DW_AT_decl_column : 7
    <3982>   DW_AT_type        : <0x3859>
    <3986>   DW_AT_data_member_location: 112
 <2><3987>: Abbrev Number: 10 (DW_TAG_member)
    <3988>   DW_AT_name        : (indirect string, offset: 0x4ac): _flags2
    <398c>   DW_AT_decl_file   : 6
    <398d>   DW_AT_decl_line   : 73
    <398e>   DW_AT_decl_column : 7
    <398f>   DW_AT_type        : <0x3859>
    <3993>   DW_AT_data_member_location: 116
 <2><3994>: Abbrev Number: 10 (DW_TAG_member)
    <3995>   DW_AT_name        : (indirect string, offset: 0x529): _old_offset
    <3999>   DW_AT_decl_file   : 6
    <399a>   DW_AT_decl_line   : 74
    <399b>   DW_AT_decl_column : 11
    <399c>   DW_AT_type        : <0x389f>
    <39a0>   DW_AT_data_member_location: 120
 <2><39a1>: Abbrev Number: 10 (DW_TAG_member)
    <39a2>   DW_AT_name        : (indirect string, offset: 0xce): _cur_column
    <39a6>   DW_AT_decl_file   : 6
    <39a7>   DW_AT_decl_line   : 77
    <39a8>   DW_AT_decl_column : 18
    <39a9>   DW_AT_type        : <0x3883>
    <39ad>   DW_AT_data_member_location: 128
 <2><39ae>: Abbrev Number: 10 (DW_TAG_member)
    <39af>   DW_AT_name        : (indirect string, offset: 0x8de): _vtable_offset
    <39b3>   DW_AT_decl_file   : 6
    <39b4>   DW_AT_decl_line   : 78
    <39b5>   DW_AT_decl_column : 15
    <39b6>   DW_AT_type        : <0x388a>
    <39ba>   DW_AT_data_member_location: 130
 <2><39bb>: Abbrev Number: 10 (DW_TAG_member)
    <39bc>   DW_AT_name        : (indirect string, offset: 0x7da): _shortbuf
    <39c0>   DW_AT_decl_file   : 6
    <39c1>   DW_AT_decl_line   : 79
    <39c2>   DW_AT_decl_column : 8
    <39c3>   DW_AT_type        : <0x3a63>
    <39c7>   DW_AT_data_member_location: 131
 <2><39c8>: Abbrev Number: 10 (DW_TAG_member)
    <39c9>   DW_AT_name        : (indirect string, offset: 0x73): _lock
    <39cd>   DW_AT_decl_file   : 6
    <39ce>   DW_AT_decl_line   : 81
    <39cf>   DW_AT_decl_column : 15
    <39d0>   DW_AT_type        : <0x3a73>
    <39d4>   DW_AT_data_member_location: 136
 <2><39d5>: Abbrev Number: 10 (DW_TAG_member)
    <39d6>   DW_AT_name        : (indirect string, offset: 0x52d): _offset
    <39da>   DW_AT_decl_file   : 6
    <39db>   DW_AT_decl_line   : 89
    <39dc>   DW_AT_decl_column : 13
    <39dd>   DW_AT_type        : <0x38ab>
    <39e1>   DW_AT_data_member_location: 144
 <2><39e2>: Abbrev Number: 10 (DW_TAG_member)
    <39e3>   DW_AT_name        : (indirect string, offset: 0x44): _codecvt
    <39e7>   DW_AT_decl_file   : 6
    <39e8>   DW_AT_decl_line   : 91
    <39e9>   DW_AT_decl_column : 23
    <39ea>   DW_AT_type        : <0x3a7e>
    <39ee>   DW_AT_data_member_location: 152
 <2><39ef>: Abbrev Number: 10 (DW_TAG_member)
    <39f0>   DW_AT_name        : (indirect string, offset: 0x1b2): _wide_data
    <39f4>   DW_AT_decl_file   : 6
    <39f5>   DW_AT_decl_line   : 92
    <39f6>   DW_AT_decl_column : 25
    <39f7>   DW_AT_type        : <0x3a89>
    <39fb>   DW_AT_data_member_location: 160
 <2><39fc>: Abbrev Number: 10 (DW_TAG_member)
    <39fd>   DW_AT_name        : (indirect string, offset: 0x1f2): _freeres_list
    <3a01>   DW_AT_decl_file   : 6
    <3a02>   DW_AT_decl_line   : 93
    <3a03>   DW_AT_decl_column : 20
    <3a04>   DW_AT_type        : <0x3a5d>
    <3a08>   DW_AT_data_member_location: 168
 <2><3a09>: Abbrev Number: 10 (DW_TAG_member)
    <3a0a>   DW_AT_name        : (indirect string, offset: 0x767): _freeres_buf
    <3a0e>   DW_AT_decl_file   : 6
    <3a0f>   DW_AT_decl_line   : 94
    <3a10>   DW_AT_decl_column : 9
    <3a11>   DW_AT_type        : <0x387a>
    <3a15>   DW_AT_data_member_location: 176
 <2><3a16>: Abbrev Number: 10 (DW_TAG_member)
    <3a17>   DW_AT_name        : (indirect string, offset: 0x620): __pad5
    <3a1b>   DW_AT_decl_file   : 6
    <3a1c>   DW_AT_decl_line   : 95
    <3a1d>   DW_AT_decl_column : 10
    <3a1e>   DW_AT_type        : <0x3860>
    <3a22>   DW_AT_data_member_location: 184
 <2><3a23>: Abbrev Number: 10 (DW_TAG_member)
    <3a24>   DW_AT_name        : (indirect string, offset: 0x68a): _mode
    <3a28>   DW_AT_decl_file   : 6
    <3a29>   DW_AT_decl_line   : 96
    <3a2a>   DW_AT_decl_column : 7
    <3a2b>   DW_AT_type        : <0x3859>
    <3a2f>   DW_AT_data_member_location: 192
 <2><3a30>: Abbrev Number: 10 (DW_TAG_member)
    <3a31>   DW_AT_name        : (indirect string, offset: 0x4de): _unused2
    <3a35>   DW_AT_decl_file   : 6
    <3a36>   DW_AT_decl_line   : 98
    <3a37>   DW_AT_decl_column : 8
    <3a38>   DW_AT_type        : <0x3a8f>
    <3a3c>   DW_AT_data_member_location: 196
 <2><3a3d>: Abbrev Number: 0
 <1><3a3e>: Abbrev Number: 7 (DW_TAG_typedef)
    <3a3f>   DW_AT_name        : (indirect string, offset: 0x195): FILE
    <3a43>   DW_AT_decl_file   : 7
    <3a44>   DW_AT_decl_line   : 7
    <3a45>   DW_AT_decl_column : 25
    <3a46>   DW_AT_type        : <0x38b7>
 <1><3a4a>: Abbrev Number: 11 (DW_TAG_typedef)
    <3a4b>   DW_AT_name        : (indirect string, offset: 0x362): _IO_lock_t
    <3a4f>   DW_AT_decl_file   : 6
    <3a50>   DW_AT_decl_line   : 43
    <3a51>   DW_AT_decl_column : 14
 <1><3a52>: Abbrev Number: 12 (DW_TAG_structure_type)
    <3a53>   DW_AT_name        : (indirect string, offset: 0x138): _IO_marker
    <3a57>   DW_AT_declaration : 1
 <1><3a57>: Abbrev Number: 3 (DW_TAG_pointer_type)
    <3a58>   DW_AT_byte_size   : 8
    <3a59>   DW_AT_type        : <0x3a52>
 <1><3a5d>: Abbrev Number: 3 (DW_TAG_pointer_type)
    <3a5e>   DW_AT_byte_size   : 8
    <3a5f>   DW_AT_type        : <0x38b7>
 <1><3a63>: Abbrev Number: 13 (DW_TAG_array_type)
    <3a64>   DW_AT_type        : <0x382f>
    <3a68>   DW_AT_sibling     : <0x3a73>
 <2><3a6c>: Abbrev Number: 14 (DW_TAG_subrange_type)
    <3a6d>   DW_AT_type        : <0x386c>
    <3a71>   DW_AT_upper_bound : 0
 <2><3a72>: Abbrev Number: 0
 <1><3a73>: Abbrev Number: 3 (DW_TAG_pointer_type)
    <3a74>   DW_AT_byte_size   : 8
    <3a75>   DW_AT_type        : <0x3a4a>
 <1><3a79>: Abbrev Number: 12 (DW_TAG_structure_type)
    <3a7a>   DW_AT_name        : (indirect string, offset: 0x41): _IO_codecvt
    <3a7e>   DW_AT_declaration : 1
 <1><3a7e>: Abbrev Number: 3 (DW_TAG_pointer_type)
    <3a7f>   DW_AT_byte_size   : 8
    <3a80>   DW_AT_type        : <0x3a79>
 <1><3a84>: Abbrev Number: 12 (DW_TAG_structure_type)
    <3a85>   DW_AT_name        : (indirect string, offset: 0x1af): _IO_wide_data
    <3a89>   DW_AT_declaration : 1
 <1><3a89>: Abbrev Number: 3 (DW_TAG_pointer_type)
    <3a8a>   DW_AT_byte_size   : 8
    <3a8b>   DW_AT_type        : <0x3a84>
 <1><3a8f>: Abbrev Number: 13 (DW_TAG_array_type)
    <3a90>   DW_AT_type        : <0x382f>
    <3a94>   DW_AT_sibling     : <0x3a9f>
 <2><3a98>: Abbrev Number: 14 (DW_TAG_subrange_type)
    <3a99>   DW_AT_type        : <0x386c>
    <3a9d>   DW_AT_upper_bound : 19
 <2><3a9e>: Abbrev Number: 0
 <1><3a9f>: Abbrev Number: 3 (DW_TAG_pointer_type)
    <3aa0>   DW_AT_byte_size   : 8
    <3aa1>   DW_AT_type        : <0x3a3e>
 <1><3aa5>: Abbrev Number: 2 (DW_TAG_variable)
    <3aa6>   DW_AT_name        : (indirect string, offset: 0x8b8): stderr
    <3aaa>   DW_AT_decl_file   : 8
    <3aab>   DW_AT_decl_line   : 139
    <3aac>   DW_AT_decl_column : 14
    <3aad>   DW_AT_type        : <0x3a9f>
    <3ab1>   DW_AT_external    : 1
    <3ab1>   DW_AT_declaration : 1
 <1><3ab1>: Abbrev Number: 4 (DW_TAG_base_type)
    <3ab2>   DW_AT_byte_size   : 8
    <3ab3>   DW_AT_encoding    : 5	(signed)
    <3ab4>   DW_AT_name        : (indirect string, offset: 0x553): long long int
 <1><3ab8>: Abbrev Number: 4 (DW_TAG_base_type)
    <3ab9>   DW_AT_byte_size   : 16
    <3aba>   DW_AT_encoding    : 4	(float)
    <3abb>   DW_AT_name        : (indirect string, offset: 0x6b1): long double
 <1><3abf>: Abbrev Number: 4 (DW_TAG_base_type)
    <3ac0>   DW_AT_byte_size   : 8
    <3ac1>   DW_AT_encoding    : 7	(unsigned)
    <3ac2>   DW_AT_name        : (indirect string, offset: 0x713): long long unsigned int
 <1><3ac6>: Abbrev Number: 15 (DW_TAG_variable)
    <3ac7>   DW_AT_specification: <0x381d>
    <3acb>   DW_AT_decl_file   : 1
    <3acc>   DW_AT_decl_line   : 33
    <3acd>   DW_AT_decl_column : 13
    <3ace>   DW_AT_location    : 9 byte block: 3 40 81 1 0 0 0 0 0 	(DW_OP_addr: 18140)
 <1><3ad8>: Abbrev Number: 16 (DW_TAG_subprogram)
    <3ad9>   DW_AT_external    : 1
    <3ad9>   DW_AT_name        : (indirect string, offset: 0x6bd): strncmp
    <3add>   DW_AT_decl_file   : 9
    <3ade>   DW_AT_decl_line   : 140
    <3adf>   DW_AT_decl_column : 12
    <3ae0>   DW_AT_prototyped  : 1
    <3ae0>   DW_AT_type        : <0x3859>
    <3ae4>   DW_AT_declaration : 1
    <3ae4>   DW_AT_sibling     : <0x3af8>
 <2><3ae8>: Abbrev Number: 17 (DW_TAG_formal_parameter)
    <3ae9>   DW_AT_type        : <0x3829>
 <2><3aed>: Abbrev Number: 17 (DW_TAG_formal_parameter)
    <3aee>   DW_AT_type        : <0x3829>
 <2><3af2>: Abbrev Number: 17 (DW_TAG_formal_parameter)
    <3af3>   DW_AT_type        : <0x3860>
 <2><3af7>: Abbrev Number: 0
 <1><3af8>: Abbrev Number: 16 (DW_TAG_subprogram)
    <3af9>   DW_AT_external    : 1
    <3af9>   DW_AT_name        : (indirect string, offset: 0xb7d): strrchr
    <3afd>   DW_AT_decl_file   : 9
    <3afe>   DW_AT_decl_line   : 253
    <3aff>   DW_AT_decl_column : 14
    <3b00>   DW_AT_prototyped  : 1
    <3b00>   DW_AT_type        : <0x3847>
    <3b04>   DW_AT_declaration : 1
    <3b04>   DW_AT_sibling     : <0x3b13>
 <2><3b08>: Abbrev Number: 17 (DW_TAG_formal_parameter)
    <3b09>   DW_AT_type        : <0x3829>
 <2><3b0d>: Abbrev Number: 17 (DW_TAG_formal_parameter)
    <3b0e>   DW_AT_type        : <0x3859>
 <2><3b12>: Abbrev Number: 0
 <1><3b13>: Abbrev Number: 18 (DW_TAG_subprogram)
    <3b14>   DW_AT_external    : 1
    <3b14>   DW_AT_name        : (indirect string, offset: 0x1bd): abort
    <3b18>   DW_AT_decl_file   : 10
    <3b19>   DW_AT_decl_line   : 591
    <3b1b>   DW_AT_decl_column : 13
    <3b1c>   DW_AT_prototyped  : 1
    <3b1c>   DW_AT_noreturn    : 1
    <3b1c>   DW_AT_declaration : 1
 <1><3b1c>: Abbrev Number: 19 (DW_TAG_subprogram)
    <3b1d>   DW_AT_external    : 1
    <3b1d>   DW_AT_name        : (indirect string, offset: 0xf3): set_program_name
    <3b21>   DW_AT_decl_file   : 1
    <3b22>   DW_AT_decl_line   : 39
    <3b23>   DW_AT_decl_column : 1
    <3b24>   DW_AT_prototyped  : 1
    <3b24>   DW_AT_low_pc      : 0x82fc
    <3b2c>   DW_AT_high_pc     : 0xf5
    <3b34>   DW_AT_frame_base  : 1 byte block: 9c 	(DW_OP_call_frame_cfa)
    <3b36>   DW_AT_GNU_all_tail_call_sites: 1
 <2><3b36>: Abbrev Number: 20 (DW_TAG_formal_parameter)
    <3b37>   DW_AT_name        : (indirect string, offset: 0xb85): argv0
    <3b3b>   DW_AT_decl_file   : 1
    <3b3c>   DW_AT_decl_line   : 39
    <3b3d>   DW_AT_decl_column : 31
    <3b3e>   DW_AT_type        : <0x3829>
    <3b42>   DW_AT_location    : 2 byte block: 91 58 	(DW_OP_fbreg: -40)
 <2><3b45>: Abbrev Number: 21 (DW_TAG_variable)
    <3b46>   DW_AT_name        : (indirect string, offset: 0xb8b): slash
    <3b4a>   DW_AT_decl_file   : 1
    <3b4b>   DW_AT_decl_line   : 46
    <3b4c>   DW_AT_decl_column : 15
    <3b4d>   DW_AT_type        : <0x3829>
    <3b51>   DW_AT_location    : 2 byte block: 91 60 	(DW_OP_fbreg: -32)
 <2><3b54>: Abbrev Number: 21 (DW_TAG_variable)
    <3b55>   DW_AT_name        : (indirect string, offset: 0x4c8): base
    <3b59>   DW_AT_decl_file   : 1
    <3b5a>   DW_AT_decl_line   : 47
    <3b5b>   DW_AT_decl_column : 15
    <3b5c>   DW_AT_type        : <0x3829>
    <3b60>   DW_AT_location    : 2 byte block: 91 68 	(DW_OP_fbreg: -24)
 <2><3b63>: Abbrev Number: 0
 <1><3b64>: Abbrev Number: 0
  Compilation Unit @ offset 0x3b65:
   Length:        0x70c (32-bit)
   Version:       4
   Abbrev Offset: 0x976
   Pointer Size:  8
 <0><3b70>: Abbrev Number: 1 (DW_TAG_compile_unit)
    <3b71>   DW_AT_producer    : (indirect string, offset: 0x25c): GNU C17 11.1.0 -mtune=generic -march=x86-64 -g -O0 -fasynchronous-unwind-tables -fstack-protector-strong -fstack-clash-protection -fcf-protection
    <3b75>   DW_AT_language    : 12	(ANSI C99)
    <3b76>   DW_AT_name        : (indirect string, offset: 0xcd4): lib/propername.c
    <3b7a>   DW_AT_comp_dir    : (indirect string, offset: 0x884): /home/jacekline/dev/research/programs/coreutils-9.1
    <3b7e>   DW_AT_low_pc      : 0x83f1
    <3b86>   DW_AT_high_pc     : 0x85f
    <3b8e>   DW_AT_stmt_list   : 0x1dfe
 <1><3b92>: Abbrev Number: 2 (DW_TAG_base_type)
    <3b93>   DW_AT_byte_size   : 1
    <3b94>   DW_AT_encoding    : 8	(unsigned char)
    <3b95>   DW_AT_name        : (indirect string, offset: 0x1e4): unsigned char
 <1><3b99>: Abbrev Number: 2 (DW_TAG_base_type)
    <3b9a>   DW_AT_byte_size   : 2
    <3b9b>   DW_AT_encoding    : 7	(unsigned)
    <3b9c>   DW_AT_name        : (indirect string, offset: 0x9b0): short unsigned int
 <1><3ba0>: Abbrev Number: 3 (DW_TAG_const_type)
    <3ba1>   DW_AT_type        : <0x3b99>
 <1><3ba5>: Abbrev Number: 2 (DW_TAG_base_type)
    <3ba6>   DW_AT_byte_size   : 4
    <3ba7>   DW_AT_encoding    : 7	(unsigned)
    <3ba8>   DW_AT_name        : (indirect string, offset: 0x71d): unsigned int
 <1><3bac>: Abbrev Number: 2 (DW_TAG_base_type)
    <3bad>   DW_AT_byte_size   : 8
    <3bae>   DW_AT_encoding    : 7	(unsigned)
    <3baf>   DW_AT_name        : (indirect string, offset: 0x718): long unsigned int
 <1><3bb3>: Abbrev Number: 2 (DW_TAG_base_type)
    <3bb4>   DW_AT_byte_size   : 1
    <3bb5>   DW_AT_encoding    : 6	(signed char)
    <3bb6>   DW_AT_name        : (indirect string, offset: 0x1e6): signed char
 <1><3bba>: Abbrev Number: 2 (DW_TAG_base_type)
    <3bbb>   DW_AT_byte_size   : 2
    <3bbc>   DW_AT_encoding    : 5	(signed)
    <3bbd>   DW_AT_name        : (indirect string, offset: 0x8bf): short int
 <1><3bc1>: Abbrev Number: 4 (DW_TAG_base_type)
    <3bc2>   DW_AT_byte_size   : 4
    <3bc3>   DW_AT_encoding    : 5	(signed)
    <3bc4>   DW_AT_name        : int
 <1><3bc8>: Abbrev Number: 2 (DW_TAG_base_type)
    <3bc9>   DW_AT_byte_size   : 8
    <3bca>   DW_AT_encoding    : 5	(signed)
    <3bcb>   DW_AT_name        : (indirect string, offset: 0x558): long int
 <1><3bcf>: Abbrev Number: 5 (DW_TAG_pointer_type)
    <3bd0>   DW_AT_byte_size   : 8
 <1><3bd1>: Abbrev Number: 6 (DW_TAG_pointer_type)
    <3bd2>   DW_AT_byte_size   : 8
    <3bd3>   DW_AT_type        : <0x3bd7>
 <1><3bd7>: Abbrev Number: 2 (DW_TAG_base_type)
    <3bd8>   DW_AT_byte_size   : 1
    <3bd9>   DW_AT_encoding    : 6	(signed char)
    <3bda>   DW_AT_name        : (indirect string, offset: 0x1ed): char
 <1><3bde>: Abbrev Number: 3 (DW_TAG_const_type)
    <3bdf>   DW_AT_type        : <0x3bd7>
 <1><3be3>: Abbrev Number: 7 (DW_TAG_enumeration_type)
    <3be4>   DW_AT_encoding    : 7	(unsigned)
    <3be5>   DW_AT_byte_size   : 4
    <3be6>   DW_AT_type        : <0x3ba5>
    <3bea>   DW_AT_decl_file   : 15
    <3beb>   DW_AT_decl_line   : 47
    <3bec>   DW_AT_decl_column : 1
    <3bed>   DW_AT_sibling     : <0x3c42>
 <2><3bf1>: Abbrev Number: 8 (DW_TAG_enumerator)
    <3bf2>   DW_AT_name        : (indirect string, offset: 0xe1b): _ISupper
    <3bf6>   DW_AT_const_value : 256
 <2><3bf8>: Abbrev Number: 8 (DW_TAG_enumerator)
    <3bf9>   DW_AT_name        : (indirect string, offset: 0xd49): _ISlower
    <3bfd>   DW_AT_const_value : 512
 <2><3bff>: Abbrev Number: 8 (DW_TAG_enumerator)
    <3c00>   DW_AT_name        : (indirect string, offset: 0xe31): _ISalpha
    <3c04>   DW_AT_const_value : 1024
 <2><3c06>: Abbrev Number: 8 (DW_TAG_enumerator)
    <3c07>   DW_AT_name        : (indirect string, offset: 0xc1c): _ISdigit
    <3c0b>   DW_AT_const_value : 2048
 <2><3c0d>: Abbrev Number: 8 (DW_TAG_enumerator)
    <3c0e>   DW_AT_name        : (indirect string, offset: 0xd7c): _ISxdigit
    <3c12>   DW_AT_const_value : 4096
 <2><3c14>: Abbrev Number: 8 (DW_TAG_enumerator)
    <3c15>   DW_AT_name        : (indirect string, offset: 0xbc4): _ISspace
    <3c19>   DW_AT_const_value : 8192
 <2><3c1b>: Abbrev Number: 8 (DW_TAG_enumerator)
    <3c1c>   DW_AT_name        : (indirect string, offset: 0xb91): _ISprint
    <3c20>   DW_AT_const_value : 16384
 <2><3c22>: Abbrev Number: 8 (DW_TAG_enumerator)
    <3c23>   DW_AT_name        : (indirect string, offset: 0xbe4): _ISgraph
    <3c27>   DW_AT_const_value : 32768
 <2><3c29>: Abbrev Number: 9 (DW_TAG_enumerator)
    <3c2a>   DW_AT_name        : (indirect string, offset: 0xc78): _ISblank
    <3c2e>   DW_AT_const_value : 1
 <2><3c2f>: Abbrev Number: 9 (DW_TAG_enumerator)
    <3c30>   DW_AT_name        : (indirect string, offset: 0xbaf): _IScntrl
    <3c34>   DW_AT_const_value : 2
 <2><3c35>: Abbrev Number: 9 (DW_TAG_enumerator)
    <3c36>   DW_AT_name        : (indirect string, offset: 0xbdb): _ISpunct
    <3c3a>   DW_AT_const_value : 4
 <2><3c3b>: Abbrev Number: 9 (DW_TAG_enumerator)
    <3c3c>   DW_AT_name        : (indirect string, offset: 0xc8d): _ISalnum
    <3c40>   DW_AT_const_value : 8
 <2><3c41>: Abbrev Number: 0
 <1><3c42>: Abbrev Number: 6 (DW_TAG_pointer_type)
    <3c43>   DW_AT_byte_size   : 8
    <3c44>   DW_AT_type        : <0x3ba0>
 <1><3c48>: Abbrev Number: 6 (DW_TAG_pointer_type)
    <3c49>   DW_AT_byte_size   : 8
    <3c4a>   DW_AT_type        : <0x3bde>
 <1><3c4e>: Abbrev Number: 10 (DW_TAG_typedef)
    <3c4f>   DW_AT_name        : (indirect string, offset: 0x14a5): size_t
    <3c53>   DW_AT_decl_file   : 3
    <3c54>   DW_AT_decl_line   : 209
    <3c55>   DW_AT_decl_column : 23
    <3c56>   DW_AT_type        : <0x3bac>
 <1><3c5a>: Abbrev Number: 11 (DW_TAG_union_type)
    <3c5b>   DW_AT_byte_size   : 4
    <3c5c>   DW_AT_decl_file   : 2
    <3c5d>   DW_AT_decl_line   : 16
    <3c5e>   DW_AT_decl_column : 3
    <3c5f>   DW_AT_sibling     : <0x3c7c>
 <2><3c63>: Abbrev Number: 12 (DW_TAG_member)
    <3c64>   DW_AT_name        : (indirect string, offset: 0xbcd): __wch
    <3c68>   DW_AT_decl_file   : 2
    <3c69>   DW_AT_decl_line   : 18
    <3c6a>   DW_AT_decl_column : 19
    <3c6b>   DW_AT_type        : <0x3ba5>
 <2><3c6f>: Abbrev Number: 12 (DW_TAG_member)
    <3c70>   DW_AT_name        : (indirect string, offset: 0xd02): __wchb
    <3c74>   DW_AT_decl_file   : 2
    <3c75>   DW_AT_decl_line   : 19
    <3c76>   DW_AT_decl_column : 10
    <3c77>   DW_AT_type        : <0x3c7c>
 <2><3c7b>: Abbrev Number: 0
 <1><3c7c>: Abbrev Number: 13 (DW_TAG_array_type)
    <3c7d>   DW_AT_type        : <0x3bd7>
    <3c81>   DW_AT_sibling     : <0x3c8c>
 <2><3c85>: Abbrev Number: 14 (DW_TAG_subrange_type)
    <3c86>   DW_AT_type        : <0x3bac>
    <3c8a>   DW_AT_upper_bound : 3
 <2><3c8b>: Abbrev Number: 0
 <1><3c8c>: Abbrev Number: 15 (DW_TAG_structure_type)
    <3c8d>   DW_AT_byte_size   : 8
    <3c8e>   DW_AT_decl_file   : 2
    <3c8f>   DW_AT_decl_line   : 13
    <3c90>   DW_AT_decl_column : 9
    <3c91>   DW_AT_sibling     : <0x3cb0>
 <2><3c95>: Abbrev Number: 16 (DW_TAG_member)
    <3c96>   DW_AT_name        : (indirect string, offset: 0xc14): __count
    <3c9a>   DW_AT_decl_file   : 2
    <3c9b>   DW_AT_decl_line   : 15
    <3c9c>   DW_AT_decl_column : 7
    <3c9d>   DW_AT_type        : <0x3bc1>
    <3ca1>   DW_AT_data_member_location: 0
 <2><3ca2>: Abbrev Number: 16 (DW_TAG_member)
    <3ca3>   DW_AT_name        : (indirect string, offset: 0xbd3): __value
    <3ca7>   DW_AT_decl_file   : 2
    <3ca8>   DW_AT_decl_line   : 20
    <3ca9>   DW_AT_decl_column : 5
    <3caa>   DW_AT_type        : <0x3c5a>
    <3cae>   DW_AT_data_member_location: 4
 <2><3caf>: Abbrev Number: 0
 <1><3cb0>: Abbrev Number: 10 (DW_TAG_typedef)
    <3cb1>   DW_AT_name        : (indirect string, offset: 0xbb8): __mbstate_t
    <3cb5>   DW_AT_decl_file   : 2
    <3cb6>   DW_AT_decl_line   : 21
    <3cb7>   DW_AT_decl_column : 3
    <3cb8>   DW_AT_type        : <0x3c8c>
 <1><3cbc>: Abbrev Number: 17 (DW_TAG_typedef)
    <3cbd>   DW_AT_name        : (indirect string, offset: 0xd41): wchar_t
    <3cc1>   DW_AT_decl_file   : 3
    <3cc2>   DW_AT_decl_line   : 321
    <3cc4>   DW_AT_decl_column : 24
    <3cc5>   DW_AT_type        : <0x3bc1>
 <1><3cc9>: Abbrev Number: 2 (DW_TAG_base_type)
    <3cca>   DW_AT_byte_size   : 8
    <3ccb>   DW_AT_encoding    : 5	(signed)
    <3ccc>   DW_AT_name        : (indirect string, offset: 0x553): long long int
 <1><3cd0>: Abbrev Number: 2 (DW_TAG_base_type)
    <3cd1>   DW_AT_byte_size   : 16
    <3cd2>   DW_AT_encoding    : 4	(float)
    <3cd3>   DW_AT_name        : (indirect string, offset: 0x6b1): long double
 <1><3cd7>: Abbrev Number: 2 (DW_TAG_base_type)
    <3cd8>   DW_AT_byte_size   : 8
    <3cd9>   DW_AT_encoding    : 7	(unsigned)
    <3cda>   DW_AT_name        : (indirect string, offset: 0x713): long long unsigned int
 <1><3cde>: Abbrev Number: 6 (DW_TAG_pointer_type)
    <3cdf>   DW_AT_byte_size   : 8
    <3ce0>   DW_AT_type        : <0x3ce4>
 <1><3ce4>: Abbrev Number: 18 (DW_TAG_const_type)
 <1><3ce5>: Abbrev Number: 10 (DW_TAG_typedef)
    <3ce6>   DW_AT_name        : (indirect string, offset: 0xda9): wint_t
    <3cea>   DW_AT_decl_file   : 4
    <3ceb>   DW_AT_decl_line   : 20
    <3cec>   DW_AT_decl_column : 23
    <3ced>   DW_AT_type        : <0x3ba5>
 <1><3cf1>: Abbrev Number: 10 (DW_TAG_typedef)
    <3cf2>   DW_AT_name        : (indirect string, offset: 0xbba): mbstate_t
    <3cf6>   DW_AT_decl_file   : 5
    <3cf7>   DW_AT_decl_line   : 6
    <3cf8>   DW_AT_decl_column : 21
    <3cf9>   DW_AT_type        : <0x3cb0>
 <1><3cfd>: Abbrev Number: 19 (DW_TAG_structure_type)
    <3cfe>   DW_AT_name        : (indirect string, offset: 0xe24): mbchar
    <3d02>   DW_AT_byte_size   : 48
    <3d03>   DW_AT_decl_file   : 6
    <3d04>   DW_AT_decl_line   : 162
    <3d05>   DW_AT_decl_column : 8
    <3d06>   DW_AT_sibling     : <0x3d4b>
 <2><3d0a>: Abbrev Number: 20 (DW_TAG_member)
    <3d0b>   DW_AT_name        : ptr
    <3d0f>   DW_AT_decl_file   : 6
    <3d10>   DW_AT_decl_line   : 164
    <3d11>   DW_AT_decl_column : 15
    <3d12>   DW_AT_type        : <0x3c48>
    <3d16>   DW_AT_data_member_location: 0
 <2><3d17>: Abbrev Number: 16 (DW_TAG_member)
    <3d18>   DW_AT_name        : (indirect string, offset: 0x16a4): bytes
    <3d1c>   DW_AT_decl_file   : 6
    <3d1d>   DW_AT_decl_line   : 165
    <3d1e>   DW_AT_decl_column : 10
    <3d1f>   DW_AT_type        : <0x3c4e>
    <3d23>   DW_AT_data_member_location: 8
 <2><3d24>: Abbrev Number: 16 (DW_TAG_member)
    <3d25>   DW_AT_name        : (indirect string, offset: 0xd24): wc_valid
    <3d29>   DW_AT_decl_file   : 6
    <3d2a>   DW_AT_decl_line   : 166
    <3d2b>   DW_AT_decl_column : 8
    <3d2c>   DW_AT_type        : <0x3d4b>
    <3d30>   DW_AT_data_member_location: 16
 <2><3d31>: Abbrev Number: 20 (DW_TAG_member)
    <3d32>   DW_AT_name        : wc
    <3d35>   DW_AT_decl_file   : 6
    <3d36>   DW_AT_decl_line   : 167
    <3d37>   DW_AT_decl_column : 11
    <3d38>   DW_AT_type        : <0x3cbc>
    <3d3c>   DW_AT_data_member_location: 20
 <2><3d3d>: Abbrev Number: 20 (DW_TAG_member)
    <3d3e>   DW_AT_name        : buf
    <3d42>   DW_AT_decl_file   : 6
    <3d43>   DW_AT_decl_line   : 168
    <3d44>   DW_AT_decl_column : 8
    <3d45>   DW_AT_type        : <0x3d52>
    <3d49>   DW_AT_data_member_location: 24
 <2><3d4a>: Abbrev Number: 0
 <1><3d4b>: Abbrev Number: 2 (DW_TAG_base_type)
    <3d4c>   DW_AT_byte_size   : 1
    <3d4d>   DW_AT_encoding    : 2	(boolean)
    <3d4e>   DW_AT_name        : (indirect string, offset: 0x2ee): _Bool
 <1><3d52>: Abbrev Number: 13 (DW_TAG_array_type)
    <3d53>   DW_AT_type        : <0x3bd7>
    <3d57>   DW_AT_sibling     : <0x3d62>
 <2><3d5b>: Abbrev Number: 14 (DW_TAG_subrange_type)
    <3d5c>   DW_AT_type        : <0x3bac>
    <3d60>   DW_AT_upper_bound : 23
 <2><3d61>: Abbrev Number: 0
 <1><3d62>: Abbrev Number: 10 (DW_TAG_typedef)
    <3d63>   DW_AT_name        : (indirect string, offset: 0xc0b): mbchar_t
    <3d67>   DW_AT_decl_file   : 6
    <3d68>   DW_AT_decl_line   : 174
    <3d69>   DW_AT_decl_column : 23
    <3d6a>   DW_AT_type        : <0x3cfd>
 <1><3d6e>: Abbrev Number: 19 (DW_TAG_structure_type)
    <3d6f>   DW_AT_name        : (indirect string, offset: 0xce5): mbuiter_multi
    <3d73>   DW_AT_byte_size   : 64
    <3d74>   DW_AT_decl_file   : 7
    <3d75>   DW_AT_decl_line   : 110
    <3d76>   DW_AT_decl_column : 8
    <3d77>   DW_AT_sibling     : <0x3db0>
 <2><3d7b>: Abbrev Number: 16 (DW_TAG_member)
    <3d7c>   DW_AT_name        : (indirect string, offset: 0xd38): in_shift
    <3d80>   DW_AT_decl_file   : 7
    <3d81>   DW_AT_decl_line   : 112
    <3d82>   DW_AT_decl_column : 8
    <3d83>   DW_AT_type        : <0x3d4b>
    <3d87>   DW_AT_data_member_location: 0
 <2><3d88>: Abbrev Number: 16 (DW_TAG_member)
    <3d89>   DW_AT_name        : (indirect string, offset: 0x11c8): state
    <3d8d>   DW_AT_decl_file   : 7
    <3d8e>   DW_AT_decl_line   : 113
    <3d8f>   DW_AT_decl_column : 13
    <3d90>   DW_AT_type        : <0x3cf1>
    <3d94>   DW_AT_data_member_location: 4
 <2><3d95>: Abbrev Number: 16 (DW_TAG_member)
    <3d96>   DW_AT_name        : (indirect string, offset: 0xd59): next_done
    <3d9a>   DW_AT_decl_file   : 7
    <3d9b>   DW_AT_decl_line   : 114
    <3d9c>   DW_AT_decl_column : 8
    <3d9d>   DW_AT_type        : <0x3d4b>
    <3da1>   DW_AT_data_member_location: 12
 <2><3da2>: Abbrev Number: 20 (DW_TAG_member)
    <3da3>   DW_AT_name        : cur
    <3da7>   DW_AT_decl_file   : 7
    <3da8>   DW_AT_decl_line   : 115
    <3da9>   DW_AT_decl_column : 17
    <3daa>   DW_AT_type        : <0x3cfd>
    <3dae>   DW_AT_data_member_location: 16
 <2><3daf>: Abbrev Number: 0
 <1><3db0>: Abbrev Number: 10 (DW_TAG_typedef)
    <3db1>   DW_AT_name        : (indirect string, offset: 0xc34): mbui_iterator_t
    <3db5>   DW_AT_decl_file   : 7
    <3db6>   DW_AT_decl_line   : 203
    <3db7>   DW_AT_decl_column : 30
    <3db8>   DW_AT_type        : <0x3d6e>
 <1><3dbc>: Abbrev Number: 21 (DW_TAG_subprogram)
    <3dbd>   DW_AT_external    : 1
    <3dbd>   DW_AT_name        : (indirect string, offset: 0x3ad): strcmp
    <3dc1>   DW_AT_decl_file   : 8
    <3dc2>   DW_AT_decl_line   : 137
    <3dc3>   DW_AT_decl_column : 12
    <3dc4>   DW_AT_prototyped  : 1
    <3dc4>   DW_AT_type        : <0x3bc1>
    <3dc8>   DW_AT_declaration : 1
    <3dc8>   DW_AT_sibling     : <0x3dd7>
 <2><3dcc>: Abbrev Number: 22 (DW_TAG_formal_parameter)
    <3dcd>   DW_AT_type        : <0x3c48>
 <2><3dd1>: Abbrev Number: 22 (DW_TAG_formal_parameter)
    <3dd2>   DW_AT_type        : <0x3c48>
 <2><3dd6>: Abbrev Number: 0
 <1><3dd7>: Abbrev Number: 21 (DW_TAG_subprogram)
    <3dd8>   DW_AT_external    : 1
    <3dd8>   DW_AT_name        : (indirect string, offset: 0xcfb): strchr
    <3ddc>   DW_AT_decl_file   : 8
    <3ddd>   DW_AT_decl_line   : 226
    <3dde>   DW_AT_decl_column : 14
    <3ddf>   DW_AT_prototyped  : 1
    <3ddf>   DW_AT_type        : <0x3bd1>
    <3de3>   DW_AT_declaration : 1
    <3de3>   DW_AT_sibling     : <0x3df2>
 <2><3de7>: Abbrev Number: 22 (DW_TAG_formal_parameter)
    <3de8>   DW_AT_type        : <0x3c48>
 <2><3dec>: Abbrev Number: 22 (DW_TAG_formal_parameter)
    <3ded>   DW_AT_type        : <0x3bc1>
 <2><3df1>: Abbrev Number: 0
 <1><3df2>: Abbrev Number: 21 (DW_TAG_subprogram)
    <3df3>   DW_AT_external    : 1
    <3df3>   DW_AT_name        : (indirect string, offset: 0x90f): memcpy
    <3df7>   DW_AT_decl_file   : 8
    <3df8>   DW_AT_decl_line   : 43
    <3df9>   DW_AT_decl_column : 14
    <3dfa>   DW_AT_prototyped  : 1
    <3dfa>   DW_AT_type        : <0x3bcf>
    <3dfe>   DW_AT_declaration : 1
    <3dfe>   DW_AT_sibling     : <0x3e12>
 <2><3e02>: Abbrev Number: 22 (DW_TAG_formal_parameter)
    <3e03>   DW_AT_type        : <0x3bcf>
 <2><3e07>: Abbrev Number: 22 (DW_TAG_formal_parameter)
    <3e08>   DW_AT_type        : <0x3cde>
 <2><3e0c>: Abbrev Number: 22 (DW_TAG_formal_parameter)
    <3e0d>   DW_AT_type        : <0x3c4e>
 <2><3e11>: Abbrev Number: 0
 <1><3e12>: Abbrev Number: 21 (DW_TAG_subprogram)
    <3e13>   DW_AT_external    : 1
    <3e13>   DW_AT_name        : (indirect string, offset: 0xd2d): xstr_iconv
    <3e17>   DW_AT_decl_file   : 9
    <3e18>   DW_AT_decl_line   : 70
    <3e19>   DW_AT_decl_column : 15
    <3e1a>   DW_AT_prototyped  : 1
    <3e1a>   DW_AT_type        : <0x3bd1>
    <3e1e>   DW_AT_declaration : 1
    <3e1e>   DW_AT_sibling     : <0x3e32>
 <2><3e22>: Abbrev Number: 22 (DW_TAG_formal_parameter)
    <3e23>   DW_AT_type        : <0x3c48>
 <2><3e27>: Abbrev Number: 22 (DW_TAG_formal_parameter)
    <3e28>   DW_AT_type        : <0x3c48>
 <2><3e2c>: Abbrev Number: 22 (DW_TAG_formal_parameter)
    <3e2d>   DW_AT_type        : <0x3c48>
 <2><3e31>: Abbrev Number: 0
 <1><3e32>: Abbrev Number: 21 (DW_TAG_subprogram)
    <3e33>   DW_AT_external    : 1
    <3e33>   DW_AT_name        : (indirect string, offset: 0xd6f): c_strcasecmp
    <3e37>   DW_AT_decl_file   : 10
    <3e38>   DW_AT_decl_line   : 42
    <3e39>   DW_AT_decl_column : 12
    <3e3a>   DW_AT_prototyped  : 1
    <3e3a>   DW_AT_type        : <0x3bc1>
    <3e3e>   DW_AT_declaration : 1
    <3e3e>   DW_AT_sibling     : <0x3e4d>
 <2><3e42>: Abbrev Number: 22 (DW_TAG_formal_parameter)
    <3e43>   DW_AT_type        : <0x3c48>
 <2><3e47>: Abbrev Number: 22 (DW_TAG_formal_parameter)
    <3e48>   DW_AT_type        : <0x3c48>
 <2><3e4c>: Abbrev Number: 0
 <1><3e4d>: Abbrev Number: 23 (DW_TAG_subprogram)
    <3e4e>   DW_AT_external    : 1
    <3e4e>   DW_AT_name        : (indirect string, offset: 0xdfe): locale_charset
    <3e52>   DW_AT_decl_file   : 14
    <3e53>   DW_AT_decl_line   : 35
    <3e54>   DW_AT_decl_column : 21
    <3e55>   DW_AT_prototyped  : 1
    <3e55>   DW_AT_type        : <0x3c48>
    <3e59>   DW_AT_declaration : 1
 <1><3e59>: Abbrev Number: 24 (DW_TAG_subprogram)
    <3e5a>   DW_AT_external    : 1
    <3e5a>   DW_AT_name        : (indirect string, offset: 0xcf3): sprintf
    <3e5e>   DW_AT_decl_file   : 11
    <3e5f>   DW_AT_decl_line   : 334
    <3e61>   DW_AT_decl_column : 12
    <3e62>   DW_AT_prototyped  : 1
    <3e62>   DW_AT_type        : <0x3bc1>
    <3e66>   DW_AT_declaration : 1
    <3e66>   DW_AT_sibling     : <0x3e76>
 <2><3e6a>: Abbrev Number: 22 (DW_TAG_formal_parameter)
    <3e6b>   DW_AT_type        : <0x3bd1>
 <2><3e6f>: Abbrev Number: 22 (DW_TAG_formal_parameter)
    <3e70>   DW_AT_type        : <0x3c48>
 <2><3e74>: Abbrev Number: 25 (DW_TAG_unspecified_parameters)
 <2><3e75>: Abbrev Number: 0
 <1><3e76>: Abbrev Number: 21 (DW_TAG_subprogram)
    <3e77>   DW_AT_external    : 1
    <3e77>   DW_AT_name        : (indirect string, offset: 0x6a9): xmalloc
    <3e7b>   DW_AT_decl_file   : 12
    <3e7c>   DW_AT_decl_line   : 57
    <3e7d>   DW_AT_decl_column : 7
    <3e7e>   DW_AT_prototyped  : 1
    <3e7e>   DW_AT_type        : <0x3bcf>
    <3e82>   DW_AT_declaration : 1
    <3e82>   DW_AT_sibling     : <0x3e8c>
 <2><3e86>: Abbrev Number: 22 (DW_TAG_formal_parameter)
    <3e87>   DW_AT_type        : <0x3c4e>
 <2><3e8b>: Abbrev Number: 0
 <1><3e8c>: Abbrev Number: 21 (DW_TAG_subprogram)
    <3e8d>   DW_AT_external    : 1
    <3e8d>   DW_AT_name        : (indirect string, offset: 0x9a8): gettext
    <3e91>   DW_AT_decl_file   : 13
    <3e92>   DW_AT_decl_line   : 39
    <3e93>   DW_AT_decl_column : 14
    <3e94>   DW_AT_prototyped  : 1
    <3e94>   DW_AT_type        : <0x3bd1>
    <3e98>   DW_AT_declaration : 1
    <3e98>   DW_AT_sibling     : <0x3ea2>
 <2><3e9c>: Abbrev Number: 22 (DW_TAG_formal_parameter)
    <3e9d>   DW_AT_type        : <0x3c48>
 <2><3ea1>: Abbrev Number: 0
 <1><3ea2>: Abbrev Number: 26 (DW_TAG_subprogram)
    <3ea3>   DW_AT_external    : 1
    <3ea3>   DW_AT_name        : (indirect string, offset: 0x941): rpl_free
    <3ea7>   DW_AT_decl_file   : 20
    <3ea8>   DW_AT_decl_line   : 698
    <3eaa>   DW_AT_decl_column : 19
    <3eab>   DW_AT_prototyped  : 1
    <3eab>   DW_AT_declaration : 1
    <3eab>   DW_AT_sibling     : <0x3eb5>
 <2><3eaf>: Abbrev Number: 22 (DW_TAG_formal_parameter)
    <3eb0>   DW_AT_type        : <0x3bcf>
 <2><3eb4>: Abbrev Number: 0
 <1><3eb5>: Abbrev Number: 24 (DW_TAG_subprogram)
    <3eb6>   DW_AT_external    : 1
    <3eb6>   DW_AT_name        : (indirect string, offset: 0xd52): strlen
    <3eba>   DW_AT_decl_file   : 8
    <3ebb>   DW_AT_decl_line   : 385
    <3ebd>   DW_AT_decl_column : 15
    <3ebe>   DW_AT_prototyped  : 1
    <3ebe>   DW_AT_type        : <0x3c4e>
    <3ec2>   DW_AT_declaration : 1
    <3ec2>   DW_AT_sibling     : <0x3ecc>
 <2><3ec6>: Abbrev Number: 22 (DW_TAG_formal_parameter)
    <3ec7>   DW_AT_type        : <0x3c48>
 <2><3ecb>: Abbrev Number: 0
 <1><3ecc>: Abbrev Number: 23 (DW_TAG_subprogram)
    <3ecd>   DW_AT_external    : 1
    <3ecd>   DW_AT_name        : (indirect string, offset: 0xdce): __ctype_b_loc
    <3ed1>   DW_AT_decl_file   : 15
    <3ed2>   DW_AT_decl_line   : 79
    <3ed3>   DW_AT_decl_column : 35
    <3ed4>   DW_AT_prototyped  : 1
    <3ed4>   DW_AT_type        : <0x3ed8>
    <3ed8>   DW_AT_declaration : 1
 <1><3ed8>: Abbrev Number: 6 (DW_TAG_pointer_type)
    <3ed9>   DW_AT_byte_size   : 8
    <3eda>   DW_AT_type        : <0x3c42>
 <1><3ede>: Abbrev Number: 21 (DW_TAG_subprogram)
    <3edf>   DW_AT_external    : 1
    <3edf>   DW_AT_name        : (indirect string, offset: 0xca1): iswalnum
    <3ee3>   DW_AT_decl_file   : 16
    <3ee4>   DW_AT_decl_line   : 95
    <3ee5>   DW_AT_decl_column : 12
    <3ee6>   DW_AT_prototyped  : 1
    <3ee6>   DW_AT_type        : <0x3bc1>
    <3eea>   DW_AT_declaration : 1
    <3eea>   DW_AT_sibling     : <0x3ef4>
 <2><3eee>: Abbrev Number: 22 (DW_TAG_formal_parameter)
    <3eef>   DW_AT_type        : <0x3ce5>
 <2><3ef3>: Abbrev Number: 0
 <1><3ef4>: Abbrev Number: 27 (DW_TAG_subprogram)
    <3ef5>   DW_AT_external    : 1
    <3ef5>   DW_AT_name        : (indirect string, offset: 0x1bd): abort
    <3ef9>   DW_AT_decl_file   : 17
    <3efa>   DW_AT_decl_line   : 591
    <3efc>   DW_AT_decl_column : 13
    <3efd>   DW_AT_prototyped  : 1
    <3efd>   DW_AT_noreturn    : 1
    <3efd>   DW_AT_declaration : 1
 <1><3efd>: Abbrev Number: 21 (DW_TAG_subprogram)
    <3efe>   DW_AT_external    : 1
    <3efe>   DW_AT_name        : (indirect string, offset: 0xe0d): memset
    <3f02>   DW_AT_decl_file   : 8
    <3f03>   DW_AT_decl_line   : 61
    <3f04>   DW_AT_decl_column : 14
    <3f05>   DW_AT_prototyped  : 1
    <3f05>   DW_AT_type        : <0x3bcf>
    <3f09>   DW_AT_declaration : 1
    <3f09>   DW_AT_sibling     : <0x3f1d>
 <2><3f0d>: Abbrev Number: 22 (DW_TAG_formal_parameter)
    <3f0e>   DW_AT_type        : <0x3bcf>
 <2><3f12>: Abbrev Number: 22 (DW_TAG_formal_parameter)
    <3f13>   DW_AT_type        : <0x3bc1>
 <2><3f17>: Abbrev Number: 22 (DW_TAG_formal_parameter)
    <3f18>   DW_AT_type        : <0x3c4e>
 <2><3f1c>: Abbrev Number: 0
 <1><3f1d>: Abbrev Number: 23 (DW_TAG_subprogram)
    <3f1e>   DW_AT_external    : 1
    <3f1e>   DW_AT_name        : (indirect string, offset: 0xd92): __ctype_get_mb_cur_max
    <3f22>   DW_AT_decl_file   : 17
    <3f23>   DW_AT_decl_line   : 97
    <3f24>   DW_AT_decl_column : 15
    <3f25>   DW_AT_prototyped  : 1
    <3f25>   DW_AT_type        : <0x3c4e>
    <3f29>   DW_AT_declaration : 1
 <1><3f29>: Abbrev Number: 24 (DW_TAG_subprogram)
    <3f2a>   DW_AT_external    : 1
    <3f2a>   DW_AT_name        : (indirect string, offset: 0xe14): mbsstr
    <3f2e>   DW_AT_decl_file   : 18
    <3f2f>   DW_AT_decl_line   : 1486
    <3f31>   DW_AT_decl_column : 21
    <3f32>   DW_AT_prototyped  : 1
    <3f32>   DW_AT_type        : <0x3bd1>
    <3f36>   DW_AT_declaration : 1
    <3f36>   DW_AT_sibling     : <0x3f45>
 <2><3f3a>: Abbrev Number: 22 (DW_TAG_formal_parameter)
    <3f3b>   DW_AT_type        : <0x3c48>
 <2><3f3f>: Abbrev Number: 22 (DW_TAG_formal_parameter)
    <3f40>   DW_AT_type        : <0x3c48>
 <2><3f44>: Abbrev Number: 0
 <1><3f45>: Abbrev Number: 21 (DW_TAG_subprogram)
    <3f46>   DW_AT_external    : 1
    <3f46>   DW_AT_name        : (indirect string, offset: 0xe2b): trim2
    <3f4a>   DW_AT_decl_file   : 19
    <3f4b>   DW_AT_decl_line   : 35
    <3f4c>   DW_AT_decl_column : 7
    <3f4d>   DW_AT_prototyped  : 1
    <3f4d>   DW_AT_type        : <0x3bd1>
    <3f51>   DW_AT_declaration : 1
    <3f51>   DW_AT_sibling     : <0x3f60>
 <2><3f55>: Abbrev Number: 22 (DW_TAG_formal_parameter)
    <3f56>   DW_AT_type        : <0x3c48>
 <2><3f5a>: Abbrev Number: 22 (DW_TAG_formal_parameter)
    <3f5b>   DW_AT_type        : <0x3bc1>
 <2><3f5f>: Abbrev Number: 0
 <1><3f60>: Abbrev Number: 28 (DW_TAG_subprogram)
    <3f61>   DW_AT_external    : 1
    <3f61>   DW_AT_name        : (indirect string, offset: 0x83b): proper_name_utf8
    <3f65>   DW_AT_decl_file   : 1
    <3f66>   DW_AT_decl_line   : 188
    <3f67>   DW_AT_decl_column : 1
    <3f68>   DW_AT_prototyped  : 1
    <3f68>   DW_AT_type        : <0x3c48>
    <3f6c>   DW_AT_low_pc      : 0x896d
    <3f74>   DW_AT_high_pc     : 0x2e3
    <3f7c>   DW_AT_frame_base  : 1 byte block: 9c 	(DW_OP_call_frame_cfa)
    <3f7e>   DW_AT_GNU_all_tail_call_sites: 1
    <3f7e>   DW_AT_sibling     : <0x4078>
 <2><3f82>: Abbrev Number: 29 (DW_TAG_formal_parameter)
    <3f83>   DW_AT_name        : (indirect string, offset: 0xc96): name_ascii
    <3f87>   DW_AT_decl_file   : 1
    <3f88>   DW_AT_decl_line   : 188
    <3f89>   DW_AT_decl_column : 31
    <3f8a>   DW_AT_type        : <0x3c48>
    <3f8e>   DW_AT_location    : 3 byte block: 91 f8 7e 	(DW_OP_fbreg: -136)
 <2><3f92>: Abbrev Number: 29 (DW_TAG_formal_parameter)
    <3f93>   DW_AT_name        : (indirect string, offset: 0x842): name_utf8
    <3f97>   DW_AT_decl_file   : 1
    <3f98>   DW_AT_decl_line   : 188
    <3f99>   DW_AT_decl_column : 55
    <3f9a>   DW_AT_type        : <0x3c48>
    <3f9e>   DW_AT_location    : 3 byte block: 91 f0 7e 	(DW_OP_fbreg: -144)
 <2><3fa2>: Abbrev Number: 30 (DW_TAG_variable)
    <3fa3>   DW_AT_name        : (indirect string, offset: 0xd63): translation
    <3fa7>   DW_AT_decl_file   : 1
    <3fa8>   DW_AT_decl_line   : 191
    <3fa9>   DW_AT_decl_column : 15
    <3faa>   DW_AT_type        : <0x3c48>
    <3fae>   DW_AT_location    : 3 byte block: 91 a8 7f 	(DW_OP_fbreg: -88)
 <2><3fb2>: Abbrev Number: 30 (DW_TAG_variable)
    <3fb3>   DW_AT_name        : (indirect string, offset: 0xdf2): locale_code
    <3fb7>   DW_AT_decl_file   : 1
    <3fb8>   DW_AT_decl_line   : 194
    <3fb9>   DW_AT_decl_column : 15
    <3fba>   DW_AT_type        : <0x3c48>
    <3fbe>   DW_AT_location    : 3 byte block: 91 b0 7f 	(DW_OP_fbreg: -80)
 <2><3fc2>: Abbrev Number: 30 (DW_TAG_variable)
    <3fc3>   DW_AT_name        : (indirect string, offset: 0xb9a): alloc_name_converted
    <3fc7>   DW_AT_decl_file   : 1
    <3fc8>   DW_AT_decl_line   : 195
    <3fc9>   DW_AT_decl_column : 9
    <3fca>   DW_AT_type        : <0x3bd1>
    <3fce>   DW_AT_location    : 3 byte block: 91 88 7f 	(DW_OP_fbreg: -120)
 <2><3fd2>: Abbrev Number: 30 (DW_TAG_variable)
    <3fd3>   DW_AT_name        : (indirect string, offset: 0xdb0): alloc_name_converted_translit
    <3fd7>   DW_AT_decl_file   : 1
    <3fd8>   DW_AT_decl_line   : 196
    <3fd9>   DW_AT_decl_column : 9
    <3fda>   DW_AT_type        : <0x3bd1>
    <3fde>   DW_AT_location    : 3 byte block: 91 90 7f 	(DW_OP_fbreg: -112)
 <2><3fe2>: Abbrev Number: 30 (DW_TAG_variable)
    <3fe3>   DW_AT_name        : (indirect string, offset: 0xba0): name_converted
    <3fe7>   DW_AT_decl_file   : 1
    <3fe8>   DW_AT_decl_line   : 197
    <3fe9>   DW_AT_decl_column : 15
    <3fea>   DW_AT_type        : <0x3c48>
    <3fee>   DW_AT_location    : 3 byte block: 91 98 7f 	(DW_OP_fbreg: -104)
 <2><3ff2>: Abbrev Number: 30 (DW_TAG_variable)
    <3ff3>   DW_AT_name        : (indirect string, offset: 0xdb6): name_converted_translit
    <3ff7>   DW_AT_decl_file   : 1
    <3ff8>   DW_AT_decl_line   : 198
    <3ff9>   DW_AT_decl_column : 15
    <3ffa>   DW_AT_type        : <0x3c48>
    <3ffe>   DW_AT_location    : 3 byte block: 91 a0 7f 	(DW_OP_fbreg: -96)
 <2><4002>: Abbrev Number: 30 (DW_TAG_variable)
    <4003>   DW_AT_name        : (indirect string, offset: 0x157a): name
    <4007>   DW_AT_decl_file   : 1
    <4008>   DW_AT_decl_line   : 199
    <4009>   DW_AT_decl_column : 15
    <400a>   DW_AT_type        : <0x3c48>
    <400e>   DW_AT_location    : 2 byte block: 91 50 	(DW_OP_fbreg: -48)
 <2><4011>: Abbrev Number: 31 (DW_TAG_lexical_block)
    <4012>   DW_AT_low_pc      : 0x89ff
    <401a>   DW_AT_high_pc     : 0xc4
    <4022>   DW_AT_sibling     : <0x4055>
 <3><4026>: Abbrev Number: 30 (DW_TAG_variable)
    <4027>   DW_AT_name        : (indirect string, offset: 0xdbb): converted_translit
    <402b>   DW_AT_decl_file   : 1
    <402c>   DW_AT_decl_line   : 211
    <402d>   DW_AT_decl_column : 15
    <402e>   DW_AT_type        : <0x3bd1>
    <4032>   DW_AT_location    : 2 byte block: 91 48 	(DW_OP_fbreg: -56)
 <3><4035>: Abbrev Number: 32 (DW_TAG_variable)
    <4036>   DW_AT_name        : len
    <403a>   DW_AT_decl_file   : 1
    <403b>   DW_AT_decl_line   : 213
    <403c>   DW_AT_decl_column : 16
    <403d>   DW_AT_type        : <0x3c4e>
    <4041>   DW_AT_location    : 3 byte block: 91 b8 7f 	(DW_OP_fbreg: -72)
 <3><4045>: Abbrev Number: 30 (DW_TAG_variable)
    <4046>   DW_AT_name        : (indirect string, offset: 0xcaa): locale_code_translit
    <404a>   DW_AT_decl_file   : 1
    <404b>   DW_AT_decl_line   : 214
    <404c>   DW_AT_decl_column : 15
    <404d>   DW_AT_type        : <0x3bd1>
    <4051>   DW_AT_location    : 2 byte block: 91 40 	(DW_OP_fbreg: -64)
 <3><4054>: Abbrev Number: 0
 <2><4055>: Abbrev Number: 33 (DW_TAG_lexical_block)
    <4056>   DW_AT_low_pc      : 0x8b92
    <405e>   DW_AT_high_pc     : 0x7a
 <3><4066>: Abbrev Number: 34 (DW_TAG_variable)
    <4067>   DW_AT_name        : (indirect string, offset: 0x34da): result
    <406b>   DW_AT_decl_file   : 1
    <406c>   DW_AT_decl_line   : 273
    <406e>   DW_AT_decl_column : 17
    <406f>   DW_AT_type        : <0x3bd1>
    <4073>   DW_AT_location    : 2 byte block: 91 58 	(DW_OP_fbreg: -40)
 <3><4076>: Abbrev Number: 0
 <2><4077>: Abbrev Number: 0
 <1><4078>: Abbrev Number: 28 (DW_TAG_subprogram)
    <4079>   DW_AT_external    : 1
    <4079>   DW_AT_name        : (indirect string, offset: 0xd86): proper_name
    <407d>   DW_AT_decl_file   : 1
    <407e>   DW_AT_decl_line   : 158
    <407f>   DW_AT_decl_column : 1
    <4080>   DW_AT_prototyped  : 1
    <4080>   DW_AT_type        : <0x3c48>
    <4084>   DW_AT_low_pc      : 0x88c7
    <408c>   DW_AT_high_pc     : 0xa6
    <4094>   DW_AT_frame_base  : 1 byte block: 9c 	(DW_OP_call_frame_cfa)
    <4096>   DW_AT_GNU_all_tail_call_sites: 1
    <4096>   DW_AT_sibling     : <0x40da>
 <2><409a>: Abbrev Number: 29 (DW_TAG_formal_parameter)
    <409b>   DW_AT_name        : (indirect string, offset: 0x157a): name
    <409f>   DW_AT_decl_file   : 1
    <40a0>   DW_AT_decl_line   : 158
    <40a1>   DW_AT_decl_column : 26
    <40a2>   DW_AT_type        : <0x3c48>
    <40a6>   DW_AT_location    : 2 byte block: 91 48 	(DW_OP_fbreg: -56)
 <2><40a9>: Abbrev Number: 30 (DW_TAG_variable)
    <40aa>   DW_AT_name        : (indirect string, offset: 0xd63): translation
    <40ae>   DW_AT_decl_file   : 1
    <40af>   DW_AT_decl_line   : 161
    <40b0>   DW_AT_decl_column : 15
    <40b1>   DW_AT_type        : <0x3c48>
    <40b5>   DW_AT_location    : 2 byte block: 91 50 	(DW_OP_fbreg: -48)
 <2><40b8>: Abbrev Number: 33 (DW_TAG_lexical_block)
    <40b9>   DW_AT_low_pc      : 0x890f
    <40c1>   DW_AT_high_pc     : 0x54
 <3><40c9>: Abbrev Number: 30 (DW_TAG_variable)
    <40ca>   DW_AT_name        : (indirect string, offset: 0x34da): result
    <40ce>   DW_AT_decl_file   : 1
    <40cf>   DW_AT_decl_line   : 171
    <40d0>   DW_AT_decl_column : 17
    <40d1>   DW_AT_type        : <0x3bd1>
    <40d5>   DW_AT_location    : 2 byte block: 91 58 	(DW_OP_fbreg: -40)
 <3><40d8>: Abbrev Number: 0
 <2><40d9>: Abbrev Number: 0
 <1><40da>: Abbrev Number: 35 (DW_TAG_subprogram)
    <40db>   DW_AT_name        : (indirect string, offset: 0xd09): mbsstr_trimmed_wordbounded
    <40df>   DW_AT_decl_file   : 1
    <40e0>   DW_AT_decl_line   : 55
    <40e1>   DW_AT_decl_column : 1
    <40e2>   DW_AT_prototyped  : 1
    <40e2>   DW_AT_type        : <0x3d4b>
    <40e6>   DW_AT_low_pc      : 0x83f1
    <40ee>   DW_AT_high_pc     : 0x4d6
    <40f6>   DW_AT_frame_base  : 1 byte block: 9c 	(DW_OP_call_frame_cfa)
    <40f8>   DW_AT_GNU_all_tail_call_sites: 1
    <40f8>   DW_AT_sibling     : <0x422f>
 <2><40fc>: Abbrev Number: 29 (DW_TAG_formal_parameter)
    <40fd>   DW_AT_name        : (indirect string, offset: 0x1281): string
    <4101>   DW_AT_decl_file   : 1
    <4102>   DW_AT_decl_line   : 55
    <4103>   DW_AT_decl_column : 41
    <4104>   DW_AT_type        : <0x3c48>
    <4108>   DW_AT_location    : 3 byte block: 91 b8 7e 	(DW_OP_fbreg: -200)
 <2><410c>: Abbrev Number: 36 (DW_TAG_formal_parameter)
    <410d>   DW_AT_name        : sub
    <4111>   DW_AT_decl_file   : 1
    <4112>   DW_AT_decl_line   : 55
    <4113>   DW_AT_decl_column : 61
    <4114>   DW_AT_type        : <0x3c48>
    <4118>   DW_AT_location    : 3 byte block: 91 b0 7e 	(DW_OP_fbreg: -208)
 <2><411c>: Abbrev Number: 30 (DW_TAG_variable)
    <411d>   DW_AT_name        : (indirect string, offset: 0xded): tsub
    <4121>   DW_AT_decl_file   : 1
    <4122>   DW_AT_decl_line   : 57
    <4123>   DW_AT_decl_column : 9
    <4124>   DW_AT_type        : <0x3bd1>
    <4128>   DW_AT_location    : 3 byte block: 91 c8 7e 	(DW_OP_fbreg: -184)
 <2><412c>: Abbrev Number: 30 (DW_TAG_variable)
    <412d>   DW_AT_name        : (indirect string, offset: 0x300): found
    <4131>   DW_AT_decl_file   : 1
    <4132>   DW_AT_decl_line   : 58
    <4133>   DW_AT_decl_column : 8
    <4134>   DW_AT_type        : <0x3d4b>
    <4138>   DW_AT_location    : 3 byte block: 91 c3 7e 	(DW_OP_fbreg: -189)
 <2><413c>: Abbrev Number: 37 (DW_TAG_lexical_block)
    <413d>   DW_AT_ranges      : 0x180
 <3><4141>: Abbrev Number: 30 (DW_TAG_variable)
    <4142>   DW_AT_name        : (indirect string, offset: 0xc25): tsub_in_string
    <4146>   DW_AT_decl_file   : 1
    <4147>   DW_AT_decl_line   : 62
    <4148>   DW_AT_decl_column : 19
    <4149>   DW_AT_type        : <0x3c48>
    <414d>   DW_AT_location    : 3 byte block: 91 d0 7e 	(DW_OP_fbreg: -176)
 <3><4151>: Abbrev Number: 38 (DW_TAG_lexical_block)
    <4152>   DW_AT_ranges      : 0x1b0
    <4156>   DW_AT_sibling     : <0x41f9>
 <4><415a>: Abbrev Number: 30 (DW_TAG_variable)
    <415b>   DW_AT_name        : (indirect string, offset: 0xc81): string_iter
    <415f>   DW_AT_decl_file   : 1
    <4160>   DW_AT_decl_line   : 69
    <4161>   DW_AT_decl_column : 31
    <4162>   DW_AT_type        : <0x3db0>
    <4166>   DW_AT_location    : 3 byte block: 91 e0 7e 	(DW_OP_fbreg: -160)
 <4><416a>: Abbrev Number: 30 (DW_TAG_variable)
    <416b>   DW_AT_name        : (indirect string, offset: 0xcbf): word_boundary_before
    <416f>   DW_AT_decl_file   : 1
    <4170>   DW_AT_decl_line   : 70
    <4171>   DW_AT_decl_column : 20
    <4172>   DW_AT_type        : <0x3d4b>
    <4176>   DW_AT_location    : 3 byte block: 91 c4 7e 	(DW_OP_fbreg: -188)
 <4><417a>: Abbrev Number: 30 (DW_TAG_variable)
    <417b>   DW_AT_name        : (indirect string, offset: 0xbed): word_boundary_after
    <417f>   DW_AT_decl_file   : 1
    <4180>   DW_AT_decl_line   : 71
    <4181>   DW_AT_decl_column : 20
    <4182>   DW_AT_type        : <0x3d4b>
    <4186>   DW_AT_location    : 3 byte block: 91 c5 7e 	(DW_OP_fbreg: -187)
 <4><418a>: Abbrev Number: 31 (DW_TAG_lexical_block)
    <418b>   DW_AT_low_pc      : 0x84cf
    <4193>   DW_AT_high_pc     : 0xaa
    <419b>   DW_AT_sibling     : <0x41b0>
 <5><419f>: Abbrev Number: 30 (DW_TAG_variable)
    <41a0>   DW_AT_name        : (indirect string, offset: 0xddc): last_char_before_tsub
    <41a4>   DW_AT_decl_file   : 1
    <41a5>   DW_AT_decl_line   : 77
    <41a6>   DW_AT_decl_column : 28
    <41a7>   DW_AT_type        : <0x3d62>
    <41ab>   DW_AT_location    : 3 byte block: 91 a0 7f 	(DW_OP_fbreg: -96)
 <5><41af>: Abbrev Number: 0
 <4><41b0>: Abbrev Number: 31 (DW_TAG_lexical_block)
    <41b1>   DW_AT_low_pc      : 0x85af
    <41b9>   DW_AT_high_pc     : 0xc0
    <41c1>   DW_AT_sibling     : <0x41d6>
 <5><41c5>: Abbrev Number: 30 (DW_TAG_variable)
    <41c6>   DW_AT_name        : (indirect string, offset: 0xc01): tsub_iter
    <41ca>   DW_AT_decl_file   : 1
    <41cb>   DW_AT_decl_line   : 92
    <41cc>   DW_AT_decl_column : 33
    <41cd>   DW_AT_type        : <0x3db0>
    <41d1>   DW_AT_location    : 3 byte block: 91 a0 7f 	(DW_OP_fbreg: -96)
 <5><41d5>: Abbrev Number: 0
 <4><41d6>: Abbrev Number: 33 (DW_TAG_lexical_block)
    <41d7>   DW_AT_low_pc      : 0x86a7
    <41df>   DW_AT_high_pc     : 0x4d
 <5><41e7>: Abbrev Number: 30 (DW_TAG_variable)
    <41e8>   DW_AT_name        : (indirect string, offset: 0xc44): first_char_after_tsub
    <41ec>   DW_AT_decl_file   : 1
    <41ed>   DW_AT_decl_line   : 106
    <41ee>   DW_AT_decl_column : 28
    <41ef>   DW_AT_type        : <0x3d62>
    <41f3>   DW_AT_location    : 3 byte block: 91 a0 7f 	(DW_OP_fbreg: -96)
 <5><41f7>: Abbrev Number: 0
 <4><41f8>: Abbrev Number: 0
 <3><41f9>: Abbrev Number: 37 (DW_TAG_lexical_block)
    <41fa>   DW_AT_ranges      : 0x1e0
 <4><41fe>: Abbrev Number: 30 (DW_TAG_variable)
    <41ff>   DW_AT_name        : (indirect string, offset: 0xcbf): word_boundary_before
    <4203>   DW_AT_decl_file   : 1
    <4204>   DW_AT_decl_line   : 124
    <4205>   DW_AT_decl_column : 20
    <4206>   DW_AT_type        : <0x3d4b>
    <420a>   DW_AT_location    : 3 byte block: 91 c6 7e 	(DW_OP_fbreg: -186)
 <4><420e>: Abbrev Number: 32 (DW_TAG_variable)
    <420f>   DW_AT_name        : p
    <4211>   DW_AT_decl_file   : 1
    <4212>   DW_AT_decl_line   : 125
    <4213>   DW_AT_decl_column : 27
    <4214>   DW_AT_type        : <0x3c48>
    <4218>   DW_AT_location    : 3 byte block: 91 d8 7e 	(DW_OP_fbreg: -168)
 <4><421c>: Abbrev Number: 30 (DW_TAG_variable)
    <421d>   DW_AT_name        : (indirect string, offset: 0xbed): word_boundary_after
    <4221>   DW_AT_decl_file   : 1
    <4222>   DW_AT_decl_line   : 126
    <4223>   DW_AT_decl_column : 20
    <4224>   DW_AT_type        : <0x3d4b>
    <4228>   DW_AT_location    : 3 byte block: 91 c7 7e 	(DW_OP_fbreg: -185)
 <4><422c>: Abbrev Number: 0
 <3><422d>: Abbrev Number: 0
 <2><422e>: Abbrev Number: 0
 <1><422f>: Abbrev Number: 39 (DW_TAG_subprogram)
    <4230>   DW_AT_external    : 1
    <4230>   DW_AT_name        : (indirect string, offset: 0xc65): mbuiter_multi_next
    <4234>   DW_AT_decl_file   : 7
    <4235>   DW_AT_decl_line   : 125
    <4236>   DW_AT_decl_column : 1
    <4237>   DW_AT_prototyped  : 1
    <4237>   DW_AT_sibling     : <0x4259>
 <2><423b>: Abbrev Number: 40 (DW_TAG_formal_parameter)
    <423c>   DW_AT_name        : (indirect string, offset: 0xc06): iter
    <4240>   DW_AT_decl_file   : 7
    <4241>   DW_AT_decl_line   : 125
    <4242>   DW_AT_decl_column : 43
    <4243>   DW_AT_type        : <0x4259>
 <2><4247>: Abbrev Number: 41 (DW_TAG_label)
    <4248>   DW_AT_name        : (indirect string, offset: 0xc5a): with_shift
    <424c>   DW_AT_decl_file   : 7
    <424d>   DW_AT_decl_line   : 145
    <424e>   DW_AT_decl_column : 5
 <2><424f>: Abbrev Number: 42 (DW_TAG_variable)
    <4250>   DW_AT_name        : (indirect string, offset: 0x1d0): __PRETTY_FUNCTION__
    <4254>   DW_AT_type        : <0x426f>
    <4258>   DW_AT_artificial  : 1
 <2><4258>: Abbrev Number: 0
 <1><4259>: Abbrev Number: 6 (DW_TAG_pointer_type)
    <425a>   DW_AT_byte_size   : 8
    <425b>   DW_AT_type        : <0x3d6e>
 <1><425f>: Abbrev Number: 13 (DW_TAG_array_type)
    <4260>   DW_AT_type        : <0x3bde>
    <4264>   DW_AT_sibling     : <0x426f>
 <2><4268>: Abbrev Number: 14 (DW_TAG_subrange_type)
    <4269>   DW_AT_type        : <0x3bac>
    <426d>   DW_AT_upper_bound : 18
 <2><426e>: Abbrev Number: 0
 <1><426f>: Abbrev Number: 3 (DW_TAG_const_type)
    <4270>   DW_AT_type        : <0x425f>
 <1><4274>: Abbrev Number: 0
  Compilation Unit @ offset 0x4275:
   Length:        0x14b4 (32-bit)
   Version:       4
   Abbrev Offset: 0xbd8
   Pointer Size:  8
 <0><4280>: Abbrev Number: 1 (DW_TAG_compile_unit)
    <4281>   DW_AT_producer    : (indirect string, offset: 0x25c): GNU C17 11.1.0 -mtune=generic -march=x86-64 -g -O0 -fasynchronous-unwind-tables -fstack-protector-strong -fstack-clash-protection -fcf-protection
    <4285>   DW_AT_language    : 12	(ANSI C99)
    <4286>   DW_AT_name        : (indirect string, offset: 0xe6c): lib/quotearg.c
    <428a>   DW_AT_comp_dir    : (indirect string, offset: 0x884): /home/jacekline/dev/research/programs/coreutils-9.1
    <428e>   DW_AT_low_pc      : 0x8c50
    <4296>   DW_AT_high_pc     : 0x1f79
    <429e>   DW_AT_stmt_list   : 0x2249
 <1><42a2>: Abbrev Number: 2 (DW_TAG_typedef)
    <42a3>   DW_AT_name        : (indirect string, offset: 0x14a5): size_t
    <42a7>   DW_AT_decl_file   : 2
    <42a8>   DW_AT_decl_line   : 209
    <42a9>   DW_AT_decl_column : 23
    <42aa>   DW_AT_type        : <0x42ae>
 <1><42ae>: Abbrev Number: 3 (DW_TAG_base_type)
    <42af>   DW_AT_byte_size   : 8
    <42b0>   DW_AT_encoding    : 7	(unsigned)
    <42b1>   DW_AT_name        : (indirect string, offset: 0x718): long unsigned int
 <1><42b5>: Abbrev Number: 4 (DW_TAG_typedef)
    <42b6>   DW_AT_name        : (indirect string, offset: 0xd41): wchar_t
    <42ba>   DW_AT_decl_file   : 2
    <42bb>   DW_AT_decl_line   : 321
    <42bd>   DW_AT_decl_column : 24
    <42be>   DW_AT_type        : <0x42c2>
 <1><42c2>: Abbrev Number: 5 (DW_TAG_base_type)
    <42c3>   DW_AT_byte_size   : 4
    <42c4>   DW_AT_encoding    : 5	(signed)
    <42c5>   DW_AT_name        : int
 <1><42c9>: Abbrev Number: 3 (DW_TAG_base_type)
    <42ca>   DW_AT_byte_size   : 4
    <42cb>   DW_AT_encoding    : 7	(unsigned)
    <42cc>   DW_AT_name        : (indirect string, offset: 0x71d): unsigned int
 <1><42d0>: Abbrev Number: 6 (DW_TAG_const_type)
    <42d1>   DW_AT_type        : <0x42c9>
 <1><42d5>: Abbrev Number: 3 (DW_TAG_base_type)
    <42d6>   DW_AT_byte_size   : 8
    <42d7>   DW_AT_encoding    : 5	(signed)
    <42d8>   DW_AT_name        : (indirect string, offset: 0x558): long int
 <1><42dc>: Abbrev Number: 3 (DW_TAG_base_type)
    <42dd>   DW_AT_byte_size   : 8
    <42de>   DW_AT_encoding    : 5	(signed)
    <42df>   DW_AT_name        : (indirect string, offset: 0x553): long long int
 <1><42e3>: Abbrev Number: 7 (DW_TAG_pointer_type)
    <42e4>   DW_AT_byte_size   : 8
    <42e5>   DW_AT_type        : <0x42f0>
 <1><42e9>: Abbrev Number: 3 (DW_TAG_base_type)
    <42ea>   DW_AT_byte_size   : 2
    <42eb>   DW_AT_encoding    : 7	(unsigned)
    <42ec>   DW_AT_name        : (indirect string, offset: 0x9b0): short unsigned int
 <1><42f0>: Abbrev Number: 6 (DW_TAG_const_type)
    <42f1>   DW_AT_type        : <0x42e9>
 <1><42f5>: Abbrev Number: 7 (DW_TAG_pointer_type)
    <42f6>   DW_AT_byte_size   : 8
    <42f7>   DW_AT_type        : <0x430c>
 <1><42fb>: Abbrev Number: 6 (DW_TAG_const_type)
    <42fc>   DW_AT_type        : <0x42f5>
 <1><4300>: Abbrev Number: 8 (DW_TAG_restrict_type)
    <4301>   DW_AT_type        : <0x42f5>
 <1><4305>: Abbrev Number: 3 (DW_TAG_base_type)
    <4306>   DW_AT_byte_size   : 1
    <4307>   DW_AT_encoding    : 6	(signed char)
    <4308>   DW_AT_name        : (indirect string, offset: 0x1ed): char
 <1><430c>: Abbrev Number: 6 (DW_TAG_const_type)
    <430d>   DW_AT_type        : <0x4305>
 <1><4311>: Abbrev Number: 3 (DW_TAG_base_type)
    <4312>   DW_AT_byte_size   : 1
    <4313>   DW_AT_encoding    : 8	(unsigned char)
    <4314>   DW_AT_name        : (indirect string, offset: 0x1e4): unsigned char
 <1><4318>: Abbrev Number: 3 (DW_TAG_base_type)
    <4319>   DW_AT_byte_size   : 1
    <431a>   DW_AT_encoding    : 6	(signed char)
    <431b>   DW_AT_name        : (indirect string, offset: 0x1e6): signed char
 <1><431f>: Abbrev Number: 3 (DW_TAG_base_type)
    <4320>   DW_AT_byte_size   : 2
    <4321>   DW_AT_encoding    : 5	(signed)
    <4322>   DW_AT_name        : (indirect string, offset: 0x8bf): short int
 <1><4326>: Abbrev Number: 9 (DW_TAG_pointer_type)
    <4327>   DW_AT_byte_size   : 8
 <1><4328>: Abbrev Number: 7 (DW_TAG_pointer_type)
    <4329>   DW_AT_byte_size   : 8
    <432a>   DW_AT_type        : <0x4305>
 <1><432e>: Abbrev Number: 3 (DW_TAG_base_type)
    <432f>   DW_AT_byte_size   : 8
    <4330>   DW_AT_encoding    : 7	(unsigned)
    <4331>   DW_AT_name        : (indirect string, offset: 0x713): long long unsigned int
 <1><4335>: Abbrev Number: 10 (DW_TAG_array_type)
    <4336>   DW_AT_type        : <0x4305>
    <433a>   DW_AT_sibling     : <0x4345>
 <2><433e>: Abbrev Number: 11 (DW_TAG_subrange_type)
    <433f>   DW_AT_type        : <0x42ae>
    <4343>   DW_AT_upper_bound : 3
 <2><4344>: Abbrev Number: 0
 <1><4345>: Abbrev Number: 7 (DW_TAG_pointer_type)
    <4346>   DW_AT_byte_size   : 8
    <4347>   DW_AT_type        : <0x434b>
 <1><434b>: Abbrev Number: 12 (DW_TAG_const_type)
 <1><434c>: Abbrev Number: 2 (DW_TAG_typedef)
    <434d>   DW_AT_name        : (indirect string, offset: 0x1154): ptrdiff_t
    <4351>   DW_AT_decl_file   : 2
    <4352>   DW_AT_decl_line   : 143
    <4353>   DW_AT_decl_column : 26
    <4354>   DW_AT_type        : <0x42d5>
 <1><4358>: Abbrev Number: 3 (DW_TAG_base_type)
    <4359>   DW_AT_byte_size   : 16
    <435a>   DW_AT_encoding    : 4	(float)
    <435b>   DW_AT_name        : (indirect string, offset: 0x6b1): long double
 <1><435f>: Abbrev Number: 13 (DW_TAG_enumeration_type)
    <4360>   DW_AT_name        : (indirect string, offset: 0x11ff): quoting_style
    <4364>   DW_AT_encoding    : 7	(unsigned)
    <4365>   DW_AT_byte_size   : 4
    <4366>   DW_AT_type        : <0x42c9>
    <436a>   DW_AT_decl_file   : 3
    <436b>   DW_AT_decl_line   : 32
    <436c>   DW_AT_decl_column : 6
    <436d>   DW_AT_sibling     : <0x43b4>
 <2><4371>: Abbrev Number: 14 (DW_TAG_enumerator)
    <4372>   DW_AT_name        : (indirect string, offset: 0x108f): literal_quoting_style
    <4376>   DW_AT_const_value : 0
 <2><4377>: Abbrev Number: 14 (DW_TAG_enumerator)
    <4378>   DW_AT_name        : (indirect string, offset: 0x10e2): shell_quoting_style
    <437c>   DW_AT_const_value : 1
 <2><437d>: Abbrev Number: 14 (DW_TAG_enumerator)
    <437e>   DW_AT_name        : (indirect string, offset: 0xfb6): shell_always_quoting_style
    <4382>   DW_AT_const_value : 2
 <2><4383>: Abbrev Number: 14 (DW_TAG_enumerator)
    <4384>   DW_AT_name        : (indirect string, offset: 0xf7a): shell_escape_quoting_style
    <4388>   DW_AT_const_value : 3
 <2><4389>: Abbrev Number: 14 (DW_TAG_enumerator)
    <438a>   DW_AT_name        : (indirect string, offset: 0x10f6): shell_escape_always_quoting_style
    <438e>   DW_AT_const_value : 4
 <2><438f>: Abbrev Number: 14 (DW_TAG_enumerator)
    <4390>   DW_AT_name        : (indirect string, offset: 0x11fd): c_quoting_style
    <4394>   DW_AT_const_value : 5
 <2><4395>: Abbrev Number: 14 (DW_TAG_enumerator)
    <4396>   DW_AT_name        : (indirect string, offset: 0xf3c): c_maybe_quoting_style
    <439a>   DW_AT_const_value : 6
 <2><439b>: Abbrev Number: 14 (DW_TAG_enumerator)
    <439c>   DW_AT_name        : (indirect string, offset: 0xf80): escape_quoting_style
    <43a0>   DW_AT_const_value : 7
 <2><43a1>: Abbrev Number: 14 (DW_TAG_enumerator)
    <43a2>   DW_AT_name        : (indirect string, offset: 0x117c): locale_quoting_style
    <43a6>   DW_AT_const_value : 8
 <2><43a7>: Abbrev Number: 14 (DW_TAG_enumerator)
    <43a8>   DW_AT_name        : (indirect string, offset: 0x117b): clocale_quoting_style
    <43ac>   DW_AT_const_value : 9
 <2><43ad>: Abbrev Number: 14 (DW_TAG_enumerator)
    <43ae>   DW_AT_name        : (indirect string, offset: 0x113f): custom_quoting_style
    <43b2>   DW_AT_const_value : 10
 <2><43b3>: Abbrev Number: 0
 <1><43b4>: Abbrev Number: 6 (DW_TAG_const_type)
    <43b5>   DW_AT_type        : <0x435f>
 <1><43b9>: Abbrev Number: 13 (DW_TAG_enumeration_type)
    <43ba>   DW_AT_name        : (indirect string, offset: 0x1081): quoting_flags
    <43be>   DW_AT_encoding    : 7	(unsigned)
    <43bf>   DW_AT_byte_size   : 4
    <43c0>   DW_AT_type        : <0x42c9>
    <43c4>   DW_AT_decl_file   : 3
    <43c5>   DW_AT_decl_line   : 242
    <43c6>   DW_AT_decl_column : 6
    <43c7>   DW_AT_sibling     : <0x43de>
 <2><43cb>: Abbrev Number: 14 (DW_TAG_enumerator)
    <43cc>   DW_AT_name        : (indirect string, offset: 0xe92): QA_ELIDE_NULL_BYTES
    <43d0>   DW_AT_const_value : 1
 <2><43d1>: Abbrev Number: 14 (DW_TAG_enumerator)
    <43d2>   DW_AT_name        : (indirect string, offset: 0x119a): QA_ELIDE_OUTER_QUOTES
    <43d6>   DW_AT_const_value : 2
 <2><43d7>: Abbrev Number: 14 (DW_TAG_enumerator)
    <43d8>   DW_AT_name        : (indirect string, offset: 0x1296): QA_SPLIT_TRIGRAPHS
    <43dc>   DW_AT_const_value : 4
 <2><43dd>: Abbrev Number: 0
 <1><43de>: Abbrev Number: 10 (DW_TAG_array_type)
    <43df>   DW_AT_type        : <0x42fb>
    <43e3>   DW_AT_sibling     : <0x43e9>
 <2><43e7>: Abbrev Number: 15 (DW_TAG_subrange_type)
 <2><43e8>: Abbrev Number: 0
 <1><43e9>: Abbrev Number: 6 (DW_TAG_const_type)
    <43ea>   DW_AT_type        : <0x43de>
 <1><43ee>: Abbrev Number: 16 (DW_TAG_variable)
    <43ef>   DW_AT_name        : (indirect string, offset: 0x1240): quoting_style_args
    <43f3>   DW_AT_decl_file   : 3
    <43f4>   DW_AT_decl_line   : 267
    <43f6>   DW_AT_decl_column : 26
    <43f7>   DW_AT_type        : <0x43e9>
    <43fb>   DW_AT_external    : 1
    <43fb>   DW_AT_declaration : 1
 <1><43fb>: Abbrev Number: 10 (DW_TAG_array_type)
    <43fc>   DW_AT_type        : <0x43b4>
    <4400>   DW_AT_sibling     : <0x4406>
 <2><4404>: Abbrev Number: 15 (DW_TAG_subrange_type)
 <2><4405>: Abbrev Number: 0
 <1><4406>: Abbrev Number: 6 (DW_TAG_const_type)
    <4407>   DW_AT_type        : <0x43fb>
 <1><440b>: Abbrev Number: 16 (DW_TAG_variable)
    <440c>   DW_AT_name        : (indirect string, offset: 0x10bf): quoting_style_vals
    <4410>   DW_AT_decl_file   : 3
    <4411>   DW_AT_decl_line   : 268
    <4413>   DW_AT_decl_column : 33
    <4414>   DW_AT_type        : <0x4406>
    <4418>   DW_AT_external    : 1
    <4418>   DW_AT_declaration : 1
 <1><4418>: Abbrev Number: 17 (DW_TAG_structure_type)
    <4419>   DW_AT_name        : (indirect string, offset: 0x1230): quoting_options
    <441d>   DW_AT_byte_size   : 56
    <441e>   DW_AT_decl_file   : 1
    <441f>   DW_AT_decl_line   : 58
    <4420>   DW_AT_decl_column : 8
    <4421>   DW_AT_sibling     : <0x4467>
 <2><4425>: Abbrev Number: 18 (DW_TAG_member)
    <4426>   DW_AT_name        : (indirect string, offset: 0x1207): style
    <442a>   DW_AT_decl_file   : 1
    <442b>   DW_AT_decl_line   : 61
    <442c>   DW_AT_decl_column : 22
    <442d>   DW_AT_type        : <0x435f>
    <4431>   DW_AT_data_member_location: 0
 <2><4432>: Abbrev Number: 18 (DW_TAG_member)
    <4433>   DW_AT_name        : (indirect string, offset: 0x1089): flags
    <4437>   DW_AT_decl_file   : 1
    <4438>   DW_AT_decl_line   : 64
    <4439>   DW_AT_decl_column : 7
    <443a>   DW_AT_type        : <0x42c2>
    <443e>   DW_AT_data_member_location: 4
 <2><443f>: Abbrev Number: 18 (DW_TAG_member)
    <4440>   DW_AT_name        : (indirect string, offset: 0x1369): quote_these_too
    <4444>   DW_AT_decl_file   : 1
    <4445>   DW_AT_decl_line   : 68
    <4446>   DW_AT_decl_column : 16
    <4447>   DW_AT_type        : <0x4552>
    <444b>   DW_AT_data_member_location: 8
 <2><444c>: Abbrev Number: 18 (DW_TAG_member)
    <444d>   DW_AT_name        : (indirect string, offset: 0x139e): left_quote
    <4451>   DW_AT_decl_file   : 1
    <4452>   DW_AT_decl_line   : 71
    <4453>   DW_AT_decl_column : 15
    <4454>   DW_AT_type        : <0x42f5>
    <4458>   DW_AT_data_member_location: 40
 <2><4459>: Abbrev Number: 18 (DW_TAG_member)
    <445a>   DW_AT_name        : (indirect string, offset: 0xf0a): right_quote
    <445e>   DW_AT_decl_file   : 1
    <445f>   DW_AT_decl_line   : 74
    <4460>   DW_AT_decl_column : 15
    <4461>   DW_AT_type        : <0x42f5>
    <4465>   DW_AT_data_member_location: 48
 <2><4466>: Abbrev Number: 0
 <1><4467>: Abbrev Number: 6 (DW_TAG_const_type)
    <4468>   DW_AT_type        : <0x4418>
 <1><446c>: Abbrev Number: 19 (DW_TAG_variable)
    <446d>   DW_AT_name        : (indirect string, offset: 0x1253): quote_quoting_options
    <4471>   DW_AT_decl_file   : 4
    <4472>   DW_AT_decl_line   : 25
    <4473>   DW_AT_decl_column : 31
    <4474>   DW_AT_type        : <0x4418>
    <4478>   DW_AT_external    : 1
    <4478>   DW_AT_declaration : 1
 <1><4478>: Abbrev Number: 2 (DW_TAG_typedef)
    <4479>   DW_AT_name        : (indirect string, offset: 0x13d1): idx_t
    <447d>   DW_AT_decl_file   : 5
    <447e>   DW_AT_decl_line   : 125
    <447f>   DW_AT_decl_column : 19
    <4480>   DW_AT_type        : <0x434c>
 <1><4484>: Abbrev Number: 20 (DW_TAG_enumeration_type)
    <4485>   DW_AT_encoding    : 7	(unsigned)
    <4486>   DW_AT_byte_size   : 4
    <4487>   DW_AT_type        : <0x42c9>
    <448b>   DW_AT_decl_file   : 14
    <448c>   DW_AT_decl_line   : 47
    <448d>   DW_AT_decl_column : 1
    <448e>   DW_AT_sibling     : <0x44e3>
 <2><4492>: Abbrev Number: 21 (DW_TAG_enumerator)
    <4493>   DW_AT_name        : (indirect string, offset: 0xe1b): _ISupper
    <4497>   DW_AT_const_value : 256
 <2><4499>: Abbrev Number: 21 (DW_TAG_enumerator)
    <449a>   DW_AT_name        : (indirect string, offset: 0xd49): _ISlower
    <449e>   DW_AT_const_value : 512
 <2><44a0>: Abbrev Number: 21 (DW_TAG_enumerator)
    <44a1>   DW_AT_name        : (indirect string, offset: 0xe31): _ISalpha
    <44a5>   DW_AT_const_value : 1024
 <2><44a7>: Abbrev Number: 21 (DW_TAG_enumerator)
    <44a8>   DW_AT_name        : (indirect string, offset: 0xc1c): _ISdigit
    <44ac>   DW_AT_const_value : 2048
 <2><44ae>: Abbrev Number: 21 (DW_TAG_enumerator)
    <44af>   DW_AT_name        : (indirect string, offset: 0xd7c): _ISxdigit
    <44b3>   DW_AT_const_value : 4096
 <2><44b5>: Abbrev Number: 21 (DW_TAG_enumerator)
    <44b6>   DW_AT_name        : (indirect string, offset: 0xbc4): _ISspace
    <44ba>   DW_AT_const_value : 8192
 <2><44bc>: Abbrev Number: 21 (DW_TAG_enumerator)
    <44bd>   DW_AT_name        : (indirect string, offset: 0xb91): _ISprint
    <44c1>   DW_AT_const_value : 16384
 <2><44c3>: Abbrev Number: 21 (DW_TAG_enumerator)
    <44c4>   DW_AT_name        : (indirect string, offset: 0xbe4): _ISgraph
    <44c8>   DW_AT_const_value : 32768
 <2><44ca>: Abbrev Number: 14 (DW_TAG_enumerator)
    <44cb>   DW_AT_name        : (indirect string, offset: 0xc78): _ISblank
    <44cf>   DW_AT_const_value : 1
 <2><44d0>: Abbrev Number: 14 (DW_TAG_enumerator)
    <44d1>   DW_AT_name        : (indirect string, offset: 0xbaf): _IScntrl
    <44d5>   DW_AT_const_value : 2
 <2><44d6>: Abbrev Number: 14 (DW_TAG_enumerator)
    <44d7>   DW_AT_name        : (indirect string, offset: 0xbdb): _ISpunct
    <44db>   DW_AT_const_value : 4
 <2><44dc>: Abbrev Number: 14 (DW_TAG_enumerator)
    <44dd>   DW_AT_name        : (indirect string, offset: 0xc8d): _ISalnum
    <44e1>   DW_AT_const_value : 8
 <2><44e2>: Abbrev Number: 0
 <1><44e3>: Abbrev Number: 2 (DW_TAG_typedef)
    <44e4>   DW_AT_name        : (indirect string, offset: 0xda9): wint_t
    <44e8>   DW_AT_decl_file   : 6
    <44e9>   DW_AT_decl_line   : 20
    <44ea>   DW_AT_decl_column : 23
    <44eb>   DW_AT_type        : <0x42c9>
 <1><44ef>: Abbrev Number: 22 (DW_TAG_union_type)
    <44f0>   DW_AT_byte_size   : 4
    <44f1>   DW_AT_decl_file   : 7
    <44f2>   DW_AT_decl_line   : 16
    <44f3>   DW_AT_decl_column : 3
    <44f4>   DW_AT_sibling     : <0x4511>
 <2><44f8>: Abbrev Number: 23 (DW_TAG_member)
    <44f9>   DW_AT_name        : (indirect string, offset: 0xbcd): __wch
    <44fd>   DW_AT_decl_file   : 7
    <44fe>   DW_AT_decl_line   : 18
    <44ff>   DW_AT_decl_column : 19
    <4500>   DW_AT_type        : <0x42c9>
 <2><4504>: Abbrev Number: 23 (DW_TAG_member)
    <4505>   DW_AT_name        : (indirect string, offset: 0xd02): __wchb
    <4509>   DW_AT_decl_file   : 7
    <450a>   DW_AT_decl_line   : 19
    <450b>   DW_AT_decl_column : 10
    <450c>   DW_AT_type        : <0x4335>
 <2><4510>: Abbrev Number: 0
 <1><4511>: Abbrev Number: 24 (DW_TAG_structure_type)
    <4512>   DW_AT_byte_size   : 8
    <4513>   DW_AT_decl_file   : 7
    <4514>   DW_AT_decl_line   : 13
    <4515>   DW_AT_decl_column : 9
    <4516>   DW_AT_sibling     : <0x4535>
 <2><451a>: Abbrev Number: 18 (DW_TAG_member)
    <451b>   DW_AT_name        : (indirect string, offset: 0xc14): __count
    <451f>   DW_AT_decl_file   : 7
    <4520>   DW_AT_decl_line   : 15
    <4521>   DW_AT_decl_column : 7
    <4522>   DW_AT_type        : <0x42c2>
    <4526>   DW_AT_data_member_location: 0
 <2><4527>: Abbrev Number: 18 (DW_TAG_member)
    <4528>   DW_AT_name        : (indirect string, offset: 0xbd3): __value
    <452c>   DW_AT_decl_file   : 7
    <452d>   DW_AT_decl_line   : 20
    <452e>   DW_AT_decl_column : 5
    <452f>   DW_AT_type        : <0x44ef>
    <4533>   DW_AT_data_member_location: 4
 <2><4534>: Abbrev Number: 0
 <1><4535>: Abbrev Number: 2 (DW_TAG_typedef)
    <4536>   DW_AT_name        : (indirect string, offset: 0xbb8): __mbstate_t
    <453a>   DW_AT_decl_file   : 7
    <453b>   DW_AT_decl_line   : 21
    <453c>   DW_AT_decl_column : 3
    <453d>   DW_AT_type        : <0x4511>
 <1><4541>: Abbrev Number: 2 (DW_TAG_typedef)
    <4542>   DW_AT_name        : (indirect string, offset: 0xbba): mbstate_t
    <4546>   DW_AT_decl_file   : 8
    <4547>   DW_AT_decl_line   : 6
    <4548>   DW_AT_decl_column : 21
    <4549>   DW_AT_type        : <0x4535>
 <1><454d>: Abbrev Number: 6 (DW_TAG_const_type)
    <454e>   DW_AT_type        : <0x4541>
 <1><4552>: Abbrev Number: 10 (DW_TAG_array_type)
    <4553>   DW_AT_type        : <0x42c9>
    <4557>   DW_AT_sibling     : <0x4562>
 <2><455b>: Abbrev Number: 11 (DW_TAG_subrange_type)
    <455c>   DW_AT_type        : <0x42ae>
    <4560>   DW_AT_upper_bound : 7
 <2><4561>: Abbrev Number: 0
 <1><4562>: Abbrev Number: 10 (DW_TAG_array_type)
    <4563>   DW_AT_type        : <0x42fb>
    <4567>   DW_AT_sibling     : <0x4572>
 <2><456b>: Abbrev Number: 11 (DW_TAG_subrange_type)
    <456c>   DW_AT_type        : <0x42ae>
    <4570>   DW_AT_upper_bound : 10
 <2><4571>: Abbrev Number: 0
 <1><4572>: Abbrev Number: 6 (DW_TAG_const_type)
    <4573>   DW_AT_type        : <0x4562>
 <1><4577>: Abbrev Number: 25 (DW_TAG_variable)
    <4578>   DW_AT_specification: <0x43ee>
    <457c>   DW_AT_decl_file   : 1
    <457d>   DW_AT_decl_line   : 78
    <457e>   DW_AT_decl_column : 19
    <457f>   DW_AT_type        : <0x4572>
    <4583>   DW_AT_location    : 9 byte block: 3 a0 7a 1 0 0 0 0 0 	(DW_OP_addr: 17aa0)
 <1><458d>: Abbrev Number: 10 (DW_TAG_array_type)
    <458e>   DW_AT_type        : <0x43b4>
    <4592>   DW_AT_sibling     : <0x459d>
 <2><4596>: Abbrev Number: 11 (DW_TAG_subrange_type)
    <4597>   DW_AT_type        : <0x42ae>
    <459b>   DW_AT_upper_bound : 9
 <2><459c>: Abbrev Number: 0
 <1><459d>: Abbrev Number: 6 (DW_TAG_const_type)
    <459e>   DW_AT_type        : <0x458d>
 <1><45a2>: Abbrev Number: 25 (DW_TAG_variable)
    <45a3>   DW_AT_specification: <0x440b>
    <45a7>   DW_AT_decl_file   : 1
    <45a8>   DW_AT_decl_line   : 94
    <45a9>   DW_AT_decl_column : 26
    <45aa>   DW_AT_type        : <0x459d>
    <45ae>   DW_AT_location    : 9 byte block: 3 0 37 1 0 0 0 0 0 	(DW_OP_addr: 13700)
 <1><45b8>: Abbrev Number: 26 (DW_TAG_variable)
    <45b9>   DW_AT_name        : (indirect string, offset: 0x11dd): default_quoting_options
    <45bd>   DW_AT_decl_file   : 1
    <45be>   DW_AT_decl_line   : 109
    <45bf>   DW_AT_decl_column : 31
    <45c0>   DW_AT_type        : <0x4418>
    <45c4>   DW_AT_location    : 9 byte block: 3 60 81 1 0 0 0 0 0 	(DW_OP_addr: 18160)
 <1><45ce>: Abbrev Number: 27 (DW_TAG_structure_type)
    <45cf>   DW_AT_name        : (indirect string, offset: 0x12a9): slotvec
    <45d3>   DW_AT_byte_size   : 16
    <45d4>   DW_AT_decl_file   : 1
    <45d5>   DW_AT_decl_line   : 826
    <45d7>   DW_AT_decl_column : 8
    <45d8>   DW_AT_sibling     : <0x45f9>
 <2><45dc>: Abbrev Number: 28 (DW_TAG_member)
    <45dd>   DW_AT_name        : (indirect string, offset: 0x21c): size
    <45e1>   DW_AT_decl_file   : 1
    <45e2>   DW_AT_decl_line   : 828
    <45e4>   DW_AT_decl_column : 10
    <45e5>   DW_AT_type        : <0x42a2>
    <45e9>   DW_AT_data_member_location: 0
 <2><45ea>: Abbrev Number: 29 (DW_TAG_member)
    <45eb>   DW_AT_name        : val
    <45ef>   DW_AT_decl_file   : 1
    <45f0>   DW_AT_decl_line   : 829
    <45f2>   DW_AT_decl_column : 9
    <45f3>   DW_AT_type        : <0x4328>
    <45f7>   DW_AT_data_member_location: 8
 <2><45f8>: Abbrev Number: 0
 <1><45f9>: Abbrev Number: 10 (DW_TAG_array_type)
    <45fa>   DW_AT_type        : <0x4305>
    <45fe>   DW_AT_sibling     : <0x4609>
 <2><4602>: Abbrev Number: 11 (DW_TAG_subrange_type)
    <4603>   DW_AT_type        : <0x42ae>
    <4607>   DW_AT_upper_bound : 255
 <2><4608>: Abbrev Number: 0
 <1><4609>: Abbrev Number: 30 (DW_TAG_variable)
    <460a>   DW_AT_name        : (indirect string, offset: 0x12b1): slot0
    <460e>   DW_AT_decl_file   : 1
    <460f>   DW_AT_decl_line   : 834
    <4611>   DW_AT_decl_column : 13
    <4612>   DW_AT_type        : <0x45f9>
    <4616>   DW_AT_location    : 9 byte block: 3 a0 81 1 0 0 0 0 0 	(DW_OP_addr: 181a0)
 <1><4620>: Abbrev Number: 30 (DW_TAG_variable)
    <4621>   DW_AT_name        : (indirect string, offset: 0xeaa): nslots
    <4625>   DW_AT_decl_file   : 1
    <4626>   DW_AT_decl_line   : 835
    <4628>   DW_AT_decl_column : 12
    <4629>   DW_AT_type        : <0x42c2>
    <462d>   DW_AT_location    : 9 byte block: 3 40 80 1 0 0 0 0 0 	(DW_OP_addr: 18040)
 <1><4637>: Abbrev Number: 30 (DW_TAG_variable)
    <4638>   DW_AT_name        : (indirect string, offset: 0x133c): slotvec0
    <463c>   DW_AT_decl_file   : 1
    <463d>   DW_AT_decl_line   : 836
    <463f>   DW_AT_decl_column : 23
    <4640>   DW_AT_type        : <0x45ce>
    <4644>   DW_AT_location    : 9 byte block: 3 a0 80 1 0 0 0 0 0 	(DW_OP_addr: 180a0)
 <1><464e>: Abbrev Number: 30 (DW_TAG_variable)
    <464f>   DW_AT_name        : (indirect string, offset: 0x12a9): slotvec
    <4653>   DW_AT_decl_file   : 1
    <4654>   DW_AT_decl_line   : 837
    <4656>   DW_AT_decl_column : 24
    <4657>   DW_AT_type        : <0x4665>
    <465b>   DW_AT_location    : 9 byte block: 3 b0 80 1 0 0 0 0 0 	(DW_OP_addr: 180b0)
 <1><4665>: Abbrev Number: 7 (DW_TAG_pointer_type)
    <4666>   DW_AT_byte_size   : 8
    <4667>   DW_AT_type        : <0x45ce>
 <1><466b>: Abbrev Number: 31 (DW_TAG_variable)
    <466c>   DW_AT_specification: <0x446c>
    <4670>   DW_AT_decl_file   : 1
    <4671>   DW_AT_decl_line   : 1044
    <4673>   DW_AT_decl_column : 24
    <4674>   DW_AT_location    : 9 byte block: 3 60 80 1 0 0 0 0 0 	(DW_OP_addr: 18060)
 <1><467e>: Abbrev Number: 32 (DW_TAG_subprogram)
    <467f>   DW_AT_external    : 1
    <467f>   DW_AT_name        : (indirect string, offset: 0x1387): xpalloc
    <4683>   DW_AT_decl_file   : 9
    <4684>   DW_AT_decl_line   : 90
    <4685>   DW_AT_decl_column : 7
    <4686>   DW_AT_prototyped  : 1
    <4686>   DW_AT_type        : <0x4326>
    <468a>   DW_AT_declaration : 1
    <468a>   DW_AT_sibling     : <0x46a8>
 <2><468e>: Abbrev Number: 33 (DW_TAG_formal_parameter)
    <468f>   DW_AT_type        : <0x4326>
 <2><4693>: Abbrev Number: 33 (DW_TAG_formal_parameter)
    <4694>   DW_AT_type        : <0x46a8>
 <2><4698>: Abbrev Number: 33 (DW_TAG_formal_parameter)
    <4699>   DW_AT_type        : <0x4478>
 <2><469d>: Abbrev Number: 33 (DW_TAG_formal_parameter)
    <469e>   DW_AT_type        : <0x434c>
 <2><46a2>: Abbrev Number: 33 (DW_TAG_formal_parameter)
    <46a3>   DW_AT_type        : <0x4478>
 <2><46a7>: Abbrev Number: 0
 <1><46a8>: Abbrev Number: 7 (DW_TAG_pointer_type)
    <46a9>   DW_AT_byte_size   : 8
    <46aa>   DW_AT_type        : <0x4478>
 <1><46ae>: Abbrev Number: 34 (DW_TAG_subprogram)
    <46af>   DW_AT_external    : 1
    <46af>   DW_AT_name        : (indirect string, offset: 0x941): rpl_free
    <46b3>   DW_AT_decl_file   : 12
    <46b4>   DW_AT_decl_line   : 698
    <46b6>   DW_AT_decl_column : 19
    <46b7>   DW_AT_prototyped  : 1
    <46b7>   DW_AT_declaration : 1
    <46b7>   DW_AT_sibling     : <0x46c1>
 <2><46bb>: Abbrev Number: 33 (DW_TAG_formal_parameter)
    <46bc>   DW_AT_type        : <0x4326>
 <2><46c0>: Abbrev Number: 0
 <1><46c1>: Abbrev Number: 32 (DW_TAG_subprogram)
    <46c2>   DW_AT_external    : 1
    <46c2>   DW_AT_name        : (indirect string, offset: 0x1269): xcharalloc
    <46c6>   DW_AT_decl_file   : 9
    <46c7>   DW_AT_decl_line   : 153
    <46c8>   DW_AT_decl_column : 7
    <46c9>   DW_AT_prototyped  : 1
    <46c9>   DW_AT_type        : <0x4328>
    <46cd>   DW_AT_declaration : 1
    <46cd>   DW_AT_sibling     : <0x46d7>
 <2><46d1>: Abbrev Number: 33 (DW_TAG_formal_parameter)
    <46d2>   DW_AT_type        : <0x42a2>
 <2><46d6>: Abbrev Number: 0
 <1><46d7>: Abbrev Number: 35 (DW_TAG_subprogram)
    <46d8>   DW_AT_external    : 1
    <46d8>   DW_AT_name        : (indirect string, offset: 0x11f5): mbsinit
    <46dc>   DW_AT_decl_file   : 10
    <46dd>   DW_AT_decl_line   : 292
    <46df>   DW_AT_decl_column : 12
    <46e0>   DW_AT_prototyped  : 1
    <46e0>   DW_AT_type        : <0x42c2>
    <46e4>   DW_AT_declaration : 1
    <46e4>   DW_AT_sibling     : <0x46ee>
 <2><46e8>: Abbrev Number: 33 (DW_TAG_formal_parameter)
    <46e9>   DW_AT_type        : <0x46ee>
 <2><46ed>: Abbrev Number: 0
 <1><46ee>: Abbrev Number: 7 (DW_TAG_pointer_type)
    <46ef>   DW_AT_byte_size   : 8
    <46f0>   DW_AT_type        : <0x454d>
 <1><46f4>: Abbrev Number: 32 (DW_TAG_subprogram)
    <46f5>   DW_AT_external    : 1
    <46f5>   DW_AT_name        : (indirect string, offset: 0x1125): iswprint
    <46f9>   DW_AT_decl_file   : 11
    <46fa>   DW_AT_decl_line   : 120
    <46fb>   DW_AT_decl_column : 12
    <46fc>   DW_AT_prototyped  : 1
    <46fc>   DW_AT_type        : <0x42c2>
    <4700>   DW_AT_declaration : 1
    <4700>   DW_AT_sibling     : <0x470a>
 <2><4704>: Abbrev Number: 33 (DW_TAG_formal_parameter)
    <4705>   DW_AT_type        : <0x44e3>
 <2><4709>: Abbrev Number: 0
 <1><470a>: Abbrev Number: 35 (DW_TAG_subprogram)
    <470b>   DW_AT_external    : 1
    <470b>   DW_AT_name        : (indirect string, offset: 0x10a5): rpl_mbrtowc
    <470f>   DW_AT_decl_file   : 12
    <4710>   DW_AT_decl_line   : 799
    <4712>   DW_AT_decl_column : 1
    <4713>   DW_AT_prototyped  : 1
    <4713>   DW_AT_type        : <0x42a2>
    <4717>   DW_AT_declaration : 1
    <4717>   DW_AT_sibling     : <0x4730>
 <2><471b>: Abbrev Number: 33 (DW_TAG_formal_parameter)
    <471c>   DW_AT_type        : <0x4736>
 <2><4720>: Abbrev Number: 33 (DW_TAG_formal_parameter)
    <4721>   DW_AT_type        : <0x4300>
 <2><4725>: Abbrev Number: 33 (DW_TAG_formal_parameter)
    <4726>   DW_AT_type        : <0x42a2>
 <2><472a>: Abbrev Number: 33 (DW_TAG_formal_parameter)
    <472b>   DW_AT_type        : <0x4741>
 <2><472f>: Abbrev Number: 0
 <1><4730>: Abbrev Number: 7 (DW_TAG_pointer_type)
    <4731>   DW_AT_byte_size   : 8
    <4732>   DW_AT_type        : <0x42b5>
 <1><4736>: Abbrev Number: 8 (DW_TAG_restrict_type)
    <4737>   DW_AT_type        : <0x4730>
 <1><473b>: Abbrev Number: 7 (DW_TAG_pointer_type)
    <473c>   DW_AT_byte_size   : 8
    <473d>   DW_AT_type        : <0x4541>
 <1><4741>: Abbrev Number: 8 (DW_TAG_restrict_type)
    <4742>   DW_AT_type        : <0x473b>
 <1><4746>: Abbrev Number: 32 (DW_TAG_subprogram)
    <4747>   DW_AT_external    : 1
    <4747>   DW_AT_name        : (indirect string, offset: 0xe0d): memset
    <474b>   DW_AT_decl_file   : 13
    <474c>   DW_AT_decl_line   : 61
    <474d>   DW_AT_decl_column : 14
    <474e>   DW_AT_prototyped  : 1
    <474e>   DW_AT_type        : <0x4326>
    <4752>   DW_AT_declaration : 1
    <4752>   DW_AT_sibling     : <0x4766>
 <2><4756>: Abbrev Number: 33 (DW_TAG_formal_parameter)
    <4757>   DW_AT_type        : <0x4326>
 <2><475b>: Abbrev Number: 33 (DW_TAG_formal_parameter)
    <475c>   DW_AT_type        : <0x42c2>
 <2><4760>: Abbrev Number: 33 (DW_TAG_formal_parameter)
    <4761>   DW_AT_type        : <0x42a2>
 <2><4765>: Abbrev Number: 0
 <1><4766>: Abbrev Number: 36 (DW_TAG_subprogram)
    <4767>   DW_AT_external    : 1
    <4767>   DW_AT_name        : (indirect string, offset: 0xdce): __ctype_b_loc
    <476b>   DW_AT_decl_file   : 14
    <476c>   DW_AT_decl_line   : 79
    <476d>   DW_AT_decl_column : 35
    <476e>   DW_AT_prototyped  : 1
    <476e>   DW_AT_type        : <0x4772>
    <4772>   DW_AT_declaration : 1
 <1><4772>: Abbrev Number: 7 (DW_TAG_pointer_type)
    <4773>   DW_AT_byte_size   : 8
    <4774>   DW_AT_type        : <0x42e3>
 <1><4778>: Abbrev Number: 32 (DW_TAG_subprogram)
    <4779>   DW_AT_external    : 1
    <4779>   DW_AT_name        : (indirect string, offset: 0x1274): memcmp
    <477d>   DW_AT_decl_file   : 13
    <477e>   DW_AT_decl_line   : 64
    <477f>   DW_AT_decl_column : 12
    <4780>   DW_AT_prototyped  : 1
    <4780>   DW_AT_type        : <0x42c2>
    <4784>   DW_AT_declaration : 1
    <4784>   DW_AT_sibling     : <0x4798>
 <2><4788>: Abbrev Number: 33 (DW_TAG_formal_parameter)
    <4789>   DW_AT_type        : <0x4345>
 <2><478d>: Abbrev Number: 33 (DW_TAG_formal_parameter)
    <478e>   DW_AT_type        : <0x4345>
 <2><4792>: Abbrev Number: 33 (DW_TAG_formal_parameter)
    <4793>   DW_AT_type        : <0x42a2>
 <2><4797>: Abbrev Number: 0
 <1><4798>: Abbrev Number: 35 (DW_TAG_subprogram)
    <4799>   DW_AT_external    : 1
    <4799>   DW_AT_name        : (indirect string, offset: 0xd52): strlen
    <479d>   DW_AT_decl_file   : 13
    <479e>   DW_AT_decl_line   : 385
    <47a0>   DW_AT_decl_column : 15
    <47a1>   DW_AT_prototyped  : 1
    <47a1>   DW_AT_type        : <0x42a2>
    <47a5>   DW_AT_declaration : 1
    <47a5>   DW_AT_sibling     : <0x47af>
 <2><47a9>: Abbrev Number: 33 (DW_TAG_formal_parameter)
    <47aa>   DW_AT_type        : <0x42f5>
 <2><47ae>: Abbrev Number: 0
 <1><47af>: Abbrev Number: 36 (DW_TAG_subprogram)
    <47b0>   DW_AT_external    : 1
    <47b0>   DW_AT_name        : (indirect string, offset: 0xd92): __ctype_get_mb_cur_max
    <47b4>   DW_AT_decl_file   : 15
    <47b5>   DW_AT_decl_line   : 97
    <47b6>   DW_AT_decl_column : 15
    <47b7>   DW_AT_prototyped  : 1
    <47b7>   DW_AT_type        : <0x42a2>
    <47bb>   DW_AT_declaration : 1
 <1><47bb>: Abbrev Number: 32 (DW_TAG_subprogram)
    <47bc>   DW_AT_external    : 1
    <47bc>   DW_AT_name        : (indirect string, offset: 0xd6f): c_strcasecmp
    <47c0>   DW_AT_decl_file   : 16
    <47c1>   DW_AT_decl_line   : 42
    <47c2>   DW_AT_decl_column : 12
    <47c3>   DW_AT_prototyped  : 1
    <47c3>   DW_AT_type        : <0x42c2>
    <47c7>   DW_AT_declaration : 1
    <47c7>   DW_AT_sibling     : <0x47d6>
 <2><47cb>: Abbrev Number: 33 (DW_TAG_formal_parameter)
    <47cc>   DW_AT_type        : <0x42f5>
 <2><47d0>: Abbrev Number: 33 (DW_TAG_formal_parameter)
    <47d1>   DW_AT_type        : <0x42f5>
 <2><47d5>: Abbrev Number: 0
 <1><47d6>: Abbrev Number: 36 (DW_TAG_subprogram)
    <47d7>   DW_AT_external    : 1
    <47d7>   DW_AT_name        : (indirect string, offset: 0xdfe): locale_charset
    <47db>   DW_AT_decl_file   : 17
    <47dc>   DW_AT_decl_line   : 35
    <47dd>   DW_AT_decl_column : 21
    <47de>   DW_AT_prototyped  : 1
    <47de>   DW_AT_type        : <0x42f5>
    <47e2>   DW_AT_declaration : 1
 <1><47e2>: Abbrev Number: 32 (DW_TAG_subprogram)
    <47e3>   DW_AT_external    : 1
    <47e3>   DW_AT_name        : (indirect string, offset: 0x9a8): gettext
    <47e7>   DW_AT_decl_file   : 18
    <47e8>   DW_AT_decl_line   : 39
    <47e9>   DW_AT_decl_column : 14
    <47ea>   DW_AT_prototyped  : 1
    <47ea>   DW_AT_type        : <0x4328>
    <47ee>   DW_AT_declaration : 1
    <47ee>   DW_AT_sibling     : <0x47f8>
 <2><47f2>: Abbrev Number: 33 (DW_TAG_formal_parameter)
    <47f3>   DW_AT_type        : <0x42f5>
 <2><47f7>: Abbrev Number: 0
 <1><47f8>: Abbrev Number: 37 (DW_TAG_subprogram)
    <47f9>   DW_AT_external    : 1
    <47f9>   DW_AT_name        : (indirect string, offset: 0x1bd): abort
    <47fd>   DW_AT_decl_file   : 15
    <47fe>   DW_AT_decl_line   : 591
    <4800>   DW_AT_decl_column : 13
    <4801>   DW_AT_prototyped  : 1
    <4801>   DW_AT_noreturn    : 1
    <4801>   DW_AT_declaration : 1
 <1><4801>: Abbrev Number: 32 (DW_TAG_subprogram)
    <4802>   DW_AT_external    : 1
    <4802>   DW_AT_name        : (indirect string, offset: 0x11b0): xmemdup
    <4806>   DW_AT_decl_file   : 9
    <4807>   DW_AT_decl_line   : 92
    <4808>   DW_AT_decl_column : 7
    <4809>   DW_AT_prototyped  : 1
    <4809>   DW_AT_type        : <0x4326>
    <480d>   DW_AT_declaration : 1
    <480d>   DW_AT_sibling     : <0x481c>
 <2><4811>: Abbrev Number: 33 (DW_TAG_formal_parameter)
    <4812>   DW_AT_type        : <0x4345>
 <2><4816>: Abbrev Number: 33 (DW_TAG_formal_parameter)
    <4817>   DW_AT_type        : <0x42a2>
 <2><481b>: Abbrev Number: 0
 <1><481c>: Abbrev Number: 36 (DW_TAG_subprogram)
    <481d>   DW_AT_external    : 1
    <481d>   DW_AT_name        : (indirect string, offset: 0x378): __errno_location
    <4821>   DW_AT_decl_file   : 19
    <4822>   DW_AT_decl_line   : 37
    <4823>   DW_AT_decl_column : 13
    <4824>   DW_AT_prototyped  : 1
    <4824>   DW_AT_type        : <0x4828>
    <4828>   DW_AT_declaration : 1
 <1><4828>: Abbrev Number: 7 (DW_TAG_pointer_type)
    <4829>   DW_AT_byte_size   : 8
    <482a>   DW_AT_type        : <0x42c2>
 <1><482e>: Abbrev Number: 38 (DW_TAG_subprogram)
    <482f>   DW_AT_external    : 1
    <482f>   DW_AT_name        : (indirect string, offset: 0xec4): quote
    <4833>   DW_AT_decl_file   : 1
    <4834>   DW_AT_decl_line   : 1071
    <4836>   DW_AT_decl_column : 1
    <4837>   DW_AT_prototyped  : 1
    <4837>   DW_AT_type        : <0x42f5>
    <483b>   DW_AT_low_pc      : 0xaba6
    <4843>   DW_AT_high_pc     : 0x23
    <484b>   DW_AT_frame_base  : 1 byte block: 9c 	(DW_OP_call_frame_cfa)
    <484d>   DW_AT_GNU_all_tail_call_sites: 1
    <484d>   DW_AT_sibling     : <0x4862>
 <2><4851>: Abbrev Number: 39 (DW_TAG_formal_parameter)
    <4852>   DW_AT_name        : arg
    <4856>   DW_AT_decl_file   : 1
    <4857>   DW_AT_decl_line   : 1071
    <4859>   DW_AT_decl_column : 20
    <485a>   DW_AT_type        : <0x42f5>
    <485e>   DW_AT_location    : 2 byte block: 91 68 	(DW_OP_fbreg: -24)
 <2><4861>: Abbrev Number: 0
 <1><4862>: Abbrev Number: 38 (DW_TAG_subprogram)
    <4863>   DW_AT_external    : 1
    <4863>   DW_AT_name        : (indirect string, offset: 0x13a9): quote_n
    <4867>   DW_AT_decl_file   : 1
    <4868>   DW_AT_decl_line   : 1065
    <486a>   DW_AT_decl_column : 1
    <486b>   DW_AT_prototyped  : 1
    <486b>   DW_AT_type        : <0x42f5>
    <486f>   DW_AT_low_pc      : 0xab79
    <4877>   DW_AT_high_pc     : 0x2d
    <487f>   DW_AT_frame_base  : 1 byte block: 9c 	(DW_OP_call_frame_cfa)
    <4881>   DW_AT_GNU_all_tail_call_sites: 1
    <4881>   DW_AT_sibling     : <0x48a4>
 <2><4885>: Abbrev Number: 39 (DW_TAG_formal_parameter)
    <4886>   DW_AT_name        : n
    <4888>   DW_AT_decl_file   : 1
    <4889>   DW_AT_decl_line   : 1065
    <488b>   DW_AT_decl_column : 14
    <488c>   DW_AT_type        : <0x42c2>
    <4890>   DW_AT_location    : 2 byte block: 91 6c 	(DW_OP_fbreg: -20)
 <2><4893>: Abbrev Number: 39 (DW_TAG_formal_parameter)
    <4894>   DW_AT_name        : arg
    <4898>   DW_AT_decl_file   : 1
    <4899>   DW_AT_decl_line   : 1065
    <489b>   DW_AT_decl_column : 29
    <489c>   DW_AT_type        : <0x42f5>
    <48a0>   DW_AT_location    : 2 byte block: 91 60 	(DW_OP_fbreg: -32)
 <2><48a3>: Abbrev Number: 0
 <1><48a4>: Abbrev Number: 38 (DW_TAG_subprogram)
    <48a5>   DW_AT_external    : 1
    <48a5>   DW_AT_name        : (indirect string, offset: 0x120d): quote_mem
    <48a9>   DW_AT_decl_file   : 1
    <48aa>   DW_AT_decl_line   : 1059
    <48ac>   DW_AT_decl_column : 1
    <48ad>   DW_AT_prototyped  : 1
    <48ad>   DW_AT_type        : <0x42f5>
    <48b1>   DW_AT_low_pc      : 0xab4e
    <48b9>   DW_AT_high_pc     : 0x2b
    <48c1>   DW_AT_frame_base  : 1 byte block: 9c 	(DW_OP_call_frame_cfa)
    <48c3>   DW_AT_GNU_all_tail_call_sites: 1
    <48c3>   DW_AT_sibling     : <0x48e8>
 <2><48c7>: Abbrev Number: 39 (DW_TAG_formal_parameter)
    <48c8>   DW_AT_name        : arg
    <48cc>   DW_AT_decl_file   : 1
    <48cd>   DW_AT_decl_line   : 1059
    <48cf>   DW_AT_decl_column : 24
    <48d0>   DW_AT_type        : <0x42f5>
    <48d4>   DW_AT_location    : 2 byte block: 91 68 	(DW_OP_fbreg: -24)
 <2><48d7>: Abbrev Number: 40 (DW_TAG_formal_parameter)
    <48d8>   DW_AT_name        : (indirect string, offset: 0x12ca): argsize
    <48dc>   DW_AT_decl_file   : 1
    <48dd>   DW_AT_decl_line   : 1059
    <48df>   DW_AT_decl_column : 36
    <48e0>   DW_AT_type        : <0x42a2>
    <48e4>   DW_AT_location    : 2 byte block: 91 60 	(DW_OP_fbreg: -32)
 <2><48e7>: Abbrev Number: 0
 <1><48e8>: Abbrev Number: 38 (DW_TAG_subprogram)
    <48e9>   DW_AT_external    : 1
    <48e9>   DW_AT_name        : (indirect string, offset: 0xff9): quote_n_mem
    <48ed>   DW_AT_decl_file   : 1
    <48ee>   DW_AT_decl_line   : 1053
    <48f0>   DW_AT_decl_column : 1
    <48f1>   DW_AT_prototyped  : 1
    <48f1>   DW_AT_type        : <0x42f5>
    <48f5>   DW_AT_low_pc      : 0xab1c
    <48fd>   DW_AT_high_pc     : 0x32
    <4905>   DW_AT_frame_base  : 1 byte block: 9c 	(DW_OP_call_frame_cfa)
    <4907>   DW_AT_GNU_all_tail_call_sites: 1
    <4907>   DW_AT_sibling     : <0x493a>
 <2><490b>: Abbrev Number: 39 (DW_TAG_formal_parameter)
    <490c>   DW_AT_name        : n
    <490e>   DW_AT_decl_file   : 1
    <490f>   DW_AT_decl_line   : 1053
    <4911>   DW_AT_decl_column : 18
    <4912>   DW_AT_type        : <0x42c2>
    <4916>   DW_AT_location    : 2 byte block: 91 6c 	(DW_OP_fbreg: -20)
 <2><4919>: Abbrev Number: 39 (DW_TAG_formal_parameter)
    <491a>   DW_AT_name        : arg
    <491e>   DW_AT_decl_file   : 1
    <491f>   DW_AT_decl_line   : 1053
    <4921>   DW_AT_decl_column : 33
    <4922>   DW_AT_type        : <0x42f5>
    <4926>   DW_AT_location    : 2 byte block: 91 60 	(DW_OP_fbreg: -32)
 <2><4929>: Abbrev Number: 40 (DW_TAG_formal_parameter)
    <492a>   DW_AT_name        : (indirect string, offset: 0x12ca): argsize
    <492e>   DW_AT_decl_file   : 1
    <492f>   DW_AT_decl_line   : 1053
    <4931>   DW_AT_decl_column : 45
    <4932>   DW_AT_type        : <0x42a2>
    <4936>   DW_AT_location    : 2 byte block: 91 58 	(DW_OP_fbreg: -40)
 <2><4939>: Abbrev Number: 0
 <1><493a>: Abbrev Number: 38 (DW_TAG_subprogram)
    <493b>   DW_AT_external    : 1
    <493b>   DW_AT_name        : (indirect string, offset: 0xf95): quotearg_custom_mem
    <493f>   DW_AT_decl_file   : 1
    <4940>   DW_AT_decl_line   : 1035
    <4942>   DW_AT_decl_column : 1
    <4943>   DW_AT_prototyped  : 1
    <4943>   DW_AT_type        : <0x4328>
    <4947>   DW_AT_low_pc      : 0xaade
    <494f>   DW_AT_high_pc     : 0x3e
    <4957>   DW_AT_frame_base  : 1 byte block: 9c 	(DW_OP_call_frame_cfa)
    <4959>   DW_AT_GNU_all_tail_call_sites: 1
    <4959>   DW_AT_sibling     : <0x499e>
 <2><495d>: Abbrev Number: 40 (DW_TAG_formal_parameter)
    <495e>   DW_AT_name        : (indirect string, offset: 0x139e): left_quote
    <4962>   DW_AT_decl_file   : 1
    <4963>   DW_AT_decl_line   : 1035
    <4965>   DW_AT_decl_column : 34
    <4966>   DW_AT_type        : <0x42f5>
    <496a>   DW_AT_location    : 2 byte block: 91 68 	(DW_OP_fbreg: -24)
 <2><496d>: Abbrev Number: 40 (DW_TAG_formal_parameter)
    <496e>   DW_AT_name        : (indirect string, offset: 0xf0a): right_quote
    <4972>   DW_AT_decl_file   : 1
    <4973>   DW_AT_decl_line   : 1035
    <4975>   DW_AT_decl_column : 58
    <4976>   DW_AT_type        : <0x42f5>
    <497a>   DW_AT_location    : 2 byte block: 91 60 	(DW_OP_fbreg: -32)
 <2><497d>: Abbrev Number: 39 (DW_TAG_formal_parameter)
    <497e>   DW_AT_name        : arg
    <4982>   DW_AT_decl_file   : 1
    <4983>   DW_AT_decl_line   : 1036
    <4985>   DW_AT_decl_column : 34
    <4986>   DW_AT_type        : <0x42f5>
    <498a>   DW_AT_location    : 2 byte block: 91 58 	(DW_OP_fbreg: -40)
 <2><498d>: Abbrev Number: 40 (DW_TAG_formal_parameter)
    <498e>   DW_AT_name        : (indirect string, offset: 0x12ca): argsize
    <4992>   DW_AT_decl_file   : 1
    <4993>   DW_AT_decl_line   : 1036
    <4995>   DW_AT_decl_column : 46
    <4996>   DW_AT_type        : <0x42a2>
    <499a>   DW_AT_location    : 2 byte block: 91 50 	(DW_OP_fbreg: -48)
 <2><499d>: Abbrev Number: 0
 <1><499e>: Abbrev Number: 38 (DW_TAG_subprogram)
    <499f>   DW_AT_external    : 1
    <499f>   DW_AT_name        : (indirect string, offset: 0x10d2): quotearg_custom
    <49a3>   DW_AT_decl_file   : 1
    <49a4>   DW_AT_decl_line   : 1028
    <49a6>   DW_AT_decl_column : 1
    <49a7>   DW_AT_prototyped  : 1
    <49a7>   DW_AT_type        : <0x4328>
    <49ab>   DW_AT_low_pc      : 0xaaab
    <49b3>   DW_AT_high_pc     : 0x33
    <49bb>   DW_AT_frame_base  : 1 byte block: 9c 	(DW_OP_call_frame_cfa)
    <49bd>   DW_AT_GNU_all_tail_call_sites: 1
    <49bd>   DW_AT_sibling     : <0x49f2>
 <2><49c1>: Abbrev Number: 40 (DW_TAG_formal_parameter)
    <49c2>   DW_AT_name        : (indirect string, offset: 0x139e): left_quote
    <49c6>   DW_AT_decl_file   : 1
    <49c7>   DW_AT_decl_line   : 1028
    <49c9>   DW_AT_decl_column : 30
    <49ca>   DW_AT_type        : <0x42f5>
    <49ce>   DW_AT_location    : 2 byte block: 91 68 	(DW_OP_fbreg: -24)
 <2><49d1>: Abbrev Number: 40 (DW_TAG_formal_parameter)
    <49d2>   DW_AT_name        : (indirect string, offset: 0xf0a): right_quote
    <49d6>   DW_AT_decl_file   : 1
    <49d7>   DW_AT_decl_line   : 1028
    <49d9>   DW_AT_decl_column : 54
    <49da>   DW_AT_type        : <0x42f5>
    <49de>   DW_AT_location    : 2 byte block: 91 60 	(DW_OP_fbreg: -32)
 <2><49e1>: Abbrev Number: 39 (DW_TAG_formal_parameter)
    <49e2>   DW_AT_name        : arg
    <49e6>   DW_AT_decl_file   : 1
    <49e7>   DW_AT_decl_line   : 1029
    <49e9>   DW_AT_decl_column : 30
    <49ea>   DW_AT_type        : <0x42f5>
    <49ee>   DW_AT_location    : 2 byte block: 91 58 	(DW_OP_fbreg: -40)
 <2><49f1>: Abbrev Number: 0
 <1><49f2>: Abbrev Number: 38 (DW_TAG_subprogram)
    <49f3>   DW_AT_external    : 1
    <49f3>   DW_AT_name        : (indirect string, offset: 0xfe3): quotearg_n_custom_mem
    <49f7>   DW_AT_decl_file   : 1
    <49f8>   DW_AT_decl_line   : 1018
    <49fa>   DW_AT_decl_column : 1
    <49fb>   DW_AT_prototyped  : 1
    <49fb>   DW_AT_type        : <0x4328>
    <49ff>   DW_AT_low_pc      : 0xa9ed
    <4a07>   DW_AT_high_pc     : 0xbe
    <4a0f>   DW_AT_frame_base  : 1 byte block: 9c 	(DW_OP_call_frame_cfa)
    <4a11>   DW_AT_GNU_all_tail_call_sites: 1
    <4a11>   DW_AT_sibling     : <0x4a78>
 <2><4a15>: Abbrev Number: 39 (DW_TAG_formal_parameter)
    <4a16>   DW_AT_name        : n
    <4a18>   DW_AT_decl_file   : 1
    <4a19>   DW_AT_decl_line   : 1018
    <4a1b>   DW_AT_decl_column : 28
    <4a1c>   DW_AT_type        : <0x42c2>
    <4a20>   DW_AT_location    : 3 byte block: 91 ac 7f 	(DW_OP_fbreg: -84)
 <2><4a24>: Abbrev Number: 40 (DW_TAG_formal_parameter)
    <4a25>   DW_AT_name        : (indirect string, offset: 0x139e): left_quote
    <4a29>   DW_AT_decl_file   : 1
    <4a2a>   DW_AT_decl_line   : 1018
    <4a2c>   DW_AT_decl_column : 43
    <4a2d>   DW_AT_type        : <0x42f5>
    <4a31>   DW_AT_location    : 3 byte block: 91 a0 7f 	(DW_OP_fbreg: -96)
 <2><4a35>: Abbrev Number: 40 (DW_TAG_formal_parameter)
    <4a36>   DW_AT_name        : (indirect string, offset: 0xf0a): right_quote
    <4a3a>   DW_AT_decl_file   : 1
    <4a3b>   DW_AT_decl_line   : 1019
    <4a3d>   DW_AT_decl_column : 36
    <4a3e>   DW_AT_type        : <0x42f5>
    <4a42>   DW_AT_location    : 3 byte block: 91 98 7f 	(DW_OP_fbreg: -104)
 <2><4a46>: Abbrev Number: 39 (DW_TAG_formal_parameter)
    <4a47>   DW_AT_name        : arg
    <4a4b>   DW_AT_decl_file   : 1
    <4a4c>   DW_AT_decl_line   : 1020
    <4a4e>   DW_AT_decl_column : 36
    <4a4f>   DW_AT_type        : <0x42f5>
    <4a53>   DW_AT_location    : 3 byte block: 91 90 7f 	(DW_OP_fbreg: -112)
 <2><4a57>: Abbrev Number: 40 (DW_TAG_formal_parameter)
    <4a58>   DW_AT_name        : (indirect string, offset: 0x12ca): argsize
    <4a5c>   DW_AT_decl_file   : 1
    <4a5d>   DW_AT_decl_line   : 1020
    <4a5f>   DW_AT_decl_column : 48
    <4a60>   DW_AT_type        : <0x42a2>
    <4a64>   DW_AT_location    : 3 byte block: 91 88 7f 	(DW_OP_fbreg: -120)
 <2><4a68>: Abbrev Number: 41 (DW_TAG_variable)
    <4a69>   DW_AT_name        : o
    <4a6b>   DW_AT_decl_file   : 1
    <4a6c>   DW_AT_decl_line   : 1022
    <4a6e>   DW_AT_decl_column : 26
    <4a6f>   DW_AT_type        : <0x4418>
    <4a73>   DW_AT_location    : 3 byte block: 91 b0 7f 	(DW_OP_fbreg: -80)
 <2><4a77>: Abbrev Number: 0
 <1><4a78>: Abbrev Number: 38 (DW_TAG_subprogram)
    <4a79>   DW_AT_external    : 1
    <4a79>   DW_AT_name        : (indirect string, offset: 0x132a): quotearg_n_custom
    <4a7d>   DW_AT_decl_file   : 1
    <4a7e>   DW_AT_decl_line   : 1010
    <4a80>   DW_AT_decl_column : 1
    <4a81>   DW_AT_prototyped  : 1
    <4a81>   DW_AT_type        : <0x4328>
    <4a85>   DW_AT_low_pc      : 0xa9b3
    <4a8d>   DW_AT_high_pc     : 0x3a
    <4a95>   DW_AT_frame_base  : 1 byte block: 9c 	(DW_OP_call_frame_cfa)
    <4a97>   DW_AT_GNU_all_tail_call_sites: 1
    <4a97>   DW_AT_sibling     : <0x4ada>
 <2><4a9b>: Abbrev Number: 39 (DW_TAG_formal_parameter)
    <4a9c>   DW_AT_name        : n
    <4a9e>   DW_AT_decl_file   : 1
    <4a9f>   DW_AT_decl_line   : 1010
    <4aa1>   DW_AT_decl_column : 24
    <4aa2>   DW_AT_type        : <0x42c2>
    <4aa6>   DW_AT_location    : 2 byte block: 91 6c 	(DW_OP_fbreg: -20)
 <2><4aa9>: Abbrev Number: 40 (DW_TAG_formal_parameter)
    <4aaa>   DW_AT_name        : (indirect string, offset: 0x139e): left_quote
    <4aae>   DW_AT_decl_file   : 1
    <4aaf>   DW_AT_decl_line   : 1010
    <4ab1>   DW_AT_decl_column : 39
    <4ab2>   DW_AT_type        : <0x42f5>
    <4ab6>   DW_AT_location    : 2 byte block: 91 60 	(DW_OP_fbreg: -32)
 <2><4ab9>: Abbrev Number: 40 (DW_TAG_formal_parameter)
    <4aba>   DW_AT_name        : (indirect string, offset: 0xf0a): right_quote
    <4abe>   DW_AT_decl_file   : 1
    <4abf>   DW_AT_decl_line   : 1011
    <4ac1>   DW_AT_decl_column : 32
    <4ac2>   DW_AT_type        : <0x42f5>
    <4ac6>   DW_AT_location    : 2 byte block: 91 58 	(DW_OP_fbreg: -40)
 <2><4ac9>: Abbrev Number: 39 (DW_TAG_formal_parameter)
    <4aca>   DW_AT_name        : arg
    <4ace>   DW_AT_decl_file   : 1
    <4acf>   DW_AT_decl_line   : 1011
    <4ad1>   DW_AT_decl_column : 57
    <4ad2>   DW_AT_type        : <0x42f5>
    <4ad6>   DW_AT_location    : 2 byte block: 91 50 	(DW_OP_fbreg: -48)
 <2><4ad9>: Abbrev Number: 0
 <1><4ada>: Abbrev Number: 38 (DW_TAG_subprogram)
    <4adb>   DW_AT_external    : 1
    <4adb>   DW_AT_name        : (indirect string, offset: 0xe7b): quotearg_n_style_colon
    <4adf>   DW_AT_decl_file   : 1
    <4ae0>   DW_AT_decl_line   : 1001
    <4ae2>   DW_AT_decl_column : 1
    <4ae3>   DW_AT_prototyped  : 1
    <4ae3>   DW_AT_type        : <0x4328>
    <4ae7>   DW_AT_low_pc      : 0xa8f1
    <4aef>   DW_AT_high_pc     : 0xc2
    <4af7>   DW_AT_frame_base  : 1 byte block: 9c 	(DW_OP_call_frame_cfa)
    <4af9>   DW_AT_GNU_all_tail_call_sites: 1
    <4af9>   DW_AT_sibling     : <0x4b3e>
 <2><4afd>: Abbrev Number: 39 (DW_TAG_formal_parameter)
    <4afe>   DW_AT_name        : n
    <4b00>   DW_AT_decl_file   : 1
    <4b01>   DW_AT_decl_line   : 1001
    <4b03>   DW_AT_decl_column : 29
    <4b04>   DW_AT_type        : <0x42c2>
    <4b08>   DW_AT_location    : 3 byte block: 91 ac 7f 	(DW_OP_fbreg: -84)
 <2><4b0c>: Abbrev Number: 39 (DW_TAG_formal_parameter)
    <4b0d>   DW_AT_name        : s
    <4b0f>   DW_AT_decl_file   : 1
    <4b10>   DW_AT_decl_line   : 1001
    <4b12>   DW_AT_decl_column : 51
    <4b13>   DW_AT_type        : <0x435f>
    <4b17>   DW_AT_location    : 3 byte block: 91 a8 7f 	(DW_OP_fbreg: -88)
 <2><4b1b>: Abbrev Number: 39 (DW_TAG_formal_parameter)
    <4b1c>   DW_AT_name        : arg
    <4b20>   DW_AT_decl_file   : 1
    <4b21>   DW_AT_decl_line   : 1001
    <4b23>   DW_AT_decl_column : 66
    <4b24>   DW_AT_type        : <0x42f5>
    <4b28>   DW_AT_location    : 3 byte block: 91 a0 7f 	(DW_OP_fbreg: -96)
 <2><4b2c>: Abbrev Number: 30 (DW_TAG_variable)
    <4b2d>   DW_AT_name        : (indirect string, offset: 0x1238): options
    <4b31>   DW_AT_decl_file   : 1
    <4b32>   DW_AT_decl_line   : 1003
    <4b34>   DW_AT_decl_column : 26
    <4b35>   DW_AT_type        : <0x4418>
    <4b39>   DW_AT_location    : 3 byte block: 91 b0 7f 	(DW_OP_fbreg: -80)
 <2><4b3d>: Abbrev Number: 0
 <1><4b3e>: Abbrev Number: 38 (DW_TAG_subprogram)
    <4b3f>   DW_AT_external    : 1
    <4b3f>   DW_AT_name        : (indirect string, offset: 0xed5): quotearg_colon_mem
    <4b43>   DW_AT_decl_file   : 1
    <4b44>   DW_AT_decl_line   : 995
    <4b46>   DW_AT_decl_column : 1
    <4b47>   DW_AT_prototyped  : 1
    <4b47>   DW_AT_type        : <0x4328>
    <4b4b>   DW_AT_low_pc      : 0xa8c3
    <4b53>   DW_AT_high_pc     : 0x2e
    <4b5b>   DW_AT_frame_base  : 1 byte block: 9c 	(DW_OP_call_frame_cfa)
    <4b5d>   DW_AT_GNU_all_tail_call_sites: 1
    <4b5d>   DW_AT_sibling     : <0x4b82>
 <2><4b61>: Abbrev Number: 39 (DW_TAG_formal_parameter)
    <4b62>   DW_AT_name        : arg
    <4b66>   DW_AT_decl_file   : 1
    <4b67>   DW_AT_decl_line   : 995
    <4b69>   DW_AT_decl_column : 33
    <4b6a>   DW_AT_type        : <0x42f5>
    <4b6e>   DW_AT_location    : 2 byte block: 91 68 	(DW_OP_fbreg: -24)
 <2><4b71>: Abbrev Number: 40 (DW_TAG_formal_parameter)
    <4b72>   DW_AT_name        : (indirect string, offset: 0x12ca): argsize
    <4b76>   DW_AT_decl_file   : 1
    <4b77>   DW_AT_decl_line   : 995
    <4b79>   DW_AT_decl_column : 45
    <4b7a>   DW_AT_type        : <0x42a2>
    <4b7e>   DW_AT_location    : 2 byte block: 91 60 	(DW_OP_fbreg: -32)
 <2><4b81>: Abbrev Number: 0
 <1><4b82>: Abbrev Number: 38 (DW_TAG_subprogram)
    <4b83>   DW_AT_external    : 1
    <4b83>   DW_AT_name        : (indirect string, offset: 0xaa4): quotearg_colon
    <4b87>   DW_AT_decl_file   : 1
    <4b88>   DW_AT_decl_line   : 989
    <4b8a>   DW_AT_decl_column : 1
    <4b8b>   DW_AT_prototyped  : 1
    <4b8b>   DW_AT_type        : <0x4328>
    <4b8f>   DW_AT_low_pc      : 0xa8a0
    <4b97>   DW_AT_high_pc     : 0x23
    <4b9f>   DW_AT_frame_base  : 1 byte block: 9c 	(DW_OP_call_frame_cfa)
    <4ba1>   DW_AT_GNU_all_tail_call_sites: 1
    <4ba1>   DW_AT_sibling     : <0x4bb6>
 <2><4ba5>: Abbrev Number: 39 (DW_TAG_formal_parameter)
    <4ba6>   DW_AT_name        : arg
    <4baa>   DW_AT_decl_file   : 1
    <4bab>   DW_AT_decl_line   : 989
    <4bad>   DW_AT_decl_column : 29
    <4bae>   DW_AT_type        : <0x42f5>
    <4bb2>   DW_AT_location    : 2 byte block: 91 68 	(DW_OP_fbreg: -24)
 <2><4bb5>: Abbrev Number: 0
 <1><4bb6>: Abbrev Number: 38 (DW_TAG_subprogram)
    <4bb7>   DW_AT_external    : 1
    <4bb7>   DW_AT_name        : (indirect string, offset: 0x10b1): quotearg_char
    <4bbb>   DW_AT_decl_file   : 1
    <4bbc>   DW_AT_decl_line   : 983
    <4bbe>   DW_AT_decl_column : 1
    <4bbf>   DW_AT_prototyped  : 1
    <4bbf>   DW_AT_type        : <0x4328>
    <4bc3>   DW_AT_low_pc      : 0xa872
    <4bcb>   DW_AT_high_pc     : 0x2e
    <4bd3>   DW_AT_frame_base  : 1 byte block: 9c 	(DW_OP_call_frame_cfa)
    <4bd5>   DW_AT_GNU_all_tail_call_sites: 1
    <4bd5>   DW_AT_sibling     : <0x4bf9>
 <2><4bd9>: Abbrev Number: 39 (DW_TAG_formal_parameter)
    <4bda>   DW_AT_name        : arg
    <4bde>   DW_AT_decl_file   : 1
    <4bdf>   DW_AT_decl_line   : 983
    <4be1>   DW_AT_decl_column : 28
    <4be2>   DW_AT_type        : <0x42f5>
    <4be6>   DW_AT_location    : 2 byte block: 91 68 	(DW_OP_fbreg: -24)
 <2><4be9>: Abbrev Number: 39 (DW_TAG_formal_parameter)
    <4bea>   DW_AT_name        : ch
    <4bed>   DW_AT_decl_file   : 1
    <4bee>   DW_AT_decl_line   : 983
    <4bf0>   DW_AT_decl_column : 38
    <4bf1>   DW_AT_type        : <0x4305>
    <4bf5>   DW_AT_location    : 2 byte block: 91 64 	(DW_OP_fbreg: -28)
 <2><4bf8>: Abbrev Number: 0
 <1><4bf9>: Abbrev Number: 38 (DW_TAG_subprogram)
    <4bfa>   DW_AT_external    : 1
    <4bfa>   DW_AT_name        : (indirect string, offset: 0x13ba): quotearg_char_mem
    <4bfe>   DW_AT_decl_file   : 1
    <4bff>   DW_AT_decl_line   : 974
    <4c01>   DW_AT_decl_column : 1
    <4c02>   DW_AT_prototyped  : 1
    <4c02>   DW_AT_type        : <0x4328>
    <4c06>   DW_AT_low_pc      : 0xa7b7
    <4c0e>   DW_AT_high_pc     : 0xbb
    <4c16>   DW_AT_frame_base  : 1 byte block: 9c 	(DW_OP_call_frame_cfa)
    <4c18>   DW_AT_GNU_all_tail_call_sites: 1
    <4c18>   DW_AT_sibling     : <0x4c60>
 <2><4c1c>: Abbrev Number: 39 (DW_TAG_formal_parameter)
    <4c1d>   DW_AT_name        : arg
    <4c21>   DW_AT_decl_file   : 1
    <4c22>   DW_AT_decl_line   : 974
    <4c24>   DW_AT_decl_column : 32
    <4c25>   DW_AT_type        : <0x42f5>
    <4c29>   DW_AT_location    : 3 byte block: 91 a8 7f 	(DW_OP_fbreg: -88)
 <2><4c2d>: Abbrev Number: 40 (DW_TAG_formal_parameter)
    <4c2e>   DW_AT_name        : (indirect string, offset: 0x12ca): argsize
    <4c32>   DW_AT_decl_file   : 1
    <4c33>   DW_AT_decl_line   : 974
    <4c35>   DW_AT_decl_column : 44
    <4c36>   DW_AT_type        : <0x42a2>
    <4c3a>   DW_AT_location    : 3 byte block: 91 a0 7f 	(DW_OP_fbreg: -96)
 <2><4c3e>: Abbrev Number: 39 (DW_TAG_formal_parameter)
    <4c3f>   DW_AT_name        : ch
    <4c42>   DW_AT_decl_file   : 1
    <4c43>   DW_AT_decl_line   : 974
    <4c45>   DW_AT_decl_column : 58
    <4c46>   DW_AT_type        : <0x4305>
    <4c4a>   DW_AT_location    : 3 byte block: 91 9c 7f 	(DW_OP_fbreg: -100)
 <2><4c4e>: Abbrev Number: 30 (DW_TAG_variable)
    <4c4f>   DW_AT_name        : (indirect string, offset: 0x1238): options
    <4c53>   DW_AT_decl_file   : 1
    <4c54>   DW_AT_decl_line   : 976
    <4c56>   DW_AT_decl_column : 26
    <4c57>   DW_AT_type        : <0x4418>
    <4c5b>   DW_AT_location    : 3 byte block: 91 b0 7f 	(DW_OP_fbreg: -80)
 <2><4c5f>: Abbrev Number: 0
 <1><4c60>: Abbrev Number: 38 (DW_TAG_subprogram)
    <4c61>   DW_AT_external    : 1
    <4c61>   DW_AT_name        : (indirect string, offset: 0xf16): quotearg_style_mem
    <4c65>   DW_AT_decl_file   : 1
    <4c66>   DW_AT_decl_line   : 968
    <4c68>   DW_AT_decl_column : 1
    <4c69>   DW_AT_prototyped  : 1
    <4c69>   DW_AT_type        : <0x4328>
    <4c6d>   DW_AT_low_pc      : 0xa787
    <4c75>   DW_AT_high_pc     : 0x30
    <4c7d>   DW_AT_frame_base  : 1 byte block: 9c 	(DW_OP_call_frame_cfa)
    <4c7f>   DW_AT_GNU_all_tail_call_sites: 1
    <4c7f>   DW_AT_sibling     : <0x4cb2>
 <2><4c83>: Abbrev Number: 39 (DW_TAG_formal_parameter)
    <4c84>   DW_AT_name        : s
    <4c86>   DW_AT_decl_file   : 1
    <4c87>   DW_AT_decl_line   : 968
    <4c89>   DW_AT_decl_column : 40
    <4c8a>   DW_AT_type        : <0x435f>
    <4c8e>   DW_AT_location    : 2 byte block: 91 6c 	(DW_OP_fbreg: -20)
 <2><4c91>: Abbrev Number: 39 (DW_TAG_formal_parameter)
    <4c92>   DW_AT_name        : arg
    <4c96>   DW_AT_decl_file   : 1
    <4c97>   DW_AT_decl_line   : 968
    <4c99>   DW_AT_decl_column : 55
    <4c9a>   DW_AT_type        : <0x42f5>
    <4c9e>   DW_AT_location    : 2 byte block: 91 60 	(DW_OP_fbreg: -32)
 <2><4ca1>: Abbrev Number: 40 (DW_TAG_formal_parameter)
    <4ca2>   DW_AT_name        : (indirect string, offset: 0x12ca): argsize
    <4ca6>   DW_AT_decl_file   : 1
    <4ca7>   DW_AT_decl_line   : 968
    <4ca9>   DW_AT_decl_column : 67
    <4caa>   DW_AT_type        : <0x42a2>
    <4cae>   DW_AT_location    : 2 byte block: 91 58 	(DW_OP_fbreg: -40)
 <2><4cb1>: Abbrev Number: 0
 <1><4cb2>: Abbrev Number: 38 (DW_TAG_subprogram)
    <4cb3>   DW_AT_external    : 1
    <4cb3>   DW_AT_name        : (indirect string, offset: 0xf6b): quotearg_style
    <4cb7>   DW_AT_decl_file   : 1
    <4cb8>   DW_AT_decl_line   : 962
    <4cba>   DW_AT_decl_column : 1
    <4cbb>   DW_AT_prototyped  : 1
    <4cbb>   DW_AT_type        : <0x4328>
    <4cbf>   DW_AT_low_pc      : 0xa75f
    <4cc7>   DW_AT_high_pc     : 0x28
    <4ccf>   DW_AT_frame_base  : 1 byte block: 9c 	(DW_OP_call_frame_cfa)
    <4cd1>   DW_AT_GNU_all_tail_call_sites: 1
    <4cd1>   DW_AT_sibling     : <0x4cf4>
 <2><4cd5>: Abbrev Number: 39 (DW_TAG_formal_parameter)
    <4cd6>   DW_AT_name        : s
    <4cd8>   DW_AT_decl_file   : 1
    <4cd9>   DW_AT_decl_line   : 962
    <4cdb>   DW_AT_decl_column : 36
    <4cdc>   DW_AT_type        : <0x435f>
    <4ce0>   DW_AT_location    : 2 byte block: 91 6c 	(DW_OP_fbreg: -20)
 <2><4ce3>: Abbrev Number: 39 (DW_TAG_formal_parameter)
    <4ce4>   DW_AT_name        : arg
    <4ce8>   DW_AT_decl_file   : 1
    <4ce9>   DW_AT_decl_line   : 962
    <4ceb>   DW_AT_decl_column : 51
    <4cec>   DW_AT_type        : <0x42f5>
    <4cf0>   DW_AT_location    : 2 byte block: 91 60 	(DW_OP_fbreg: -32)
 <2><4cf3>: Abbrev Number: 0
 <1><4cf4>: Abbrev Number: 38 (DW_TAG_subprogram)
    <4cf5>   DW_AT_external    : 1
    <4cf5>   DW_AT_name        : (indirect string, offset: 0xef2): quotearg_n_style_mem
    <4cf9>   DW_AT_decl_file   : 1
    <4cfa>   DW_AT_decl_line   : 954
    <4cfc>   DW_AT_decl_column : 1
    <4cfd>   DW_AT_prototyped  : 1
    <4cfd>   DW_AT_type        : <0x4328>
    <4d01>   DW_AT_low_pc      : 0xa6f9
    <4d09>   DW_AT_high_pc     : 0x66
    <4d11>   DW_AT_frame_base  : 1 byte block: 9c 	(DW_OP_call_frame_cfa)
    <4d13>   DW_AT_GNU_all_tail_call_sites: 1
    <4d13>   DW_AT_sibling     : <0x4d67>
 <2><4d17>: Abbrev Number: 39 (DW_TAG_formal_parameter)
    <4d18>   DW_AT_name        : n
    <4d1a>   DW_AT_decl_file   : 1
    <4d1b>   DW_AT_decl_line   : 954
    <4d1d>   DW_AT_decl_column : 27
    <4d1e>   DW_AT_type        : <0x42c2>
    <4d22>   DW_AT_location    : 3 byte block: 91 ac 7f 	(DW_OP_fbreg: -84)
 <2><4d26>: Abbrev Number: 39 (DW_TAG_formal_parameter)
    <4d27>   DW_AT_name        : s
    <4d29>   DW_AT_decl_file   : 1
    <4d2a>   DW_AT_decl_line   : 954
    <4d2c>   DW_AT_decl_column : 49
    <4d2d>   DW_AT_type        : <0x435f>
    <4d31>   DW_AT_location    : 3 byte block: 91 a8 7f 	(DW_OP_fbreg: -88)
 <2><4d35>: Abbrev Number: 39 (DW_TAG_formal_parameter)
    <4d36>   DW_AT_name        : arg
    <4d3a>   DW_AT_decl_file   : 1
    <4d3b>   DW_AT_decl_line   : 955
    <4d3d>   DW_AT_decl_column : 35
    <4d3e>   DW_AT_type        : <0x42f5>
    <4d42>   DW_AT_location    : 3 byte block: 91 a0 7f 	(DW_OP_fbreg: -96)
 <2><4d46>: Abbrev Number: 40 (DW_TAG_formal_parameter)
    <4d47>   DW_AT_name        : (indirect string, offset: 0x12ca): argsize
    <4d4b>   DW_AT_decl_file   : 1
    <4d4c>   DW_AT_decl_line   : 955
    <4d4e>   DW_AT_decl_column : 47
    <4d4f>   DW_AT_type        : <0x42a2>
    <4d53>   DW_AT_location    : 3 byte block: 91 98 7f 	(DW_OP_fbreg: -104)
 <2><4d57>: Abbrev Number: 41 (DW_TAG_variable)
    <4d58>   DW_AT_name        : o
    <4d5a>   DW_AT_decl_file   : 1
    <4d5b>   DW_AT_decl_line   : 957
    <4d5d>   DW_AT_decl_column : 32
    <4d5e>   DW_AT_type        : <0x4467>
    <4d62>   DW_AT_location    : 3 byte block: 91 b0 7f 	(DW_OP_fbreg: -80)
 <2><4d66>: Abbrev Number: 0
 <1><4d67>: Abbrev Number: 38 (DW_TAG_subprogram)
    <4d68>   DW_AT_external    : 1
    <4d68>   DW_AT_name        : (indirect string, offset: 0xe5b): quotearg_n_style
    <4d6c>   DW_AT_decl_file   : 1
    <4d6d>   DW_AT_decl_line   : 947
    <4d6f>   DW_AT_decl_column : 1
    <4d70>   DW_AT_prototyped  : 1
    <4d70>   DW_AT_type        : <0x4328>
    <4d74>   DW_AT_low_pc      : 0xa691
    <4d7c>   DW_AT_high_pc     : 0x68
    <4d84>   DW_AT_frame_base  : 1 byte block: 9c 	(DW_OP_call_frame_cfa)
    <4d86>   DW_AT_GNU_all_tail_call_sites: 1
    <4d86>   DW_AT_sibling     : <0x4dc9>
 <2><4d8a>: Abbrev Number: 39 (DW_TAG_formal_parameter)
    <4d8b>   DW_AT_name        : n
    <4d8d>   DW_AT_decl_file   : 1
    <4d8e>   DW_AT_decl_line   : 947
    <4d90>   DW_AT_decl_column : 23
    <4d91>   DW_AT_type        : <0x42c2>
    <4d95>   DW_AT_location    : 3 byte block: 91 ac 7f 	(DW_OP_fbreg: -84)
 <2><4d99>: Abbrev Number: 39 (DW_TAG_formal_parameter)
    <4d9a>   DW_AT_name        : s
    <4d9c>   DW_AT_decl_file   : 1
    <4d9d>   DW_AT_decl_line   : 947
    <4d9f>   DW_AT_decl_column : 45
    <4da0>   DW_AT_type        : <0x435f>
    <4da4>   DW_AT_location    : 3 byte block: 91 a8 7f 	(DW_OP_fbreg: -88)
 <2><4da8>: Abbrev Number: 39 (DW_TAG_formal_parameter)
    <4da9>   DW_AT_name        : arg
    <4dad>   DW_AT_decl_file   : 1
    <4dae>   DW_AT_decl_line   : 947
    <4db0>   DW_AT_decl_column : 60
    <4db1>   DW_AT_type        : <0x42f5>
    <4db5>   DW_AT_location    : 3 byte block: 91 a0 7f 	(DW_OP_fbreg: -96)
 <2><4db9>: Abbrev Number: 41 (DW_TAG_variable)
    <4dba>   DW_AT_name        : o
    <4dbc>   DW_AT_decl_file   : 1
    <4dbd>   DW_AT_decl_line   : 949
    <4dbf>   DW_AT_decl_column : 32
    <4dc0>   DW_AT_type        : <0x4467>
    <4dc4>   DW_AT_location    : 3 byte block: 91 b0 7f 	(DW_OP_fbreg: -80)
 <2><4dc8>: Abbrev Number: 0
 <1><4dc9>: Abbrev Number: 38 (DW_TAG_subprogram)
    <4dca>   DW_AT_external    : 1
    <4dca>   DW_AT_name        : (indirect string, offset: 0x12ff): quotearg_mem
    <4dce>   DW_AT_decl_file   : 1
    <4dcf>   DW_AT_decl_line   : 941
    <4dd1>   DW_AT_decl_column : 1
    <4dd2>   DW_AT_prototyped  : 1
    <4dd2>   DW_AT_type        : <0x4328>
    <4dd6>   DW_AT_low_pc      : 0xa666
    <4dde>   DW_AT_high_pc     : 0x2b
    <4de6>   DW_AT_frame_base  : 1 byte block: 9c 	(DW_OP_call_frame_cfa)
    <4de8>   DW_AT_GNU_all_tail_call_sites: 1
    <4de8>   DW_AT_sibling     : <0x4e0d>
 <2><4dec>: Abbrev Number: 39 (DW_TAG_formal_parameter)
    <4ded>   DW_AT_name        : arg
    <4df1>   DW_AT_decl_file   : 1
    <4df2>   DW_AT_decl_line   : 941
    <4df4>   DW_AT_decl_column : 27
    <4df5>   DW_AT_type        : <0x42f5>
    <4df9>   DW_AT_location    : 2 byte block: 91 68 	(DW_OP_fbreg: -24)
 <2><4dfc>: Abbrev Number: 40 (DW_TAG_formal_parameter)
    <4dfd>   DW_AT_name        : (indirect string, offset: 0x12ca): argsize
    <4e01>   DW_AT_decl_file   : 1
    <4e02>   DW_AT_decl_line   : 941
    <4e04>   DW_AT_decl_column : 39
    <4e05>   DW_AT_type        : <0x42a2>
    <4e09>   DW_AT_location    : 2 byte block: 91 60 	(DW_OP_fbreg: -32)
 <2><4e0c>: Abbrev Number: 0
 <1><4e0d>: Abbrev Number: 38 (DW_TAG_subprogram)
    <4e0e>   DW_AT_external    : 1
    <4e0e>   DW_AT_name        : (indirect string, offset: 0x1312): quotearg
    <4e12>   DW_AT_decl_file   : 1
    <4e13>   DW_AT_decl_line   : 935
    <4e15>   DW_AT_decl_column : 1
    <4e16>   DW_AT_prototyped  : 1
    <4e16>   DW_AT_type        : <0x4328>
    <4e1a>   DW_AT_low_pc      : 0xa643
    <4e22>   DW_AT_high_pc     : 0x23
    <4e2a>   DW_AT_frame_base  : 1 byte block: 9c 	(DW_OP_call_frame_cfa)
    <4e2c>   DW_AT_GNU_all_tail_call_sites: 1
    <4e2c>   DW_AT_sibling     : <0x4e41>
 <2><4e30>: Abbrev Number: 39 (DW_TAG_formal_parameter)
    <4e31>   DW_AT_name        : arg
    <4e35>   DW_AT_decl_file   : 1
    <4e36>   DW_AT_decl_line   : 935
    <4e38>   DW_AT_decl_column : 23
    <4e39>   DW_AT_type        : <0x42f5>
    <4e3d>   DW_AT_location    : 2 byte block: 91 68 	(DW_OP_fbreg: -24)
 <2><4e40>: Abbrev Number: 0
 <1><4e41>: Abbrev Number: 38 (DW_TAG_subprogram)
    <4e42>   DW_AT_external    : 1
    <4e42>   DW_AT_name        : (indirect string, offset: 0x138f): quotearg_n_mem
    <4e46>   DW_AT_decl_file   : 1
    <4e47>   DW_AT_decl_line   : 929
    <4e49>   DW_AT_decl_column : 1
    <4e4a>   DW_AT_prototyped  : 1
    <4e4a>   DW_AT_type        : <0x4328>
    <4e4e>   DW_AT_low_pc      : 0xa611
    <4e56>   DW_AT_high_pc     : 0x32
    <4e5e>   DW_AT_frame_base  : 1 byte block: 9c 	(DW_OP_call_frame_cfa)
    <4e60>   DW_AT_GNU_all_tail_call_sites: 1
    <4e60>   DW_AT_sibling     : <0x4e93>
 <2><4e64>: Abbrev Number: 39 (DW_TAG_formal_parameter)
    <4e65>   DW_AT_name        : n
    <4e67>   DW_AT_decl_file   : 1
    <4e68>   DW_AT_decl_line   : 929
    <4e6a>   DW_AT_decl_column : 21
    <4e6b>   DW_AT_type        : <0x42c2>
    <4e6f>   DW_AT_location    : 2 byte block: 91 6c 	(DW_OP_fbreg: -20)
 <2><4e72>: Abbrev Number: 39 (DW_TAG_formal_parameter)
    <4e73>   DW_AT_name        : arg
    <4e77>   DW_AT_decl_file   : 1
    <4e78>   DW_AT_decl_line   : 929
    <4e7a>   DW_AT_decl_column : 36
    <4e7b>   DW_AT_type        : <0x42f5>
    <4e7f>   DW_AT_location    : 2 byte block: 91 60 	(DW_OP_fbreg: -32)
 <2><4e82>: Abbrev Number: 40 (DW_TAG_formal_parameter)
    <4e83>   DW_AT_name        : (indirect string, offset: 0x12ca): argsize
    <4e87>   DW_AT_decl_file   : 1
    <4e88>   DW_AT_decl_line   : 929
    <4e8a>   DW_AT_decl_column : 48
    <4e8b>   DW_AT_type        : <0x42a2>
    <4e8f>   DW_AT_location    : 2 byte block: 91 58 	(DW_OP_fbreg: -40)
 <2><4e92>: Abbrev Number: 0
 <1><4e93>: Abbrev Number: 38 (DW_TAG_subprogram)
    <4e94>   DW_AT_external    : 1
    <4e94>   DW_AT_name        : (indirect string, offset: 0x1345): quotearg_n
    <4e98>   DW_AT_decl_file   : 1
    <4e99>   DW_AT_decl_line   : 923
    <4e9b>   DW_AT_decl_column : 1
    <4e9c>   DW_AT_prototyped  : 1
    <4e9c>   DW_AT_type        : <0x4328>
    <4ea0>   DW_AT_low_pc      : 0xa5dd
    <4ea8>   DW_AT_high_pc     : 0x34
    <4eb0>   DW_AT_frame_base  : 1 byte block: 9c 	(DW_OP_call_frame_cfa)
    <4eb2>   DW_AT_GNU_all_tail_call_sites: 1
    <4eb2>   DW_AT_sibling     : <0x4ed5>
 <2><4eb6>: Abbrev Number: 39 (DW_TAG_formal_parameter)
    <4eb7>   DW_AT_name        : n
    <4eb9>   DW_AT_decl_file   : 1
    <4eba>   DW_AT_decl_line   : 923
    <4ebc>   DW_AT_decl_column : 17
    <4ebd>   DW_AT_type        : <0x42c2>
    <4ec1>   DW_AT_location    : 2 byte block: 91 6c 	(DW_OP_fbreg: -20)
 <2><4ec4>: Abbrev Number: 39 (DW_TAG_formal_parameter)
    <4ec5>   DW_AT_name        : arg
    <4ec9>   DW_AT_decl_file   : 1
    <4eca>   DW_AT_decl_line   : 923
    <4ecc>   DW_AT_decl_column : 32
    <4ecd>   DW_AT_type        : <0x42f5>
    <4ed1>   DW_AT_location    : 2 byte block: 91 60 	(DW_OP_fbreg: -32)
 <2><4ed4>: Abbrev Number: 0
 <1><4ed5>: Abbrev Number: 42 (DW_TAG_subprogram)
    <4ed6>   DW_AT_name        : (indirect string, offset: 0x12b7): quotearg_n_options
    <4eda>   DW_AT_decl_file   : 1
    <4edb>   DW_AT_decl_line   : 870
    <4edd>   DW_AT_decl_column : 1
    <4ede>   DW_AT_prototyped  : 1
    <4ede>   DW_AT_type        : <0x4328>
    <4ee2>   DW_AT_low_pc      : 0xa32e
    <4eea>   DW_AT_high_pc     : 0x2af
    <4ef2>   DW_AT_frame_base  : 1 byte block: 9c 	(DW_OP_call_frame_cfa)
    <4ef4>   DW_AT_GNU_all_tail_call_sites: 1
    <4ef4>   DW_AT_sibling     : <0x4ff4>
 <2><4ef8>: Abbrev Number: 39 (DW_TAG_formal_parameter)
    <4ef9>   DW_AT_name        : n
    <4efb>   DW_AT_decl_file   : 1
    <4efc>   DW_AT_decl_line   : 870
    <4efe>   DW_AT_decl_column : 25
    <4eff>   DW_AT_type        : <0x42c2>
    <4f03>   DW_AT_location    : 3 byte block: 91 ac 7f 	(DW_OP_fbreg: -84)
 <2><4f07>: Abbrev Number: 39 (DW_TAG_formal_parameter)
    <4f08>   DW_AT_name        : arg
    <4f0c>   DW_AT_decl_file   : 1
    <4f0d>   DW_AT_decl_line   : 870
    <4f0f>   DW_AT_decl_column : 40
    <4f10>   DW_AT_type        : <0x42f5>
    <4f14>   DW_AT_location    : 3 byte block: 91 a0 7f 	(DW_OP_fbreg: -96)
 <2><4f18>: Abbrev Number: 40 (DW_TAG_formal_parameter)
    <4f19>   DW_AT_name        : (indirect string, offset: 0x12ca): argsize
    <4f1d>   DW_AT_decl_file   : 1
    <4f1e>   DW_AT_decl_line   : 870
    <4f20>   DW_AT_decl_column : 52
    <4f21>   DW_AT_type        : <0x42a2>
    <4f25>   DW_AT_location    : 3 byte block: 91 98 7f 	(DW_OP_fbreg: -104)
 <2><4f29>: Abbrev Number: 40 (DW_TAG_formal_parameter)
    <4f2a>   DW_AT_name        : (indirect string, offset: 0x1238): options
    <4f2e>   DW_AT_decl_file   : 1
    <4f2f>   DW_AT_decl_line   : 871
    <4f31>   DW_AT_decl_column : 51
    <4f32>   DW_AT_type        : <0x4ff4>
    <4f36>   DW_AT_location    : 3 byte block: 91 90 7f 	(DW_OP_fbreg: -112)
 <2><4f3a>: Abbrev Number: 41 (DW_TAG_variable)
    <4f3b>   DW_AT_name        : e
    <4f3d>   DW_AT_decl_file   : 1
    <4f3e>   DW_AT_decl_line   : 873
    <4f40>   DW_AT_decl_column : 7
    <4f41>   DW_AT_type        : <0x42c2>
    <4f45>   DW_AT_location    : 3 byte block: 91 b4 7f 	(DW_OP_fbreg: -76)
 <2><4f49>: Abbrev Number: 41 (DW_TAG_variable)
    <4f4a>   DW_AT_name        : sv
    <4f4d>   DW_AT_decl_file   : 1
    <4f4e>   DW_AT_decl_line   : 875
    <4f50>   DW_AT_decl_column : 19
    <4f51>   DW_AT_type        : <0x4665>
    <4f55>   DW_AT_location    : 2 byte block: 91 48 	(DW_OP_fbreg: -56)
 <2><4f58>: Abbrev Number: 30 (DW_TAG_variable)
    <4f59>   DW_AT_name        : (indirect string, offset: 0xeca): nslots_max
    <4f5d>   DW_AT_decl_file   : 1
    <4f5e>   DW_AT_decl_line   : 877
    <4f60>   DW_AT_decl_column : 7
    <4f61>   DW_AT_type        : <0x42c2>
    <4f65>   DW_AT_location    : 3 byte block: 91 b8 7f 	(DW_OP_fbreg: -72)
 <2><4f69>: Abbrev Number: 43 (DW_TAG_lexical_block)
    <4f6a>   DW_AT_low_pc      : 0xa396
    <4f72>   DW_AT_high_pc     : 0xc9
    <4f7a>   DW_AT_sibling     : <0x4fa0>
 <3><4f7e>: Abbrev Number: 30 (DW_TAG_variable)
    <4f7f>   DW_AT_name        : (indirect string, offset: 0x1118): preallocated
    <4f83>   DW_AT_decl_file   : 1
    <4f84>   DW_AT_decl_line   : 883
    <4f86>   DW_AT_decl_column : 12
    <4f87>   DW_AT_type        : <0x4ffa>
    <4f8b>   DW_AT_location    : 3 byte block: 91 b3 7f 	(DW_OP_fbreg: -77)
 <3><4f8f>: Abbrev Number: 30 (DW_TAG_variable)
