
sort_O0_debug:     file format elf64-x86-64

Contents of the .eh_frame section (loaded from sort_O0_debug):


00000000 0000000000000014 00000000 CIE
  Version:               1
  Augmentation:          "zR"
  Code alignment factor: 1
  Data alignment factor: -8
  Return address column: 16
  Augmentation data:     1b
  DW_CFA_def_cfa: r7 (rsp) ofs 8
  DW_CFA_offset: r16 (rip) at cfa-8
  DW_CFA_nop
  DW_CFA_nop

00000018 0000000000000014 0000001c FDE cie=00000000 pc=0000000000003ef0..0000000000003f1f
  DW_CFA_advance_loc: 4 to 0000000000003ef4
  DW_CFA_undefined: r16 (rip)
  DW_CFA_nop
  DW_CFA_nop
  DW_CFA_nop
  DW_CFA_nop

00000030 0000000000000024 00000034 FDE cie=00000000 pc=0000000000003020..0000000000003780
  DW_CFA_def_cfa_offset: 16
  DW_CFA_advance_loc: 6 to 0000000000003026
  DW_CFA_def_cfa_offset: 24
  DW_CFA_advance_loc: 10 to 0000000000003030
  DW_CFA_def_cfa_expression (DW_OP_breg7 (rsp): 8; DW_OP_breg16 (rip): 0; DW_OP_lit15; DW_OP_and; DW_OP_lit10; DW_OP_ge; DW_OP_lit3; DW_OP_shl; DW_OP_plus)
  DW_CFA_nop
  DW_CFA_nop
  DW_CFA_nop
  DW_CFA_nop

00000058 0000000000000014 0000005c FDE cie=00000000 pc=0000000000003780..00000000000037a0
  DW_CFA_nop
  DW_CFA_nop
  DW_CFA_nop
  DW_CFA_nop
  DW_CFA_nop
  DW_CFA_nop
  DW_CFA_nop

00000070 0000000000000014 00000074 FDE cie=00000000 pc=00000000000037a0..0000000000003ef0
  DW_CFA_nop
  DW_CFA_nop
  DW_CFA_nop
  DW_CFA_nop
  DW_CFA_nop
  DW_CFA_nop
  DW_CFA_nop

00000088 000000000000001c 0000008c FDE cie=00000000 pc=0000000000003fd9..0000000000003ff2
  DW_CFA_advance_loc: 1 to 0000000000003fda
  DW_CFA_def_cfa_offset: 16
  DW_CFA_offset: r6 (rbp) at cfa-16
  DW_CFA_advance_loc: 3 to 0000000000003fdd
  DW_CFA_def_cfa_register: r6 (rbp)
  DW_CFA_advance_loc: 20 to 0000000000003ff1
  DW_CFA_def_cfa: r7 (rsp) ofs 8
  DW_CFA_nop
  DW_CFA_nop
  DW_CFA_nop

000000a8 000000000000001c 000000ac FDE cie=00000000 pc=0000000000003ff2..0000000000004001
  DW_CFA_advance_loc: 1 to 0000000000003ff3
  DW_CFA_def_cfa_offset: 16
  DW_CFA_offset: r6 (rbp) at cfa-16
  DW_CFA_advance_loc: 3 to 0000000000003ff6
  DW_CFA_def_cfa_register: r6 (rbp)
  DW_CFA_advance_loc: 10 to 0000000000004000
  DW_CFA_def_cfa: r7 (rsp) ofs 8
  DW_CFA_nop
  DW_CFA_nop
  DW_CFA_nop

000000c8 000000000000001c 000000cc FDE cie=00000000 pc=0000000000004001..0000000000004044
  DW_CFA_advance_loc: 1 to 0000000000004002
  DW_CFA_def_cfa_offset: 16
  DW_CFA_offset: r6 (rbp) at cfa-16
  DW_CFA_advance_loc: 3 to 0000000000004005
  DW_CFA_def_cfa_register: r6 (rbp)
  DW_CFA_advance_loc: 62 to 0000000000004043
  DW_CFA_def_cfa: r7 (rsp) ofs 8
  DW_CFA_nop
  DW_CFA_nop
  DW_CFA_nop

000000e8 000000000000001c 000000ec FDE cie=00000000 pc=0000000000004044..0000000000004052
  DW_CFA_advance_loc: 1 to 0000000000004045
  DW_CFA_def_cfa_offset: 16
  DW_CFA_offset: r6 (rbp) at cfa-16
  DW_CFA_advance_loc: 3 to 0000000000004048
  DW_CFA_def_cfa_register: r6 (rbp)
  DW_CFA_advance_loc: 9 to 0000000000004051
  DW_CFA_def_cfa: r7 (rsp) ofs 8
  DW_CFA_nop
  DW_CFA_nop
  DW_CFA_nop

00000108 000000000000001c 0000010c FDE cie=00000000 pc=0000000000004052..0000000000004083
  DW_CFA_advance_loc: 1 to 0000000000004053
  DW_CFA_def_cfa_offset: 16
  DW_CFA_offset: r6 (rbp) at cfa-16
  DW_CFA_advance_loc: 3 to 0000000000004056
  DW_CFA_def_cfa_register: r6 (rbp)
  DW_CFA_advance_loc: 5 to 000000000000405b
  DW_CFA_offset: r3 (rbx) at cfa-24
  DW_CFA_advance_loc: 39 to 0000000000004082
  DW_CFA_def_cfa: r7 (rsp) ofs 8

00000128 000000000000001c 0000012c FDE cie=00000000 pc=0000000000004083..00000000000040b4
  DW_CFA_advance_loc: 1 to 0000000000004084
  DW_CFA_def_cfa_offset: 16
  DW_CFA_offset: r6 (rbp) at cfa-16
  DW_CFA_advance_loc: 3 to 0000000000004087
  DW_CFA_def_cfa_register: r6 (rbp)
  DW_CFA_advance_loc: 5 to 000000000000408c
  DW_CFA_offset: r3 (rbx) at cfa-24
  DW_CFA_advance_loc: 39 to 00000000000040b3
  DW_CFA_def_cfa: r7 (rsp) ofs 8

00000148 0000000000000020 0000014c FDE cie=00000000 pc=00000000000040b4..000000000000434b
  DW_CFA_advance_loc: 1 to 00000000000040b5
  DW_CFA_def_cfa_offset: 16
  DW_CFA_offset: r6 (rbp) at cfa-16
  DW_CFA_advance_loc: 3 to 00000000000040b8
  DW_CFA_def_cfa_register: r6 (rbp)
  DW_CFA_advance_loc: 8 to 00000000000040c0
  DW_CFA_offset: r3 (rbx) at cfa-24
  DW_CFA_advance_loc2: 650 to 000000000000434a
  DW_CFA_def_cfa: r7 (rsp) ofs 8
  DW_CFA_nop
  DW_CFA_nop

0000016c 0000000000000018 00000170 FDE cie=00000000 pc=000000000000434b..0000000000004414
  DW_CFA_advance_loc: 5 to 0000000000004350
  DW_CFA_def_cfa_offset: 16
  DW_CFA_offset: r6 (rbp) at cfa-16
  DW_CFA_advance_loc: 3 to 0000000000004353
  DW_CFA_def_cfa_register: r6 (rbp)
  DW_CFA_nop
  DW_CFA_nop
  DW_CFA_nop

00000188 0000000000000018 0000018c FDE cie=00000000 pc=0000000000004414..0000000000004483
  DW_CFA_advance_loc: 5 to 0000000000004419
  DW_CFA_def_cfa_offset: 16
  DW_CFA_offset: r6 (rbp) at cfa-16
  DW_CFA_advance_loc: 3 to 000000000000441c
  DW_CFA_def_cfa_register: r6 (rbp)
  DW_CFA_advance_loc: 5 to 0000000000004421
  DW_CFA_offset: r3 (rbx) at cfa-24

000001a4 000000000000001c 000001a8 FDE cie=00000000 pc=0000000000004483..00000000000047a1
  DW_CFA_advance_loc: 5 to 0000000000004488
  DW_CFA_def_cfa_offset: 16
  DW_CFA_offset: r6 (rbp) at cfa-16
  DW_CFA_advance_loc: 3 to 000000000000448b
  DW_CFA_def_cfa_register: r6 (rbp)
  DW_CFA_advance_loc: 7 to 0000000000004492
  DW_CFA_offset: r12 (r12) at cfa-24
  DW_CFA_offset: r3 (rbx) at cfa-32
  DW_CFA_nop
  DW_CFA_nop

000001c4 000000000000001c 000001c8 FDE cie=00000000 pc=00000000000047a1..00000000000047e3
  DW_CFA_advance_loc: 5 to 00000000000047a6
  DW_CFA_def_cfa_offset: 16
  DW_CFA_offset: r6 (rbp) at cfa-16
  DW_CFA_advance_loc: 3 to 00000000000047a9
  DW_CFA_def_cfa_register: r6 (rbp)
  DW_CFA_advance_loc: 57 to 00000000000047e2
  DW_CFA_def_cfa: r7 (rsp) ofs 8
  DW_CFA_nop
  DW_CFA_nop
  DW_CFA_nop

000001e4 000000000000001c 000001e8 FDE cie=00000000 pc=00000000000047e3..000000000000481b
  DW_CFA_advance_loc: 5 to 00000000000047e8
  DW_CFA_def_cfa_offset: 16
  DW_CFA_offset: r6 (rbp) at cfa-16
  DW_CFA_advance_loc: 3 to 00000000000047eb
  DW_CFA_def_cfa_register: r6 (rbp)
  DW_CFA_advance_loc: 47 to 000000000000481a
  DW_CFA_def_cfa: r7 (rsp) ofs 8
  DW_CFA_nop
  DW_CFA_nop
  DW_CFA_nop

00000204 000000000000001c 00000208 FDE cie=00000000 pc=000000000000481b..000000000000484a
  DW_CFA_advance_loc: 5 to 0000000000004820
  DW_CFA_def_cfa_offset: 16
  DW_CFA_offset: r6 (rbp) at cfa-16
  DW_CFA_advance_loc: 3 to 0000000000004823
  DW_CFA_def_cfa_register: r6 (rbp)
  DW_CFA_advance_loc: 38 to 0000000000004849
  DW_CFA_def_cfa: r7 (rsp) ofs 8
  DW_CFA_nop
  DW_CFA_nop
  DW_CFA_nop

00000224 000000000000001c 00000228 FDE cie=00000000 pc=000000000000484a..000000000000487f
  DW_CFA_advance_loc: 5 to 000000000000484f
  DW_CFA_def_cfa_offset: 16
  DW_CFA_offset: r6 (rbp) at cfa-16
  DW_CFA_advance_loc: 3 to 0000000000004852
  DW_CFA_def_cfa_register: r6 (rbp)
  DW_CFA_advance_loc: 44 to 000000000000487e
  DW_CFA_def_cfa: r7 (rsp) ofs 8
  DW_CFA_nop
  DW_CFA_nop
  DW_CFA_nop

00000244 0000000000000020 00000248 FDE cie=00000000 pc=000000000000487f..00000000000049b8
  DW_CFA_advance_loc: 5 to 0000000000004884
  DW_CFA_def_cfa_offset: 16
  DW_CFA_offset: r6 (rbp) at cfa-16
  DW_CFA_advance_loc: 3 to 0000000000004887
  DW_CFA_def_cfa_register: r6 (rbp)
  DW_CFA_advance_loc: 7 to 000000000000488e
  DW_CFA_offset: r12 (r12) at cfa-24
  DW_CFA_offset: r3 (rbx) at cfa-32
  DW_CFA_advance_loc2: 297 to 00000000000049b7
  DW_CFA_def_cfa: r7 (rsp) ofs 8

00000268 000000000000001c 0000026c FDE cie=00000000 pc=00000000000049b8..0000000000004a40
  DW_CFA_advance_loc: 5 to 00000000000049bd
  DW_CFA_def_cfa_offset: 16
  DW_CFA_offset: r6 (rbp) at cfa-16
  DW_CFA_advance_loc: 3 to 00000000000049c0
  DW_CFA_def_cfa_register: r6 (rbp)
  DW_CFA_advance_loc1: 127 to 0000000000004a3f
  DW_CFA_def_cfa: r7 (rsp) ofs 8
  DW_CFA_nop
  DW_CFA_nop

00000288 000000000000001c 0000028c FDE cie=00000000 pc=0000000000004a40..0000000000004aaf
  DW_CFA_advance_loc: 5 to 0000000000004a45
  DW_CFA_def_cfa_offset: 16
  DW_CFA_offset: r6 (rbp) at cfa-16
  DW_CFA_advance_loc: 3 to 0000000000004a48
  DW_CFA_def_cfa_register: r6 (rbp)
  DW_CFA_advance_loc1: 102 to 0000000000004aae
  DW_CFA_def_cfa: r7 (rsp) ofs 8
  DW_CFA_nop
  DW_CFA_nop

000002a8 000000000000001c 000002ac FDE cie=00000000 pc=0000000000004aaf..0000000000004ad9
  DW_CFA_advance_loc: 5 to 0000000000004ab4
  DW_CFA_def_cfa_offset: 16
  DW_CFA_offset: r6 (rbp) at cfa-16
  DW_CFA_advance_loc: 3 to 0000000000004ab7
  DW_CFA_def_cfa_register: r6 (rbp)
  DW_CFA_advance_loc: 33 to 0000000000004ad8
  DW_CFA_def_cfa: r7 (rsp) ofs 8
  DW_CFA_nop
  DW_CFA_nop
  DW_CFA_nop

000002c8 000000000000001c 000002cc FDE cie=00000000 pc=0000000000004ad9..0000000000004aff
  DW_CFA_advance_loc: 5 to 0000000000004ade
  DW_CFA_def_cfa_offset: 16
  DW_CFA_offset: r6 (rbp) at cfa-16
  DW_CFA_advance_loc: 3 to 0000000000004ae1
  DW_CFA_def_cfa_register: r6 (rbp)
  DW_CFA_advance_loc: 29 to 0000000000004afe
  DW_CFA_def_cfa: r7 (rsp) ofs 8
  DW_CFA_nop
  DW_CFA_nop
  DW_CFA_nop

000002e8 000000000000001c 000002ec FDE cie=00000000 pc=0000000000004aff..0000000000004b19
  DW_CFA_advance_loc: 5 to 0000000000004b04
  DW_CFA_def_cfa_offset: 16
  DW_CFA_offset: r6 (rbp) at cfa-16
  DW_CFA_advance_loc: 3 to 0000000000004b07
  DW_CFA_def_cfa_register: r6 (rbp)
  DW_CFA_advance_loc: 17 to 0000000000004b18
  DW_CFA_def_cfa: r7 (rsp) ofs 8
  DW_CFA_nop
  DW_CFA_nop
  DW_CFA_nop

00000308 000000000000001c 0000030c FDE cie=00000000 pc=0000000000004b19..0000000000004b3b
  DW_CFA_advance_loc: 5 to 0000000000004b1e
  DW_CFA_def_cfa_offset: 16
  DW_CFA_offset: r6 (rbp) at cfa-16
  DW_CFA_advance_loc: 3 to 0000000000004b21
  DW_CFA_def_cfa_register: r6 (rbp)
  DW_CFA_advance_loc: 25 to 0000000000004b3a
  DW_CFA_def_cfa: r7 (rsp) ofs 8
  DW_CFA_nop
  DW_CFA_nop
  DW_CFA_nop

00000328 000000000000001c 0000032c FDE cie=00000000 pc=0000000000004b3b..0000000000004b84
  DW_CFA_advance_loc: 5 to 0000000000004b40
  DW_CFA_def_cfa_offset: 16
  DW_CFA_offset: r6 (rbp) at cfa-16
  DW_CFA_advance_loc: 3 to 0000000000004b43
  DW_CFA_def_cfa_register: r6 (rbp)
  DW_CFA_advance_loc1: 64 to 0000000000004b83
  DW_CFA_def_cfa: r7 (rsp) ofs 8
  DW_CFA_nop
  DW_CFA_nop

00000348 000000000000001c 0000034c FDE cie=00000000 pc=0000000000004b84..0000000000004bed
  DW_CFA_advance_loc: 5 to 0000000000004b89
  DW_CFA_def_cfa_offset: 16
  DW_CFA_offset: r6 (rbp) at cfa-16
  DW_CFA_advance_loc: 3 to 0000000000004b8c
  DW_CFA_def_cfa_register: r6 (rbp)
  DW_CFA_advance_loc1: 96 to 0000000000004bec
  DW_CFA_def_cfa: r7 (rsp) ofs 8
  DW_CFA_nop
  DW_CFA_nop

00000368 0000000000000020 0000036c FDE cie=00000000 pc=0000000000004bed..0000000000004e38
  DW_CFA_advance_loc: 5 to 0000000000004bf2
  DW_CFA_def_cfa_offset: 16
  DW_CFA_offset: r6 (rbp) at cfa-16
  DW_CFA_advance_loc: 3 to 0000000000004bf5
  DW_CFA_def_cfa_register: r6 (rbp)
  DW_CFA_advance_loc: 10 to 0000000000004bff
  DW_CFA_offset: r12 (r12) at cfa-24
  DW_CFA_offset: r3 (rbx) at cfa-32
  DW_CFA_advance_loc2: 568 to 0000000000004e37
  DW_CFA_def_cfa: r7 (rsp) ofs 8

0000038c 000000000000001c 00000390 FDE cie=00000000 pc=0000000000004e38..0000000000004e90
  DW_CFA_advance_loc: 5 to 0000000000004e3d
  DW_CFA_def_cfa_offset: 16
  DW_CFA_offset: r6 (rbp) at cfa-16
  DW_CFA_advance_loc: 3 to 0000000000004e40
  DW_CFA_def_cfa_register: r6 (rbp)
  DW_CFA_advance_loc1: 79 to 0000000000004e8f
  DW_CFA_def_cfa: r7 (rsp) ofs 8
  DW_CFA_nop
  DW_CFA_nop

000003ac 0000000000000020 000003b0 FDE cie=00000000 pc=0000000000004e90..000000000000500a
  DW_CFA_advance_loc: 5 to 0000000000004e95
  DW_CFA_def_cfa_offset: 16
  DW_CFA_offset: r6 (rbp) at cfa-16
  DW_CFA_advance_loc: 3 to 0000000000004e98
  DW_CFA_def_cfa_register: r6 (rbp)
  DW_CFA_advance_loc: 5 to 0000000000004e9d
  DW_CFA_offset: r3 (rbx) at cfa-24
  DW_CFA_advance_loc2: 364 to 0000000000005009
  DW_CFA_def_cfa: r7 (rsp) ofs 8
  DW_CFA_nop
  DW_CFA_nop

000003d0 000000000000001c 000003d4 FDE cie=00000000 pc=000000000000500a..0000000000005063
  DW_CFA_advance_loc: 5 to 000000000000500f
  DW_CFA_def_cfa_offset: 16
  DW_CFA_offset: r6 (rbp) at cfa-16
  DW_CFA_advance_loc: 3 to 0000000000005012
  DW_CFA_def_cfa_register: r6 (rbp)
  DW_CFA_advance_loc1: 80 to 0000000000005062
  DW_CFA_def_cfa: r7 (rsp) ofs 8
  DW_CFA_nop
  DW_CFA_nop

000003f0 000000000000001c 000003f4 FDE cie=00000000 pc=0000000000005063..0000000000005109
  DW_CFA_advance_loc: 5 to 0000000000005068
  DW_CFA_def_cfa_offset: 16
  DW_CFA_offset: r6 (rbp) at cfa-16
  DW_CFA_advance_loc: 3 to 000000000000506b
  DW_CFA_def_cfa_register: r6 (rbp)
  DW_CFA_advance_loc1: 157 to 0000000000005108
  DW_CFA_def_cfa: r7 (rsp) ofs 8
  DW_CFA_nop
  DW_CFA_nop

00000410 000000000000001c 00000414 FDE cie=00000000 pc=0000000000005109..000000000000513f
  DW_CFA_advance_loc: 5 to 000000000000510e
  DW_CFA_def_cfa_offset: 16
  DW_CFA_offset: r6 (rbp) at cfa-16
  DW_CFA_advance_loc: 3 to 0000000000005111
  DW_CFA_def_cfa_register: r6 (rbp)
  DW_CFA_advance_loc: 45 to 000000000000513e
  DW_CFA_def_cfa: r7 (rsp) ofs 8
  DW_CFA_nop
  DW_CFA_nop
  DW_CFA_nop

00000430 000000000000001c 00000434 FDE cie=00000000 pc=000000000000513f..000000000000531e
  DW_CFA_advance_loc: 5 to 0000000000005144
  DW_CFA_def_cfa_offset: 16
  DW_CFA_offset: r6 (rbp) at cfa-16
  DW_CFA_advance_loc: 3 to 0000000000005147
  DW_CFA_def_cfa_register: r6 (rbp)
  DW_CFA_advance_loc2: 470 to 000000000000531d
  DW_CFA_def_cfa: r7 (rsp) ofs 8
  DW_CFA_nop

00000450 0000000000000020 00000454 FDE cie=00000000 pc=000000000000531e..00000000000054a2
  DW_CFA_advance_loc: 5 to 0000000000005323
  DW_CFA_def_cfa_offset: 16
  DW_CFA_offset: r6 (rbp) at cfa-16
  DW_CFA_advance_loc: 3 to 0000000000005326
  DW_CFA_def_cfa_register: r6 (rbp)
  DW_CFA_advance_loc: 5 to 000000000000532b
  DW_CFA_offset: r3 (rbx) at cfa-24
  DW_CFA_advance_loc2: 374 to 00000000000054a1
  DW_CFA_def_cfa: r7 (rsp) ofs 8
  DW_CFA_nop
  DW_CFA_nop

00000474 000000000000001c 00000478 FDE cie=00000000 pc=00000000000054a2..00000000000054c5
  DW_CFA_advance_loc: 5 to 00000000000054a7
  DW_CFA_def_cfa_offset: 16
  DW_CFA_offset: r6 (rbp) at cfa-16
  DW_CFA_advance_loc: 3 to 00000000000054aa
  DW_CFA_def_cfa_register: r6 (rbp)
  DW_CFA_advance_loc: 26 to 00000000000054c4
  DW_CFA_def_cfa: r7 (rsp) ofs 8
  DW_CFA_nop
  DW_CFA_nop
  DW_CFA_nop

00000494 0000000000000020 00000498 FDE cie=00000000 pc=00000000000054c5..00000000000056b8
  DW_CFA_advance_loc: 5 to 00000000000054ca
  DW_CFA_def_cfa_offset: 16
  DW_CFA_offset: r6 (rbp) at cfa-16
  DW_CFA_advance_loc: 3 to 00000000000054cd
  DW_CFA_def_cfa_register: r6 (rbp)
  DW_CFA_advance_loc: 7 to 00000000000054d4
  DW_CFA_offset: r12 (r12) at cfa-24
  DW_CFA_offset: r3 (rbx) at cfa-32
  DW_CFA_advance_loc2: 483 to 00000000000056b7
  DW_CFA_def_cfa: r7 (rsp) ofs 8

000004b8 000000000000001c 000004bc FDE cie=00000000 pc=00000000000056b8..000000000000572b
  DW_CFA_advance_loc: 5 to 00000000000056bd
  DW_CFA_def_cfa_offset: 16
  DW_CFA_offset: r6 (rbp) at cfa-16
  DW_CFA_advance_loc: 3 to 00000000000056c0
  DW_CFA_def_cfa_register: r6 (rbp)
  DW_CFA_advance_loc1: 106 to 000000000000572a
  DW_CFA_def_cfa: r7 (rsp) ofs 8
  DW_CFA_nop
  DW_CFA_nop

000004d8 0000000000000020 000004dc FDE cie=00000000 pc=000000000000572b..00000000000058b4
  DW_CFA_advance_loc: 5 to 0000000000005730
  DW_CFA_def_cfa_offset: 16
  DW_CFA_offset: r6 (rbp) at cfa-16
  DW_CFA_advance_loc: 3 to 0000000000005733
  DW_CFA_def_cfa_register: r6 (rbp)
  DW_CFA_advance_loc: 8 to 000000000000573b
  DW_CFA_offset: r3 (rbx) at cfa-24
  DW_CFA_advance_loc2: 376 to 00000000000058b3
  DW_CFA_def_cfa: r7 (rsp) ofs 8
  DW_CFA_nop
  DW_CFA_nop

000004fc 000000000000001c 00000500 FDE cie=00000000 pc=00000000000058b4..00000000000058f3
  DW_CFA_advance_loc: 5 to 00000000000058b9
  DW_CFA_def_cfa_offset: 16
  DW_CFA_offset: r6 (rbp) at cfa-16
  DW_CFA_advance_loc: 3 to 00000000000058bc
  DW_CFA_def_cfa_register: r6 (rbp)
  DW_CFA_advance_loc: 54 to 00000000000058f2
  DW_CFA_def_cfa: r7 (rsp) ofs 8
  DW_CFA_nop
  DW_CFA_nop
  DW_CFA_nop

0000051c 0000000000000020 00000520 FDE cie=00000000 pc=00000000000058f3..0000000000005b51
  DW_CFA_advance_loc: 5 to 00000000000058f8
  DW_CFA_def_cfa_offset: 16
  DW_CFA_offset: r6 (rbp) at cfa-16
  DW_CFA_advance_loc: 3 to 00000000000058fb
  DW_CFA_def_cfa_register: r6 (rbp)
  DW_CFA_advance_loc: 5 to 0000000000005900
  DW_CFA_offset: r3 (rbx) at cfa-24
  DW_CFA_advance_loc2: 592 to 0000000000005b50
  DW_CFA_def_cfa: r7 (rsp) ofs 8
  DW_CFA_nop
  DW_CFA_nop

00000540 0000000000000020 00000544 FDE cie=00000000 pc=0000000000005b51..0000000000005db5
  DW_CFA_advance_loc: 5 to 0000000000005b56
  DW_CFA_def_cfa_offset: 16
  DW_CFA_offset: r6 (rbp) at cfa-16
  DW_CFA_advance_loc: 3 to 0000000000005b59
  DW_CFA_def_cfa_register: r6 (rbp)
  DW_CFA_advance_loc: 7 to 0000000000005b60
  DW_CFA_offset: r12 (r12) at cfa-24
  DW_CFA_offset: r3 (rbx) at cfa-32
  DW_CFA_advance_loc2: 596 to 0000000000005db4
  DW_CFA_def_cfa: r7 (rsp) ofs 8

00000564 000000000000001c 00000568 FDE cie=00000000 pc=0000000000005db5..0000000000005feb
  DW_CFA_advance_loc: 5 to 0000000000005dba
  DW_CFA_def_cfa_offset: 16
  DW_CFA_offset: r6 (rbp) at cfa-16
  DW_CFA_advance_loc: 3 to 0000000000005dbd
  DW_CFA_def_cfa_register: r6 (rbp)
  DW_CFA_advance_loc2: 557 to 0000000000005fea
  DW_CFA_def_cfa: r7 (rsp) ofs 8
  DW_CFA_nop

00000584 000000000000001c 00000588 FDE cie=00000000 pc=0000000000005feb..00000000000060b6
  DW_CFA_advance_loc: 5 to 0000000000005ff0
  DW_CFA_def_cfa_offset: 16
  DW_CFA_offset: r6 (rbp) at cfa-16
  DW_CFA_advance_loc: 3 to 0000000000005ff3
  DW_CFA_def_cfa_register: r6 (rbp)
  DW_CFA_advance_loc1: 194 to 00000000000060b5
  DW_CFA_def_cfa: r7 (rsp) ofs 8
  DW_CFA_nop
  DW_CFA_nop

000005a4 000000000000001c 000005a8 FDE cie=00000000 pc=00000000000060b6..0000000000006325
  DW_CFA_advance_loc: 5 to 00000000000060bb
  DW_CFA_def_cfa_offset: 16
  DW_CFA_offset: r6 (rbp) at cfa-16
  DW_CFA_advance_loc: 3 to 00000000000060be
  DW_CFA_def_cfa_register: r6 (rbp)
  DW_CFA_advance_loc2: 614 to 0000000000006324
  DW_CFA_def_cfa: r7 (rsp) ofs 8
  DW_CFA_nop

000005c4 0000000000000020 000005c8 FDE cie=00000000 pc=0000000000006325..00000000000065c1
  DW_CFA_advance_loc: 5 to 000000000000632a
  DW_CFA_def_cfa_offset: 16
  DW_CFA_offset: r6 (rbp) at cfa-16
  DW_CFA_advance_loc: 3 to 000000000000632d
  DW_CFA_def_cfa_register: r6 (rbp)
  DW_CFA_advance_loc: 8 to 0000000000006335
  DW_CFA_offset: r3 (rbx) at cfa-24
  DW_CFA_advance_loc2: 651 to 00000000000065c0
  DW_CFA_def_cfa: r7 (rsp) ofs 8
  DW_CFA_nop
  DW_CFA_nop

000005e8 000000000000001c 000005ec FDE cie=00000000 pc=00000000000065c1..0000000000006679
  DW_CFA_advance_loc: 5 to 00000000000065c6
  DW_CFA_def_cfa_offset: 16
  DW_CFA_offset: r6 (rbp) at cfa-16
  DW_CFA_advance_loc: 3 to 00000000000065c9
  DW_CFA_def_cfa_register: r6 (rbp)
  DW_CFA_advance_loc1: 175 to 0000000000006678
  DW_CFA_def_cfa: r7 (rsp) ofs 8
  DW_CFA_nop
  DW_CFA_nop

00000608 000000000000001c 0000060c FDE cie=00000000 pc=0000000000006679..000000000000669d
  DW_CFA_advance_loc: 1 to 000000000000667a
  DW_CFA_def_cfa_offset: 16
  DW_CFA_offset: r6 (rbp) at cfa-16
  DW_CFA_advance_loc: 3 to 000000000000667d
  DW_CFA_def_cfa_register: r6 (rbp)
  DW_CFA_advance_loc: 31 to 000000000000669c
  DW_CFA_def_cfa: r7 (rsp) ofs 8
  DW_CFA_nop
  DW_CFA_nop
  DW_CFA_nop

00000628 000000000000001c 0000062c FDE cie=00000000 pc=000000000000669d..0000000000006841
  DW_CFA_advance_loc: 5 to 00000000000066a2
  DW_CFA_def_cfa_offset: 16
  DW_CFA_offset: r6 (rbp) at cfa-16
  DW_CFA_advance_loc: 3 to 00000000000066a5
  DW_CFA_def_cfa_register: r6 (rbp)
  DW_CFA_advance_loc2: 411 to 0000000000006840
  DW_CFA_def_cfa: r7 (rsp) ofs 8
  DW_CFA_nop

00000648 000000000000001c 0000064c FDE cie=00000000 pc=0000000000006841..0000000000006a07
  DW_CFA_advance_loc: 5 to 0000000000006846
  DW_CFA_def_cfa_offset: 16
  DW_CFA_offset: r6 (rbp) at cfa-16
  DW_CFA_advance_loc: 3 to 0000000000006849
  DW_CFA_def_cfa_register: r6 (rbp)
  DW_CFA_advance_loc2: 445 to 0000000000006a06
  DW_CFA_def_cfa: r7 (rsp) ofs 8
  DW_CFA_nop

00000668 000000000000001c 0000066c FDE cie=00000000 pc=0000000000006a07..0000000000006f0d
  DW_CFA_advance_loc: 5 to 0000000000006a0c
  DW_CFA_def_cfa_offset: 16
  DW_CFA_offset: r6 (rbp) at cfa-16
  DW_CFA_advance_loc: 3 to 0000000000006a0f
  DW_CFA_def_cfa_register: r6 (rbp)
  DW_CFA_advance_loc2: 1277 to 0000000000006f0c
  DW_CFA_def_cfa: r7 (rsp) ofs 8
  DW_CFA_nop

00000688 000000000000001c 0000068c FDE cie=00000000 pc=0000000000006f0d..0000000000006feb
  DW_CFA_advance_loc: 5 to 0000000000006f12
  DW_CFA_def_cfa_offset: 16
  DW_CFA_offset: r6 (rbp) at cfa-16
  DW_CFA_advance_loc: 3 to 0000000000006f15
  DW_CFA_def_cfa_register: r6 (rbp)
  DW_CFA_advance_loc1: 213 to 0000000000006fea
  DW_CFA_def_cfa: r7 (rsp) ofs 8
  DW_CFA_nop
  DW_CFA_nop

000006a8 000000000000001c 000006ac FDE cie=00000000 pc=0000000000006feb..000000000000708b
  DW_CFA_advance_loc: 5 to 0000000000006ff0
  DW_CFA_def_cfa_offset: 16
  DW_CFA_offset: r6 (rbp) at cfa-16
  DW_CFA_advance_loc: 3 to 0000000000006ff3
  DW_CFA_def_cfa_register: r6 (rbp)
  DW_CFA_advance_loc1: 151 to 000000000000708a
  DW_CFA_def_cfa: r7 (rsp) ofs 8
  DW_CFA_nop
  DW_CFA_nop

000006c8 0000000000000020 000006cc FDE cie=00000000 pc=000000000000708b..000000000000714c
  DW_CFA_advance_loc: 5 to 0000000000007090
  DW_CFA_def_cfa_offset: 16
  DW_CFA_offset: r6 (rbp) at cfa-16
  DW_CFA_advance_loc: 3 to 0000000000007093
  DW_CFA_def_cfa_register: r6 (rbp)
  DW_CFA_advance_loc: 5 to 0000000000007098
  DW_CFA_offset: r3 (rbx) at cfa-24
  DW_CFA_advance_loc1: 179 to 000000000000714b
  DW_CFA_def_cfa: r7 (rsp) ofs 8
  DW_CFA_nop
  DW_CFA_nop
  DW_CFA_nop

000006ec 000000000000001c 000006f0 FDE cie=00000000 pc=000000000000714c..00000000000071da
  DW_CFA_advance_loc: 5 to 0000000000007151
  DW_CFA_def_cfa_offset: 16
  DW_CFA_offset: r6 (rbp) at cfa-16
  DW_CFA_advance_loc: 3 to 0000000000007154
  DW_CFA_def_cfa_register: r6 (rbp)
  DW_CFA_advance_loc1: 133 to 00000000000071d9
  DW_CFA_def_cfa: r7 (rsp) ofs 8
  DW_CFA_nop
  DW_CFA_nop

0000070c 000000000000001c 00000710 FDE cie=00000000 pc=00000000000071da..000000000000727f
  DW_CFA_advance_loc: 5 to 00000000000071df
  DW_CFA_def_cfa_offset: 16
  DW_CFA_offset: r6 (rbp) at cfa-16
  DW_CFA_advance_loc: 3 to 00000000000071e2
  DW_CFA_def_cfa_register: r6 (rbp)
  DW_CFA_advance_loc1: 156 to 000000000000727e
  DW_CFA_def_cfa: r7 (rsp) ofs 8
  DW_CFA_nop
  DW_CFA_nop

0000072c 000000000000001c 00000730 FDE cie=00000000 pc=000000000000727f..000000000000739c
  DW_CFA_advance_loc: 5 to 0000000000007284
  DW_CFA_def_cfa_offset: 16
  DW_CFA_offset: r6 (rbp) at cfa-16
  DW_CFA_advance_loc: 3 to 0000000000007287
  DW_CFA_def_cfa_register: r6 (rbp)
  DW_CFA_advance_loc2: 276 to 000000000000739b
  DW_CFA_def_cfa: r7 (rsp) ofs 8
  DW_CFA_nop

0000074c 0000000000000020 00000750 FDE cie=00000000 pc=000000000000739c..000000000000751c
  DW_CFA_advance_loc: 5 to 00000000000073a1
  DW_CFA_def_cfa_offset: 16
  DW_CFA_offset: r6 (rbp) at cfa-16
  DW_CFA_advance_loc: 3 to 00000000000073a4
  DW_CFA_def_cfa_register: r6 (rbp)
  DW_CFA_advance_loc: 5 to 00000000000073a9
  DW_CFA_offset: r3 (rbx) at cfa-24
  DW_CFA_advance_loc2: 370 to 000000000000751b
  DW_CFA_def_cfa: r7 (rsp) ofs 8
  DW_CFA_nop
  DW_CFA_nop

00000770 0000000000000020 00000774 FDE cie=00000000 pc=000000000000751c..0000000000007611
  DW_CFA_advance_loc: 5 to 0000000000007521
  DW_CFA_def_cfa_offset: 16
  DW_CFA_offset: r6 (rbp) at cfa-16
  DW_CFA_advance_loc: 3 to 0000000000007524
  DW_CFA_def_cfa_register: r6 (rbp)
  DW_CFA_advance_loc: 5 to 0000000000007529
  DW_CFA_offset: r3 (rbx) at cfa-24
  DW_CFA_advance_loc1: 231 to 0000000000007610
  DW_CFA_def_cfa: r7 (rsp) ofs 8
  DW_CFA_nop
  DW_CFA_nop
  DW_CFA_nop

00000794 0000000000000020 00000798 FDE cie=00000000 pc=0000000000007611..00000000000076fe
  DW_CFA_advance_loc: 5 to 0000000000007616
  DW_CFA_def_cfa_offset: 16
  DW_CFA_offset: r6 (rbp) at cfa-16
  DW_CFA_advance_loc: 3 to 0000000000007619
  DW_CFA_def_cfa_register: r6 (rbp)
  DW_CFA_advance_loc: 5 to 000000000000761e
  DW_CFA_offset: r3 (rbx) at cfa-24
  DW_CFA_advance_loc1: 223 to 00000000000076fd
  DW_CFA_def_cfa: r7 (rsp) ofs 8
  DW_CFA_nop
  DW_CFA_nop
  DW_CFA_nop

000007b8 000000000000001c 000007bc FDE cie=00000000 pc=00000000000076fe..0000000000007f75
  DW_CFA_advance_loc: 5 to 0000000000007703
  DW_CFA_def_cfa_offset: 16
  DW_CFA_offset: r6 (rbp) at cfa-16
  DW_CFA_advance_loc: 3 to 0000000000007706
  DW_CFA_def_cfa_register: r6 (rbp)
  DW_CFA_advance_loc2: 2158 to 0000000000007f74
  DW_CFA_def_cfa: r7 (rsp) ofs 8
  DW_CFA_nop

000007d8 000000000000001c 000007dc FDE cie=00000000 pc=0000000000007f75..0000000000007fdd
  DW_CFA_advance_loc: 5 to 0000000000007f7a
  DW_CFA_def_cfa_offset: 16
  DW_CFA_offset: r6 (rbp) at cfa-16
  DW_CFA_advance_loc: 3 to 0000000000007f7d
  DW_CFA_def_cfa_register: r6 (rbp)
  DW_CFA_advance_loc1: 95 to 0000000000007fdc
  DW_CFA_def_cfa: r7 (rsp) ofs 8
  DW_CFA_nop
  DW_CFA_nop

000007f8 000000000000001c 000007fc FDE cie=00000000 pc=0000000000007fdd..0000000000008056
  DW_CFA_advance_loc: 5 to 0000000000007fe2
  DW_CFA_def_cfa_offset: 16
  DW_CFA_offset: r6 (rbp) at cfa-16
  DW_CFA_advance_loc: 3 to 0000000000007fe5
  DW_CFA_def_cfa_register: r6 (rbp)
  DW_CFA_advance_loc1: 112 to 0000000000008055
  DW_CFA_def_cfa: r7 (rsp) ofs 8
  DW_CFA_nop
  DW_CFA_nop

00000818 000000000000001c 0000081c FDE cie=00000000 pc=0000000000008056..0000000000008093
  DW_CFA_advance_loc: 1 to 0000000000008057
  DW_CFA_def_cfa_offset: 16
  DW_CFA_offset: r6 (rbp) at cfa-16
  DW_CFA_advance_loc: 3 to 000000000000805a
  DW_CFA_def_cfa_register: r6 (rbp)
  DW_CFA_advance_loc: 56 to 0000000000008092
  DW_CFA_def_cfa: r7 (rsp) ofs 8
  DW_CFA_nop
  DW_CFA_nop
  DW_CFA_nop

00000838 000000000000001c 0000083c FDE cie=00000000 pc=0000000000008093..000000000000832f
  DW_CFA_advance_loc: 5 to 0000000000008098
  DW_CFA_def_cfa_offset: 16
  DW_CFA_offset: r6 (rbp) at cfa-16
  DW_CFA_advance_loc: 3 to 000000000000809b
  DW_CFA_def_cfa_register: r6 (rbp)
  DW_CFA_advance_loc2: 659 to 000000000000832e
  DW_CFA_def_cfa: r7 (rsp) ofs 8
  DW_CFA_nop

00000858 000000000000001c 0000085c FDE cie=00000000 pc=000000000000832f..0000000000008396
  DW_CFA_advance_loc: 5 to 0000000000008334
  DW_CFA_def_cfa_offset: 16
  DW_CFA_offset: r6 (rbp) at cfa-16
  DW_CFA_advance_loc: 3 to 0000000000008337
  DW_CFA_def_cfa_register: r6 (rbp)
  DW_CFA_advance_loc1: 94 to 0000000000008395
  DW_CFA_def_cfa: r7 (rsp) ofs 8
  DW_CFA_nop
  DW_CFA_nop

00000878 000000000000001c 0000087c FDE cie=00000000 pc=0000000000008396..000000000000842f
  DW_CFA_advance_loc: 5 to 000000000000839b
  DW_CFA_def_cfa_offset: 16
  DW_CFA_offset: r6 (rbp) at cfa-16
  DW_CFA_advance_loc: 3 to 000000000000839e
  DW_CFA_def_cfa_register: r6 (rbp)
  DW_CFA_advance_loc1: 144 to 000000000000842e
  DW_CFA_def_cfa: r7 (rsp) ofs 8
  DW_CFA_nop
  DW_CFA_nop

00000898 000000000000001c 0000089c FDE cie=00000000 pc=000000000000842f..000000000000858f
  DW_CFA_advance_loc: 5 to 0000000000008434
  DW_CFA_def_cfa_offset: 16
  DW_CFA_offset: r6 (rbp) at cfa-16
  DW_CFA_advance_loc: 3 to 0000000000008437
  DW_CFA_def_cfa_register: r6 (rbp)
  DW_CFA_advance_loc2: 343 to 000000000000858e
  DW_CFA_def_cfa: r7 (rsp) ofs 8
  DW_CFA_nop

000008b8 0000000000000020 000008bc FDE cie=00000000 pc=000000000000858f..00000000000091a4
  DW_CFA_advance_loc: 5 to 0000000000008594
  DW_CFA_def_cfa_offset: 16
  DW_CFA_offset: r6 (rbp) at cfa-16
  DW_CFA_advance_loc: 3 to 0000000000008597
  DW_CFA_def_cfa_register: r6 (rbp)
  DW_CFA_advance_loc: 10 to 00000000000085a1
  DW_CFA_offset: r12 (r12) at cfa-24
  DW_CFA_offset: r3 (rbx) at cfa-32
  DW_CFA_advance_loc2: 3074 to 00000000000091a3
  DW_CFA_def_cfa: r7 (rsp) ofs 8

000008dc 0000000000000020 000008e0 FDE cie=00000000 pc=00000000000091a4..0000000000009eb8
  DW_CFA_advance_loc: 5 to 00000000000091a9
  DW_CFA_def_cfa_offset: 16
  DW_CFA_offset: r6 (rbp) at cfa-16
  DW_CFA_advance_loc: 3 to 00000000000091ac
  DW_CFA_def_cfa_register: r6 (rbp)
  DW_CFA_advance_loc: 17 to 00000000000091bd
  DW_CFA_offset: r3 (rbx) at cfa-24
  DW_CFA_advance_loc2: 3322 to 0000000000009eb7
  DW_CFA_def_cfa: r7 (rsp) ofs 8
  DW_CFA_nop
  DW_CFA_nop

00000900 000000000000001c 00000904 FDE cie=00000000 pc=0000000000009eb8..000000000000a001
  DW_CFA_advance_loc: 5 to 0000000000009ebd
  DW_CFA_def_cfa_offset: 16
  DW_CFA_offset: r6 (rbp) at cfa-16
  DW_CFA_advance_loc: 3 to 0000000000009ec0
  DW_CFA_def_cfa_register: r6 (rbp)
  DW_CFA_advance_loc2: 320 to 000000000000a000
  DW_CFA_def_cfa: r7 (rsp) ofs 8
  DW_CFA_nop

00000920 000000000000001c 00000924 FDE cie=00000000 pc=000000000000a001..000000000000a13f
  DW_CFA_advance_loc: 5 to 000000000000a006
  DW_CFA_def_cfa_offset: 16
  DW_CFA_offset: r6 (rbp) at cfa-16
  DW_CFA_advance_loc: 3 to 000000000000a009
  DW_CFA_def_cfa_register: r6 (rbp)
  DW_CFA_advance_loc2: 309 to 000000000000a13e
  DW_CFA_def_cfa: r7 (rsp) ofs 8
  DW_CFA_nop

00000940 0000000000000020 00000944 FDE cie=00000000 pc=000000000000a13f..000000000000a52f
  DW_CFA_advance_loc: 5 to 000000000000a144
  DW_CFA_def_cfa_offset: 16
  DW_CFA_offset: r6 (rbp) at cfa-16
  DW_CFA_advance_loc: 3 to 000000000000a147
  DW_CFA_def_cfa_register: r6 (rbp)
  DW_CFA_advance_loc: 10 to 000000000000a151
  DW_CFA_offset: r12 (r12) at cfa-24
  DW_CFA_offset: r3 (rbx) at cfa-32
  DW_CFA_advance_loc2: 989 to 000000000000a52e
  DW_CFA_def_cfa: r7 (rsp) ofs 8

00000964 000000000000001c 00000968 FDE cie=00000000 pc=000000000000a52f..000000000000a64e
  DW_CFA_advance_loc: 5 to 000000000000a534
  DW_CFA_def_cfa_offset: 16
  DW_CFA_offset: r6 (rbp) at cfa-16
  DW_CFA_advance_loc: 3 to 000000000000a537
  DW_CFA_def_cfa_register: r6 (rbp)
  DW_CFA_advance_loc2: 278 to 000000000000a64d
  DW_CFA_def_cfa: r7 (rsp) ofs 8
  DW_CFA_nop

00000984 0000000000000020 00000988 FDE cie=00000000 pc=000000000000a64e..000000000000b3d2
  DW_CFA_advance_loc: 5 to 000000000000a653
  DW_CFA_def_cfa_offset: 16
  DW_CFA_offset: r6 (rbp) at cfa-16
  DW_CFA_advance_loc: 3 to 000000000000a656
  DW_CFA_def_cfa_register: r6 (rbp)
  DW_CFA_advance_loc: 8 to 000000000000a65e
  DW_CFA_offset: r3 (rbx) at cfa-24
  DW_CFA_advance_loc2: 3443 to 000000000000b3d1
  DW_CFA_def_cfa: r7 (rsp) ofs 8
  DW_CFA_nop
  DW_CFA_nop

000009a8 0000000000000020 000009ac FDE cie=00000000 pc=000000000000b3d2..000000000000b4a1
  DW_CFA_advance_loc: 5 to 000000000000b3d7
  DW_CFA_def_cfa_offset: 16
  DW_CFA_offset: r6 (rbp) at cfa-16
  DW_CFA_advance_loc: 3 to 000000000000b3da
  DW_CFA_def_cfa_register: r6 (rbp)
  DW_CFA_advance_loc: 5 to 000000000000b3df
  DW_CFA_offset: r3 (rbx) at cfa-24
  DW_CFA_advance_loc1: 193 to 000000000000b4a0
  DW_CFA_def_cfa: r7 (rsp) ofs 8
  DW_CFA_nop
  DW_CFA_nop
  DW_CFA_nop

000009cc 000000000000001c 000009d0 FDE cie=00000000 pc=000000000000b4a1..000000000000b5c4
  DW_CFA_advance_loc: 5 to 000000000000b4a6
  DW_CFA_def_cfa_offset: 16
  DW_CFA_offset: r6 (rbp) at cfa-16
  DW_CFA_advance_loc: 3 to 000000000000b4a9
  DW_CFA_def_cfa_register: r6 (rbp)
  DW_CFA_advance_loc2: 282 to 000000000000b5c3
  DW_CFA_def_cfa: r7 (rsp) ofs 8
  DW_CFA_nop

000009ec 000000000000001c 000009f0 FDE cie=00000000 pc=000000000000b5c4..000000000000b844
  DW_CFA_advance_loc: 5 to 000000000000b5c9
  DW_CFA_def_cfa_offset: 16
  DW_CFA_offset: r6 (rbp) at cfa-16
  DW_CFA_advance_loc: 3 to 000000000000b5cc
  DW_CFA_def_cfa_register: r6 (rbp)
  DW_CFA_advance_loc2: 631 to 000000000000b843
  DW_CFA_def_cfa: r7 (rsp) ofs 8
  DW_CFA_nop

00000a0c 000000000000001c 00000a10 FDE cie=00000000 pc=000000000000b844..000000000000b941
  DW_CFA_advance_loc: 5 to 000000000000b849
  DW_CFA_def_cfa_offset: 16
  DW_CFA_offset: r6 (rbp) at cfa-16
  DW_CFA_advance_loc: 3 to 000000000000b84c
  DW_CFA_def_cfa_register: r6 (rbp)
  DW_CFA_advance_loc1: 244 to 000000000000b940
  DW_CFA_def_cfa: r7 (rsp) ofs 8
  DW_CFA_nop
  DW_CFA_nop

00000a2c 000000000000001c 00000a30 FDE cie=00000000 pc=000000000000b941..000000000000b99f
  DW_CFA_advance_loc: 5 to 000000000000b946
  DW_CFA_def_cfa_offset: 16
  DW_CFA_offset: r6 (rbp) at cfa-16
  DW_CFA_advance_loc: 3 to 000000000000b949
  DW_CFA_def_cfa_register: r6 (rbp)
  DW_CFA_advance_loc1: 85 to 000000000000b99e
  DW_CFA_def_cfa: r7 (rsp) ofs 8
  DW_CFA_nop
  DW_CFA_nop

00000a4c 000000000000001c 00000a50 FDE cie=00000000 pc=000000000000b99f..000000000000bb9a
  DW_CFA_advance_loc: 5 to 000000000000b9a4
  DW_CFA_def_cfa_offset: 16
  DW_CFA_offset: r6 (rbp) at cfa-16
  DW_CFA_advance_loc: 3 to 000000000000b9a7
  DW_CFA_def_cfa_register: r6 (rbp)
  DW_CFA_advance_loc2: 498 to 000000000000bb99
  DW_CFA_def_cfa: r7 (rsp) ofs 8
  DW_CFA_nop

00000a6c 000000000000001c 00000a70 FDE cie=00000000 pc=000000000000bb9a..000000000000bc15
  DW_CFA_advance_loc: 5 to 000000000000bb9f
  DW_CFA_def_cfa_offset: 16
  DW_CFA_offset: r6 (rbp) at cfa-16
  DW_CFA_advance_loc: 3 to 000000000000bba2
  DW_CFA_def_cfa_register: r6 (rbp)
  DW_CFA_advance_loc1: 114 to 000000000000bc14
  DW_CFA_def_cfa: r7 (rsp) ofs 8
  DW_CFA_nop
  DW_CFA_nop

00000a8c 000000000000001c 00000a90 FDE cie=00000000 pc=000000000000bc15..000000000000bc34
  DW_CFA_advance_loc: 1 to 000000000000bc16
  DW_CFA_def_cfa_offset: 16
  DW_CFA_offset: r6 (rbp) at cfa-16
  DW_CFA_advance_loc: 3 to 000000000000bc19
  DW_CFA_def_cfa_register: r6 (rbp)
  DW_CFA_advance_loc: 26 to 000000000000bc33
  DW_CFA_def_cfa: r7 (rsp) ofs 8
  DW_CFA_nop
  DW_CFA_nop
  DW_CFA_nop

00000aac 000000000000001c 00000ab0 FDE cie=00000000 pc=000000000000bc34..000000000000bc53
  DW_CFA_advance_loc: 1 to 000000000000bc35
  DW_CFA_def_cfa_offset: 16
  DW_CFA_offset: r6 (rbp) at cfa-16
  DW_CFA_advance_loc: 3 to 000000000000bc38
  DW_CFA_def_cfa_register: r6 (rbp)
  DW_CFA_advance_loc: 26 to 000000000000bc52
  DW_CFA_def_cfa: r7 (rsp) ofs 8
  DW_CFA_nop
  DW_CFA_nop
  DW_CFA_nop

00000acc 000000000000001c 00000ad0 FDE cie=00000000 pc=000000000000bc53..000000000000bc95
  DW_CFA_advance_loc: 5 to 000000000000bc58
  DW_CFA_def_cfa_offset: 16
  DW_CFA_offset: r6 (rbp) at cfa-16
  DW_CFA_advance_loc: 3 to 000000000000bc5b
  DW_CFA_def_cfa_register: r6 (rbp)
  DW_CFA_advance_loc: 57 to 000000000000bc94
  DW_CFA_def_cfa: r7 (rsp) ofs 8
  DW_CFA_nop
  DW_CFA_nop
  DW_CFA_nop

00000aec 000000000000001c 00000af0 FDE cie=00000000 pc=000000000000bc95..000000000000bcf9
  DW_CFA_advance_loc: 5 to 000000000000bc9a
  DW_CFA_def_cfa_offset: 16
  DW_CFA_offset: r6 (rbp) at cfa-16
  DW_CFA_advance_loc: 3 to 000000000000bc9d
  DW_CFA_def_cfa_register: r6 (rbp)
  DW_CFA_advance_loc1: 91 to 000000000000bcf8
  DW_CFA_def_cfa: r7 (rsp) ofs 8
  DW_CFA_nop
  DW_CFA_nop

00000b0c 000000000000001c 00000b10 FDE cie=00000000 pc=000000000000bcf9..000000000000bd5e
  DW_CFA_advance_loc: 5 to 000000000000bcfe
  DW_CFA_def_cfa_offset: 16
  DW_CFA_offset: r6 (rbp) at cfa-16
  DW_CFA_advance_loc: 3 to 000000000000bd01
  DW_CFA_def_cfa_register: r6 (rbp)
  DW_CFA_advance_loc1: 92 to 000000000000bd5d
  DW_CFA_def_cfa: r7 (rsp) ofs 8
  DW_CFA_nop
  DW_CFA_nop

00000b2c 000000000000001c 00000b30 FDE cie=00000000 pc=000000000000bd5e..000000000000bddf
  DW_CFA_advance_loc: 5 to 000000000000bd63
  DW_CFA_def_cfa_offset: 16
  DW_CFA_offset: r6 (rbp) at cfa-16
  DW_CFA_advance_loc: 3 to 000000000000bd66
  DW_CFA_def_cfa_register: r6 (rbp)
  DW_CFA_advance_loc1: 120 to 000000000000bdde
  DW_CFA_def_cfa: r7 (rsp) ofs 8
  DW_CFA_nop
  DW_CFA_nop

00000b4c 000000000000001c 00000b50 FDE cie=00000000 pc=000000000000bddf..000000000000be73
  DW_CFA_advance_loc: 5 to 000000000000bde4
  DW_CFA_def_cfa_offset: 16
  DW_CFA_offset: r6 (rbp) at cfa-16
  DW_CFA_advance_loc: 3 to 000000000000bde7
  DW_CFA_def_cfa_register: r6 (rbp)
  DW_CFA_advance_loc1: 139 to 000000000000be72
  DW_CFA_def_cfa: r7 (rsp) ofs 8
  DW_CFA_nop
  DW_CFA_nop

00000b6c 000000000000001c 00000b70 FDE cie=00000000 pc=000000000000be73..000000000000c31c
  DW_CFA_advance_loc: 5 to 000000000000be78
  DW_CFA_def_cfa_offset: 16
  DW_CFA_offset: r6 (rbp) at cfa-16
  DW_CFA_advance_loc: 3 to 000000000000be7b
  DW_CFA_def_cfa_register: r6 (rbp)
  DW_CFA_advance_loc2: 1184 to 000000000000c31b
  DW_CFA_def_cfa: r7 (rsp) ofs 8
  DW_CFA_nop

00000b8c 000000000000001c 00000b90 FDE cie=00000000 pc=000000000000c31c..000000000000c3da
  DW_CFA_advance_loc: 5 to 000000000000c321
  DW_CFA_def_cfa_offset: 16
  DW_CFA_offset: r6 (rbp) at cfa-16
  DW_CFA_advance_loc: 3 to 000000000000c324
  DW_CFA_def_cfa_register: r6 (rbp)
  DW_CFA_advance_loc1: 181 to 000000000000c3d9
  DW_CFA_def_cfa: r7 (rsp) ofs 8
  DW_CFA_nop
  DW_CFA_nop

00000bac 000000000000001c 00000bb0 FDE cie=00000000 pc=000000000000c3da..000000000000c465
  DW_CFA_advance_loc: 5 to 000000000000c3df
  DW_CFA_def_cfa_offset: 16
  DW_CFA_offset: r6 (rbp) at cfa-16
  DW_CFA_advance_loc: 3 to 000000000000c3e2
  DW_CFA_def_cfa_register: r6 (rbp)
  DW_CFA_advance_loc1: 130 to 000000000000c464
  DW_CFA_def_cfa: r7 (rsp) ofs 8
  DW_CFA_nop
  DW_CFA_nop

00000bcc 000000000000001c 00000bd0 FDE cie=00000000 pc=000000000000c465..000000000000c50f
  DW_CFA_advance_loc: 5 to 000000000000c46a
  DW_CFA_def_cfa_offset: 16
  DW_CFA_offset: r6 (rbp) at cfa-16
  DW_CFA_advance_loc: 3 to 000000000000c46d
  DW_CFA_def_cfa_register: r6 (rbp)
  DW_CFA_advance_loc1: 161 to 000000000000c50e
  DW_CFA_def_cfa: r7 (rsp) ofs 8
  DW_CFA_nop
  DW_CFA_nop

00000bec 000000000000001c 00000bf0 FDE cie=00000000 pc=000000000000c50f..000000000000c576
  DW_CFA_advance_loc: 5 to 000000000000c514
  DW_CFA_def_cfa_offset: 16
  DW_CFA_offset: r6 (rbp) at cfa-16
  DW_CFA_advance_loc: 3 to 000000000000c517
  DW_CFA_def_cfa_register: r6 (rbp)
  DW_CFA_advance_loc1: 94 to 000000000000c575
  DW_CFA_def_cfa: r7 (rsp) ofs 8
  DW_CFA_nop
  DW_CFA_nop

00000c0c 000000000000001c 00000c10 FDE cie=00000000 pc=000000000000c576..000000000000c888
  DW_CFA_advance_loc: 5 to 000000000000c57b
  DW_CFA_def_cfa_offset: 16
  DW_CFA_offset: r6 (rbp) at cfa-16
  DW_CFA_advance_loc: 3 to 000000000000c57e
  DW_CFA_def_cfa_register: r6 (rbp)
  DW_CFA_advance_loc2: 777 to 000000000000c887
  DW_CFA_def_cfa: r7 (rsp) ofs 8
  DW_CFA_nop

00000c2c 000000000000001c 00000c30 FDE cie=00000000 pc=000000000000c888..000000000000cb0f
  DW_CFA_advance_loc: 5 to 000000000000c88d
  DW_CFA_def_cfa_offset: 16
  DW_CFA_offset: r6 (rbp) at cfa-16
  DW_CFA_advance_loc: 3 to 000000000000c890
  DW_CFA_def_cfa_register: r6 (rbp)
  DW_CFA_advance_loc2: 638 to 000000000000cb0e
  DW_CFA_def_cfa: r7 (rsp) ofs 8
  DW_CFA_nop

00000c4c 0000000000000020 00000c50 FDE cie=00000000 pc=000000000000cb0f..000000000000cbd2
  DW_CFA_advance_loc: 5 to 000000000000cb14
  DW_CFA_def_cfa_offset: 16
  DW_CFA_offset: r6 (rbp) at cfa-16
  DW_CFA_advance_loc: 3 to 000000000000cb17
  DW_CFA_def_cfa_register: r6 (rbp)
  DW_CFA_advance_loc: 5 to 000000000000cb1c
  DW_CFA_offset: r3 (rbx) at cfa-24
  DW_CFA_advance_loc1: 181 to 000000000000cbd1
  DW_CFA_def_cfa: r7 (rsp) ofs 8
  DW_CFA_nop
  DW_CFA_nop
  DW_CFA_nop

00000c70 000000000000001c 00000c74 FDE cie=00000000 pc=000000000000cbd2..000000000000cc47
  DW_CFA_advance_loc: 5 to 000000000000cbd7
  DW_CFA_def_cfa_offset: 16
  DW_CFA_offset: r6 (rbp) at cfa-16
  DW_CFA_advance_loc: 3 to 000000000000cbda
  DW_CFA_def_cfa_register: r6 (rbp)
  DW_CFA_advance_loc1: 108 to 000000000000cc46
  DW_CFA_def_cfa: r7 (rsp) ofs 8
  DW_CFA_nop
  DW_CFA_nop

00000c90 0000000000000020 00000c94 FDE cie=00000000 pc=000000000000cc47..000000000000d187
  DW_CFA_advance_loc: 5 to 000000000000cc4c
  DW_CFA_def_cfa_offset: 16
  DW_CFA_offset: r6 (rbp) at cfa-16
  DW_CFA_advance_loc: 3 to 000000000000cc4f
  DW_CFA_def_cfa_register: r6 (rbp)
  DW_CFA_advance_loc: 8 to 000000000000cc57
  DW_CFA_offset: r3 (rbx) at cfa-24
  DW_CFA_advance_loc2: 1327 to 000000000000d186
  DW_CFA_def_cfa: r7 (rsp) ofs 8
  DW_CFA_nop
  DW_CFA_nop

00000cb4 000000000000001c 00000cb8 FDE cie=00000000 pc=000000000000d187..000000000000d666
  DW_CFA_advance_loc: 5 to 000000000000d18c
  DW_CFA_def_cfa_offset: 16
  DW_CFA_offset: r6 (rbp) at cfa-16
  DW_CFA_advance_loc: 3 to 000000000000d18f
  DW_CFA_def_cfa_register: r6 (rbp)
  DW_CFA_advance_loc2: 1238 to 000000000000d665
  DW_CFA_def_cfa: r7 (rsp) ofs 8
  DW_CFA_nop

00000cd4 000000000000001c 00000cd8 FDE cie=00000000 pc=000000000000d666..000000000000d6ce
  DW_CFA_advance_loc: 5 to 000000000000d66b
  DW_CFA_def_cfa_offset: 16
  DW_CFA_offset: r6 (rbp) at cfa-16
  DW_CFA_advance_loc: 3 to 000000000000d66e
  DW_CFA_def_cfa_register: r6 (rbp)
  DW_CFA_advance_loc1: 95 to 000000000000d6cd
  DW_CFA_def_cfa: r7 (rsp) ofs 8
  DW_CFA_nop
  DW_CFA_nop

00000cf4 000000000000001c 00000cf8 FDE cie=00000000 pc=000000000000d6ce..000000000000d72f
  DW_CFA_advance_loc: 5 to 000000000000d6d3
  DW_CFA_def_cfa_offset: 16
  DW_CFA_offset: r6 (rbp) at cfa-16
  DW_CFA_advance_loc: 3 to 000000000000d6d6
  DW_CFA_def_cfa_register: r6 (rbp)
  DW_CFA_advance_loc: 7 to 000000000000d6dd
  DW_CFA_offset: r12 (r12) at cfa-24
  DW_CFA_offset: r3 (rbx) at cfa-32
  DW_CFA_nop
  DW_CFA_nop

00000d14 0000000000000018 00000d18 FDE cie=00000000 pc=000000000000d72f..000000000000d76c
  DW_CFA_advance_loc: 5 to 000000000000d734
  DW_CFA_def_cfa_offset: 16
  DW_CFA_offset: r6 (rbp) at cfa-16
  DW_CFA_advance_loc: 3 to 000000000000d737
  DW_CFA_def_cfa_register: r6 (rbp)
  DW_CFA_nop
  DW_CFA_nop
  DW_CFA_nop

00000d30 000000000000001c 00000d34 FDE cie=00000000 pc=000000000000d76c..000000000000d86c
  DW_CFA_advance_loc: 5 to 000000000000d771
  DW_CFA_def_cfa_offset: 16
  DW_CFA_offset: r6 (rbp) at cfa-16
  DW_CFA_advance_loc: 3 to 000000000000d774
  DW_CFA_def_cfa_register: r6 (rbp)
  DW_CFA_advance_loc1: 247 to 000000000000d86b
  DW_CFA_def_cfa: r7 (rsp) ofs 8
  DW_CFA_nop
  DW_CFA_nop

00000d50 0000000000000020 00000d54 FDE cie=00000000 pc=000000000000d86c..000000000000d987
  DW_CFA_advance_loc: 5 to 000000000000d871
  DW_CFA_def_cfa_offset: 16
  DW_CFA_offset: r6 (rbp) at cfa-16
  DW_CFA_advance_loc: 3 to 000000000000d874
  DW_CFA_def_cfa_register: r6 (rbp)
  DW_CFA_advance_loc: 7 to 000000000000d87b
  DW_CFA_offset: r12 (r12) at cfa-24
  DW_CFA_offset: r3 (rbx) at cfa-32
  DW_CFA_advance_loc2: 267 to 000000000000d986
  DW_CFA_def_cfa: r7 (rsp) ofs 8

00000d74 000000000000001c 00000d78 FDE cie=00000000 pc=000000000000d987..000000000000d9b7
  DW_CFA_advance_loc: 5 to 000000000000d98c
  DW_CFA_def_cfa_offset: 16
  DW_CFA_offset: r6 (rbp) at cfa-16
  DW_CFA_advance_loc: 3 to 000000000000d98f
  DW_CFA_def_cfa_register: r6 (rbp)
  DW_CFA_advance_loc: 39 to 000000000000d9b6
  DW_CFA_def_cfa: r7 (rsp) ofs 8
  DW_CFA_nop
  DW_CFA_nop
  DW_CFA_nop

00000d94 000000000000001c 00000d98 FDE cie=00000000 pc=000000000000d9b7..000000000000dae3
  DW_CFA_advance_loc: 5 to 000000000000d9bc
  DW_CFA_def_cfa_offset: 16
  DW_CFA_offset: r6 (rbp) at cfa-16
  DW_CFA_advance_loc: 3 to 000000000000d9bf
  DW_CFA_def_cfa_register: r6 (rbp)
  DW_CFA_advance_loc2: 291 to 000000000000dae2
  DW_CFA_def_cfa: r7 (rsp) ofs 8
  DW_CFA_nop

00000db4 000000000000001c 00000db8 FDE cie=00000000 pc=000000000000dae3..000000000000db1b
  DW_CFA_advance_loc: 5 to 000000000000dae8
  DW_CFA_def_cfa_offset: 16
  DW_CFA_offset: r6 (rbp) at cfa-16
  DW_CFA_advance_loc: 3 to 000000000000daeb
  DW_CFA_def_cfa_register: r6 (rbp)
  DW_CFA_advance_loc: 47 to 000000000000db1a
  DW_CFA_def_cfa: r7 (rsp) ofs 8
  DW_CFA_nop
  DW_CFA_nop
  DW_CFA_nop

00000dd4 0000000000000020 00000dd8 FDE cie=00000000 pc=000000000000db1b..000000000000f5a1
  DW_CFA_advance_loc: 5 to 000000000000db20
  DW_CFA_def_cfa_offset: 16
  DW_CFA_offset: r6 (rbp) at cfa-16
  DW_CFA_advance_loc: 3 to 000000000000db23
  DW_CFA_def_cfa_register: r6 (rbp)
  DW_CFA_advance_loc: 10 to 000000000000db2d
  DW_CFA_offset: r12 (r12) at cfa-24
  DW_CFA_offset: r3 (rbx) at cfa-32
  DW_CFA_advance_loc2: 6771 to 000000000000f5a0
  DW_CFA_def_cfa: r7 (rsp) ofs 8

00000df8 000000000000001c 00000dfc FDE cie=00000000 pc=000000000000f5a1..000000000000f5b6
  DW_CFA_advance_loc: 5 to 000000000000f5a6
  DW_CFA_def_cfa_offset: 16
  DW_CFA_offset: r6 (rbp) at cfa-16
  DW_CFA_advance_loc: 3 to 000000000000f5a9
  DW_CFA_def_cfa_register: r6 (rbp)
  DW_CFA_advance_loc: 12 to 000000000000f5b5
  DW_CFA_def_cfa: r7 (rsp) ofs 8
  DW_CFA_nop
  DW_CFA_nop
  DW_CFA_nop

00000e18 000000000000001c 00000e1c FDE cie=00000000 pc=000000000000f5b6..000000000000f6e9
  DW_CFA_advance_loc: 5 to 000000000000f5bb
  DW_CFA_def_cfa_offset: 16
  DW_CFA_offset: r6 (rbp) at cfa-16
  DW_CFA_advance_loc: 3 to 000000000000f5be
  DW_CFA_def_cfa_register: r6 (rbp)
  DW_CFA_advance_loc2: 298 to 000000000000f6e8
  DW_CFA_def_cfa: r7 (rsp) ofs 8
  DW_CFA_nop

00000e38 000000000000001c 00000e3c FDE cie=00000000 pc=000000000000f6e9..000000000000f75f
  DW_CFA_advance_loc: 5 to 000000000000f6ee
  DW_CFA_def_cfa_offset: 16
  DW_CFA_offset: r6 (rbp) at cfa-16
  DW_CFA_advance_loc: 3 to 000000000000f6f1
  DW_CFA_def_cfa_register: r6 (rbp)
  DW_CFA_advance_loc1: 109 to 000000000000f75e
  DW_CFA_def_cfa: r7 (rsp) ofs 8
  DW_CFA_nop
  DW_CFA_nop

00000e58 0000000000000020 00000e5c FDE cie=00000000 pc=000000000000f75f..000000000000f7f8
  DW_CFA_advance_loc: 5 to 000000000000f764
  DW_CFA_def_cfa_offset: 16
  DW_CFA_offset: r6 (rbp) at cfa-16
  DW_CFA_advance_loc: 3 to 000000000000f767
  DW_CFA_def_cfa_register: r6 (rbp)
  DW_CFA_advance_loc: 5 to 000000000000f76c
  DW_CFA_offset: r3 (rbx) at cfa-24
  DW_CFA_advance_loc1: 139 to 000000000000f7f7
  DW_CFA_def_cfa: r7 (rsp) ofs 8
  DW_CFA_nop
  DW_CFA_nop
  DW_CFA_nop

00000e7c 0000000000000020 00000e80 FDE cie=00000000 pc=000000000000f7f8..000000000000f94f
  DW_CFA_advance_loc: 5 to 000000000000f7fd
  DW_CFA_def_cfa_offset: 16
  DW_CFA_offset: r6 (rbp) at cfa-16
  DW_CFA_advance_loc: 3 to 000000000000f800
  DW_CFA_def_cfa_register: r6 (rbp)
  DW_CFA_advance_loc: 5 to 000000000000f805
  DW_CFA_offset: r3 (rbx) at cfa-24
  DW_CFA_advance_loc2: 329 to 000000000000f94e
  DW_CFA_def_cfa: r7 (rsp) ofs 8
  DW_CFA_nop
  DW_CFA_nop

00000ea0 000000000000001c 00000ea4 FDE cie=00000000 pc=000000000000f94f..000000000000f9fe
  DW_CFA_advance_loc: 5 to 000000000000f954
  DW_CFA_def_cfa_offset: 16
  DW_CFA_offset: r6 (rbp) at cfa-16
  DW_CFA_advance_loc: 3 to 000000000000f957
  DW_CFA_def_cfa_register: r6 (rbp)
  DW_CFA_advance_loc1: 166 to 000000000000f9fd
  DW_CFA_def_cfa: r7 (rsp) ofs 8
  DW_CFA_nop
  DW_CFA_nop

00000ec0 000000000000001c 00000ec4 FDE cie=00000000 pc=000000000000f9fe..000000000000fa8e
  DW_CFA_advance_loc: 5 to 000000000000fa03
  DW_CFA_def_cfa_offset: 16
  DW_CFA_offset: r6 (rbp) at cfa-16
  DW_CFA_advance_loc: 3 to 000000000000fa06
  DW_CFA_def_cfa_register: r6 (rbp)
  DW_CFA_advance_loc1: 135 to 000000000000fa8d
  DW_CFA_def_cfa: r7 (rsp) ofs 8
  DW_CFA_nop
  DW_CFA_nop

00000ee0 000000000000001c 00000ee4 FDE cie=00000000 pc=000000000000fa8e..000000000000faa8
  DW_CFA_advance_loc: 5 to 000000000000fa93
  DW_CFA_def_cfa_offset: 16
  DW_CFA_offset: r6 (rbp) at cfa-16
  DW_CFA_advance_loc: 3 to 000000000000fa96
  DW_CFA_def_cfa_register: r6 (rbp)
  DW_CFA_advance_loc: 17 to 000000000000faa7
  DW_CFA_def_cfa: r7 (rsp) ofs 8
  DW_CFA_nop
  DW_CFA_nop
  DW_CFA_nop

00000f00 000000000000001c 00000f04 FDE cie=00000000 pc=000000000000faa8..000000000000fac2
  DW_CFA_advance_loc: 5 to 000000000000faad
  DW_CFA_def_cfa_offset: 16
  DW_CFA_offset: r6 (rbp) at cfa-16
  DW_CFA_advance_loc: 3 to 000000000000fab0
  DW_CFA_def_cfa_register: r6 (rbp)
  DW_CFA_advance_loc: 17 to 000000000000fac1
  DW_CFA_def_cfa: r7 (rsp) ofs 8
  DW_CFA_nop
  DW_CFA_nop
  DW_CFA_nop

00000f20 0000000000000024 00000f24 FDE cie=00000000 pc=000000000000fac2..000000000000fbba
  DW_CFA_advance_loc: 5 to 000000000000fac7
  DW_CFA_def_cfa_offset: 16
  DW_CFA_offset: r6 (rbp) at cfa-16
  DW_CFA_advance_loc: 3 to 000000000000faca
  DW_CFA_def_cfa_register: r6 (rbp)
  DW_CFA_advance_loc: 5 to 000000000000facf
  DW_CFA_offset: r3 (rbx) at cfa-24
  DW_CFA_advance_loc1: 234 to 000000000000fbb9
  DW_CFA_def_cfa: r7 (rsp) ofs 8
  DW_CFA_nop
  DW_CFA_nop
  DW_CFA_nop
  DW_CFA_nop
  DW_CFA_nop
  DW_CFA_nop
  DW_CFA_nop

00000f48 000000000000001c 00000f4c FDE cie=00000000 pc=000000000000fbba..000000000000fc18
  DW_CFA_advance_loc: 5 to 000000000000fbbf
  DW_CFA_def_cfa_offset: 16
  DW_CFA_offset: r6 (rbp) at cfa-16
  DW_CFA_advance_loc: 3 to 000000000000fbc2
  DW_CFA_def_cfa_register: r6 (rbp)
  DW_CFA_advance_loc1: 85 to 000000000000fc17
  DW_CFA_def_cfa: r7 (rsp) ofs 8
  DW_CFA_nop
  DW_CFA_nop

00000f68 000000000000001c 00000f6c FDE cie=00000000 pc=000000000000fc18..000000000000fc33
  DW_CFA_advance_loc: 5 to 000000000000fc1d
  DW_CFA_def_cfa_offset: 16
  DW_CFA_offset: r6 (rbp) at cfa-16
  DW_CFA_advance_loc: 3 to 000000000000fc20
  DW_CFA_def_cfa_register: r6 (rbp)
  DW_CFA_advance_loc: 18 to 000000000000fc32
  DW_CFA_def_cfa: r7 (rsp) ofs 8
  DW_CFA_nop
  DW_CFA_nop
  DW_CFA_nop

00000f88 000000000000001c 00000f8c FDE cie=00000000 pc=000000000000fc33..000000000000fcb4
  DW_CFA_advance_loc: 5 to 000000000000fc38
  DW_CFA_def_cfa_offset: 16
  DW_CFA_offset: r6 (rbp) at cfa-16
  DW_CFA_advance_loc: 3 to 000000000000fc3b
  DW_CFA_def_cfa_register: r6 (rbp)
  DW_CFA_advance_loc1: 120 to 000000000000fcb3
  DW_CFA_def_cfa: r7 (rsp) ofs 8
  DW_CFA_nop
  DW_CFA_nop

00000fa8 000000000000001c 00000fac FDE cie=00000000 pc=000000000000fcb4..000000000000fdd7
  DW_CFA_advance_loc: 5 to 000000000000fcb9
  DW_CFA_def_cfa_offset: 16
  DW_CFA_offset: r6 (rbp) at cfa-16
  DW_CFA_advance_loc: 3 to 000000000000fcbc
  DW_CFA_def_cfa_register: r6 (rbp)
  DW_CFA_advance_loc2: 282 to 000000000000fdd6
  DW_CFA_def_cfa: r7 (rsp) ofs 8
  DW_CFA_nop

00000fc8 000000000000001c 00000fcc FDE cie=00000000 pc=000000000000fdd7..000000000000fe68
  DW_CFA_advance_loc: 5 to 000000000000fddc
  DW_CFA_def_cfa_offset: 16
  DW_CFA_offset: r6 (rbp) at cfa-16
  DW_CFA_advance_loc: 3 to 000000000000fddf
  DW_CFA_def_cfa_register: r6 (rbp)
  DW_CFA_advance_loc1: 136 to 000000000000fe67
  DW_CFA_def_cfa: r7 (rsp) ofs 8
  DW_CFA_nop
  DW_CFA_nop

00000fe8 000000000000001c 00000fec FDE cie=00000000 pc=000000000000fe68..000000000001009c
  DW_CFA_advance_loc: 5 to 000000000000fe6d
  DW_CFA_def_cfa_offset: 16
  DW_CFA_offset: r6 (rbp) at cfa-16
  DW_CFA_advance_loc: 3 to 000000000000fe70
  DW_CFA_def_cfa_register: r6 (rbp)
  DW_CFA_advance_loc2: 555 to 000000000001009b
  DW_CFA_def_cfa: r7 (rsp) ofs 8
  DW_CFA_nop

00001008 000000000000001c 0000100c FDE cie=00000000 pc=000000000001009c..00000000000113fc
  DW_CFA_advance_loc: 5 to 00000000000100a1
  DW_CFA_def_cfa_offset: 16
  DW_CFA_offset: r6 (rbp) at cfa-16
  DW_CFA_advance_loc: 3 to 00000000000100a4
  DW_CFA_def_cfa_register: r6 (rbp)
  DW_CFA_advance_loc2: 4951 to 00000000000113fb
  DW_CFA_def_cfa: r7 (rsp) ofs 8
  DW_CFA_nop

00001028 000000000000001c 0000102c FDE cie=00000000 pc=00000000000113fc..0000000000011431
  DW_CFA_advance_loc: 5 to 0000000000011401
  DW_CFA_def_cfa_offset: 16
  DW_CFA_offset: r6 (rbp) at cfa-16
  DW_CFA_advance_loc: 3 to 0000000000011404
  DW_CFA_def_cfa_register: r6 (rbp)
  DW_CFA_advance_loc: 44 to 0000000000011430
  DW_CFA_def_cfa: r7 (rsp) ofs 8
  DW_CFA_nop
  DW_CFA_nop
  DW_CFA_nop

00001048 000000000000001c 0000104c FDE cie=00000000 pc=0000000000011431..0000000000011470
  DW_CFA_advance_loc: 5 to 0000000000011436
  DW_CFA_def_cfa_offset: 16
  DW_CFA_offset: r6 (rbp) at cfa-16
  DW_CFA_advance_loc: 3 to 0000000000011439
  DW_CFA_def_cfa_register: r6 (rbp)
  DW_CFA_advance_loc: 54 to 000000000001146f
  DW_CFA_def_cfa: r7 (rsp) ofs 8
  DW_CFA_nop
  DW_CFA_nop
  DW_CFA_nop

00001068 000000000000001c 0000106c FDE cie=00000000 pc=0000000000011470..0000000000011529
  DW_CFA_advance_loc: 5 to 0000000000011475
  DW_CFA_def_cfa_offset: 16
  DW_CFA_offset: r6 (rbp) at cfa-16
  DW_CFA_advance_loc: 3 to 0000000000011478
  DW_CFA_def_cfa_register: r6 (rbp)
  DW_CFA_advance_loc1: 176 to 0000000000011528
  DW_CFA_def_cfa: r7 (rsp) ofs 8
  DW_CFA_nop
  DW_CFA_nop

00001088 000000000000001c 0000108c FDE cie=00000000 pc=0000000000011529..0000000000011561
  DW_CFA_advance_loc: 5 to 000000000001152e
  DW_CFA_def_cfa_offset: 16
  DW_CFA_offset: r6 (rbp) at cfa-16
  DW_CFA_advance_loc: 3 to 0000000000011531
  DW_CFA_def_cfa_register: r6 (rbp)
  DW_CFA_advance_loc: 47 to 0000000000011560
  DW_CFA_def_cfa: r7 (rsp) ofs 8
  DW_CFA_nop
  DW_CFA_nop
  DW_CFA_nop

000010a8 000000000000001c 000010ac FDE cie=00000000 pc=0000000000011561..00000000000115b0
  DW_CFA_advance_loc: 5 to 0000000000011566
  DW_CFA_def_cfa_offset: 16
  DW_CFA_offset: r6 (rbp) at cfa-16
  DW_CFA_advance_loc: 3 to 0000000000011569
  DW_CFA_def_cfa_register: r6 (rbp)
  DW_CFA_advance_loc1: 70 to 00000000000115af
  DW_CFA_def_cfa: r7 (rsp) ofs 8
  DW_CFA_nop
  DW_CFA_nop

000010c8 000000000000001c 000010cc FDE cie=00000000 pc=00000000000115b0..00000000000116d1
  DW_CFA_advance_loc: 5 to 00000000000115b5
  DW_CFA_def_cfa_offset: 16
  DW_CFA_offset: r6 (rbp) at cfa-16
  DW_CFA_advance_loc: 3 to 00000000000115b8
  DW_CFA_def_cfa_register: r6 (rbp)
  DW_CFA_advance_loc2: 280 to 00000000000116d0
  DW_CFA_def_cfa: r7 (rsp) ofs 8
  DW_CFA_nop

000010e8 000000000000001c 000010ec FDE cie=00000000 pc=00000000000116d1..000000000001174e
  DW_CFA_advance_loc: 5 to 00000000000116d6
  DW_CFA_def_cfa_offset: 16
  DW_CFA_offset: r6 (rbp) at cfa-16
  DW_CFA_advance_loc: 3 to 00000000000116d9
  DW_CFA_def_cfa_register: r6 (rbp)
  DW_CFA_advance_loc1: 116 to 000000000001174d
  DW_CFA_def_cfa: r7 (rsp) ofs 8
  DW_CFA_nop
  DW_CFA_nop

00001108 000000000000001c 0000110c FDE cie=00000000 pc=000000000001174e..0000000000011986
  DW_CFA_advance_loc: 5 to 0000000000011753
  DW_CFA_def_cfa_offset: 16
  DW_CFA_offset: r6 (rbp) at cfa-16
  DW_CFA_advance_loc: 3 to 0000000000011756
  DW_CFA_def_cfa_register: r6 (rbp)
  DW_CFA_advance_loc2: 559 to 0000000000011985
  DW_CFA_def_cfa: r7 (rsp) ofs 8
  DW_CFA_nop

00001128 000000000000001c 0000112c FDE cie=00000000 pc=0000000000011986..00000000000119ba
  DW_CFA_advance_loc: 5 to 000000000001198b
  DW_CFA_def_cfa_offset: 16
  DW_CFA_offset: r6 (rbp) at cfa-16
  DW_CFA_advance_loc: 3 to 000000000001198e
  DW_CFA_def_cfa_register: r6 (rbp)
  DW_CFA_advance_loc: 43 to 00000000000119b9
  DW_CFA_def_cfa: r7 (rsp) ofs 8
  DW_CFA_nop
  DW_CFA_nop
  DW_CFA_nop

00001148 000000000000001c 0000114c FDE cie=00000000 pc=00000000000119ba..0000000000011c45
  DW_CFA_advance_loc: 5 to 00000000000119bf
  DW_CFA_def_cfa_offset: 16
  DW_CFA_offset: r6 (rbp) at cfa-16
  DW_CFA_advance_loc: 3 to 00000000000119c2
  DW_CFA_def_cfa_register: r6 (rbp)
  DW_CFA_advance_loc2: 642 to 0000000000011c44
  DW_CFA_def_cfa: r7 (rsp) ofs 8
  DW_CFA_nop

00001168 0000000000000024 0000116c FDE cie=00000000 pc=0000000000011c45..0000000000011cc8
  DW_CFA_advance_loc: 5 to 0000000000011c4a
  DW_CFA_def_cfa_offset: 16
  DW_CFA_offset: r6 (rbp) at cfa-16
  DW_CFA_advance_loc: 3 to 0000000000011c4d
  DW_CFA_def_cfa_register: r6 (rbp)
  DW_CFA_advance_loc: 5 to 0000000000011c52
  DW_CFA_offset: r3 (rbx) at cfa-24
  DW_CFA_advance_loc1: 117 to 0000000000011cc7
  DW_CFA_def_cfa: r7 (rsp) ofs 8
  DW_CFA_nop
  DW_CFA_nop
  DW_CFA_nop
  DW_CFA_nop
  DW_CFA_nop
  DW_CFA_nop
  DW_CFA_nop

00001190 000000000000001c 00001194 FDE cie=00000000 pc=0000000000011cc8..0000000000011d86
  DW_CFA_advance_loc: 5 to 0000000000011ccd
  DW_CFA_def_cfa_offset: 16
  DW_CFA_offset: r6 (rbp) at cfa-16
  DW_CFA_advance_loc: 3 to 0000000000011cd0
  DW_CFA_def_cfa_register: r6 (rbp)
  DW_CFA_advance_loc1: 181 to 0000000000011d85
  DW_CFA_def_cfa: r7 (rsp) ofs 8
  DW_CFA_nop
  DW_CFA_nop

000011b0 000000000000001c 000011b4 FDE cie=00000000 pc=0000000000011d86..0000000000011e30
  DW_CFA_advance_loc: 5 to 0000000000011d8b
  DW_CFA_def_cfa_offset: 16
  DW_CFA_offset: r6 (rbp) at cfa-16
  DW_CFA_advance_loc: 3 to 0000000000011d8e
  DW_CFA_def_cfa_register: r6 (rbp)
  DW_CFA_advance_loc1: 161 to 0000000000011e2f
  DW_CFA_def_cfa: r7 (rsp) ofs 8
  DW_CFA_nop
  DW_CFA_nop

000011d0 000000000000001c 000011d4 FDE cie=00000000 pc=0000000000011e30..0000000000011e46
  DW_CFA_advance_loc: 5 to 0000000000011e35
  DW_CFA_def_cfa_offset: 16
  DW_CFA_offset: r6 (rbp) at cfa-16
  DW_CFA_advance_loc: 3 to 0000000000011e38
  DW_CFA_def_cfa_register: r6 (rbp)
  DW_CFA_advance_loc: 13 to 0000000000011e45
  DW_CFA_def_cfa: r7 (rsp) ofs 8
  DW_CFA_nop
  DW_CFA_nop
  DW_CFA_nop

000011f0 000000000000001c 000011f4 FDE cie=00000000 pc=0000000000011e46..0000000000011e5c
  DW_CFA_advance_loc: 5 to 0000000000011e4b
  DW_CFA_def_cfa_offset: 16
  DW_CFA_offset: r6 (rbp) at cfa-16
  DW_CFA_advance_loc: 3 to 0000000000011e4e
  DW_CFA_def_cfa_register: r6 (rbp)
  DW_CFA_advance_loc: 13 to 0000000000011e5b
  DW_CFA_def_cfa: r7 (rsp) ofs 8
  DW_CFA_nop
  DW_CFA_nop
  DW_CFA_nop

00001210 000000000000001c 00001214 FDE cie=00000000 pc=0000000000011e5c..0000000000011e72
  DW_CFA_advance_loc: 5 to 0000000000011e61
  DW_CFA_def_cfa_offset: 16
  DW_CFA_offset: r6 (rbp) at cfa-16
  DW_CFA_advance_loc: 3 to 0000000000011e64
  DW_CFA_def_cfa_register: r6 (rbp)
  DW_CFA_advance_loc: 13 to 0000000000011e71
  DW_CFA_def_cfa: r7 (rsp) ofs 8
  DW_CFA_nop
  DW_CFA_nop
  DW_CFA_nop

00001230 000000000000001c 00001234 FDE cie=00000000 pc=0000000000011e72..0000000000011ef4
  DW_CFA_advance_loc: 5 to 0000000000011e77
  DW_CFA_def_cfa_offset: 16
  DW_CFA_offset: r6 (rbp) at cfa-16
  DW_CFA_advance_loc: 3 to 0000000000011e7a
  DW_CFA_def_cfa_register: r6 (rbp)
  DW_CFA_advance_loc1: 121 to 0000000000011ef3
  DW_CFA_def_cfa: r7 (rsp) ofs 8
  DW_CFA_nop
  DW_CFA_nop

00001250 000000000000001c 00001254 FDE cie=00000000 pc=0000000000011ef4..0000000000011f92
  DW_CFA_advance_loc: 5 to 0000000000011ef9
  DW_CFA_def_cfa_offset: 16
  DW_CFA_offset: r6 (rbp) at cfa-16
  DW_CFA_advance_loc: 3 to 0000000000011efc
  DW_CFA_def_cfa_register: r6 (rbp)
  DW_CFA_advance_loc1: 149 to 0000000000011f91
  DW_CFA_def_cfa: r7 (rsp) ofs 8
  DW_CFA_nop
  DW_CFA_nop

00001270 000000000000001c 00001274 FDE cie=00000000 pc=0000000000011f92..00000000000120d9
  DW_CFA_advance_loc: 5 to 0000000000011f97
  DW_CFA_def_cfa_offset: 16
  DW_CFA_offset: r6 (rbp) at cfa-16
  DW_CFA_advance_loc: 3 to 0000000000011f9a
  DW_CFA_def_cfa_register: r6 (rbp)
  DW_CFA_advance_loc2: 318 to 00000000000120d8
  DW_CFA_def_cfa: r7 (rsp) ofs 8
  DW_CFA_nop

00001290 000000000000001c 00001294 FDE cie=00000000 pc=00000000000120d9..0000000000012134
  DW_CFA_advance_loc: 5 to 00000000000120de
  DW_CFA_def_cfa_offset: 16
  DW_CFA_offset: r6 (rbp) at cfa-16
  DW_CFA_advance_loc: 3 to 00000000000120e1
  DW_CFA_def_cfa_register: r6 (rbp)
  DW_CFA_advance_loc1: 82 to 0000000000012133
  DW_CFA_def_cfa: r7 (rsp) ofs 8
  DW_CFA_nop
  DW_CFA_nop

000012b0 000000000000001c 000012b4 FDE cie=00000000 pc=0000000000012134..00000000000121cb
  DW_CFA_advance_loc: 5 to 0000000000012139
  DW_CFA_def_cfa_offset: 16
  DW_CFA_offset: r6 (rbp) at cfa-16
  DW_CFA_advance_loc: 3 to 000000000001213c
  DW_CFA_def_cfa_register: r6 (rbp)
  DW_CFA_advance_loc1: 142 to 00000000000121ca
  DW_CFA_def_cfa: r7 (rsp) ofs 8
  DW_CFA_nop
  DW_CFA_nop

000012d0 000000000000001c 000012d4 FDE cie=00000000 pc=00000000000121cb..000000000001222b
  DW_CFA_advance_loc: 5 to 00000000000121d0
  DW_CFA_def_cfa_offset: 16
  DW_CFA_offset: r6 (rbp) at cfa-16
  DW_CFA_advance_loc: 3 to 00000000000121d3
  DW_CFA_def_cfa_register: r6 (rbp)
  DW_CFA_advance_loc1: 87 to 000000000001222a
  DW_CFA_def_cfa: r7 (rsp) ofs 8
  DW_CFA_nop
  DW_CFA_nop

000012f0 000000000000001c 000012f4 FDE cie=00000000 pc=000000000001222b..00000000000122c9
  DW_CFA_advance_loc: 5 to 0000000000012230
  DW_CFA_def_cfa_offset: 16
  DW_CFA_offset: r6 (rbp) at cfa-16
  DW_CFA_advance_loc: 3 to 0000000000012233
  DW_CFA_def_cfa_register: r6 (rbp)
  DW_CFA_advance_loc1: 149 to 00000000000122c8
  DW_CFA_def_cfa: r7 (rsp) ofs 8
  DW_CFA_nop
  DW_CFA_nop

00001310 000000000000001c 00001314 FDE cie=00000000 pc=00000000000122c9..0000000000012369
  DW_CFA_advance_loc: 5 to 00000000000122ce
  DW_CFA_def_cfa_offset: 16
  DW_CFA_offset: r6 (rbp) at cfa-16
  DW_CFA_advance_loc: 3 to 00000000000122d1
  DW_CFA_def_cfa_register: r6 (rbp)
  DW_CFA_advance_loc1: 151 to 0000000000012368
  DW_CFA_def_cfa: r7 (rsp) ofs 8
  DW_CFA_nop
  DW_CFA_nop

00001330 000000000000001c 00001334 FDE cie=00000000 pc=0000000000012369..0000000000012401
  DW_CFA_advance_loc: 5 to 000000000001236e
  DW_CFA_def_cfa_offset: 16
  DW_CFA_offset: r6 (rbp) at cfa-16
  DW_CFA_advance_loc: 3 to 0000000000012371
  DW_CFA_def_cfa_register: r6 (rbp)
  DW_CFA_advance_loc1: 143 to 0000000000012400
  DW_CFA_def_cfa: r7 (rsp) ofs 8
  DW_CFA_nop
  DW_CFA_nop

00001350 000000000000001c 00001354 FDE cie=00000000 pc=0000000000012401..000000000001245b
  DW_CFA_advance_loc: 5 to 0000000000012406
  DW_CFA_def_cfa_offset: 16
  DW_CFA_offset: r6 (rbp) at cfa-16
  DW_CFA_advance_loc: 3 to 0000000000012409
  DW_CFA_def_cfa_register: r6 (rbp)
  DW_CFA_advance_loc1: 81 to 000000000001245a
  DW_CFA_def_cfa: r7 (rsp) ofs 8
  DW_CFA_nop
  DW_CFA_nop

00001370 000000000000001c 00001374 FDE cie=00000000 pc=000000000001245b..00000000000124ca
  DW_CFA_advance_loc: 5 to 0000000000012460
  DW_CFA_def_cfa_offset: 16
  DW_CFA_offset: r6 (rbp) at cfa-16
  DW_CFA_advance_loc: 3 to 0000000000012463
  DW_CFA_def_cfa_register: r6 (rbp)
  DW_CFA_advance_loc1: 102 to 00000000000124c9
  DW_CFA_def_cfa: r7 (rsp) ofs 8
  DW_CFA_nop
  DW_CFA_nop

00001390 000000000000001c 00001394 FDE cie=00000000 pc=00000000000124ca..0000000000012515
  DW_CFA_advance_loc: 5 to 00000000000124cf
  DW_CFA_def_cfa_offset: 16
  DW_CFA_offset: r6 (rbp) at cfa-16
  DW_CFA_advance_loc: 3 to 00000000000124d2
  DW_CFA_def_cfa_register: r6 (rbp)
  DW_CFA_advance_loc1: 66 to 0000000000012514
  DW_CFA_def_cfa: r7 (rsp) ofs 8
  DW_CFA_nop
  DW_CFA_nop

000013b0 000000000000001c 000013b4 FDE cie=00000000 pc=0000000000012515..000000000001256b
  DW_CFA_advance_loc: 5 to 000000000001251a
  DW_CFA_def_cfa_offset: 16
  DW_CFA_offset: r6 (rbp) at cfa-16
  DW_CFA_advance_loc: 3 to 000000000001251d
  DW_CFA_def_cfa_register: r6 (rbp)
  DW_CFA_advance_loc1: 77 to 000000000001256a
  DW_CFA_def_cfa: r7 (rsp) ofs 8
  DW_CFA_nop
  DW_CFA_nop

000013d0 000000000000001c 000013d4 FDE cie=00000000 pc=000000000001256b..00000000000125a6
  DW_CFA_advance_loc: 5 to 0000000000012570
  DW_CFA_def_cfa_offset: 16
  DW_CFA_offset: r6 (rbp) at cfa-16
  DW_CFA_advance_loc: 3 to 0000000000012573
  DW_CFA_def_cfa_register: r6 (rbp)
  DW_CFA_advance_loc: 50 to 00000000000125a5
  DW_CFA_def_cfa: r7 (rsp) ofs 8
  DW_CFA_nop
  DW_CFA_nop
  DW_CFA_nop

000013f0 000000000000001c 000013f4 FDE cie=00000000 pc=00000000000125a6..00000000000125c3
  DW_CFA_advance_loc: 5 to 00000000000125ab
  DW_CFA_def_cfa_offset: 16
  DW_CFA_offset: r6 (rbp) at cfa-16
  DW_CFA_advance_loc: 3 to 00000000000125ae
  DW_CFA_def_cfa_register: r6 (rbp)
  DW_CFA_advance_loc: 20 to 00000000000125c2
  DW_CFA_def_cfa: r7 (rsp) ofs 8
  DW_CFA_nop
  DW_CFA_nop
  DW_CFA_nop

00001410 000000000000001c 00001414 FDE cie=00000000 pc=00000000000125c3..00000000000126d0
  DW_CFA_advance_loc: 5 to 00000000000125c8
  DW_CFA_def_cfa_offset: 16
  DW_CFA_offset: r6 (rbp) at cfa-16
  DW_CFA_advance_loc: 3 to 00000000000125cb
  DW_CFA_def_cfa_register: r6 (rbp)
  DW_CFA_advance_loc2: 260 to 00000000000126cf
  DW_CFA_def_cfa: r7 (rsp) ofs 8
  DW_CFA_nop

00001430 000000000000001c 00001434 FDE cie=00000000 pc=00000000000126d0..00000000000127e9
  DW_CFA_advance_loc: 5 to 00000000000126d5
  DW_CFA_def_cfa_offset: 16
  DW_CFA_offset: r6 (rbp) at cfa-16
  DW_CFA_advance_loc: 3 to 00000000000126d8
  DW_CFA_def_cfa_register: r6 (rbp)
  DW_CFA_advance_loc2: 272 to 00000000000127e8
  DW_CFA_def_cfa: r7 (rsp) ofs 8
  DW_CFA_nop

00001450 000000000000001c 00001454 FDE cie=00000000 pc=00000000000127e9..000000000001295e
  DW_CFA_advance_loc: 5 to 00000000000127ee
  DW_CFA_def_cfa_offset: 16
  DW_CFA_offset: r6 (rbp) at cfa-16
  DW_CFA_advance_loc: 3 to 00000000000127f1
  DW_CFA_def_cfa_register: r6 (rbp)
  DW_CFA_advance_loc2: 364 to 000000000001295d
  DW_CFA_def_cfa: r7 (rsp) ofs 8
  DW_CFA_nop

00001470 000000000000001c 00001474 FDE cie=00000000 pc=000000000001295e..0000000000012a69
  DW_CFA_advance_loc: 5 to 0000000000012963
  DW_CFA_def_cfa_offset: 16
  DW_CFA_offset: r6 (rbp) at cfa-16
  DW_CFA_advance_loc: 3 to 0000000000012966
  DW_CFA_def_cfa_register: r6 (rbp)
  DW_CFA_advance_loc2: 258 to 0000000000012a68
  DW_CFA_def_cfa: r7 (rsp) ofs 8
  DW_CFA_nop

00001490 000000000000001c 00001494 FDE cie=00000000 pc=0000000000012a69..0000000000012b98
  DW_CFA_advance_loc: 5 to 0000000000012a6e
  DW_CFA_def_cfa_offset: 16
  DW_CFA_offset: r6 (rbp) at cfa-16
  DW_CFA_advance_loc: 3 to 0000000000012a71
  DW_CFA_def_cfa_register: r6 (rbp)
  DW_CFA_advance_loc2: 294 to 0000000000012b97
  DW_CFA_def_cfa: r7 (rsp) ofs 8
  DW_CFA_nop

000014b0 000000000000001c 000014b4 FDE cie=00000000 pc=0000000000012b98..0000000000012be7
  DW_CFA_advance_loc: 5 to 0000000000012b9d
  DW_CFA_def_cfa_offset: 16
  DW_CFA_offset: r6 (rbp) at cfa-16
  DW_CFA_advance_loc: 3 to 0000000000012ba0
  DW_CFA_def_cfa_register: r6 (rbp)
  DW_CFA_advance_loc1: 70 to 0000000000012be6
  DW_CFA_def_cfa: r7 (rsp) ofs 8
  DW_CFA_nop
  DW_CFA_nop

000014d0 000000000000001c 000014d4 FDE cie=00000000 pc=0000000000012be7..0000000000012c21
  DW_CFA_advance_loc: 5 to 0000000000012bec
  DW_CFA_def_cfa_offset: 16
  DW_CFA_offset: r6 (rbp) at cfa-16
  DW_CFA_advance_loc: 3 to 0000000000012bef
  DW_CFA_def_cfa_register: r6 (rbp)
  DW_CFA_advance_loc: 49 to 0000000000012c20
  DW_CFA_def_cfa: r7 (rsp) ofs 8
  DW_CFA_nop
  DW_CFA_nop
  DW_CFA_nop

000014f0 000000000000001c 000014f4 FDE cie=00000000 pc=0000000000012c21..0000000000012dba
  DW_CFA_advance_loc: 5 to 0000000000012c26
  DW_CFA_def_cfa_offset: 16
  DW_CFA_offset: r6 (rbp) at cfa-16
  DW_CFA_advance_loc: 3 to 0000000000012c29
  DW_CFA_def_cfa_register: r6 (rbp)
  DW_CFA_advance_loc2: 400 to 0000000000012db9
  DW_CFA_def_cfa: r7 (rsp) ofs 8
  DW_CFA_nop

00001510 000000000000001c 00001514 FDE cie=00000000 pc=0000000000012dba..0000000000012f8e
  DW_CFA_advance_loc: 5 to 0000000000012dbf
  DW_CFA_def_cfa_offset: 16
  DW_CFA_offset: r6 (rbp) at cfa-16
  DW_CFA_advance_loc: 3 to 0000000000012dc2
  DW_CFA_def_cfa_register: r6 (rbp)
  DW_CFA_advance_loc2: 459 to 0000000000012f8d
  DW_CFA_def_cfa: r7 (rsp) ofs 8
  DW_CFA_nop

00001530 000000000000001c 00001534 FDE cie=00000000 pc=0000000000012f8e..00000000000131b9
  DW_CFA_advance_loc: 5 to 0000000000012f93
  DW_CFA_def_cfa_offset: 16
  DW_CFA_offset: r6 (rbp) at cfa-16
  DW_CFA_advance_loc: 3 to 0000000000012f96
  DW_CFA_def_cfa_register: r6 (rbp)
  DW_CFA_advance_loc2: 546 to 00000000000131b8
  DW_CFA_def_cfa: r7 (rsp) ofs 8
  DW_CFA_nop

00001550 000000000000001c 00001554 FDE cie=00000000 pc=00000000000131b9..000000000001352a
  DW_CFA_advance_loc: 5 to 00000000000131be
  DW_CFA_def_cfa_offset: 16
  DW_CFA_offset: r6 (rbp) at cfa-16
  DW_CFA_advance_loc: 3 to 00000000000131c1
  DW_CFA_def_cfa_register: r6 (rbp)
  DW_CFA_advance_loc2: 872 to 0000000000013529
  DW_CFA_def_cfa: r7 (rsp) ofs 8
  DW_CFA_nop

00001570 000000000000001c 00001574 FDE cie=00000000 pc=000000000001352a..000000000001359a
  DW_CFA_advance_loc: 5 to 000000000001352f
  DW_CFA_def_cfa_offset: 16
  DW_CFA_offset: r6 (rbp) at cfa-16
  DW_CFA_advance_loc: 3 to 0000000000013532
  DW_CFA_def_cfa_register: r6 (rbp)
  DW_CFA_advance_loc1: 103 to 0000000000013599
  DW_CFA_def_cfa: r7 (rsp) ofs 8
  DW_CFA_nop
  DW_CFA_nop

00001590 000000000000001c 00001594 FDE cie=00000000 pc=000000000001359a..00000000000138a0
  DW_CFA_advance_loc: 5 to 000000000001359f
  DW_CFA_def_cfa_offset: 16
  DW_CFA_offset: r6 (rbp) at cfa-16
  DW_CFA_advance_loc: 3 to 00000000000135a2
  DW_CFA_def_cfa_register: r6 (rbp)
  DW_CFA_advance_loc2: 765 to 000000000001389f
  DW_CFA_def_cfa: r7 (rsp) ofs 8
  DW_CFA_nop

000015b0 000000000000001c 000015b4 FDE cie=00000000 pc=00000000000138a0..00000000000138c9
  DW_CFA_advance_loc: 5 to 00000000000138a5
  DW_CFA_def_cfa_offset: 16
  DW_CFA_offset: r6 (rbp) at cfa-16
  DW_CFA_advance_loc: 3 to 00000000000138a8
  DW_CFA_def_cfa_register: r6 (rbp)
  DW_CFA_advance_loc: 32 to 00000000000138c8
  DW_CFA_def_cfa: r7 (rsp) ofs 8
  DW_CFA_nop
  DW_CFA_nop
  DW_CFA_nop

000015d0 000000000000001c 000015d4 FDE cie=00000000 pc=00000000000138c9..000000000001395d
  DW_CFA_advance_loc: 5 to 00000000000138ce
  DW_CFA_def_cfa_offset: 16
  DW_CFA_offset: r6 (rbp) at cfa-16
  DW_CFA_advance_loc: 3 to 00000000000138d1
  DW_CFA_def_cfa_register: r6 (rbp)
  DW_CFA_advance_loc1: 139 to 000000000001395c
  DW_CFA_def_cfa: r7 (rsp) ofs 8
  DW_CFA_nop
  DW_CFA_nop

000015f0 000000000000001c 000015f4 FDE cie=00000000 pc=000000000001395d..0000000000013974
  DW_CFA_advance_loc: 5 to 0000000000013962
  DW_CFA_def_cfa_offset: 16
  DW_CFA_offset: r6 (rbp) at cfa-16
  DW_CFA_advance_loc: 3 to 0000000000013965
  DW_CFA_def_cfa_register: r6 (rbp)
  DW_CFA_advance_loc: 14 to 0000000000013973
  DW_CFA_def_cfa: r7 (rsp) ofs 8
  DW_CFA_nop
  DW_CFA_nop
  DW_CFA_nop

00001610 000000000000001c 00001614 FDE cie=00000000 pc=0000000000013974..00000000000139a2
  DW_CFA_advance_loc: 5 to 0000000000013979
  DW_CFA_def_cfa_offset: 16
  DW_CFA_offset: r6 (rbp) at cfa-16
  DW_CFA_advance_loc: 3 to 000000000001397c
  DW_CFA_def_cfa_register: r6 (rbp)
  DW_CFA_advance_loc: 37 to 00000000000139a1
  DW_CFA_def_cfa: r7 (rsp) ofs 8
  DW_CFA_nop
  DW_CFA_nop
  DW_CFA_nop

00001630 000000000000001c 00001634 FDE cie=00000000 pc=00000000000139a2..0000000000013a50
  DW_CFA_advance_loc: 5 to 00000000000139a7
  DW_CFA_def_cfa_offset: 16
  DW_CFA_offset: r6 (rbp) at cfa-16
  DW_CFA_advance_loc: 3 to 00000000000139aa
  DW_CFA_def_cfa_register: r6 (rbp)
  DW_CFA_advance_loc1: 165 to 0000000000013a4f
  DW_CFA_def_cfa: r7 (rsp) ofs 8
  DW_CFA_nop
  DW_CFA_nop

00001650 000000000000001c 00001654 FDE cie=00000000 pc=0000000000013a50..0000000000013ae4
  DW_CFA_advance_loc: 5 to 0000000000013a55
  DW_CFA_def_cfa_offset: 16
  DW_CFA_offset: r6 (rbp) at cfa-16
  DW_CFA_advance_loc: 3 to 0000000000013a58
  DW_CFA_def_cfa_register: r6 (rbp)
  DW_CFA_advance_loc1: 139 to 0000000000013ae3
  DW_CFA_def_cfa: r7 (rsp) ofs 8
  DW_CFA_nop
  DW_CFA_nop

00001670 000000000000001c 00001674 FDE cie=00000000 pc=0000000000013ae4..0000000000013c13
  DW_CFA_advance_loc: 5 to 0000000000013ae9
  DW_CFA_def_cfa_offset: 16
  DW_CFA_offset: r6 (rbp) at cfa-16
  DW_CFA_advance_loc: 3 to 0000000000013aec
  DW_CFA_def_cfa_register: r6 (rbp)
  DW_CFA_advance_loc2: 294 to 0000000000013c12
  DW_CFA_def_cfa: r7 (rsp) ofs 8
  DW_CFA_nop

00001690 000000000000001c 00001694 FDE cie=00000000 pc=0000000000013c13..0000000000013cda
  DW_CFA_advance_loc: 5 to 0000000000013c18
  DW_CFA_def_cfa_offset: 16
  DW_CFA_offset: r6 (rbp) at cfa-16
  DW_CFA_advance_loc: 3 to 0000000000013c1b
  DW_CFA_def_cfa_register: r6 (rbp)
  DW_CFA_advance_loc1: 190 to 0000000000013cd9
  DW_CFA_def_cfa: r7 (rsp) ofs 8
  DW_CFA_nop
  DW_CFA_nop

000016b0 000000000000001c 000016b4 FDE cie=00000000 pc=0000000000013cda..0000000000013dde
  DW_CFA_advance_loc: 5 to 0000000000013cdf
  DW_CFA_def_cfa_offset: 16
  DW_CFA_offset: r6 (rbp) at cfa-16
  DW_CFA_advance_loc: 3 to 0000000000013ce2
  DW_CFA_def_cfa_register: r6 (rbp)
  DW_CFA_advance_loc1: 251 to 0000000000013ddd
  DW_CFA_def_cfa: r7 (rsp) ofs 8
  DW_CFA_nop
  DW_CFA_nop

000016d0 000000000000001c 000016d4 FDE cie=00000000 pc=0000000000013dde..0000000000013e5a
  DW_CFA_advance_loc: 5 to 0000000000013de3
  DW_CFA_def_cfa_offset: 16
  DW_CFA_offset: r6 (rbp) at cfa-16
  DW_CFA_advance_loc: 3 to 0000000000013de6
  DW_CFA_def_cfa_register: r6 (rbp)
  DW_CFA_advance_loc1: 115 to 0000000000013e59
  DW_CFA_def_cfa: r7 (rsp) ofs 8
  DW_CFA_nop
  DW_CFA_nop

000016f0 000000000000001c 000016f4 FDE cie=00000000 pc=0000000000013e5a..0000000000013ee3
  DW_CFA_advance_loc: 5 to 0000000000013e5f
  DW_CFA_def_cfa_offset: 16
  DW_CFA_offset: r6 (rbp) at cfa-16
  DW_CFA_advance_loc: 3 to 0000000000013e62
  DW_CFA_def_cfa_register: r6 (rbp)
  DW_CFA_advance_loc1: 128 to 0000000000013ee2
  DW_CFA_def_cfa: r7 (rsp) ofs 8
  DW_CFA_nop
  DW_CFA_nop

00001710 000000000000001c 00001714 FDE cie=00000000 pc=0000000000013ee3..0000000000013f19
  DW_CFA_advance_loc: 5 to 0000000000013ee8
  DW_CFA_def_cfa_offset: 16
  DW_CFA_offset: r6 (rbp) at cfa-16
  DW_CFA_advance_loc: 3 to 0000000000013eeb
  DW_CFA_def_cfa_register: r6 (rbp)
  DW_CFA_advance_loc: 45 to 0000000000013f18
  DW_CFA_def_cfa: r7 (rsp) ofs 8
  DW_CFA_nop
  DW_CFA_nop
  DW_CFA_nop

00001730 000000000000001c 00001734 FDE cie=00000000 pc=0000000000013f19..00000000000141a1
  DW_CFA_advance_loc: 5 to 0000000000013f1e
  DW_CFA_def_cfa_offset: 16
  DW_CFA_offset: r6 (rbp) at cfa-16
  DW_CFA_advance_loc: 3 to 0000000000013f21
  DW_CFA_def_cfa_register: r6 (rbp)
  DW_CFA_advance_loc2: 639 to 00000000000141a0
  DW_CFA_def_cfa: r7 (rsp) ofs 8
  DW_CFA_nop

00001750 000000000000001c 00001754 FDE cie=00000000 pc=00000000000141a1..0000000000014227
  DW_CFA_advance_loc: 5 to 00000000000141a6
  DW_CFA_def_cfa_offset: 16
  DW_CFA_offset: r6 (rbp) at cfa-16
  DW_CFA_advance_loc: 3 to 00000000000141a9
  DW_CFA_def_cfa_register: r6 (rbp)
  DW_CFA_advance_loc1: 125 to 0000000000014226
  DW_CFA_def_cfa: r7 (rsp) ofs 8
  DW_CFA_nop
  DW_CFA_nop

00001770 000000000000001c 00001774 FDE cie=00000000 pc=0000000000014227..00000000000142b8
  DW_CFA_advance_loc: 5 to 000000000001422c
  DW_CFA_def_cfa_offset: 16
  DW_CFA_offset: r6 (rbp) at cfa-16
  DW_CFA_advance_loc: 3 to 000000000001422f
  DW_CFA_def_cfa_register: r6 (rbp)
  DW_CFA_advance_loc1: 136 to 00000000000142b7
  DW_CFA_def_cfa: r7 (rsp) ofs 8
  DW_CFA_nop
  DW_CFA_nop

00001790 000000000000001c 00001794 FDE cie=00000000 pc=00000000000142b8..00000000000143c0
  DW_CFA_advance_loc: 5 to 00000000000142bd
  DW_CFA_def_cfa_offset: 16
  DW_CFA_offset: r6 (rbp) at cfa-16
  DW_CFA_advance_loc: 3 to 00000000000142c0
  DW_CFA_def_cfa_register: r6 (rbp)
  DW_CFA_advance_loc1: 255 to 00000000000143bf
  DW_CFA_def_cfa: r7 (rsp) ofs 8
  DW_CFA_nop
  DW_CFA_nop

000017b0 000000000000001c 000017b4 FDE cie=00000000 pc=00000000000143c0..0000000000014460
  DW_CFA_advance_loc: 5 to 00000000000143c5
  DW_CFA_def_cfa_offset: 16
  DW_CFA_offset: r6 (rbp) at cfa-16
  DW_CFA_advance_loc: 3 to 00000000000143c8
  DW_CFA_def_cfa_register: r6 (rbp)
  DW_CFA_advance_loc1: 151 to 000000000001445f
  DW_CFA_def_cfa: r7 (rsp) ofs 8
  DW_CFA_nop
  DW_CFA_nop

000017d0 000000000000001c 000017d4 FDE cie=00000000 pc=0000000000014460..0000000000014587
  DW_CFA_advance_loc: 5 to 0000000000014465
  DW_CFA_def_cfa_offset: 16
  DW_CFA_offset: r6 (rbp) at cfa-16
  DW_CFA_advance_loc: 3 to 0000000000014468
  DW_CFA_def_cfa_register: r6 (rbp)
  DW_CFA_advance_loc2: 286 to 0000000000014586
  DW_CFA_def_cfa: r7 (rsp) ofs 8
  DW_CFA_nop

000017f0 000000000000001c 000017f4 FDE cie=00000000 pc=0000000000014587..00000000000146f9
  DW_CFA_advance_loc: 5 to 000000000001458c
  DW_CFA_def_cfa_offset: 16
  DW_CFA_offset: r6 (rbp) at cfa-16
  DW_CFA_advance_loc: 3 to 000000000001458f
  DW_CFA_def_cfa_register: r6 (rbp)
  DW_CFA_advance_loc2: 361 to 00000000000146f8
  DW_CFA_def_cfa: r7 (rsp) ofs 8
  DW_CFA_nop

00001810 000000000000001c 00001814 FDE cie=00000000 pc=00000000000146f9..0000000000014987
  DW_CFA_advance_loc: 5 to 00000000000146fe
  DW_CFA_def_cfa_offset: 16
  DW_CFA_offset: r6 (rbp) at cfa-16
  DW_CFA_advance_loc: 3 to 0000000000014701
  DW_CFA_def_cfa_register: r6 (rbp)
  DW_CFA_advance_loc2: 645 to 0000000000014986
  DW_CFA_def_cfa: r7 (rsp) ofs 8
  DW_CFA_nop

00001830 000000000000001c 00001834 FDE cie=00000000 pc=0000000000014987..0000000000014a3b
  DW_CFA_advance_loc: 5 to 000000000001498c
  DW_CFA_def_cfa_offset: 16
  DW_CFA_offset: r6 (rbp) at cfa-16
  DW_CFA_advance_loc: 3 to 000000000001498f
  DW_CFA_def_cfa_register: r6 (rbp)
  DW_CFA_advance_loc1: 171 to 0000000000014a3a
  DW_CFA_def_cfa: r7 (rsp) ofs 8
  DW_CFA_nop
  DW_CFA_nop

00001850 000000000000001c 00001854 FDE cie=00000000 pc=0000000000014a3b..0000000000014b30
  DW_CFA_advance_loc: 5 to 0000000000014a40
  DW_CFA_def_cfa_offset: 16
  DW_CFA_offset: r6 (rbp) at cfa-16
  DW_CFA_advance_loc: 3 to 0000000000014a43
  DW_CFA_def_cfa_register: r6 (rbp)
  DW_CFA_advance_loc1: 236 to 0000000000014b2f
  DW_CFA_def_cfa: r7 (rsp) ofs 8
  DW_CFA_nop
  DW_CFA_nop

00001870 000000000000001c 00001874 FDE cie=00000000 pc=0000000000014b30..0000000000014b7f
  DW_CFA_advance_loc: 5 to 0000000000014b35
  DW_CFA_def_cfa_offset: 16
  DW_CFA_offset: r6 (rbp) at cfa-16
  DW_CFA_advance_loc: 3 to 0000000000014b38
  DW_CFA_def_cfa_register: r6 (rbp)
  DW_CFA_advance_loc1: 70 to 0000000000014b7e
  DW_CFA_def_cfa: r7 (rsp) ofs 8
  DW_CFA_nop
  DW_CFA_nop

00001890 000000000000001c 00001894 FDE cie=00000000 pc=0000000000014b7f..0000000000014ba3
  DW_CFA_advance_loc: 5 to 0000000000014b84
  DW_CFA_def_cfa_offset: 16
  DW_CFA_offset: r6 (rbp) at cfa-16
  DW_CFA_advance_loc: 3 to 0000000000014b87
  DW_CFA_def_cfa_register: r6 (rbp)
  DW_CFA_advance_loc: 27 to 0000000000014ba2
  DW_CFA_def_cfa: r7 (rsp) ofs 8
  DW_CFA_nop
  DW_CFA_nop
  DW_CFA_nop

000018b0 000000000000001c 000018b4 FDE cie=00000000 pc=0000000000014ba3..0000000000014bce
  DW_CFA_advance_loc: 5 to 0000000000014ba8
  DW_CFA_def_cfa_offset: 16
  DW_CFA_offset: r6 (rbp) at cfa-16
  DW_CFA_advance_loc: 3 to 0000000000014bab
  DW_CFA_def_cfa_register: r6 (rbp)
  DW_CFA_advance_loc: 34 to 0000000000014bcd
  DW_CFA_def_cfa: r7 (rsp) ofs 8
  DW_CFA_nop
  DW_CFA_nop
  DW_CFA_nop

000018d0 000000000000001c 000018d4 FDE cie=00000000 pc=0000000000014bce..0000000000014c5e
  DW_CFA_advance_loc: 5 to 0000000000014bd3
  DW_CFA_def_cfa_offset: 16
  DW_CFA_offset: r6 (rbp) at cfa-16
  DW_CFA_advance_loc: 3 to 0000000000014bd6
  DW_CFA_def_cfa_register: r6 (rbp)
  DW_CFA_advance_loc1: 135 to 0000000000014c5d
  DW_CFA_def_cfa: r7 (rsp) ofs 8
  DW_CFA_nop
  DW_CFA_nop

000018f0 000000000000001c 000018f4 FDE cie=00000000 pc=0000000000014c5e..0000000000014c98
  DW_CFA_advance_loc: 5 to 0000000000014c63
  DW_CFA_def_cfa_offset: 16
  DW_CFA_offset: r6 (rbp) at cfa-16
  DW_CFA_advance_loc: 3 to 0000000000014c66
  DW_CFA_def_cfa_register: r6 (rbp)
  DW_CFA_advance_loc: 49 to 0000000000014c97
  DW_CFA_def_cfa: r7 (rsp) ofs 8
  DW_CFA_nop
  DW_CFA_nop
  DW_CFA_nop

00001910 000000000000001c 00001914 FDE cie=00000000 pc=0000000000014c98..0000000000014cfa
  DW_CFA_advance_loc: 5 to 0000000000014c9d
  DW_CFA_def_cfa_offset: 16
  DW_CFA_offset: r6 (rbp) at cfa-16
  DW_CFA_advance_loc: 3 to 0000000000014ca0
  DW_CFA_def_cfa_register: r6 (rbp)
  DW_CFA_advance_loc1: 89 to 0000000000014cf9
  DW_CFA_def_cfa: r7 (rsp) ofs 8
  DW_CFA_nop
  DW_CFA_nop

00001930 0000000000000020 00001934 FDE cie=00000000 pc=0000000000014cfa..0000000000014dbf
  DW_CFA_advance_loc: 5 to 0000000000014cff
  DW_CFA_def_cfa_offset: 16
  DW_CFA_offset: r6 (rbp) at cfa-16
  DW_CFA_advance_loc: 3 to 0000000000014d02
  DW_CFA_def_cfa_register: r6 (rbp)
  DW_CFA_advance_loc: 5 to 0000000000014d07
  DW_CFA_offset: r3 (rbx) at cfa-24
  DW_CFA_advance_loc1: 183 to 0000000000014dbe
  DW_CFA_def_cfa: r7 (rsp) ofs 8
  DW_CFA_nop
  DW_CFA_nop
  DW_CFA_nop

00001954 000000000000001c 00001958 FDE cie=00000000 pc=0000000000014dbf..0000000000014e84
  DW_CFA_advance_loc: 5 to 0000000000014dc4
  DW_CFA_def_cfa_offset: 16
  DW_CFA_offset: r6 (rbp) at cfa-16
  DW_CFA_advance_loc: 3 to 0000000000014dc7
  DW_CFA_def_cfa_register: r6 (rbp)
  DW_CFA_advance_loc1: 188 to 0000000000014e83
  DW_CFA_def_cfa: r7 (rsp) ofs 8
  DW_CFA_nop
  DW_CFA_nop

00001974 0000000000000020 00001978 FDE cie=00000000 pc=0000000000014e84..0000000000015f45
  DW_CFA_advance_loc: 5 to 0000000000014e89
  DW_CFA_def_cfa_offset: 16
  DW_CFA_offset: r6 (rbp) at cfa-16
  DW_CFA_advance_loc: 3 to 0000000000014e8c
  DW_CFA_def_cfa_register: r6 (rbp)
  DW_CFA_advance_loc: 8 to 0000000000014e94
  DW_CFA_offset: r3 (rbx) at cfa-24
  DW_CFA_advance_loc2: 4272 to 0000000000015f44
  DW_CFA_def_cfa: r7 (rsp) ofs 8
  DW_CFA_nop
  DW_CFA_nop

00001998 000000000000001c 0000199c FDE cie=00000000 pc=0000000000015f45..0000000000015fed
  DW_CFA_advance_loc: 5 to 0000000000015f4a
  DW_CFA_def_cfa_offset: 16
  DW_CFA_offset: r6 (rbp) at cfa-16
  DW_CFA_advance_loc: 3 to 0000000000015f4d
  DW_CFA_def_cfa_register: r6 (rbp)
  DW_CFA_advance_loc1: 159 to 0000000000015fec
  DW_CFA_def_cfa: r7 (rsp) ofs 8
  DW_CFA_nop
  DW_CFA_nop

000019b8 000000000000001c 000019bc FDE cie=00000000 pc=0000000000015fed..0000000000016023
  DW_CFA_advance_loc: 5 to 0000000000015ff2
  DW_CFA_def_cfa_offset: 16
  DW_CFA_offset: r6 (rbp) at cfa-16
  DW_CFA_advance_loc: 3 to 0000000000015ff5
  DW_CFA_def_cfa_register: r6 (rbp)
  DW_CFA_advance_loc: 45 to 0000000000016022
  DW_CFA_def_cfa: r7 (rsp) ofs 8
  DW_CFA_nop
  DW_CFA_nop
  DW_CFA_nop

000019d8 000000000000001c 000019dc FDE cie=00000000 pc=0000000000016023..000000000001614f
  DW_CFA_advance_loc: 5 to 0000000000016028
  DW_CFA_def_cfa_offset: 16
  DW_CFA_offset: r6 (rbp) at cfa-16
  DW_CFA_advance_loc: 3 to 000000000001602b
  DW_CFA_def_cfa_register: r6 (rbp)
  DW_CFA_advance_loc2: 291 to 000000000001614e
  DW_CFA_def_cfa: r7 (rsp) ofs 8
  DW_CFA_nop

000019f8 000000000000001c 000019fc FDE cie=00000000 pc=000000000001614f..000000000001620e
  DW_CFA_advance_loc: 5 to 0000000000016154
  DW_CFA_def_cfa_offset: 16
  DW_CFA_offset: r6 (rbp) at cfa-16
  DW_CFA_advance_loc: 3 to 0000000000016157
  DW_CFA_def_cfa_register: r6 (rbp)
  DW_CFA_advance_loc1: 182 to 000000000001620d
  DW_CFA_def_cfa: r7 (rsp) ofs 8
  DW_CFA_nop
  DW_CFA_nop

00001a18 000000000000001c 00001a1c FDE cie=00000000 pc=000000000001620e..00000000000164bd
  DW_CFA_advance_loc: 5 to 0000000000016213
  DW_CFA_def_cfa_offset: 16
  DW_CFA_offset: r6 (rbp) at cfa-16
  DW_CFA_advance_loc: 3 to 0000000000016216
  DW_CFA_def_cfa_register: r6 (rbp)
  DW_CFA_advance_loc2: 678 to 00000000000164bc
  DW_CFA_def_cfa: r7 (rsp) ofs 8
  DW_CFA_nop

00001a38 000000000000001c 00001a3c FDE cie=00000000 pc=00000000000164bd..00000000000164f1
  DW_CFA_advance_loc: 5 to 00000000000164c2
  DW_CFA_def_cfa_offset: 16
  DW_CFA_offset: r6 (rbp) at cfa-16
  DW_CFA_advance_loc: 3 to 00000000000164c5
  DW_CFA_def_cfa_register: r6 (rbp)
  DW_CFA_advance_loc: 43 to 00000000000164f0
  DW_CFA_def_cfa: r7 (rsp) ofs 8
  DW_CFA_nop
  DW_CFA_nop
  DW_CFA_nop

00001a58 000000000000001c 00001a5c FDE cie=00000000 pc=00000000000164f1..0000000000016523
  DW_CFA_advance_loc: 5 to 00000000000164f6
  DW_CFA_def_cfa_offset: 16
  DW_CFA_offset: r6 (rbp) at cfa-16
  DW_CFA_advance_loc: 3 to 00000000000164f9
  DW_CFA_def_cfa_register: r6 (rbp)
  DW_CFA_advance_loc: 41 to 0000000000016522
  DW_CFA_def_cfa: r7 (rsp) ofs 8
  DW_CFA_nop
  DW_CFA_nop
  DW_CFA_nop

00001a78 000000000000001c 00001a7c FDE cie=00000000 pc=0000000000016523..0000000000016546
  DW_CFA_advance_loc: 5 to 0000000000016528
  DW_CFA_def_cfa_offset: 16
  DW_CFA_offset: r6 (rbp) at cfa-16
  DW_CFA_advance_loc: 3 to 000000000001652b
  DW_CFA_def_cfa_register: r6 (rbp)
  DW_CFA_advance_loc: 26 to 0000000000016545
  DW_CFA_def_cfa: r7 (rsp) ofs 8
  DW_CFA_nop
  DW_CFA_nop
  DW_CFA_nop

00001a98 000000000000001c 00001a9c FDE cie=00000000 pc=0000000000016546..0000000000016571
  DW_CFA_advance_loc: 5 to 000000000001654b
  DW_CFA_def_cfa_offset: 16
  DW_CFA_offset: r6 (rbp) at cfa-16
  DW_CFA_advance_loc: 3 to 000000000001654e
  DW_CFA_def_cfa_register: r6 (rbp)
  DW_CFA_advance_loc: 34 to 0000000000016570
  DW_CFA_def_cfa: r7 (rsp) ofs 8
  DW_CFA_nop
  DW_CFA_nop
  DW_CFA_nop

00001ab8 000000000000001c 00001abc FDE cie=00000000 pc=0000000000016571..00000000000165d9
  DW_CFA_advance_loc: 5 to 0000000000016576
  DW_CFA_def_cfa_offset: 16
  DW_CFA_offset: r6 (rbp) at cfa-16
  DW_CFA_advance_loc: 3 to 0000000000016579
  DW_CFA_def_cfa_register: r6 (rbp)
  DW_CFA_advance_loc1: 95 to 00000000000165d8
  DW_CFA_def_cfa: r7 (rsp) ofs 8
  DW_CFA_nop
  DW_CFA_nop

00001ad8 000000000000001c 00001adc FDE cie=00000000 pc=00000000000165d9..000000000001663f
  DW_CFA_advance_loc: 5 to 00000000000165de
  DW_CFA_def_cfa_offset: 16
  DW_CFA_offset: r6 (rbp) at cfa-16
  DW_CFA_advance_loc: 3 to 00000000000165e1
  DW_CFA_def_cfa_register: r6 (rbp)
  DW_CFA_advance_loc1: 93 to 000000000001663e
  DW_CFA_def_cfa: r7 (rsp) ofs 8
  DW_CFA_nop
  DW_CFA_nop

00001af8 000000000000001c 00001afc FDE cie=00000000 pc=000000000001663f..0000000000016667
  DW_CFA_advance_loc: 5 to 0000000000016644
  DW_CFA_def_cfa_offset: 16
  DW_CFA_offset: r6 (rbp) at cfa-16
  DW_CFA_advance_loc: 3 to 0000000000016647
  DW_CFA_def_cfa_register: r6 (rbp)
  DW_CFA_advance_loc: 31 to 0000000000016666
  DW_CFA_def_cfa: r7 (rsp) ofs 8
  DW_CFA_nop
  DW_CFA_nop
  DW_CFA_nop

00001b18 000000000000001c 00001b1c FDE cie=00000000 pc=0000000000016667..0000000000016697
  DW_CFA_advance_loc: 5 to 000000000001666c
  DW_CFA_def_cfa_offset: 16
  DW_CFA_offset: r6 (rbp) at cfa-16
  DW_CFA_advance_loc: 3 to 000000000001666f
  DW_CFA_def_cfa_register: r6 (rbp)
  DW_CFA_advance_loc: 39 to 0000000000016696
  DW_CFA_def_cfa: r7 (rsp) ofs 8
  DW_CFA_nop
  DW_CFA_nop
  DW_CFA_nop

00001b38 000000000000001c 00001b3c FDE cie=00000000 pc=0000000000016697..0000000000016752
  DW_CFA_advance_loc: 5 to 000000000001669c
  DW_CFA_def_cfa_offset: 16
  DW_CFA_offset: r6 (rbp) at cfa-16
  DW_CFA_advance_loc: 3 to 000000000001669f
  DW_CFA_def_cfa_register: r6 (rbp)
  DW_CFA_advance_loc1: 178 to 0000000000016751
  DW_CFA_def_cfa: r7 (rsp) ofs 8
  DW_CFA_nop
  DW_CFA_nop

00001b58 000000000000001c 00001b5c FDE cie=00000000 pc=0000000000016752..0000000000016780
  DW_CFA_advance_loc: 5 to 0000000000016757
  DW_CFA_def_cfa_offset: 16
  DW_CFA_offset: r6 (rbp) at cfa-16
  DW_CFA_advance_loc: 3 to 000000000001675a
  DW_CFA_def_cfa_register: r6 (rbp)
  DW_CFA_advance_loc: 37 to 000000000001677f
  DW_CFA_def_cfa: r7 (rsp) ofs 8
  DW_CFA_nop
  DW_CFA_nop
  DW_CFA_nop

00001b78 000000000000001c 00001b7c FDE cie=00000000 pc=0000000000016780..00000000000167a3
  DW_CFA_advance_loc: 5 to 0000000000016785
  DW_CFA_def_cfa_offset: 16
  DW_CFA_offset: r6 (rbp) at cfa-16
  DW_CFA_advance_loc: 3 to 0000000000016788
  DW_CFA_def_cfa_register: r6 (rbp)
  DW_CFA_advance_loc: 26 to 00000000000167a2
  DW_CFA_def_cfa: r7 (rsp) ofs 8
  DW_CFA_nop
  DW_CFA_nop
  DW_CFA_nop

00001b98 000000000000001c 00001b9c FDE cie=00000000 pc=00000000000167a3..00000000000167d1
  DW_CFA_advance_loc: 5 to 00000000000167a8
  DW_CFA_def_cfa_offset: 16
  DW_CFA_offset: r6 (rbp) at cfa-16
  DW_CFA_advance_loc: 3 to 00000000000167ab
  DW_CFA_def_cfa_register: r6 (rbp)
  DW_CFA_advance_loc: 37 to 00000000000167d0
  DW_CFA_def_cfa: r7 (rsp) ofs 8
  DW_CFA_nop
  DW_CFA_nop
  DW_CFA_nop

00001bb8 000000000000001c 00001bbc FDE cie=00000000 pc=00000000000167d1..0000000000016893
  DW_CFA_advance_loc: 5 to 00000000000167d6
  DW_CFA_def_cfa_offset: 16
  DW_CFA_offset: r6 (rbp) at cfa-16
  DW_CFA_advance_loc: 3 to 00000000000167d9
  DW_CFA_def_cfa_register: r6 (rbp)
  DW_CFA_advance_loc1: 185 to 0000000000016892
  DW_CFA_def_cfa: r7 (rsp) ofs 8
  DW_CFA_nop
  DW_CFA_nop

00001bd8 000000000000001c 00001bdc FDE cie=00000000 pc=0000000000016893..00000000000168cd
  DW_CFA_advance_loc: 5 to 0000000000016898
  DW_CFA_def_cfa_offset: 16
  DW_CFA_offset: r6 (rbp) at cfa-16
  DW_CFA_advance_loc: 3 to 000000000001689b
  DW_CFA_def_cfa_register: r6 (rbp)
  DW_CFA_advance_loc: 49 to 00000000000168cc
  DW_CFA_def_cfa: r7 (rsp) ofs 8
  DW_CFA_nop
  DW_CFA_nop
  DW_CFA_nop

00001bf8 000000000000001c 00001bfc FDE cie=00000000 pc=00000000000168cd..000000000001698b
  DW_CFA_advance_loc: 5 to 00000000000168d2
  DW_CFA_def_cfa_offset: 16
  DW_CFA_offset: r6 (rbp) at cfa-16
  DW_CFA_advance_loc: 3 to 00000000000168d5
  DW_CFA_def_cfa_register: r6 (rbp)
  DW_CFA_advance_loc1: 181 to 000000000001698a
  DW_CFA_def_cfa: r7 (rsp) ofs 8
  DW_CFA_nop
  DW_CFA_nop

00001c18 000000000000001c 00001c1c FDE cie=00000000 pc=000000000001698b..00000000000169be
  DW_CFA_advance_loc: 5 to 0000000000016990
  DW_CFA_def_cfa_offset: 16
  DW_CFA_offset: r6 (rbp) at cfa-16
  DW_CFA_advance_loc: 3 to 0000000000016993
  DW_CFA_def_cfa_register: r6 (rbp)
  DW_CFA_advance_loc: 42 to 00000000000169bd
  DW_CFA_def_cfa: r7 (rsp) ofs 8
  DW_CFA_nop
  DW_CFA_nop
  DW_CFA_nop

00001c38 000000000000001c 00001c3c FDE cie=00000000 pc=00000000000169be..00000000000169fc
  DW_CFA_advance_loc: 5 to 00000000000169c3
  DW_CFA_def_cfa_offset: 16
  DW_CFA_offset: r6 (rbp) at cfa-16
  DW_CFA_advance_loc: 3 to 00000000000169c6
  DW_CFA_def_cfa_register: r6 (rbp)
  DW_CFA_advance_loc: 53 to 00000000000169fb
  DW_CFA_def_cfa: r7 (rsp) ofs 8
  DW_CFA_nop
  DW_CFA_nop
  DW_CFA_nop

00001c58 000000000000001c 00001c5c FDE cie=00000000 pc=00000000000169fc..0000000000016a2e
  DW_CFA_advance_loc: 5 to 0000000000016a01
  DW_CFA_def_cfa_offset: 16
  DW_CFA_offset: r6 (rbp) at cfa-16
  DW_CFA_advance_loc: 3 to 0000000000016a04
  DW_CFA_def_cfa_register: r6 (rbp)
  DW_CFA_advance_loc: 41 to 0000000000016a2d
  DW_CFA_def_cfa: r7 (rsp) ofs 8
  DW_CFA_nop
  DW_CFA_nop
  DW_CFA_nop

00001c78 000000000000001c 00001c7c FDE cie=00000000 pc=0000000000016a2e..0000000000016a59
  DW_CFA_advance_loc: 5 to 0000000000016a33
  DW_CFA_def_cfa_offset: 16
  DW_CFA_offset: r6 (rbp) at cfa-16
  DW_CFA_advance_loc: 3 to 0000000000016a36
  DW_CFA_def_cfa_register: r6 (rbp)
  DW_CFA_advance_loc: 34 to 0000000000016a58
  DW_CFA_def_cfa: r7 (rsp) ofs 8
  DW_CFA_nop
  DW_CFA_nop
  DW_CFA_nop

00001c98 000000000000001c 00001c9c FDE cie=00000000 pc=0000000000016a59..0000000000016a86
  DW_CFA_advance_loc: 5 to 0000000000016a5e
  DW_CFA_def_cfa_offset: 16
  DW_CFA_offset: r6 (rbp) at cfa-16
  DW_CFA_advance_loc: 3 to 0000000000016a61
  DW_CFA_def_cfa_register: r6 (rbp)
  DW_CFA_advance_loc: 36 to 0000000000016a85
  DW_CFA_def_cfa: r7 (rsp) ofs 8
  DW_CFA_nop
  DW_CFA_nop
  DW_CFA_nop

00001cb8 000000000000001c 00001cbc FDE cie=00000000 pc=0000000000016a86..0000000000016aa9
  DW_CFA_advance_loc: 5 to 0000000000016a8b
  DW_CFA_def_cfa_offset: 16
  DW_CFA_offset: r6 (rbp) at cfa-16
  DW_CFA_advance_loc: 3 to 0000000000016a8e
  DW_CFA_def_cfa_register: r6 (rbp)
  DW_CFA_advance_loc: 26 to 0000000000016aa8
  DW_CFA_def_cfa: r7 (rsp) ofs 8
  DW_CFA_nop
  DW_CFA_nop
  DW_CFA_nop

00001cd8 000000000000001c 00001cdc FDE cie=00000000 pc=0000000000016aa9..0000000000016b27
  DW_CFA_advance_loc: 5 to 0000000000016aae
  DW_CFA_def_cfa_offset: 16
  DW_CFA_offset: r6 (rbp) at cfa-16
  DW_CFA_advance_loc: 3 to 0000000000016ab1
  DW_CFA_def_cfa_register: r6 (rbp)
  DW_CFA_advance_loc: 7 to 0000000000016ab8
  DW_CFA_offset: r12 (r12) at cfa-24
  DW_CFA_offset: r3 (rbx) at cfa-32
  DW_CFA_nop
  DW_CFA_nop

00001cf8 000000000000001c 00001cfc FDE cie=00000000 pc=0000000000016b27..0000000000016b75
  DW_CFA_advance_loc: 5 to 0000000000016b2c
  DW_CFA_def_cfa_offset: 16
  DW_CFA_offset: r6 (rbp) at cfa-16
  DW_CFA_advance_loc: 3 to 0000000000016b2f
  DW_CFA_def_cfa_register: r6 (rbp)
  DW_CFA_advance_loc1: 69 to 0000000000016b74
  DW_CFA_def_cfa: r7 (rsp) ofs 8
  DW_CFA_nop
  DW_CFA_nop

00001d18 000000000000001c 00001d1c FDE cie=00000000 pc=0000000000016b75..0000000000016bfa
  DW_CFA_advance_loc: 5 to 0000000000016b7a
  DW_CFA_def_cfa_offset: 16
  DW_CFA_offset: r6 (rbp) at cfa-16
  DW_CFA_advance_loc: 3 to 0000000000016b7d
  DW_CFA_def_cfa_register: r6 (rbp)
  DW_CFA_advance_loc1: 124 to 0000000000016bf9
  DW_CFA_def_cfa: r7 (rsp) ofs 8
  DW_CFA_nop
  DW_CFA_nop

00001d38 000000000000001c 00001d3c FDE cie=00000000 pc=0000000000016bfa..0000000000016c4e
  DW_CFA_advance_loc: 5 to 0000000000016bff
  DW_CFA_def_cfa_offset: 16
  DW_CFA_offset: r6 (rbp) at cfa-16
  DW_CFA_advance_loc: 3 to 0000000000016c02
  DW_CFA_def_cfa_register: r6 (rbp)
  DW_CFA_advance_loc1: 75 to 0000000000016c4d
  DW_CFA_def_cfa: r7 (rsp) ofs 8
  DW_CFA_nop
  DW_CFA_nop

00001d58 000000000000001c 00001d5c FDE cie=00000000 pc=0000000000016c4e..0000000000016d76
  DW_CFA_advance_loc: 5 to 0000000000016c53
  DW_CFA_def_cfa_offset: 16
  DW_CFA_offset: r6 (rbp) at cfa-16
  DW_CFA_advance_loc: 3 to 0000000000016c56
  DW_CFA_def_cfa_register: r6 (rbp)
  DW_CFA_advance_loc2: 287 to 0000000000016d75
  DW_CFA_def_cfa: r7 (rsp) ofs 8
  DW_CFA_nop

00001d78 000000000000001c 00001d7c FDE cie=00000000 pc=0000000000016d76..0000000000016d95
  DW_CFA_advance_loc: 5 to 0000000000016d7b
  DW_CFA_def_cfa_offset: 16
  DW_CFA_offset: r6 (rbp) at cfa-16
  DW_CFA_advance_loc: 3 to 0000000000016d7e
  DW_CFA_def_cfa_register: r6 (rbp)
  DW_CFA_advance_loc: 22 to 0000000000016d94
  DW_CFA_def_cfa: r7 (rsp) ofs 8
  DW_CFA_nop
  DW_CFA_nop
  DW_CFA_nop

00001d98 000000000000001c 00001d9c FDE cie=00000000 pc=0000000000016d95..0000000000016db4
  DW_CFA_advance_loc: 5 to 0000000000016d9a
  DW_CFA_def_cfa_offset: 16
  DW_CFA_offset: r6 (rbp) at cfa-16
  DW_CFA_advance_loc: 3 to 0000000000016d9d
  DW_CFA_def_cfa_register: r6 (rbp)
  DW_CFA_advance_loc: 22 to 0000000000016db3
  DW_CFA_def_cfa: r7 (rsp) ofs 8
  DW_CFA_nop
  DW_CFA_nop
  DW_CFA_nop

00001db8 0000000000000020 00001dbc FDE cie=00000000 pc=0000000000016db4..0000000000016e51
  DW_CFA_advance_loc: 5 to 0000000000016db9
  DW_CFA_def_cfa_offset: 16
  DW_CFA_offset: r6 (rbp) at cfa-16
  DW_CFA_advance_loc: 3 to 0000000000016dbc
  DW_CFA_def_cfa_register: r6 (rbp)
  DW_CFA_advance_loc: 5 to 0000000000016dc1
  DW_CFA_offset: r3 (rbx) at cfa-24
  DW_CFA_advance_loc1: 143 to 0000000000016e50
  DW_CFA_def_cfa: r7 (rsp) ofs 8
  DW_CFA_nop
  DW_CFA_nop
  DW_CFA_nop

00001ddc 000000000000001c 00001de0 FDE cie=00000000 pc=0000000000016e51..0000000000016f9a
  DW_CFA_advance_loc: 5 to 0000000000016e56
  DW_CFA_def_cfa_offset: 16
  DW_CFA_offset: r6 (rbp) at cfa-16
  DW_CFA_advance_loc: 3 to 0000000000016e59
  DW_CFA_def_cfa_register: r6 (rbp)
  DW_CFA_advance_loc2: 320 to 0000000000016f99
  DW_CFA_def_cfa: r7 (rsp) ofs 8
  DW_CFA_nop

00001dfc 000000000000001c 00001e00 FDE cie=00000000 pc=0000000000016f9a..0000000000016ff5
  DW_CFA_advance_loc: 5 to 0000000000016f9f
  DW_CFA_def_cfa_offset: 16
  DW_CFA_offset: r6 (rbp) at cfa-16
  DW_CFA_advance_loc: 3 to 0000000000016fa2
  DW_CFA_def_cfa_register: r6 (rbp)
  DW_CFA_advance_loc1: 82 to 0000000000016ff4
  DW_CFA_def_cfa: r7 (rsp) ofs 8
  DW_CFA_nop
  DW_CFA_nop

00001e1c 0000000000000020 00001e20 FDE cie=00000000 pc=0000000000016ff5..0000000000017013
  DW_CFA_advance_loc: 5 to 0000000000016ffa
  DW_CFA_def_cfa_offset: 16
  DW_CFA_offset: r6 (rbp) at cfa-16
  DW_CFA_advance_loc: 3 to 0000000000016ffd
  DW_CFA_def_cfa_register: r6 (rbp)
  DW_CFA_advance_loc: 21 to 0000000000017012
  DW_CFA_def_cfa: r7 (rsp) ofs 8
  DW_CFA_nop
  DW_CFA_nop
  DW_CFA_nop
  DW_CFA_nop
  DW_CFA_nop
  DW_CFA_nop
  DW_CFA_nop

00001e40 000000000000001c 00001e44 FDE cie=00000000 pc=0000000000017013..000000000001702d
  DW_CFA_advance_loc: 1 to 0000000000017014
  DW_CFA_def_cfa_offset: 16
  DW_CFA_offset: r6 (rbp) at cfa-16
  DW_CFA_advance_loc: 3 to 0000000000017017
  DW_CFA_def_cfa_register: r6 (rbp)
  DW_CFA_advance_loc: 21 to 000000000001702c
  DW_CFA_def_cfa: r7 (rsp) ofs 8
  DW_CFA_nop
  DW_CFA_nop
  DW_CFA_nop

00001e60 000000000000001c 00001e64 FDE cie=00000000 pc=000000000001702d..0000000000017071
  DW_CFA_advance_loc: 1 to 000000000001702e
  DW_CFA_def_cfa_offset: 16
  DW_CFA_offset: r6 (rbp) at cfa-16
  DW_CFA_advance_loc: 3 to 0000000000017031
  DW_CFA_def_cfa_register: r6 (rbp)
  DW_CFA_advance_loc: 63 to 0000000000017070
  DW_CFA_def_cfa: r7 (rsp) ofs 8
  DW_CFA_nop
  DW_CFA_nop
  DW_CFA_nop

00001e80 000000000000001c 00001e84 FDE cie=00000000 pc=0000000000017071..00000000000177c6
  DW_CFA_advance_loc: 5 to 0000000000017076
  DW_CFA_def_cfa_offset: 16
  DW_CFA_offset: r6 (rbp) at cfa-16
  DW_CFA_advance_loc: 3 to 0000000000017079
  DW_CFA_def_cfa_register: r6 (rbp)
  DW_CFA_advance_loc2: 1868 to 00000000000177c5
  DW_CFA_def_cfa: r7 (rsp) ofs 8
  DW_CFA_nop

00001ea0 000000000000001c 00001ea4 FDE cie=00000000 pc=00000000000177c6..0000000000017d52
  DW_CFA_advance_loc: 5 to 00000000000177cb
  DW_CFA_def_cfa_offset: 16
  DW_CFA_offset: r6 (rbp) at cfa-16
  DW_CFA_advance_loc: 3 to 00000000000177ce
  DW_CFA_def_cfa_register: r6 (rbp)
  DW_CFA_advance_loc2: 1411 to 0000000000017d51
  DW_CFA_def_cfa: r7 (rsp) ofs 8
  DW_CFA_nop

00001ec0 000000000000001c 00001ec4 FDE cie=00000000 pc=0000000000017d52..0000000000017e14
  DW_CFA_advance_loc: 5 to 0000000000017d57
  DW_CFA_def_cfa_offset: 16
  DW_CFA_offset: r6 (rbp) at cfa-16
  DW_CFA_advance_loc: 3 to 0000000000017d5a
  DW_CFA_def_cfa_register: r6 (rbp)
  DW_CFA_advance_loc1: 185 to 0000000000017e13
  DW_CFA_def_cfa: r7 (rsp) ofs 8
  DW_CFA_nop
  DW_CFA_nop

00001ee0 000000000000001c 00001ee4 FDE cie=00000000 pc=0000000000017e14..0000000000017f4d
  DW_CFA_advance_loc: 5 to 0000000000017e19
  DW_CFA_def_cfa_offset: 16
  DW_CFA_offset: r6 (rbp) at cfa-16
  DW_CFA_advance_loc: 3 to 0000000000017e1c
  DW_CFA_def_cfa_register: r6 (rbp)
  DW_CFA_advance_loc2: 304 to 0000000000017f4c
  DW_CFA_def_cfa: r7 (rsp) ofs 8
  DW_CFA_nop

00001f00 000000000000001c 00001f04 FDE cie=00000000 pc=0000000000017f4d..0000000000018171
  DW_CFA_advance_loc: 5 to 0000000000017f52
  DW_CFA_def_cfa_offset: 16
  DW_CFA_offset: r6 (rbp) at cfa-16
  DW_CFA_advance_loc: 3 to 0000000000017f55
  DW_CFA_def_cfa_register: r6 (rbp)
  DW_CFA_advance_loc2: 539 to 0000000000018170
  DW_CFA_def_cfa: r7 (rsp) ofs 8
  DW_CFA_nop

00001f20 000000000000001c 00001f24 FDE cie=00000000 pc=0000000000018171..00000000000184e5
  DW_CFA_advance_loc: 5 to 0000000000018176
  DW_CFA_def_cfa_offset: 16
  DW_CFA_offset: r6 (rbp) at cfa-16
  DW_CFA_advance_loc: 3 to 0000000000018179
  DW_CFA_def_cfa_register: r6 (rbp)
  DW_CFA_advance_loc2: 875 to 00000000000184e4
  DW_CFA_def_cfa: r7 (rsp) ofs 8
  DW_CFA_nop

00001f40 000000000000001c 00001f44 FDE cie=00000000 pc=00000000000184e5..000000000001850d
  DW_CFA_advance_loc: 5 to 00000000000184ea
  DW_CFA_def_cfa_offset: 16
  DW_CFA_offset: r6 (rbp) at cfa-16
  DW_CFA_advance_loc: 3 to 00000000000184ed
  DW_CFA_def_cfa_register: r6 (rbp)
  DW_CFA_advance_loc: 31 to 000000000001850c
  DW_CFA_def_cfa: r7 (rsp) ofs 8
  DW_CFA_nop
  DW_CFA_nop
  DW_CFA_nop

00001f60 000000000000001c 00001f64 FDE cie=00000000 pc=000000000001850d..00000000000185c5
  DW_CFA_advance_loc: 5 to 0000000000018512
  DW_CFA_def_cfa_offset: 16
  DW_CFA_offset: r6 (rbp) at cfa-16
  DW_CFA_advance_loc: 3 to 0000000000018515
  DW_CFA_def_cfa_register: r6 (rbp)
  DW_CFA_advance_loc1: 175 to 00000000000185c4
  DW_CFA_def_cfa: r7 (rsp) ofs 8
  DW_CFA_nop
  DW_CFA_nop

00001f80 000000000000001c 00001f84 FDE cie=00000000 pc=00000000000185c5..00000000000185f3
  DW_CFA_advance_loc: 5 to 00000000000185ca
  DW_CFA_def_cfa_offset: 16
  DW_CFA_offset: r6 (rbp) at cfa-16
  DW_CFA_advance_loc: 3 to 00000000000185cd
  DW_CFA_def_cfa_register: r6 (rbp)
  DW_CFA_advance_loc: 37 to 00000000000185f2
  DW_CFA_def_cfa: r7 (rsp) ofs 8
  DW_CFA_nop
  DW_CFA_nop
  DW_CFA_nop

00001fa0 000000000000001c 00001fa4 FDE cie=00000000 pc=00000000000185f3..000000000001860e
  DW_CFA_advance_loc: 5 to 00000000000185f8
  DW_CFA_def_cfa_offset: 16
  DW_CFA_offset: r6 (rbp) at cfa-16
  DW_CFA_advance_loc: 3 to 00000000000185fb
  DW_CFA_def_cfa_register: r6 (rbp)
  DW_CFA_advance_loc: 18 to 000000000001860d
  DW_CFA_def_cfa: r7 (rsp) ofs 8
  DW_CFA_nop
  DW_CFA_nop
  DW_CFA_nop

00001fc0 000000000000001c 00001fc4 FDE cie=00000000 pc=000000000001860e..0000000000018633
  DW_CFA_advance_loc: 5 to 0000000000018613
  DW_CFA_def_cfa_offset: 16
  DW_CFA_offset: r6 (rbp) at cfa-16
  DW_CFA_advance_loc: 3 to 0000000000018616
  DW_CFA_def_cfa_register: r6 (rbp)
  DW_CFA_advance_loc: 28 to 0000000000018632
  DW_CFA_def_cfa: r7 (rsp) ofs 8
  DW_CFA_nop
  DW_CFA_nop
  DW_CFA_nop

00001fe0 000000000000001c 00001fe4 FDE cie=00000000 pc=0000000000018633..0000000000018667
  DW_CFA_advance_loc: 5 to 0000000000018638
  DW_CFA_def_cfa_offset: 16
  DW_CFA_offset: r6 (rbp) at cfa-16
  DW_CFA_advance_loc: 3 to 000000000001863b
  DW_CFA_def_cfa_register: r6 (rbp)
  DW_CFA_advance_loc: 43 to 0000000000018666
  DW_CFA_def_cfa: r7 (rsp) ofs 8
  DW_CFA_nop
  DW_CFA_nop
  DW_CFA_nop

00002000 000000000000001c 00002004 FDE cie=00000000 pc=0000000000018667..00000000000187cc
  DW_CFA_advance_loc: 1 to 0000000000018668
  DW_CFA_def_cfa_offset: 16
  DW_CFA_offset: r6 (rbp) at cfa-16
  DW_CFA_advance_loc: 3 to 000000000001866b
  DW_CFA_def_cfa_register: r6 (rbp)
  DW_CFA_advance_loc2: 352 to 00000000000187cb
  DW_CFA_def_cfa: r7 (rsp) ofs 8
  DW_CFA_nop

00002020 000000000000001c 00002024 FDE cie=00000000 pc=00000000000187cc..0000000000018c32
  DW_CFA_advance_loc: 1 to 00000000000187cd
  DW_CFA_def_cfa_offset: 16
  DW_CFA_offset: r6 (rbp) at cfa-16
  DW_CFA_advance_loc: 3 to 00000000000187d0
  DW_CFA_def_cfa_register: r6 (rbp)
  DW_CFA_advance_loc2: 1121 to 0000000000018c31
  DW_CFA_def_cfa: r7 (rsp) ofs 8
  DW_CFA_nop

00002040 000000000000001c 00002044 FDE cie=00000000 pc=0000000000018c32..0000000000018c64
  DW_CFA_advance_loc: 5 to 0000000000018c37
  DW_CFA_def_cfa_offset: 16
  DW_CFA_offset: r6 (rbp) at cfa-16
  DW_CFA_advance_loc: 3 to 0000000000018c3a
  DW_CFA_def_cfa_register: r6 (rbp)
  DW_CFA_advance_loc: 41 to 0000000000018c63
  DW_CFA_def_cfa: r7 (rsp) ofs 8
  DW_CFA_nop
  DW_CFA_nop
  DW_CFA_nop

00002060 000000000000001c 00002064 FDE cie=00000000 pc=0000000000018c64..0000000000018cb5
  DW_CFA_advance_loc: 5 to 0000000000018c69
  DW_CFA_def_cfa_offset: 16
  DW_CFA_offset: r6 (rbp) at cfa-16
  DW_CFA_advance_loc: 3 to 0000000000018c6c
  DW_CFA_def_cfa_register: r6 (rbp)
  DW_CFA_advance_loc1: 72 to 0000000000018cb4
  DW_CFA_def_cfa: r7 (rsp) ofs 8
  DW_CFA_nop
  DW_CFA_nop

00002080 0000000000000028 00002084 FDE cie=00000000 pc=0000000000018cb5..00000000000192a7
  DW_CFA_advance_loc: 5 to 0000000000018cba
  DW_CFA_def_cfa_offset: 16
  DW_CFA_offset: r6 (rbp) at cfa-16
  DW_CFA_advance_loc: 3 to 0000000000018cbd
  DW_CFA_def_cfa_register: r6 (rbp)
  DW_CFA_advance_loc: 13 to 0000000000018cca
  DW_CFA_offset: r15 (r15) at cfa-24
  DW_CFA_offset: r14 (r14) at cfa-32
  DW_CFA_offset: r13 (r13) at cfa-40
  DW_CFA_offset: r12 (r12) at cfa-48
  DW_CFA_offset: r3 (rbx) at cfa-56
  DW_CFA_advance_loc2: 1500 to 00000000000192a6
  DW_CFA_def_cfa: r7 (rsp) ofs 8
  DW_CFA_nop
  DW_CFA_nop

000020ac 000000000000001c 000020b0 FDE cie=00000000 pc=00000000000192a7..000000000001931a
  DW_CFA_advance_loc: 5 to 00000000000192ac
  DW_CFA_def_cfa_offset: 16
  DW_CFA_offset: r6 (rbp) at cfa-16
  DW_CFA_advance_loc: 3 to 00000000000192af
  DW_CFA_def_cfa_register: r6 (rbp)
  DW_CFA_advance_loc1: 106 to 0000000000019319
  DW_CFA_def_cfa: r7 (rsp) ofs 8
  DW_CFA_nop
  DW_CFA_nop

000020cc 000000000000001c 000020d0 FDE cie=00000000 pc=000000000001931a..0000000000019420
  DW_CFA_advance_loc: 5 to 000000000001931f
  DW_CFA_def_cfa_offset: 16
  DW_CFA_offset: r6 (rbp) at cfa-16
  DW_CFA_advance_loc: 3 to 0000000000019322
  DW_CFA_def_cfa_register: r6 (rbp)
  DW_CFA_advance_loc1: 253 to 000000000001941f
  DW_CFA_def_cfa: r7 (rsp) ofs 8
  DW_CFA_nop
  DW_CFA_nop

000020ec 000000000000001c 000020f0 FDE cie=00000000 pc=0000000000019420..0000000000019504
  DW_CFA_advance_loc: 5 to 0000000000019425
  DW_CFA_def_cfa_offset: 16
  DW_CFA_offset: r6 (rbp) at cfa-16
  DW_CFA_advance_loc: 3 to 0000000000019428
  DW_CFA_def_cfa_register: r6 (rbp)
  DW_CFA_advance_loc1: 219 to 0000000000019503
  DW_CFA_def_cfa: r7 (rsp) ofs 8
  DW_CFA_nop
  DW_CFA_nop

0000210c 0000000000000020 00002110 FDE cie=00000000 pc=0000000000019504..00000000000195a8
  DW_CFA_advance_loc: 5 to 0000000000019509
  DW_CFA_def_cfa_offset: 16
  DW_CFA_offset: r6 (rbp) at cfa-16
  DW_CFA_advance_loc: 3 to 000000000001950c
  DW_CFA_def_cfa_register: r6 (rbp)
  DW_CFA_advance_loc1: 155 to 00000000000195a7
  DW_CFA_def_cfa: r7 (rsp) ofs 8
  DW_CFA_nop
  DW_CFA_nop
  DW_CFA_nop
  DW_CFA_nop
  DW_CFA_nop
  DW_CFA_nop

00002130 000000000000001c 00002134 FDE cie=00000000 pc=00000000000195a8..00000000000195d9
  DW_CFA_advance_loc: 5 to 00000000000195ad
  DW_CFA_def_cfa_offset: 16
  DW_CFA_offset: r6 (rbp) at cfa-16
  DW_CFA_advance_loc: 3 to 00000000000195b0
  DW_CFA_def_cfa_register: r6 (rbp)
  DW_CFA_advance_loc: 40 to 00000000000195d8
  DW_CFA_def_cfa: r7 (rsp) ofs 8
  DW_CFA_nop
  DW_CFA_nop
  DW_CFA_nop

00002150 000000000000001c 00002154 FDE cie=00000000 pc=00000000000195d9..00000000000195fb
  DW_CFA_advance_loc: 5 to 00000000000195de
  DW_CFA_def_cfa_offset: 16
  DW_CFA_offset: r6 (rbp) at cfa-16
  DW_CFA_advance_loc: 3 to 00000000000195e1
  DW_CFA_def_cfa_register: r6 (rbp)
  DW_CFA_advance_loc: 25 to 00000000000195fa
  DW_CFA_def_cfa: r7 (rsp) ofs 8
  DW_CFA_nop
  DW_CFA_nop
  DW_CFA_nop

00002170 000000000000001c 00002174 FDE cie=00000000 pc=00000000000195fb..0000000000019621
  DW_CFA_advance_loc: 5 to 0000000000019600
  DW_CFA_def_cfa_offset: 16
  DW_CFA_offset: r6 (rbp) at cfa-16
  DW_CFA_advance_loc: 3 to 0000000000019603
  DW_CFA_def_cfa_register: r6 (rbp)
  DW_CFA_advance_loc: 29 to 0000000000019620
  DW_CFA_def_cfa: r7 (rsp) ofs 8
  DW_CFA_nop
  DW_CFA_nop
  DW_CFA_nop

00002190 000000000000001c 00002194 FDE cie=00000000 pc=0000000000019621..0000000000019647
  DW_CFA_advance_loc: 5 to 0000000000019626
  DW_CFA_def_cfa_offset: 16
  DW_CFA_offset: r6 (rbp) at cfa-16
  DW_CFA_advance_loc: 3 to 0000000000019629
  DW_CFA_def_cfa_register: r6 (rbp)
  DW_CFA_advance_loc: 29 to 0000000000019646
  DW_CFA_def_cfa: r7 (rsp) ofs 8
  DW_CFA_nop
  DW_CFA_nop
  DW_CFA_nop

000021b0 000000000000001c 000021b4 FDE cie=00000000 pc=0000000000019647..0000000000019665
  DW_CFA_advance_loc: 5 to 000000000001964c
  DW_CFA_def_cfa_offset: 16
  DW_CFA_offset: r6 (rbp) at cfa-16
  DW_CFA_advance_loc: 3 to 000000000001964f
  DW_CFA_def_cfa_register: r6 (rbp)
  DW_CFA_advance_loc: 21 to 0000000000019664
  DW_CFA_def_cfa: r7 (rsp) ofs 8
  DW_CFA_nop
  DW_CFA_nop
  DW_CFA_nop

000021d0 000000000000001c 000021d4 FDE cie=00000000 pc=0000000000019665..00000000000196b0
  DW_CFA_advance_loc: 5 to 000000000001966a
  DW_CFA_def_cfa_offset: 16
  DW_CFA_offset: r6 (rbp) at cfa-16
  DW_CFA_advance_loc: 3 to 000000000001966d
  DW_CFA_def_cfa_register: r6 (rbp)
  DW_CFA_advance_loc1: 66 to 00000000000196af
  DW_CFA_def_cfa: r7 (rsp) ofs 8
  DW_CFA_nop
  DW_CFA_nop

000021f0 000000000000001c 000021f4 FDE cie=00000000 pc=00000000000196b0..00000000000196e1
  DW_CFA_advance_loc: 5 to 00000000000196b5
  DW_CFA_def_cfa_offset: 16
  DW_CFA_offset: r6 (rbp) at cfa-16
  DW_CFA_advance_loc: 3 to 00000000000196b8
  DW_CFA_def_cfa_register: r6 (rbp)
  DW_CFA_advance_loc: 40 to 00000000000196e0
  DW_CFA_def_cfa: r7 (rsp) ofs 8
  DW_CFA_nop
  DW_CFA_nop
  DW_CFA_nop

00002210 000000000000001c 00002214 FDE cie=00000000 pc=00000000000196e1..000000000001973b
  DW_CFA_advance_loc: 5 to 00000000000196e6
  DW_CFA_def_cfa_offset: 16
  DW_CFA_offset: r6 (rbp) at cfa-16
  DW_CFA_advance_loc: 3 to 00000000000196e9
  DW_CFA_def_cfa_register: r6 (rbp)
  DW_CFA_advance_loc1: 81 to 000000000001973a
  DW_CFA_def_cfa: r7 (rsp) ofs 8
  DW_CFA_nop
  DW_CFA_nop

00002230 000000000000001c 00002234 FDE cie=00000000 pc=000000000001973b..0000000000019774
  DW_CFA_advance_loc: 5 to 0000000000019740
  DW_CFA_def_cfa_offset: 16
  DW_CFA_offset: r6 (rbp) at cfa-16
  DW_CFA_advance_loc: 3 to 0000000000019743
  DW_CFA_def_cfa_register: r6 (rbp)
  DW_CFA_advance_loc: 48 to 0000000000019773
  DW_CFA_def_cfa: r7 (rsp) ofs 8
  DW_CFA_nop
  DW_CFA_nop
  DW_CFA_nop

00002250 000000000000001c 00002254 FDE cie=00000000 pc=0000000000019774..000000000001979f
  DW_CFA_advance_loc: 5 to 0000000000019779
  DW_CFA_def_cfa_offset: 16
  DW_CFA_offset: r6 (rbp) at cfa-16
  DW_CFA_advance_loc: 3 to 000000000001977c
  DW_CFA_def_cfa_register: r6 (rbp)
  DW_CFA_advance_loc: 34 to 000000000001979e
  DW_CFA_def_cfa: r7 (rsp) ofs 8
  DW_CFA_nop
  DW_CFA_nop
  DW_CFA_nop

00002270 000000000000001c 00002274 FDE cie=00000000 pc=000000000001979f..00000000000197ca
  DW_CFA_advance_loc: 5 to 00000000000197a4
  DW_CFA_def_cfa_offset: 16
  DW_CFA_offset: r6 (rbp) at cfa-16
  DW_CFA_advance_loc: 3 to 00000000000197a7
  DW_CFA_def_cfa_register: r6 (rbp)
  DW_CFA_advance_loc: 34 to 00000000000197c9
  DW_CFA_def_cfa: r7 (rsp) ofs 8
  DW_CFA_nop
  DW_CFA_nop
  DW_CFA_nop

00002290 000000000000001c 00002294 FDE cie=00000000 pc=00000000000197ca..00000000000197f8
  DW_CFA_advance_loc: 5 to 00000000000197cf
  DW_CFA_def_cfa_offset: 16
  DW_CFA_offset: r6 (rbp) at cfa-16
  DW_CFA_advance_loc: 3 to 00000000000197d2
  DW_CFA_def_cfa_register: r6 (rbp)
  DW_CFA_advance_loc: 37 to 00000000000197f7
  DW_CFA_def_cfa: r7 (rsp) ofs 8
  DW_CFA_nop
  DW_CFA_nop
  DW_CFA_nop

000022b0 000000000000001c 000022b4 FDE cie=00000000 pc=00000000000197f8..00000000000198d7
  DW_CFA_advance_loc: 5 to 00000000000197fd
  DW_CFA_def_cfa_offset: 16
  DW_CFA_offset: r6 (rbp) at cfa-16
  DW_CFA_advance_loc: 3 to 0000000000019800
  DW_CFA_def_cfa_register: r6 (rbp)
  DW_CFA_advance_loc1: 214 to 00000000000198d6
  DW_CFA_def_cfa: r7 (rsp) ofs 8
  DW_CFA_nop
  DW_CFA_nop

000022d0 000000000000001c 000022d4 FDE cie=00000000 pc=00000000000198d7..0000000000019a93
  DW_CFA_advance_loc: 5 to 00000000000198dc
  DW_CFA_def_cfa_offset: 16
  DW_CFA_offset: r6 (rbp) at cfa-16
  DW_CFA_advance_loc: 3 to 00000000000198df
  DW_CFA_def_cfa_register: r6 (rbp)
  DW_CFA_advance_loc2: 435 to 0000000000019a92
  DW_CFA_def_cfa: r7 (rsp) ofs 8
  DW_CFA_nop

000022f0 000000000000001c 000022f4 FDE cie=00000000 pc=0000000000019a93..0000000000019ab6
  DW_CFA_advance_loc: 5 to 0000000000019a98
  DW_CFA_def_cfa_offset: 16
  DW_CFA_offset: r6 (rbp) at cfa-16
  DW_CFA_advance_loc: 3 to 0000000000019a9b
  DW_CFA_def_cfa_register: r6 (rbp)
  DW_CFA_advance_loc: 26 to 0000000000019ab5
  DW_CFA_def_cfa: r7 (rsp) ofs 8
  DW_CFA_nop
  DW_CFA_nop
  DW_CFA_nop

00002310 000000000000001c 00002314 FDE cie=00000000 pc=0000000000019ab6..0000000000019ad9
  DW_CFA_advance_loc: 5 to 0000000000019abb
  DW_CFA_def_cfa_offset: 16
  DW_CFA_offset: r6 (rbp) at cfa-16
  DW_CFA_advance_loc: 3 to 0000000000019abe
  DW_CFA_def_cfa_register: r6 (rbp)
  DW_CFA_advance_loc: 26 to 0000000000019ad8
  DW_CFA_def_cfa: r7 (rsp) ofs 8
  DW_CFA_nop
  DW_CFA_nop
  DW_CFA_nop

00002330 000000000000001c 00002334 FDE cie=00000000 pc=0000000000019ad9..0000000000019b0a
  DW_CFA_advance_loc: 5 to 0000000000019ade
  DW_CFA_def_cfa_offset: 16
  DW_CFA_offset: r6 (rbp) at cfa-16
  DW_CFA_advance_loc: 3 to 0000000000019ae1
  DW_CFA_def_cfa_register: r6 (rbp)
  DW_CFA_advance_loc: 40 to 0000000000019b09
  DW_CFA_def_cfa: r7 (rsp) ofs 8
  DW_CFA_nop
  DW_CFA_nop
  DW_CFA_nop

00002350 000000000000001c 00002354 FDE cie=00000000 pc=0000000000019b0a..0000000000019b3b
  DW_CFA_advance_loc: 5 to 0000000000019b0f
  DW_CFA_def_cfa_offset: 16
  DW_CFA_offset: r6 (rbp) at cfa-16
  DW_CFA_advance_loc: 3 to 0000000000019b12
  DW_CFA_def_cfa_register: r6 (rbp)
  DW_CFA_advance_loc: 40 to 0000000000019b3a
  DW_CFA_def_cfa: r7 (rsp) ofs 8
  DW_CFA_nop
  DW_CFA_nop
  DW_CFA_nop

00002370 000000000000001c 00002374 FDE cie=00000000 pc=0000000000019b3b..0000000000019b73
  DW_CFA_advance_loc: 5 to 0000000000019b40
  DW_CFA_def_cfa_offset: 16
  DW_CFA_offset: r6 (rbp) at cfa-16
  DW_CFA_advance_loc: 3 to 0000000000019b43
  DW_CFA_def_cfa_register: r6 (rbp)
  DW_CFA_advance_loc: 47 to 0000000000019b72
  DW_CFA_def_cfa: r7 (rsp) ofs 8
  DW_CFA_nop
  DW_CFA_nop
  DW_CFA_nop

00002390 000000000000001c 00002394 FDE cie=00000000 pc=0000000000019b73..0000000000019bb3
  DW_CFA_advance_loc: 5 to 0000000000019b78
  DW_CFA_def_cfa_offset: 16
  DW_CFA_offset: r6 (rbp) at cfa-16
  DW_CFA_advance_loc: 3 to 0000000000019b7b
  DW_CFA_def_cfa_register: r6 (rbp)
  DW_CFA_advance_loc: 5 to 0000000000019b80
  DW_CFA_offset: r3 (rbx) at cfa-24
  DW_CFA_advance_loc: 50 to 0000000000019bb2
  DW_CFA_def_cfa: r7 (rsp) ofs 8

000023b0 000000000000001c 000023b4 FDE cie=00000000 pc=0000000000019bb3..0000000000019c02
  DW_CFA_advance_loc: 5 to 0000000000019bb8
  DW_CFA_def_cfa_offset: 16
  DW_CFA_offset: r6 (rbp) at cfa-16
  DW_CFA_advance_loc: 3 to 0000000000019bbb
  DW_CFA_def_cfa_register: r6 (rbp)
  DW_CFA_advance_loc1: 70 to 0000000000019c01
  DW_CFA_def_cfa: r7 (rsp) ofs 8
  DW_CFA_nop
  DW_CFA_nop

000023d0 000000000000001c 000023d4 FDE cie=00000000 pc=0000000000019c02..0000000000019c33
  DW_CFA_advance_loc: 5 to 0000000000019c07
  DW_CFA_def_cfa_offset: 16
  DW_CFA_offset: r6 (rbp) at cfa-16
  DW_CFA_advance_loc: 3 to 0000000000019c0a
  DW_CFA_def_cfa_register: r6 (rbp)
  DW_CFA_advance_loc: 40 to 0000000000019c32
  DW_CFA_def_cfa: r7 (rsp) ofs 8
  DW_CFA_nop
  DW_CFA_nop
  DW_CFA_nop

000023f0 000000000000001c 000023f4 FDE cie=00000000 pc=0000000000019c33..0000000000019c73
  DW_CFA_advance_loc: 5 to 0000000000019c38
  DW_CFA_def_cfa_offset: 16
  DW_CFA_offset: r6 (rbp) at cfa-16
  DW_CFA_advance_loc: 3 to 0000000000019c3b
  DW_CFA_def_cfa_register: r6 (rbp)
  DW_CFA_nop
  DW_CFA_nop
  DW_CFA_nop
  DW_CFA_nop
  DW_CFA_nop
  DW_CFA_nop
  DW_CFA_nop

00002410 0000000000000020 00002414 FDE cie=00000000 pc=0000000000019c73..0000000000019d5a
  DW_CFA_advance_loc: 5 to 0000000000019c78
  DW_CFA_def_cfa_offset: 16
  DW_CFA_offset: r6 (rbp) at cfa-16
  DW_CFA_advance_loc: 3 to 0000000000019c7b
  DW_CFA_def_cfa_register: r6 (rbp)
  DW_CFA_advance_loc: 7 to 0000000000019c82
  DW_CFA_offset: r12 (r12) at cfa-24
  DW_CFA_offset: r3 (rbx) at cfa-32
  DW_CFA_advance_loc1: 215 to 0000000000019d59
  DW_CFA_def_cfa: r7 (rsp) ofs 8
  DW_CFA_nop

00002434 000000000000001c 00002438 FDE cie=00000000 pc=0000000000019d5a..0000000000019dc3
  DW_CFA_advance_loc: 5 to 0000000000019d5f
  DW_CFA_def_cfa_offset: 16
  DW_CFA_offset: r6 (rbp) at cfa-16
  DW_CFA_advance_loc: 3 to 0000000000019d62
  DW_CFA_def_cfa_register: r6 (rbp)
  DW_CFA_advance_loc1: 96 to 0000000000019dc2
  DW_CFA_def_cfa: r7 (rsp) ofs 8
  DW_CFA_nop
  DW_CFA_nop

00002454 0000000000000020 00002458 FDE cie=00000000 pc=0000000000019dc3..0000000000019e3a
  DW_CFA_advance_loc: 5 to 0000000000019dc8
  DW_CFA_def_cfa_offset: 16
  DW_CFA_offset: r6 (rbp) at cfa-16
  DW_CFA_advance_loc: 3 to 0000000000019dcb
  DW_CFA_def_cfa_register: r6 (rbp)
  DW_CFA_advance_loc1: 110 to 0000000000019e39
  DW_CFA_def_cfa: r7 (rsp) ofs 8
  DW_CFA_nop
  DW_CFA_nop
  DW_CFA_nop
  DW_CFA_nop
  DW_CFA_nop
  DW_CFA_nop

00002478 000000000000001c 0000247c FDE cie=00000000 pc=0000000000019e3a..0000000000019eec
  DW_CFA_advance_loc: 5 to 0000000000019e3f
  DW_CFA_def_cfa_offset: 16
  DW_CFA_offset: r6 (rbp) at cfa-16
  DW_CFA_advance_loc: 3 to 0000000000019e42
  DW_CFA_def_cfa_register: r6 (rbp)
  DW_CFA_advance_loc1: 169 to 0000000000019eeb
  DW_CFA_def_cfa: r7 (rsp) ofs 8
  DW_CFA_nop
  DW_CFA_nop

00002498 000000000000001c 0000249c FDE cie=00000000 pc=0000000000019eec..000000000001a00a
  DW_CFA_advance_loc: 5 to 0000000000019ef1
  DW_CFA_def_cfa_offset: 16
  DW_CFA_offset: r6 (rbp) at cfa-16
  DW_CFA_advance_loc: 3 to 0000000000019ef4
  DW_CFA_def_cfa_register: r6 (rbp)
  DW_CFA_advance_loc2: 277 to 000000000001a009
  DW_CFA_def_cfa: r7 (rsp) ofs 8
  DW_CFA_nop

000024b8 000000000000001c 000024bc FDE cie=00000000 pc=000000000001a00a..000000000001a054
  DW_CFA_advance_loc: 5 to 000000000001a00f
  DW_CFA_def_cfa_offset: 16
  DW_CFA_offset: r6 (rbp) at cfa-16
  DW_CFA_advance_loc: 3 to 000000000001a012
  DW_CFA_def_cfa_register: r6 (rbp)
  DW_CFA_nop
  DW_CFA_nop
  DW_CFA_nop
  DW_CFA_nop
  DW_CFA_nop
  DW_CFA_nop
  DW_CFA_nop

000024d8 000000000000001c 000024dc FDE cie=00000000 pc=000000000001a054..000000000001a0e6
  DW_CFA_advance_loc: 5 to 000000000001a059
  DW_CFA_def_cfa_offset: 16
  DW_CFA_offset: r6 (rbp) at cfa-16
  DW_CFA_advance_loc: 3 to 000000000001a05c
  DW_CFA_def_cfa_register: r6 (rbp)
  DW_CFA_advance_loc1: 137 to 000000000001a0e5
  DW_CFA_def_cfa: r7 (rsp) ofs 8
  DW_CFA_nop
  DW_CFA_nop

000024f8 000000000000001c 000024fc FDE cie=00000000 pc=000000000001a0e6..000000000001a12b
  DW_CFA_advance_loc: 5 to 000000000001a0eb
  DW_CFA_def_cfa_offset: 16
  DW_CFA_offset: r6 (rbp) at cfa-16
  DW_CFA_advance_loc: 3 to 000000000001a0ee
  DW_CFA_def_cfa_register: r6 (rbp)
  DW_CFA_advance_loc: 60 to 000000000001a12a
  DW_CFA_def_cfa: r7 (rsp) ofs 8
  DW_CFA_nop
  DW_CFA_nop
  DW_CFA_nop

00002518 000000000000001c 0000251c FDE cie=00000000 pc=000000000001a12b..000000000001a589
  DW_CFA_advance_loc: 5 to 000000000001a130
  DW_CFA_def_cfa_offset: 16
  DW_CFA_offset: r6 (rbp) at cfa-16
  DW_CFA_advance_loc: 3 to 000000000001a133
  DW_CFA_def_cfa_register: r6 (rbp)
  DW_CFA_advance_loc2: 1109 to 000000000001a588
  DW_CFA_def_cfa: r7 (rsp) ofs 8
  DW_CFA_nop

00002538 000000000000001c 0000253c FDE cie=00000000 pc=000000000001a589..000000000001a5a9
  DW_CFA_advance_loc: 5 to 000000000001a58e
  DW_CFA_def_cfa_offset: 16
  DW_CFA_offset: r6 (rbp) at cfa-16
  DW_CFA_advance_loc: 3 to 000000000001a591
  DW_CFA_def_cfa_register: r6 (rbp)
  DW_CFA_advance_loc: 23 to 000000000001a5a8
  DW_CFA_def_cfa: r7 (rsp) ofs 8
  DW_CFA_nop
  DW_CFA_nop
  DW_CFA_nop

00002558 000000000000001c 0000255c FDE cie=00000000 pc=000000000001a5a9..000000000001a5c9
  DW_CFA_advance_loc: 5 to 000000000001a5ae
  DW_CFA_def_cfa_offset: 16
  DW_CFA_offset: r6 (rbp) at cfa-16
  DW_CFA_advance_loc: 3 to 000000000001a5b1
  DW_CFA_def_cfa_register: r6 (rbp)
  DW_CFA_advance_loc: 23 to 000000000001a5c8
  DW_CFA_def_cfa: r7 (rsp) ofs 8
  DW_CFA_nop
  DW_CFA_nop
  DW_CFA_nop

00002578 000000000000001c 0000257c FDE cie=00000000 pc=000000000001a5c9..000000000001a5e5
  DW_CFA_advance_loc: 5 to 000000000001a5ce
  DW_CFA_def_cfa_offset: 16
  DW_CFA_offset: r6 (rbp) at cfa-16
  DW_CFA_advance_loc: 3 to 000000000001a5d1
  DW_CFA_def_cfa_register: r6 (rbp)
  DW_CFA_advance_loc: 19 to 000000000001a5e4
  DW_CFA_def_cfa: r7 (rsp) ofs 8
  DW_CFA_nop
  DW_CFA_nop
  DW_CFA_nop

00002598 000000000000001c 0000259c FDE cie=00000000 pc=000000000001a5e5..000000000001a601
  DW_CFA_advance_loc: 5 to 000000000001a5ea
  DW_CFA_def_cfa_offset: 16
  DW_CFA_offset: r6 (rbp) at cfa-16
  DW_CFA_advance_loc: 3 to 000000000001a5ed
  DW_CFA_def_cfa_register: r6 (rbp)
  DW_CFA_advance_loc: 19 to 000000000001a600
  DW_CFA_def_cfa: r7 (rsp) ofs 8
  DW_CFA_nop
  DW_CFA_nop
  DW_CFA_nop

000025b8 000000000000001c 000025bc FDE cie=00000000 pc=000000000001a601..000000000001a63a
  DW_CFA_advance_loc: 5 to 000000000001a606
  DW_CFA_def_cfa_offset: 16
  DW_CFA_offset: r6 (rbp) at cfa-16
  DW_CFA_advance_loc: 3 to 000000000001a609
  DW_CFA_def_cfa_register: r6 (rbp)
  DW_CFA_advance_loc: 48 to 000000000001a639
  DW_CFA_def_cfa: r7 (rsp) ofs 8
  DW_CFA_nop
  DW_CFA_nop
  DW_CFA_nop

000025d8 000000000000001c 000025dc FDE cie=00000000 pc=000000000001a63a..000000000001a673
  DW_CFA_advance_loc: 5 to 000000000001a63f
  DW_CFA_def_cfa_offset: 16
  DW_CFA_offset: r6 (rbp) at cfa-16
  DW_CFA_advance_loc: 3 to 000000000001a642
  DW_CFA_def_cfa_register: r6 (rbp)
  DW_CFA_advance_loc: 48 to 000000000001a672
  DW_CFA_def_cfa: r7 (rsp) ofs 8
  DW_CFA_nop
  DW_CFA_nop
  DW_CFA_nop

000025f8 000000000000001c 000025fc FDE cie=00000000 pc=000000000001a673..000000000001a6a9
  DW_CFA_advance_loc: 5 to 000000000001a678
  DW_CFA_def_cfa_offset: 16
  DW_CFA_offset: r6 (rbp) at cfa-16
  DW_CFA_advance_loc: 3 to 000000000001a67b
  DW_CFA_def_cfa_register: r6 (rbp)
  DW_CFA_advance_loc: 45 to 000000000001a6a8
  DW_CFA_def_cfa: r7 (rsp) ofs 8
  DW_CFA_nop
  DW_CFA_nop
  DW_CFA_nop

00002618 000000000000001c 0000261c FDE cie=00000000 pc=000000000001a6a9..000000000001a6df
  DW_CFA_advance_loc: 5 to 000000000001a6ae
  DW_CFA_def_cfa_offset: 16
  DW_CFA_offset: r6 (rbp) at cfa-16
  DW_CFA_advance_loc: 3 to 000000000001a6b1
  DW_CFA_def_cfa_register: r6 (rbp)
  DW_CFA_advance_loc: 45 to 000000000001a6de
  DW_CFA_def_cfa: r7 (rsp) ofs 8
  DW_CFA_nop
  DW_CFA_nop
  DW_CFA_nop

00002638 000000000000001c 0000263c FDE cie=00000000 pc=000000000001a6df..000000000001a714
  DW_CFA_advance_loc: 5 to 000000000001a6e4
  DW_CFA_def_cfa_offset: 16
  DW_CFA_offset: r6 (rbp) at cfa-16
  DW_CFA_advance_loc: 3 to 000000000001a6e7
  DW_CFA_def_cfa_register: r6 (rbp)
  DW_CFA_advance_loc: 44 to 000000000001a713
  DW_CFA_def_cfa: r7 (rsp) ofs 8
  DW_CFA_nop
  DW_CFA_nop
  DW_CFA_nop

00002658 000000000000001c 0000265c FDE cie=00000000 pc=000000000001a714..000000000001a749
  DW_CFA_advance_loc: 5 to 000000000001a719
  DW_CFA_def_cfa_offset: 16
  DW_CFA_offset: r6 (rbp) at cfa-16
  DW_CFA_advance_loc: 3 to 000000000001a71c
  DW_CFA_def_cfa_register: r6 (rbp)
  DW_CFA_advance_loc: 44 to 000000000001a748
  DW_CFA_def_cfa: r7 (rsp) ofs 8
  DW_CFA_nop
  DW_CFA_nop
  DW_CFA_nop

00002678 000000000000001c 0000267c FDE cie=00000000 pc=000000000001a749..000000000001a787
  DW_CFA_advance_loc: 5 to 000000000001a74e
  DW_CFA_def_cfa_offset: 16
  DW_CFA_offset: r6 (rbp) at cfa-16
  DW_CFA_advance_loc: 3 to 000000000001a751
  DW_CFA_def_cfa_register: r6 (rbp)
  DW_CFA_advance_loc: 53 to 000000000001a786
  DW_CFA_def_cfa: r7 (rsp) ofs 8
  DW_CFA_nop
  DW_CFA_nop
  DW_CFA_nop

00002698 000000000000001c 0000269c FDE cie=00000000 pc=000000000001a787..000000000001a7b9
  DW_CFA_advance_loc: 5 to 000000000001a78c
  DW_CFA_def_cfa_offset: 16
  DW_CFA_offset: r6 (rbp) at cfa-16
  DW_CFA_advance_loc: 3 to 000000000001a78f
  DW_CFA_def_cfa_register: r6 (rbp)
  DW_CFA_advance_loc: 41 to 000000000001a7b8
  DW_CFA_def_cfa: r7 (rsp) ofs 8
  DW_CFA_nop
  DW_CFA_nop
  DW_CFA_nop

000026b8 000000000000001c 000026bc FDE cie=00000000 pc=000000000001a7b9..000000000001a7da
  DW_CFA_advance_loc: 5 to 000000000001a7be
  DW_CFA_def_cfa_offset: 16
  DW_CFA_offset: r6 (rbp) at cfa-16
  DW_CFA_advance_loc: 3 to 000000000001a7c1
  DW_CFA_def_cfa_register: r6 (rbp)
  DW_CFA_advance_loc: 24 to 000000000001a7d9
  DW_CFA_def_cfa: r7 (rsp) ofs 8
  DW_CFA_nop
  DW_CFA_nop
  DW_CFA_nop

000026d8 000000000000001c 000026dc FDE cie=00000000 pc=000000000001a7da..000000000001a802
  DW_CFA_advance_loc: 5 to 000000000001a7df
  DW_CFA_def_cfa_offset: 16
  DW_CFA_offset: r6 (rbp) at cfa-16
  DW_CFA_advance_loc: 3 to 000000000001a7e2
  DW_CFA_def_cfa_register: r6 (rbp)
  DW_CFA_advance_loc: 31 to 000000000001a801
  DW_CFA_def_cfa: r7 (rsp) ofs 8
  DW_CFA_nop
  DW_CFA_nop
  DW_CFA_nop

000026f8 000000000000001c 000026fc FDE cie=00000000 pc=000000000001a802..000000000001a82f
  DW_CFA_advance_loc: 5 to 000000000001a807
  DW_CFA_def_cfa_offset: 16
  DW_CFA_offset: r6 (rbp) at cfa-16
  DW_CFA_advance_loc: 3 to 000000000001a80a
  DW_CFA_def_cfa_register: r6 (rbp)
  DW_CFA_advance_loc: 36 to 000000000001a82e
  DW_CFA_def_cfa: r7 (rsp) ofs 8
  DW_CFA_nop
  DW_CFA_nop
  DW_CFA_nop

00002718 000000000000001c 0000271c FDE cie=00000000 pc=000000000001a82f..000000000001a853
  DW_CFA_advance_loc: 5 to 000000000001a834
  DW_CFA_def_cfa_offset: 16
  DW_CFA_offset: r6 (rbp) at cfa-16
  DW_CFA_advance_loc: 3 to 000000000001a837
  DW_CFA_def_cfa_register: r6 (rbp)
  DW_CFA_advance_loc: 27 to 000000000001a852
  DW_CFA_def_cfa: r7 (rsp) ofs 8
  DW_CFA_nop
  DW_CFA_nop
  DW_CFA_nop

00002738 000000000000001c 0000273c FDE cie=00000000 pc=000000000001a853..000000000001a877
  DW_CFA_advance_loc: 5 to 000000000001a858
  DW_CFA_def_cfa_offset: 16
  DW_CFA_offset: r6 (rbp) at cfa-16
  DW_CFA_advance_loc: 3 to 000000000001a85b
  DW_CFA_def_cfa_register: r6 (rbp)
  DW_CFA_advance_loc: 27 to 000000000001a876
  DW_CFA_def_cfa: r7 (rsp) ofs 8
  DW_CFA_nop
  DW_CFA_nop
  DW_CFA_nop

00002758 000000000000001c 0000275c FDE cie=00000000 pc=000000000001a877..000000000001a89b
  DW_CFA_advance_loc: 5 to 000000000001a87c
  DW_CFA_def_cfa_offset: 16
  DW_CFA_offset: r6 (rbp) at cfa-16
  DW_CFA_advance_loc: 3 to 000000000001a87f
  DW_CFA_def_cfa_register: r6 (rbp)
  DW_CFA_advance_loc: 27 to 000000000001a89a
  DW_CFA_def_cfa: r7 (rsp) ofs 8
  DW_CFA_nop
  DW_CFA_nop
  DW_CFA_nop

00002778 000000000000001c 0000277c FDE cie=00000000 pc=000000000001a89b..000000000001a8bf
  DW_CFA_advance_loc: 5 to 000000000001a8a0
  DW_CFA_def_cfa_offset: 16
  DW_CFA_offset: r6 (rbp) at cfa-16
  DW_CFA_advance_loc: 3 to 000000000001a8a3
  DW_CFA_def_cfa_register: r6 (rbp)
  DW_CFA_advance_loc: 27 to 000000000001a8be
  DW_CFA_def_cfa: r7 (rsp) ofs 8
  DW_CFA_nop
  DW_CFA_nop
  DW_CFA_nop

00002798 000000000000001c 0000279c FDE cie=00000000 pc=000000000001a8bf..000000000001a909
  DW_CFA_advance_loc: 5 to 000000000001a8c4
  DW_CFA_def_cfa_offset: 16
  DW_CFA_offset: r6 (rbp) at cfa-16
  DW_CFA_advance_loc: 3 to 000000000001a8c7
  DW_CFA_def_cfa_register: r6 (rbp)
  DW_CFA_advance_loc1: 65 to 000000000001a908
  DW_CFA_def_cfa: r7 (rsp) ofs 8
  DW_CFA_nop
  DW_CFA_nop

000027b8 000000000000001c 000027bc FDE cie=00000000 pc=000000000001a909..000000000001a936
  DW_CFA_advance_loc: 5 to 000000000001a90e
  DW_CFA_def_cfa_offset: 16
  DW_CFA_offset: r6 (rbp) at cfa-16
  DW_CFA_advance_loc: 3 to 000000000001a911
  DW_CFA_def_cfa_register: r6 (rbp)
  DW_CFA_advance_loc: 36 to 000000000001a935
  DW_CFA_def_cfa: r7 (rsp) ofs 8
  DW_CFA_nop
  DW_CFA_nop
  DW_CFA_nop

000027d8 000000000000001c 000027dc FDE cie=00000000 pc=000000000001a936..000000000001a95a
  DW_CFA_advance_loc: 5 to 000000000001a93b
  DW_CFA_def_cfa_offset: 16
  DW_CFA_offset: r6 (rbp) at cfa-16
  DW_CFA_advance_loc: 3 to 000000000001a93e
  DW_CFA_def_cfa_register: r6 (rbp)
  DW_CFA_advance_loc: 27 to 000000000001a959
  DW_CFA_def_cfa: r7 (rsp) ofs 8
  DW_CFA_nop
  DW_CFA_nop
  DW_CFA_nop

000027f8 000000000000001c 000027fc FDE cie=00000000 pc=000000000001a95a..000000000001a9a2
  DW_CFA_advance_loc: 5 to 000000000001a95f
  DW_CFA_def_cfa_offset: 16
  DW_CFA_offset: r6 (rbp) at cfa-16
  DW_CFA_advance_loc: 3 to 000000000001a962
  DW_CFA_def_cfa_register: r6 (rbp)
  DW_CFA_advance_loc: 63 to 000000000001a9a1
  DW_CFA_def_cfa: r7 (rsp) ofs 8
  DW_CFA_nop
  DW_CFA_nop
  DW_CFA_nop

00002818 000000000000001c 0000281c FDE cie=00000000 pc=000000000001a9a2..000000000001a9c5
  DW_CFA_advance_loc: 5 to 000000000001a9a7
  DW_CFA_def_cfa_offset: 16
  DW_CFA_offset: r6 (rbp) at cfa-16
  DW_CFA_advance_loc: 3 to 000000000001a9aa
  DW_CFA_def_cfa_register: r6 (rbp)
  DW_CFA_advance_loc: 26 to 000000000001a9c4
  DW_CFA_def_cfa: r7 (rsp) ofs 8
  DW_CFA_nop
  DW_CFA_nop
  DW_CFA_nop

00002838 000000000000001c 0000283c FDE cie=00000000 pc=000000000001a9c5..000000000001a9e8
  DW_CFA_advance_loc: 5 to 000000000001a9ca
  DW_CFA_def_cfa_offset: 16
  DW_CFA_offset: r6 (rbp) at cfa-16
  DW_CFA_advance_loc: 3 to 000000000001a9cd
  DW_CFA_def_cfa_register: r6 (rbp)
  DW_CFA_advance_loc: 26 to 000000000001a9e7
  DW_CFA_def_cfa: r7 (rsp) ofs 8
  DW_CFA_nop
  DW_CFA_nop
  DW_CFA_nop

00002858 0000000000000024 0000285c FDE cie=00000000 pc=000000000001a9e8..000000000001aa62
  DW_CFA_advance_loc: 5 to 000000000001a9ed
  DW_CFA_def_cfa_offset: 16
  DW_CFA_offset: r6 (rbp) at cfa-16
  DW_CFA_advance_loc: 3 to 000000000001a9f0
  DW_CFA_def_cfa_register: r6 (rbp)
  DW_CFA_advance_loc: 7 to 000000000001a9f7
  DW_CFA_offset: r12 (r12) at cfa-24
  DW_CFA_offset: r3 (rbx) at cfa-32
  DW_CFA_advance_loc1: 106 to 000000000001aa61
  DW_CFA_def_cfa: r7 (rsp) ofs 8
  DW_CFA_nop
  DW_CFA_nop
  DW_CFA_nop
  DW_CFA_nop
  DW_CFA_nop

00002880 000000000000001c 00002884 FDE cie=00000000 pc=000000000001aa62..000000000001aaf1
  DW_CFA_advance_loc: 5 to 000000000001aa67
  DW_CFA_def_cfa_offset: 16
  DW_CFA_offset: r6 (rbp) at cfa-16
  DW_CFA_advance_loc: 3 to 000000000001aa6a
  DW_CFA_def_cfa_register: r6 (rbp)
  DW_CFA_advance_loc1: 134 to 000000000001aaf0
  DW_CFA_def_cfa: r7 (rsp) ofs 8
  DW_CFA_nop
  DW_CFA_nop

000028a0 000000000000001c 000028a4 FDE cie=00000000 pc=000000000001aaf1..000000000001ac51
  DW_CFA_advance_loc: 5 to 000000000001aaf6
  DW_CFA_def_cfa_offset: 16
  DW_CFA_offset: r6 (rbp) at cfa-16
  DW_CFA_advance_loc: 3 to 000000000001aaf9
  DW_CFA_def_cfa_register: r6 (rbp)
  DW_CFA_advance_loc2: 343 to 000000000001ac50
  DW_CFA_def_cfa: r7 (rsp) ofs 8
  DW_CFA_nop

000028c0 000000000000001c 000028c4 FDE cie=00000000 pc=000000000001ac51..000000000001afc3
  DW_CFA_advance_loc: 5 to 000000000001ac56
  DW_CFA_def_cfa_offset: 16
  DW_CFA_offset: r6 (rbp) at cfa-16
  DW_CFA_advance_loc: 3 to 000000000001ac59
  DW_CFA_def_cfa_register: r6 (rbp)
  DW_CFA_advance_loc2: 873 to 000000000001afc2
  DW_CFA_def_cfa: r7 (rsp) ofs 8
  DW_CFA_nop

000028e0 000000000000001c 000028e4 FDE cie=00000000 pc=000000000001afc3..000000000001aff4
  DW_CFA_advance_loc: 5 to 000000000001afc8
  DW_CFA_def_cfa_offset: 16
  DW_CFA_offset: r6 (rbp) at cfa-16
  DW_CFA_advance_loc: 3 to 000000000001afcb
  DW_CFA_def_cfa_register: r6 (rbp)
  DW_CFA_advance_loc: 40 to 000000000001aff3
  DW_CFA_def_cfa: r7 (rsp) ofs 8
  DW_CFA_nop
  DW_CFA_nop
  DW_CFA_nop

00002900 000000000000001c 00002904 FDE cie=00000000 pc=000000000001aff4..000000000001b0f7
  DW_CFA_advance_loc: 5 to 000000000001aff9
  DW_CFA_def_cfa_offset: 16
  DW_CFA_offset: r6 (rbp) at cfa-16
  DW_CFA_advance_loc: 3 to 000000000001affc
  DW_CFA_def_cfa_register: r6 (rbp)
  DW_CFA_advance_loc1: 250 to 000000000001b0f6
  DW_CFA_def_cfa: r7 (rsp) ofs 8
  DW_CFA_nop
  DW_CFA_nop

00002920 000000000000001c 00002924 FDE cie=00000000 pc=000000000001b0f7..000000000001b150
  DW_CFA_advance_loc: 5 to 000000000001b0fc
  DW_CFA_def_cfa_offset: 16
  DW_CFA_offset: r6 (rbp) at cfa-16
  DW_CFA_advance_loc: 3 to 000000000001b0ff
  DW_CFA_def_cfa_register: r6 (rbp)
  DW_CFA_advance_loc1: 80 to 000000000001b14f
  DW_CFA_def_cfa: r7 (rsp) ofs 8
  DW_CFA_nop
  DW_CFA_nop

00002940 000000000000001c 00002944 FDE cie=00000000 pc=000000000001b150..000000000001b192
  DW_CFA_advance_loc: 5 to 000000000001b155
  DW_CFA_def_cfa_offset: 16
  DW_CFA_offset: r6 (rbp) at cfa-16
  DW_CFA_advance_loc: 3 to 000000000001b158
  DW_CFA_def_cfa_register: r6 (rbp)
  DW_CFA_advance_loc: 57 to 000000000001b191
  DW_CFA_def_cfa: r7 (rsp) ofs 8
  DW_CFA_nop
  DW_CFA_nop
  DW_CFA_nop

00002960 000000000000001c 00002964 FDE cie=00000000 pc=000000000001b192..000000000001b27c
  DW_CFA_advance_loc: 5 to 000000000001b197
  DW_CFA_def_cfa_offset: 16
  DW_CFA_offset: r6 (rbp) at cfa-16
  DW_CFA_advance_loc: 3 to 000000000001b19a
  DW_CFA_def_cfa_register: r6 (rbp)
  DW_CFA_advance_loc1: 225 to 000000000001b27b
  DW_CFA_def_cfa: r7 (rsp) ofs 8
  DW_CFA_nop
  DW_CFA_nop

00002980 000000000000001c 00002984 FDE cie=00000000 pc=000000000001b27c..000000000001b296
  DW_CFA_advance_loc: 5 to 000000000001b281
  DW_CFA_def_cfa_offset: 16
  DW_CFA_offset: r6 (rbp) at cfa-16
  DW_CFA_advance_loc: 3 to 000000000001b284
  DW_CFA_def_cfa_register: r6 (rbp)
  DW_CFA_advance_loc: 17 to 000000000001b295
  DW_CFA_def_cfa: r7 (rsp) ofs 8
  DW_CFA_nop
  DW_CFA_nop
  DW_CFA_nop

000029a0 000000000000001c 000029a4 FDE cie=00000000 pc=000000000001b296..000000000001b2b4
  DW_CFA_advance_loc: 5 to 000000000001b29b
  DW_CFA_def_cfa_offset: 16
  DW_CFA_offset: r6 (rbp) at cfa-16
  DW_CFA_advance_loc: 3 to 000000000001b29e
  DW_CFA_def_cfa_register: r6 (rbp)
  DW_CFA_advance_loc: 21 to 000000000001b2b3
  DW_CFA_def_cfa: r7 (rsp) ofs 8
  DW_CFA_nop
  DW_CFA_nop
  DW_CFA_nop

000029c0 000000000000001c 000029c4 FDE cie=00000000 pc=000000000001b2b4..000000000001b2eb
  DW_CFA_advance_loc: 5 to 000000000001b2b9
  DW_CFA_def_cfa_offset: 16
  DW_CFA_offset: r6 (rbp) at cfa-16
  DW_CFA_advance_loc: 3 to 000000000001b2bc
  DW_CFA_def_cfa_register: r6 (rbp)
  DW_CFA_advance_loc: 46 to 000000000001b2ea
  DW_CFA_def_cfa: r7 (rsp) ofs 8
  DW_CFA_nop
  DW_CFA_nop
  DW_CFA_nop

000029e0 000000000000001c 000029e4 FDE cie=00000000 pc=000000000001b2eb..000000000001b314
  DW_CFA_advance_loc: 5 to 000000000001b2f0
  DW_CFA_def_cfa_offset: 16
  DW_CFA_offset: r6 (rbp) at cfa-16
  DW_CFA_advance_loc: 3 to 000000000001b2f3
  DW_CFA_def_cfa_register: r6 (rbp)
  DW_CFA_advance_loc: 32 to 000000000001b313
  DW_CFA_def_cfa: r7 (rsp) ofs 8
  DW_CFA_nop
  DW_CFA_nop
  DW_CFA_nop

00002a00 000000000000001c 00002a04 FDE cie=00000000 pc=000000000001b314..000000000001b363
  DW_CFA_advance_loc: 5 to 000000000001b319
  DW_CFA_def_cfa_offset: 16
  DW_CFA_offset: r6 (rbp) at cfa-16
  DW_CFA_advance_loc: 3 to 000000000001b31c
  DW_CFA_def_cfa_register: r6 (rbp)
  DW_CFA_advance_loc1: 70 to 000000000001b362
  DW_CFA_def_cfa: r7 (rsp) ofs 8
  DW_CFA_nop
  DW_CFA_nop

00002a20 000000000000001c 00002a24 FDE cie=00000000 pc=000000000001b363..000000000001b3ab
  DW_CFA_advance_loc: 5 to 000000000001b368
  DW_CFA_def_cfa_offset: 16
  DW_CFA_offset: r6 (rbp) at cfa-16
  DW_CFA_advance_loc: 3 to 000000000001b36b
  DW_CFA_def_cfa_register: r6 (rbp)
  DW_CFA_advance_loc: 63 to 000000000001b3aa
  DW_CFA_def_cfa: r7 (rsp) ofs 8
  DW_CFA_nop
  DW_CFA_nop
  DW_CFA_nop

00002a40 000000000000001c 00002a44 FDE cie=00000000 pc=000000000001b3ab..000000000001b455
  DW_CFA_advance_loc: 5 to 000000000001b3b0
  DW_CFA_def_cfa_offset: 16
  DW_CFA_offset: r6 (rbp) at cfa-16
  DW_CFA_advance_loc: 3 to 000000000001b3b3
  DW_CFA_def_cfa_register: r6 (rbp)
  DW_CFA_advance_loc1: 161 to 000000000001b454
  DW_CFA_def_cfa: r7 (rsp) ofs 8
  DW_CFA_nop
  DW_CFA_nop

00002a60 000000000000001c 00002a64 FDE cie=00000000 pc=000000000001b455..000000000001b52a
  DW_CFA_advance_loc: 5 to 000000000001b45a
  DW_CFA_def_cfa_offset: 16
  DW_CFA_offset: r6 (rbp) at cfa-16
  DW_CFA_advance_loc: 3 to 000000000001b45d
  DW_CFA_def_cfa_register: r6 (rbp)
  DW_CFA_advance_loc1: 204 to 000000000001b529
  DW_CFA_def_cfa: r7 (rsp) ofs 8
  DW_CFA_nop
  DW_CFA_nop

00002a80 000000000000001c 00002a84 FDE cie=00000000 pc=000000000001b52a..000000000001b60a
  DW_CFA_advance_loc: 5 to 000000000001b52f
  DW_CFA_def_cfa_offset: 16
  DW_CFA_offset: r6 (rbp) at cfa-16
  DW_CFA_advance_loc: 3 to 000000000001b532
  DW_CFA_def_cfa_register: r6 (rbp)
  DW_CFA_advance_loc1: 215 to 000000000001b609
  DW_CFA_def_cfa: r7 (rsp) ofs 8
  DW_CFA_nop
  DW_CFA_nop

00002aa0 000000000000001c 00002aa4 FDE cie=00000000 pc=000000000001b60a..000000000001b677
  DW_CFA_advance_loc: 5 to 000000000001b60f
  DW_CFA_def_cfa_offset: 16
  DW_CFA_offset: r6 (rbp) at cfa-16
  DW_CFA_advance_loc: 3 to 000000000001b612
  DW_CFA_def_cfa_register: r6 (rbp)
  DW_CFA_advance_loc1: 100 to 000000000001b676
  DW_CFA_def_cfa: r7 (rsp) ofs 8
  DW_CFA_nop
  DW_CFA_nop

00002ac0 000000000000001c 00002ac4 FDE cie=00000000 pc=000000000001b677..000000000001b77d
  DW_CFA_advance_loc: 5 to 000000000001b67c
  DW_CFA_def_cfa_offset: 16
  DW_CFA_offset: r6 (rbp) at cfa-16
  DW_CFA_advance_loc: 3 to 000000000001b67f
  DW_CFA_def_cfa_register: r6 (rbp)
  DW_CFA_advance_loc1: 253 to 000000000001b77c
  DW_CFA_def_cfa: r7 (rsp) ofs 8
  DW_CFA_nop
  DW_CFA_nop

00002ae0 000000000000001c 00002ae4 FDE cie=00000000 pc=000000000001b77d..000000000001b7d1
  DW_CFA_advance_loc: 5 to 000000000001b782
  DW_CFA_def_cfa_offset: 16
  DW_CFA_offset: r6 (rbp) at cfa-16
  DW_CFA_advance_loc: 3 to 000000000001b785
  DW_CFA_def_cfa_register: r6 (rbp)
  DW_CFA_advance_loc1: 75 to 000000000001b7d0
  DW_CFA_def_cfa: r7 (rsp) ofs 8
  DW_CFA_nop
  DW_CFA_nop

00002b00 000000000000001c 00002b04 FDE cie=00000000 pc=000000000001b7d1..000000000001b826
  DW_CFA_advance_loc: 5 to 000000000001b7d6
  DW_CFA_def_cfa_offset: 16
  DW_CFA_offset: r6 (rbp) at cfa-16
  DW_CFA_advance_loc: 3 to 000000000001b7d9
  DW_CFA_def_cfa_register: r6 (rbp)
  DW_CFA_advance_loc1: 76 to 000000000001b825
  DW_CFA_def_cfa: r7 (rsp) ofs 8
  DW_CFA_nop
  DW_CFA_nop

00002b20 000000000000001c 00002b24 FDE cie=00000000 pc=000000000001b826..000000000001b94c
  DW_CFA_advance_loc: 5 to 000000000001b82b
  DW_CFA_def_cfa_offset: 16
  DW_CFA_offset: r6 (rbp) at cfa-16
  DW_CFA_advance_loc: 3 to 000000000001b82e
  DW_CFA_def_cfa_register: r6 (rbp)
  DW_CFA_advance_loc2: 285 to 000000000001b94b
  DW_CFA_def_cfa: r7 (rsp) ofs 8
  DW_CFA_nop

00002b40 000000000000001c 00002b44 FDE cie=00000000 pc=000000000001b94c..000000000001b9ab
  DW_CFA_advance_loc: 5 to 000000000001b951
  DW_CFA_def_cfa_offset: 16
  DW_CFA_offset: r6 (rbp) at cfa-16
  DW_CFA_advance_loc: 3 to 000000000001b954
  DW_CFA_def_cfa_register: r6 (rbp)
  DW_CFA_advance_loc1: 86 to 000000000001b9aa
  DW_CFA_def_cfa: r7 (rsp) ofs 8
  DW_CFA_nop
  DW_CFA_nop

00002b60 000000000000001c 00002b64 FDE cie=00000000 pc=000000000001b9ab..000000000001ba1a
  DW_CFA_advance_loc: 5 to 000000000001b9b0
  DW_CFA_def_cfa_offset: 16
  DW_CFA_offset: r6 (rbp) at cfa-16
  DW_CFA_advance_loc: 3 to 000000000001b9b3
  DW_CFA_def_cfa_register: r6 (rbp)
  DW_CFA_advance_loc1: 102 to 000000000001ba19
  DW_CFA_def_cfa: r7 (rsp) ofs 8
  DW_CFA_nop
  DW_CFA_nop

00002b80 000000000000001c 00002b84 FDE cie=00000000 pc=000000000001ba1a..000000000001bc11
  DW_CFA_advance_loc: 5 to 000000000001ba1f
  DW_CFA_def_cfa_offset: 16
  DW_CFA_offset: r6 (rbp) at cfa-16
  DW_CFA_advance_loc: 3 to 000000000001ba22
  DW_CFA_def_cfa_register: r6 (rbp)
  DW_CFA_advance_loc2: 494 to 000000000001bc10
  DW_CFA_def_cfa: r7 (rsp) ofs 8
  DW_CFA_nop

00002ba0 000000000000001c 00002ba4 FDE cie=00000000 pc=000000000001bc11..000000000001bc6e
  DW_CFA_advance_loc: 5 to 000000000001bc16
  DW_CFA_def_cfa_offset: 16
  DW_CFA_offset: r6 (rbp) at cfa-16
  DW_CFA_advance_loc: 3 to 000000000001bc19
  DW_CFA_def_cfa_register: r6 (rbp)
  DW_CFA_advance_loc1: 84 to 000000000001bc6d
  DW_CFA_def_cfa: r7 (rsp) ofs 8
  DW_CFA_nop
  DW_CFA_nop

00002bc0 000000000000001c 00002bc4 FDE cie=00000000 pc=000000000001bc6e..000000000001bd32
  DW_CFA_advance_loc: 5 to 000000000001bc73
  DW_CFA_def_cfa_offset: 16
  DW_CFA_offset: r6 (rbp) at cfa-16
  DW_CFA_advance_loc: 3 to 000000000001bc76
  DW_CFA_def_cfa_register: r6 (rbp)
  DW_CFA_advance_loc1: 187 to 000000000001bd31
  DW_CFA_def_cfa: r7 (rsp) ofs 8
  DW_CFA_nop
  DW_CFA_nop

00002be0 000000000000001c 00002be4 FDE cie=00000000 pc=000000000001bd32..000000000001bd7c
  DW_CFA_advance_loc: 5 to 000000000001bd37
  DW_CFA_def_cfa_offset: 16
  DW_CFA_offset: r6 (rbp) at cfa-16
  DW_CFA_advance_loc: 3 to 000000000001bd3a
  DW_CFA_def_cfa_register: r6 (rbp)
  DW_CFA_advance_loc1: 65 to 000000000001bd7b
  DW_CFA_def_cfa: r7 (rsp) ofs 8
  DW_CFA_nop
  DW_CFA_nop

00002c00 000000000000001c 00002c04 FDE cie=00000000 pc=000000000001bd7c..000000000001bdc1
  DW_CFA_advance_loc: 5 to 000000000001bd81
  DW_CFA_def_cfa_offset: 16
  DW_CFA_offset: r6 (rbp) at cfa-16
  DW_CFA_advance_loc: 3 to 000000000001bd84
  DW_CFA_def_cfa_register: r6 (rbp)
  DW_CFA_nop
  DW_CFA_nop
  DW_CFA_nop
  DW_CFA_nop
  DW_CFA_nop
  DW_CFA_nop
  DW_CFA_nop

00002c20 000000000000001c 00002c24 FDE cie=00000000 pc=000000000001bdc1..000000000001bdeb
  DW_CFA_advance_loc: 5 to 000000000001bdc6
  DW_CFA_def_cfa_offset: 16
  DW_CFA_offset: r6 (rbp) at cfa-16
  DW_CFA_advance_loc: 3 to 000000000001bdc9
  DW_CFA_def_cfa_register: r6 (rbp)
  DW_CFA_advance_loc: 33 to 000000000001bdea
  DW_CFA_def_cfa: r7 (rsp) ofs 8
  DW_CFA_nop
  DW_CFA_nop
  DW_CFA_nop

00002c40 000000000000001c 00002c44 FDE cie=00000000 pc=000000000001bdeb..000000000001be61
  DW_CFA_advance_loc: 5 to 000000000001bdf0
  DW_CFA_def_cfa_offset: 16
  DW_CFA_offset: r6 (rbp) at cfa-16
  DW_CFA_advance_loc: 3 to 000000000001bdf3
  DW_CFA_def_cfa_register: r6 (rbp)
  DW_CFA_advance_loc1: 109 to 000000000001be60
  DW_CFA_def_cfa: r7 (rsp) ofs 8
  DW_CFA_nop
  DW_CFA_nop

00002c60 000000000000001c 00002c64 FDE cie=00000000 pc=000000000001be61..000000000001beb3
  DW_CFA_advance_loc: 5 to 000000000001be66
  DW_CFA_def_cfa_offset: 16
  DW_CFA_offset: r6 (rbp) at cfa-16
  DW_CFA_advance_loc: 3 to 000000000001be69
  DW_CFA_def_cfa_register: r6 (rbp)
  DW_CFA_advance_loc1: 73 to 000000000001beb2
  DW_CFA_def_cfa: r7 (rsp) ofs 8
  DW_CFA_nop
  DW_CFA_nop

00002c80 000000000000001c 00002c84 FDE cie=00000000 pc=000000000001beb3..000000000001bf02
  DW_CFA_advance_loc: 5 to 000000000001beb8
  DW_CFA_def_cfa_offset: 16
  DW_CFA_offset: r6 (rbp) at cfa-16
  DW_CFA_advance_loc: 3 to 000000000001bebb
  DW_CFA_def_cfa_register: r6 (rbp)
  DW_CFA_advance_loc1: 70 to 000000000001bf01
  DW_CFA_def_cfa: r7 (rsp) ofs 8
  DW_CFA_nop
  DW_CFA_nop

00002ca0 000000000000001c 00002ca4 FDE cie=00000000 pc=000000000001bf02..000000000001bf2c
  DW_CFA_advance_loc: 5 to 000000000001bf07
  DW_CFA_def_cfa_offset: 16
  DW_CFA_offset: r6 (rbp) at cfa-16
  DW_CFA_advance_loc: 3 to 000000000001bf0a
  DW_CFA_def_cfa_register: r6 (rbp)
  DW_CFA_advance_loc: 33 to 000000000001bf2b
  DW_CFA_def_cfa: r7 (rsp) ofs 8
  DW_CFA_nop
  DW_CFA_nop
  DW_CFA_nop

00002cc0 0000000000000044 00002cc4 FDE cie=00000000 pc=000000000001bf30..000000000001bf95
  DW_CFA_advance_loc: 6 to 000000000001bf36
  DW_CFA_def_cfa_offset: 16
  DW_CFA_offset: r15 (r15) at cfa-16
  DW_CFA_advance_loc: 9 to 000000000001bf3f
  DW_CFA_def_cfa_offset: 24
  DW_CFA_offset: r14 (r14) at cfa-24
  DW_CFA_advance_loc: 5 to 000000000001bf44
  DW_CFA_def_cfa_offset: 32
  DW_CFA_offset: r13 (r13) at cfa-32
  DW_CFA_advance_loc: 5 to 000000000001bf49
  DW_CFA_def_cfa_offset: 40
  DW_CFA_offset: r12 (r12) at cfa-40
  DW_CFA_advance_loc: 4 to 000000000001bf4d
  DW_CFA_def_cfa_offset: 48
  DW_CFA_offset: r6 (rbp) at cfa-48
  DW_CFA_advance_loc: 8 to 000000000001bf55
  DW_CFA_def_cfa_offset: 56
  DW_CFA_offset: r3 (rbx) at cfa-56
  DW_CFA_advance_loc: 7 to 000000000001bf5c
  DW_CFA_def_cfa_offset: 64
  DW_CFA_advance_loc: 46 to 000000000001bf8a
  DW_CFA_def_cfa_offset: 56
  DW_CFA_advance_loc: 1 to 000000000001bf8b
  DW_CFA_def_cfa_offset: 48
  DW_CFA_advance_loc: 1 to 000000000001bf8c
  DW_CFA_def_cfa_offset: 40
  DW_CFA_advance_loc: 2 to 000000000001bf8e
  DW_CFA_def_cfa_offset: 32
  DW_CFA_advance_loc: 2 to 000000000001bf90
  DW_CFA_def_cfa_offset: 24
  DW_CFA_advance_loc: 2 to 000000000001bf92
  DW_CFA_def_cfa_offset: 16
  DW_CFA_advance_loc: 2 to 000000000001bf94
  DW_CFA_def_cfa_offset: 8
  DW_CFA_nop

00002d08 0000000000000014 00002d0c FDE cie=00000000 pc=000000000001bfa0..000000000001bfa5
  DW_CFA_nop
  DW_CFA_nop
  DW_CFA_nop
  DW_CFA_nop
  DW_CFA_nop
  DW_CFA_nop
  DW_CFA_nop

00002d20 0000000000000014 00002d24 FDE cie=00000000 pc=000000000001bfb0..000000000001bfc2
  DW_CFA_nop
  DW_CFA_nop
  DW_CFA_nop
  DW_CFA_nop
  DW_CFA_nop
  DW_CFA_nop
  DW_CFA_nop

00002d38 0000000000000014 00002d3c FDE cie=00000000 pc=000000000001bfd0..000000000001bfe4
  DW_CFA_nop
  DW_CFA_nop
  DW_CFA_nop
  DW_CFA_nop
  DW_CFA_nop
  DW_CFA_nop
  DW_CFA_nop

00002d50 0000000000000010 00002d54 FDE cie=00000000 pc=000000000001bff0..000000000001c003
  DW_CFA_nop
  DW_CFA_nop
  DW_CFA_nop

00002d64 ZERO terminator


Contents of the .debug_aranges section (loaded from sort_O0_debug):

  Length:                   44
  Version:                  2
  Offset into .debug_info:  0x0
  Pointer Size:             8
  Segment Size:             0

    Address            Length
    0000000000003fd9 000000000000b5c8 
    0000000000000000 0000000000000000 
  Length:                   28
  Version:                  2
  Offset into .debug_info:  0x7429
  Pointer Size:             8
  Segment Size:             0

    Address            Length
    0000000000000000 0000000000000000 
  Length:                   44
  Version:                  2
  Offset into .debug_info:  0x746f
  Pointer Size:             8
  Segment Size:             0

    Address            Length
    000000000000f5a1 00000000000004ed 
    0000000000000000 0000000000000000 
  Length:                   44
  Version:                  2
  Offset into .debug_info:  0x7c07
  Pointer Size:             8
  Segment Size:             0

    Address            Length
    000000000000fa8e 000000000000012c 
    0000000000000000 0000000000000000 
  Length:                   44
  Version:                  2
  Offset into .debug_info:  0x803c
  Pointer Size:             8
  Segment Size:             0

    Address            Length
    000000000000fbba 0000000000001842 
    0000000000000000 0000000000000000 
  Length:                   28
  Version:                  2
  Offset into .debug_info:  0x855b
  Pointer Size:             8
  Segment Size:             0

    Address            Length
    0000000000000000 0000000000000000 
  Length:                   44
  Version:                  2
  Offset into .debug_info:  0x85f0
  Pointer Size:             8
  Segment Size:             0

    Address            Length
    00000000000113fc 0000000000000074 
    0000000000000000 0000000000000000 
  Length:                   44
  Version:                  2
  Offset into .debug_info:  0x89c7
  Pointer Size:             8
  Segment Size:             0

    Address            Length
    0000000000011470 00000000000000b9 
    0000000000000000 0000000000000000 
  Length:                   44
  Version:                  2
  Offset into .debug_info:  0x8d4a
  Pointer Size:             8
  Segment Size:             0

    Address            Length
    0000000000011529 0000000000000087 
    0000000000000000 0000000000000000 
  Length:                   44
  Version:                  2
  Offset into .debug_info:  0x909b
  Pointer Size:             8
  Segment Size:             0

    Address            Length
    00000000000115b0 0000000000000695 
    0000000000000000 0000000000000000 
  Length:                   44
  Version:                  2
  Offset into .debug_info:  0x9498
  Pointer Size:             8
  Segment Size:             0

    Address            Length
    0000000000011c45 0000000000000083 
    0000000000000000 0000000000000000 
  Length:                   44
  Version:                  2
  Offset into .debug_info:  0x9589
  Pointer Size:             8
  Segment Size:             0

    Address            Length
    0000000000011cc8 00000000000000be 
    0000000000000000 0000000000000000 
  Length:                   44
  Version:                  2
  Offset into .debug_info:  0x98f6
  Pointer Size:             8
  Segment Size:             0

    Address            Length
    0000000000011d86 00000000000000aa 
    0000000000000000 0000000000000000 
  Length:                   44
  Version:                  2
  Offset into .debug_info:  0x9a04
  Pointer Size:             8
  Segment Size:             0

    Address            Length
    0000000000011e30 0000000000001a99 
    0000000000000000 0000000000000000 
  Length:                   44
  Version:                  2
  Offset into .debug_info:  0xacd7
  Pointer Size:             8
  Segment Size:             0

    Address            Length
    00000000000138c9 0000000000000411 
    0000000000000000 0000000000000000 
  Length:                   44
  Version:                  2
  Offset into .debug_info:  0xb075
  Pointer Size:             8
  Segment Size:             0

    Address            Length
    0000000000013cda 0000000000000104 
    0000000000000000 0000000000000000 
  Length:                   44
  Version:                  2
  Offset into .debug_info:  0xb13e
  Pointer Size:             8
  Segment Size:             0

    Address            Length
    0000000000013dde 000000000000007c 
    0000000000000000 0000000000000000 
  Length:                   44
  Version:                  2
  Offset into .debug_info:  0xb207
  Pointer Size:             8
  Segment Size:             0

    Address            Length
    0000000000013e5a 0000000000000089 
    0000000000000000 0000000000000000 
  Length:                   44
  Version:                  2
  Offset into .debug_info:  0xb2e8
  Pointer Size:             8
  Segment Size:             0

    Address            Length
    0000000000013ee3 00000000000002be 
    0000000000000000 0000000000000000 
  Length:                   44
  Version:                  2
  Offset into .debug_info:  0xb682
  Pointer Size:             8
  Segment Size:             0

    Address            Length
    00000000000141a1 00000000000002bf 
    0000000000000000 0000000000000000 
  Length:                   44
  Version:                  2
  Offset into .debug_info:  0xbfb7
  Pointer Size:             8
  Segment Size:             0

    Address            Length
    0000000000014460 0000000000000299 
    0000000000000000 0000000000000000 
  Length:                   44
  Version:                  2
  Offset into .debug_info:  0xc788
  Pointer Size:             8
  Segment Size:             0

    Address            Length
    00000000000146f9 000000000000028e 
    0000000000000000 0000000000000000 
  Length:                   44
  Version:                  2
  Offset into .debug_info:  0xc98e
  Pointer Size:             8
  Segment Size:             0

    Address            Length
    0000000000014987 00000000000000b4 
    0000000000000000 0000000000000000 
  Length:                   44
  Version:                  2
  Offset into .debug_info:  0xcacd
  Pointer Size:             8
  Segment Size:             0

    Address            Length
    0000000000014a3b 00000000000000f5 
    0000000000000000 0000000000000000 
  Length:                   44
  Version:                  2
  Offset into .debug_info:  0xce42
  Pointer Size:             8
  Segment Size:             0

    Address            Length
    0000000000014b30 0000000000001f79 
    0000000000000000 0000000000000000 
  Length:                   44
  Version:                  2
  Offset into .debug_info:  0xe2fa
  Pointer Size:             8
  Segment Size:             0

    Address            Length
    0000000000016aa9 000000000000056a 
    0000000000000000 0000000000000000 
  Length:                   44
  Version:                  2
  Offset into .debug_info:  0xecd7
  Pointer Size:             8
  Segment Size:             0

    Address            Length
    0000000000017013 0000000000000d3f 
    0000000000000000 0000000000000000 
  Length:                   44
  Version:                  2
  Offset into .debug_info:  0xf1ac
  Pointer Size:             8
  Segment Size:             0

    Address            Length
    0000000000017d52 0000000000000793 
    0000000000000000 0000000000000000 
  Length:                   44
  Version:                  2
  Offset into .debug_info:  0xfbd4
  Pointer Size:             8
  Segment Size:             0

    Address            Length
    00000000000184e5 0000000000000129 
    0000000000000000 0000000000000000 
  Length:                   44
  Version:                  2
  Offset into .debug_info:  0xfe13
  Pointer Size:             8
  Segment Size:             0

    Address            Length
    000000000001860e 0000000000000059 
    0000000000000000 0000000000000000 
  Length:                   44
  Version:                  2
  Offset into .debug_info:  0xff6e
  Pointer Size:             8
  Segment Size:             0

    Address            Length
    0000000000018667 00000000000005fd 
    0000000000000000 0000000000000000 
  Length:                   44
  Version:                  2
  Offset into .debug_info:  0x1014f
  Pointer Size:             8
  Segment Size:             0

    Address            Length
    0000000000018c64 0000000000000051 
    0000000000000000 0000000000000000 
  Length:                   44
  Version:                  2
  Offset into .debug_info:  0x10262
  Pointer Size:             8
  Segment Size:             0

    Address            Length
    0000000000018cb5 00000000000008f3 
    0000000000000000 0000000000000000 
  Length:                   28
  Version:                  2
  Offset into .debug_info:  0x10839
  Pointer Size:             8
  Segment Size:             0

    Address            Length
    0000000000000000 0000000000000000 
  Length:                   44
  Version:                  2
  Offset into .debug_info:  0x108f7
  Pointer Size:             8
  Segment Size:             0

    Address            Length
    00000000000195a8 000000000000068b 
    0000000000000000 0000000000000000 
  Length:                   44
  Version:                  2
  Offset into .debug_info:  0x1110c
  Pointer Size:             8
  Segment Size:             0

    Address            Length
    0000000000019c33 0000000000000040 
    0000000000000000 0000000000000000 
  Length:                   44
  Version:                  2
  Offset into .debug_info:  0x11206
  Pointer Size:             8
  Segment Size:             0

    Address            Length
    0000000000019c73 00000000000001c7 
    0000000000000000 0000000000000000 
  Length:                   44
  Version:                  2
  Offset into .debug_info:  0x11520
  Pointer Size:             8
  Segment Size:             0

    Address            Length
    0000000000019e3a 00000000000000b2 
    0000000000000000 0000000000000000 
  Length:                   44
  Version:                  2
  Offset into .debug_info:  0x11694
  Pointer Size:             8
  Segment Size:             0

    Address            Length
    0000000000019eec 0000000000000168 
    0000000000000000 0000000000000000 
  Length:                   44
  Version:                  2
  Offset into .debug_info:  0x11925
  Pointer Size:             8
  Segment Size:             0

    Address            Length
    000000000001a054 0000000000000535 
    0000000000000000 0000000000000000 
  Length:                   44
  Version:                  2
  Offset into .debug_info:  0x11cfb
  Pointer Size:             8
  Segment Size:             0

    Address            Length
    000000000001a589 00000000000001c0 
    0000000000000000 0000000000000000 
  Length:                   44
  Version:                  2
  Offset into .debug_info:  0x12040
  Pointer Size:             8
  Segment Size:             0

    Address            Length
    000000000001a749 000000000000029f 
    0000000000000000 0000000000000000 
  Length:                   44
  Version:                  2
  Offset into .debug_info:  0x12358
  Pointer Size:             8
  Segment Size:             0

    Address            Length
    000000000001a9e8 000000000000007a 
    0000000000000000 0000000000000000 
  Length:                   44
  Version:                  2
  Offset into .debug_info:  0x1245b
  Pointer Size:             8
  Segment Size:             0

    Address            Length
    000000000001aa62 000000000000008f 
    0000000000000000 0000000000000000 
  Length:                   44
  Version:                  2
  Offset into .debug_info:  0x127b8
  Pointer Size:             8
  Segment Size:             0

    Address            Length
    000000000001aaf1 0000000000000160 
    0000000000000000 0000000000000000 
  Length:                   44
  Version:                  2
  Offset into .debug_info:  0x12938
  Pointer Size:             8
  Segment Size:             0

    Address            Length
    000000000001ac51 00000000000004a6 
    0000000000000000 0000000000000000 
  Length:                   44
  Version:                  2
  Offset into .debug_info:  0x12c61
  Pointer Size:             8
  Segment Size:             0

    Address            Length
    000000000001b0f7 0000000000000059 
    0000000000000000 0000000000000000 
  Length:                   44
  Version:                  2
  Offset into .debug_info:  0x12d88
  Pointer Size:             8
  Segment Size:             0

    Address            Length
    000000000001b150 0000000000000042 
    0000000000000000 0000000000000000 
  Length:                   44
  Version:                  2
  Offset into .debug_info:  0x12e5c
  Pointer Size:             8
  Segment Size:             0

    Address            Length
    000000000001b192 00000000000000ea 
    0000000000000000 0000000000000000 
  Length:                   44
  Version:                  2
  Offset into .debug_info:  0x13279
  Pointer Size:             8
  Segment Size:             0

    Address            Length
    000000000001b27c 00000000000000e7 
    0000000000000000 0000000000000000 
  Length:                   44
  Version:                  2
  Offset into .debug_info:  0x134b5
  Pointer Size:             8
  Segment Size:             0

    Address            Length
    000000000001b363 0000000000000048 
    0000000000000000 0000000000000000 
  Length:                   44
  Version:                  2
  Offset into .debug_info:  0x14219
  Pointer Size:             8
  Segment Size:             0

    Address            Length
    000000000001b3ab 00000000000000aa 
    0000000000000000 0000000000000000 
  Length:                   44
  Version:                  2
  Offset into .debug_info:  0x14410
  Pointer Size:             8
  Segment Size:             0

    Address            Length
    000000000001b455 0000000000000222 
    0000000000000000 0000000000000000 
  Length:                   44
  Version:                  2
  Offset into .debug_info:  0x146ab
  Pointer Size:             8
  Segment Size:             0

    Address            Length
    000000000001b677 0000000000000106 
    0000000000000000 0000000000000000 
  Length:                   44
  Version:                  2
  Offset into .debug_info:  0x14874
  Pointer Size:             8
  Segment Size:             0

    Address            Length
    000000000001b77d 0000000000000644 
    0000000000000000 0000000000000000 
  Length:                   44
  Version:                  2
  Offset into .debug_info:  0x15152
  Pointer Size:             8
  Segment Size:             0

    Address            Length
    000000000001bdc1 0000000000000141 
    0000000000000000 0000000000000000 
  Length:                   44
  Version:                  2
  Offset into .debug_info:  0x15304
  Pointer Size:             8
  Segment Size:             0

    Address            Length
    000000000001bf02 000000000000002a 
    0000000000000000 0000000000000000 

Contents of the .debug_info section (loaded from sort_O0_debug):

  Compilation Unit @ offset 0x0:
   Length:        0x7425 (32-bit)
   Version:       4
   Abbrev Offset: 0x0
   Pointer Size:  8
 <0><b>: Abbrev Number: 1 (DW_TAG_compile_unit)
    <c>   DW_AT_producer    : (indirect string, offset: 0xed6): GNU C17 11.1.0 -mtune=generic -march=x86-64 -g -O0 -fasynchronous-unwind-tables -fstack-protector-strong -fstack-clash-protection -fcf-protection
    <10>   DW_AT_language    : 12	(ANSI C99)
    <11>   DW_AT_name        : (indirect string, offset: 0x1603): src/sort.c
    <15>   DW_AT_comp_dir    : (indirect string, offset: 0x149a): /home/jacekline/dev/research/programs/coreutils-9.1
    <19>   DW_AT_low_pc      : 0x3fd9
    <21>   DW_AT_high_pc     : 0xb5c8
    <29>   DW_AT_stmt_list   : 0x0
 <1><2d>: Abbrev Number: 2 (DW_TAG_variable)
    <2e>   DW_AT_name        : (indirect string, offset: 0xb4b): optarg
    <32>   DW_AT_decl_file   : 3
    <33>   DW_AT_decl_line   : 36
    <34>   DW_AT_decl_column : 14
    <35>   DW_AT_type        : <0x39>
    <39>   DW_AT_external    : 1
    <39>   DW_AT_declaration : 1
 <1><39>: Abbrev Number: 3 (DW_TAG_pointer_type)
    <3a>   DW_AT_byte_size   : 8
    <3b>   DW_AT_type        : <0x49>
 <1><3f>: Abbrev Number: 4 (DW_TAG_const_type)
    <40>   DW_AT_type        : <0x39>
 <1><44>: Abbrev Number: 5 (DW_TAG_restrict_type)
    <45>   DW_AT_type        : <0x39>
 <1><49>: Abbrev Number: 6 (DW_TAG_base_type)
    <4a>   DW_AT_byte_size   : 1
    <4b>   DW_AT_encoding    : 6	(signed char)
    <4c>   DW_AT_name        : (indirect string, offset: 0xe0f): char
 <1><50>: Abbrev Number: 4 (DW_TAG_const_type)
    <51>   DW_AT_type        : <0x49>
 <1><55>: Abbrev Number: 2 (DW_TAG_variable)
    <56>   DW_AT_name        : (indirect string, offset: 0x34f4): optind
    <5a>   DW_AT_decl_file   : 3
    <5b>   DW_AT_decl_line   : 50
    <5c>   DW_AT_decl_column : 12
    <5d>   DW_AT_type        : <0x61>
    <61>   DW_AT_external    : 1
    <61>   DW_AT_declaration : 1
 <1><61>: Abbrev Number: 7 (DW_TAG_base_type)
    <62>   DW_AT_byte_size   : 4
    <63>   DW_AT_encoding    : 5	(signed)
    <64>   DW_AT_name        : int
 <1><68>: Abbrev Number: 8 (DW_TAG_volatile_type)
    <69>   DW_AT_type        : <0x61>
 <1><6d>: Abbrev Number: 4 (DW_TAG_const_type)
    <6e>   DW_AT_type        : <0x61>
 <1><72>: Abbrev Number: 9 (DW_TAG_structure_type)
    <73>   DW_AT_name        : (indirect string, offset: 0x35b4): option
    <77>   DW_AT_byte_size   : 32
    <78>   DW_AT_decl_file   : 4
    <79>   DW_AT_decl_line   : 50
    <7a>   DW_AT_decl_column : 8
    <7b>   DW_AT_sibling     : <0xb4>
 <2><7f>: Abbrev Number: 10 (DW_TAG_member)
    <80>   DW_AT_name        : (indirect string, offset: 0x5c3d): name
    <84>   DW_AT_decl_file   : 4
    <85>   DW_AT_decl_line   : 52
    <86>   DW_AT_decl_column : 15
    <87>   DW_AT_type        : <0xb9>
    <8b>   DW_AT_data_member_location: 0
 <2><8c>: Abbrev Number: 10 (DW_TAG_member)
    <8d>   DW_AT_name        : (indirect string, offset: 0x5f8): has_arg
    <91>   DW_AT_decl_file   : 4
    <92>   DW_AT_decl_line   : 55
    <93>   DW_AT_decl_column : 7
    <94>   DW_AT_type        : <0x61>
    <98>   DW_AT_data_member_location: 8
 <2><99>: Abbrev Number: 10 (DW_TAG_member)
    <9a>   DW_AT_name        : (indirect string, offset: 0x5b21): flag
    <9e>   DW_AT_decl_file   : 4
    <9f>   DW_AT_decl_line   : 56
    <a0>   DW_AT_decl_column : 8
    <a1>   DW_AT_type        : <0xc9>
    <a5>   DW_AT_data_member_location: 16
 <2><a6>: Abbrev Number: 11 (DW_TAG_member)
    <a7>   DW_AT_name        : val
    <ab>   DW_AT_decl_file   : 4
    <ac>   DW_AT_decl_line   : 57
    <ad>   DW_AT_decl_column : 7
    <ae>   DW_AT_type        : <0x61>
    <b2>   DW_AT_data_member_location: 24
 <2><b3>: Abbrev Number: 0
 <1><b4>: Abbrev Number: 4 (DW_TAG_const_type)
    <b5>   DW_AT_type        : <0x72>
 <1><b9>: Abbrev Number: 3 (DW_TAG_pointer_type)
    <ba>   DW_AT_byte_size   : 8
    <bb>   DW_AT_type        : <0x50>
 <1><bf>: Abbrev Number: 4 (DW_TAG_const_type)
    <c0>   DW_AT_type        : <0xb9>
 <1><c4>: Abbrev Number: 5 (DW_TAG_restrict_type)
    <c5>   DW_AT_type        : <0xb9>
 <1><c9>: Abbrev Number: 3 (DW_TAG_pointer_type)
    <ca>   DW_AT_byte_size   : 8
    <cb>   DW_AT_type        : <0x61>
 <1><cf>: Abbrev Number: 6 (DW_TAG_base_type)
    <d0>   DW_AT_byte_size   : 1
    <d1>   DW_AT_encoding    : 8	(unsigned char)
    <d2>   DW_AT_name        : (indirect string, offset: 0xe06): unsigned char
 <1><d6>: Abbrev Number: 6 (DW_TAG_base_type)
    <d7>   DW_AT_byte_size   : 2
    <d8>   DW_AT_encoding    : 7	(unsigned)
    <d9>   DW_AT_name        : (indirect string, offset: 0x1f03): short unsigned int
 <1><dd>: Abbrev Number: 4 (DW_TAG_const_type)
    <de>   DW_AT_type        : <0xd6>
 <1><e2>: Abbrev Number: 6 (DW_TAG_base_type)
    <e3>   DW_AT_byte_size   : 4
    <e4>   DW_AT_encoding    : 7	(unsigned)
    <e5>   DW_AT_name        : (indirect string, offset: 0x31a9): unsigned int
 <1><e9>: Abbrev Number: 6 (DW_TAG_base_type)
    <ea>   DW_AT_byte_size   : 8
    <eb>   DW_AT_encoding    : 7	(unsigned)
    <ec>   DW_AT_name        : (indirect string, offset: 0x31a4): long unsigned int
 <1><f0>: Abbrev Number: 6 (DW_TAG_base_type)
    <f1>   DW_AT_byte_size   : 1
    <f2>   DW_AT_encoding    : 6	(signed char)
    <f3>   DW_AT_name        : (indirect string, offset: 0xe08): signed char
 <1><f7>: Abbrev Number: 6 (DW_TAG_base_type)
    <f8>   DW_AT_byte_size   : 2
    <f9>   DW_AT_encoding    : 5	(signed)
    <fa>   DW_AT_name        : (indirect string, offset: 0x3a51): short int
 <1><fe>: Abbrev Number: 12 (DW_TAG_typedef)
    <ff>   DW_AT_name        : (indirect string, offset: 0x2e1c): __uint32_t
    <103>   DW_AT_decl_file   : 5
    <104>   DW_AT_decl_line   : 42
    <105>   DW_AT_decl_column : 22
    <106>   DW_AT_type        : <0xe2>
 <1><10a>: Abbrev Number: 6 (DW_TAG_base_type)
    <10b>   DW_AT_byte_size   : 8
    <10c>   DW_AT_encoding    : 5	(signed)
    <10d>   DW_AT_name        : (indirect string, offset: 0x3529): long int
 <1><111>: Abbrev Number: 12 (DW_TAG_typedef)
    <112>   DW_AT_name        : (indirect string, offset: 0xae4): __uintmax_t
    <116>   DW_AT_decl_file   : 5
    <117>   DW_AT_decl_line   : 73
    <118>   DW_AT_decl_column : 27
    <119>   DW_AT_type        : <0xe9>
 <1><11d>: Abbrev Number: 12 (DW_TAG_typedef)
    <11e>   DW_AT_name        : (indirect string, offset: 0x281f): __dev_t
    <122>   DW_AT_decl_file   : 5
    <123>   DW_AT_decl_line   : 145
    <124>   DW_AT_decl_column : 25
    <125>   DW_AT_type        : <0xe9>
 <1><129>: Abbrev Number: 12 (DW_TAG_typedef)
    <12a>   DW_AT_name        : (indirect string, offset: 0xc25): __uid_t
    <12e>   DW_AT_decl_file   : 5
    <12f>   DW_AT_decl_line   : 146
    <130>   DW_AT_decl_column : 25
    <131>   DW_AT_type        : <0xe2>
 <1><135>: Abbrev Number: 12 (DW_TAG_typedef)
    <136>   DW_AT_name        : (indirect string, offset: 0x308b): __gid_t
    <13a>   DW_AT_decl_file   : 5
    <13b>   DW_AT_decl_line   : 147
    <13c>   DW_AT_decl_column : 25
    <13d>   DW_AT_type        : <0xe2>
 <1><141>: Abbrev Number: 12 (DW_TAG_typedef)
    <142>   DW_AT_name        : (indirect string, offset: 0x364e): __ino_t
    <146>   DW_AT_decl_file   : 5
    <147>   DW_AT_decl_line   : 148
    <148>   DW_AT_decl_column : 25
    <149>   DW_AT_type        : <0xe9>
 <1><14d>: Abbrev Number: 12 (DW_TAG_typedef)
    <14e>   DW_AT_name        : (indirect string, offset: 0x10dc): __mode_t
    <152>   DW_AT_decl_file   : 5
    <153>   DW_AT_decl_line   : 150
    <154>   DW_AT_decl_column : 26
    <155>   DW_AT_type        : <0xe2>
 <1><159>: Abbrev Number: 12 (DW_TAG_typedef)
    <15a>   DW_AT_name        : (indirect string, offset: 0x1713): __nlink_t
    <15e>   DW_AT_decl_file   : 5
    <15f>   DW_AT_decl_line   : 151
    <160>   DW_AT_decl_column : 27
    <161>   DW_AT_type        : <0xe9>
 <1><165>: Abbrev Number: 12 (DW_TAG_typedef)
    <166>   DW_AT_name        : (indirect string, offset: 0x4ae): __off_t
    <16a>   DW_AT_decl_file   : 5
    <16b>   DW_AT_decl_line   : 152
    <16c>   DW_AT_decl_column : 25
    <16d>   DW_AT_type        : <0x10a>
 <1><171>: Abbrev Number: 12 (DW_TAG_typedef)
    <172>   DW_AT_name        : (indirect string, offset: 0x2063): __off64_t
    <176>   DW_AT_decl_file   : 5
    <177>   DW_AT_decl_line   : 153
    <178>   DW_AT_decl_column : 27
    <179>   DW_AT_type        : <0x10a>
 <1><17d>: Abbrev Number: 12 (DW_TAG_typedef)
    <17e>   DW_AT_name        : (indirect string, offset: 0x2527): __pid_t
    <182>   DW_AT_decl_file   : 5
    <183>   DW_AT_decl_line   : 154
    <184>   DW_AT_decl_column : 25
    <185>   DW_AT_type        : <0x61>
 <1><189>: Abbrev Number: 13 (DW_TAG_array_type)
    <18a>   DW_AT_type        : <0x61>
    <18e>   DW_AT_sibling     : <0x199>
 <2><192>: Abbrev Number: 14 (DW_TAG_subrange_type)
    <193>   DW_AT_type        : <0xe9>
    <197>   DW_AT_upper_bound : 1
 <2><198>: Abbrev Number: 0
 <1><199>: Abbrev Number: 12 (DW_TAG_typedef)
    <19a>   DW_AT_name        : (indirect string, offset: 0xb7c): __clock_t
    <19e>   DW_AT_decl_file   : 5
    <19f>   DW_AT_decl_line   : 156
    <1a0>   DW_AT_decl_column : 27
    <1a1>   DW_AT_type        : <0x10a>
 <1><1a5>: Abbrev Number: 12 (DW_TAG_typedef)
    <1a6>   DW_AT_name        : (indirect string, offset: 0x13db): __rlim_t
    <1aa>   DW_AT_decl_file   : 5
    <1ab>   DW_AT_decl_line   : 157
    <1ac>   DW_AT_decl_column : 26
    <1ad>   DW_AT_type        : <0xe9>
 <1><1b1>: Abbrev Number: 12 (DW_TAG_typedef)
    <1b2>   DW_AT_name        : (indirect string, offset: 0x1daa): __time_t
    <1b6>   DW_AT_decl_file   : 5
    <1b7>   DW_AT_decl_line   : 160
    <1b8>   DW_AT_decl_column : 26
    <1b9>   DW_AT_type        : <0x10a>
 <1><1bd>: Abbrev Number: 15 (DW_TAG_pointer_type)
    <1be>   DW_AT_byte_size   : 8
 <1><1bf>: Abbrev Number: 5 (DW_TAG_restrict_type)
    <1c0>   DW_AT_type        : <0x1bd>
 <1><1c4>: Abbrev Number: 12 (DW_TAG_typedef)
    <1c5>   DW_AT_name        : (indirect string, offset: 0x1f44): __blksize_t
    <1c9>   DW_AT_decl_file   : 5
    <1ca>   DW_AT_decl_line   : 174
    <1cb>   DW_AT_decl_column : 29
    <1cc>   DW_AT_type        : <0x10a>
 <1><1d0>: Abbrev Number: 12 (DW_TAG_typedef)
    <1d1>   DW_AT_name        : (indirect string, offset: 0xea6): __blkcnt_t
    <1d5>   DW_AT_decl_file   : 5
    <1d6>   DW_AT_decl_line   : 179
    <1d7>   DW_AT_decl_column : 28
    <1d8>   DW_AT_type        : <0x10a>
 <1><1dc>: Abbrev Number: 12 (DW_TAG_typedef)
    <1dd>   DW_AT_name        : (indirect string, offset: 0x19d8): __ssize_t
    <1e1>   DW_AT_decl_file   : 5
    <1e2>   DW_AT_decl_line   : 193
    <1e3>   DW_AT_decl_column : 27
    <1e4>   DW_AT_type        : <0x10a>
 <1><1e8>: Abbrev Number: 12 (DW_TAG_typedef)
    <1e9>   DW_AT_name        : (indirect string, offset: 0x7f1): __syscall_slong_t
    <1ed>   DW_AT_decl_file   : 5
    <1ee>   DW_AT_decl_line   : 196
    <1ef>   DW_AT_decl_column : 33
    <1f0>   DW_AT_type        : <0x10a>
 <1><1f4>: Abbrev Number: 12 (DW_TAG_typedef)
    <1f5>   DW_AT_name        : (indirect string, offset: 0x1f49): size_t
    <1f9>   DW_AT_decl_file   : 6
    <1fa>   DW_AT_decl_line   : 209
    <1fb>   DW_AT_decl_column : 23
    <1fc>   DW_AT_type        : <0xe9>
 <1><200>: Abbrev Number: 4 (DW_TAG_const_type)
    <201>   DW_AT_type        : <0x1f4>
 <1><205>: Abbrev Number: 12 (DW_TAG_typedef)
    <206>   DW_AT_name        : (indirect string, offset: 0x1dac): time_t
    <20a>   DW_AT_decl_file   : 7
    <20b>   DW_AT_decl_line   : 7
    <20c>   DW_AT_decl_column : 18
    <20d>   DW_AT_type        : <0x1b1>
 <1><211>: Abbrev Number: 9 (DW_TAG_structure_type)
    <212>   DW_AT_name        : (indirect string, offset: 0x604e): timespec
    <216>   DW_AT_byte_size   : 16
    <217>   DW_AT_decl_file   : 8
    <218>   DW_AT_decl_line   : 10
    <219>   DW_AT_decl_column : 8
    <21a>   DW_AT_sibling     : <0x239>
 <2><21e>: Abbrev Number: 10 (DW_TAG_member)
    <21f>   DW_AT_name        : (indirect string, offset: 0x3145): tv_sec
    <223>   DW_AT_decl_file   : 8
    <224>   DW_AT_decl_line   : 12
    <225>   DW_AT_decl_column : 12
    <226>   DW_AT_type        : <0x1b1>
    <22a>   DW_AT_data_member_location: 0
 <2><22b>: Abbrev Number: 10 (DW_TAG_member)
    <22c>   DW_AT_name        : (indirect string, offset: 0x359f): tv_nsec
    <230>   DW_AT_decl_file   : 8
    <231>   DW_AT_decl_line   : 16
    <232>   DW_AT_decl_column : 21
    <233>   DW_AT_type        : <0x1e8>
    <237>   DW_AT_data_member_location: 8
 <2><238>: Abbrev Number: 0
 <1><239>: Abbrev Number: 12 (DW_TAG_typedef)
    <23a>   DW_AT_name        : (indirect string, offset: 0x2529): pid_t
    <23e>   DW_AT_decl_file   : 9
    <23f>   DW_AT_decl_line   : 38
    <240>   DW_AT_decl_column : 17
    <241>   DW_AT_type        : <0x17d>
 <1><245>: Abbrev Number: 12 (DW_TAG_typedef)
    <246>   DW_AT_name        : (indirect string, offset: 0x4b0): off_t
    <24a>   DW_AT_decl_file   : 10
    <24b>   DW_AT_decl_line   : 85
    <24c>   DW_AT_decl_column : 17
    <24d>   DW_AT_type        : <0x165>
 <1><251>: Abbrev Number: 12 (DW_TAG_typedef)
    <252>   DW_AT_name        : (indirect string, offset: 0x19da): ssize_t
    <256>   DW_AT_decl_file   : 10
    <257>   DW_AT_decl_line   : 108
    <258>   DW_AT_decl_column : 19
    <259>   DW_AT_type        : <0x1dc>
 <1><25d>: Abbrev Number: 16 (DW_TAG_structure_type)
    <25e>   DW_AT_byte_size   : 128
    <25f>   DW_AT_decl_file   : 11
    <260>   DW_AT_decl_line   : 5
    <261>   DW_AT_decl_column : 9
    <262>   DW_AT_sibling     : <0x274>
 <2><266>: Abbrev Number: 10 (DW_TAG_member)
    <267>   DW_AT_name        : (indirect string, offset: 0x1a9c): __val
    <26b>   DW_AT_decl_file   : 11
    <26c>   DW_AT_decl_line   : 7
    <26d>   DW_AT_decl_column : 21
    <26e>   DW_AT_type        : <0x274>
    <272>   DW_AT_data_member_location: 0
 <2><273>: Abbrev Number: 0
 <1><274>: Abbrev Number: 13 (DW_TAG_array_type)
    <275>   DW_AT_type        : <0xe9>
    <279>   DW_AT_sibling     : <0x284>
 <2><27d>: Abbrev Number: 14 (DW_TAG_subrange_type)
    <27e>   DW_AT_type        : <0xe9>
    <282>   DW_AT_upper_bound : 15
 <2><283>: Abbrev Number: 0
 <1><284>: Abbrev Number: 12 (DW_TAG_typedef)
    <285>   DW_AT_name        : (indirect string, offset: 0x951): __sigset_t
    <289>   DW_AT_decl_file   : 11
    <28a>   DW_AT_decl_line   : 8
    <28b>   DW_AT_decl_column : 3
    <28c>   DW_AT_type        : <0x25d>
 <1><290>: Abbrev Number: 4 (DW_TAG_const_type)
    <291>   DW_AT_type        : <0x284>
 <1><295>: Abbrev Number: 12 (DW_TAG_typedef)
    <296>   DW_AT_name        : (indirect string, offset: 0x953): sigset_t
    <29a>   DW_AT_decl_file   : 12
    <29b>   DW_AT_decl_line   : 7
    <29c>   DW_AT_decl_column : 20
    <29d>   DW_AT_type        : <0x284>
 <1><2a1>: Abbrev Number: 4 (DW_TAG_const_type)
    <2a2>   DW_AT_type        : <0x295>
 <1><2a6>: Abbrev Number: 9 (DW_TAG_structure_type)
    <2a7>   DW_AT_name        : (indirect string, offset: 0x1800): __pthread_internal_list
    <2ab>   DW_AT_byte_size   : 16
    <2ac>   DW_AT_decl_file   : 13
    <2ad>   DW_AT_decl_line   : 49
    <2ae>   DW_AT_decl_column : 16
    <2af>   DW_AT_sibling     : <0x2ce>
 <2><2b3>: Abbrev Number: 10 (DW_TAG_member)
    <2b4>   DW_AT_name        : (indirect string, offset: 0x1818): __prev
    <2b8>   DW_AT_decl_file   : 13
    <2b9>   DW_AT_decl_line   : 51
    <2ba>   DW_AT_decl_column : 35
    <2bb>   DW_AT_type        : <0x2ce>
    <2bf>   DW_AT_data_member_location: 0
 <2><2c0>: Abbrev Number: 10 (DW_TAG_member)
    <2c1>   DW_AT_name        : (indirect string, offset: 0x1cd8): __next
    <2c5>   DW_AT_decl_file   : 13
    <2c6>   DW_AT_decl_line   : 52
    <2c7>   DW_AT_decl_column : 35
    <2c8>   DW_AT_type        : <0x2ce>
    <2cc>   DW_AT_data_member_location: 8
 <2><2cd>: Abbrev Number: 0
 <1><2ce>: Abbrev Number: 3 (DW_TAG_pointer_type)
    <2cf>   DW_AT_byte_size   : 8
    <2d0>   DW_AT_type        : <0x2a6>
 <1><2d4>: Abbrev Number: 12 (DW_TAG_typedef)
    <2d5>   DW_AT_name        : (indirect string, offset: 0xa3a): __pthread_list_t
    <2d9>   DW_AT_decl_file   : 13
    <2da>   DW_AT_decl_line   : 53
    <2db>   DW_AT_decl_column : 3
    <2dc>   DW_AT_type        : <0x2a6>
 <1><2e0>: Abbrev Number: 9 (DW_TAG_structure_type)
    <2e1>   DW_AT_name        : (indirect string, offset: 0x9e): __pthread_mutex_s
    <2e5>   DW_AT_byte_size   : 40
    <2e6>   DW_AT_decl_file   : 14
    <2e7>   DW_AT_decl_line   : 22
    <2e8>   DW_AT_decl_column : 8
    <2e9>   DW_AT_sibling     : <0x356>
 <2><2ed>: Abbrev Number: 10 (DW_TAG_member)
    <2ee>   DW_AT_name        : (indirect string, offset: 0x9f3): __lock
    <2f2>   DW_AT_decl_file   : 14
    <2f3>   DW_AT_decl_line   : 24
    <2f4>   DW_AT_decl_column : 7
    <2f5>   DW_AT_type        : <0x61>
    <2f9>   DW_AT_data_member_location: 0
 <2><2fa>: Abbrev Number: 10 (DW_TAG_member)
    <2fb>   DW_AT_name        : (indirect string, offset: 0x14dd): __count
    <2ff>   DW_AT_decl_file   : 14
    <300>   DW_AT_decl_line   : 25
    <301>   DW_AT_decl_column : 16
    <302>   DW_AT_type        : <0xe2>
    <306>   DW_AT_data_member_location: 4
 <2><307>: Abbrev Number: 10 (DW_TAG_member)
    <308>   DW_AT_name        : (indirect string, offset: 0x878): __owner
    <30c>   DW_AT_decl_file   : 14
    <30d>   DW_AT_decl_line   : 26
    <30e>   DW_AT_decl_column : 7
    <30f>   DW_AT_type        : <0x61>
    <313>   DW_AT_data_member_location: 8
 <2><314>: Abbrev Number: 10 (DW_TAG_member)
    <315>   DW_AT_name        : (indirect string, offset: 0x2805): __nusers
    <319>   DW_AT_decl_file   : 14
    <31a>   DW_AT_decl_line   : 28
    <31b>   DW_AT_decl_column : 16
    <31c>   DW_AT_type        : <0xe2>
    <320>   DW_AT_data_member_location: 12
 <2><321>: Abbrev Number: 10 (DW_TAG_member)
    <322>   DW_AT_name        : (indirect string, offset: 0x1092): __kind
    <326>   DW_AT_decl_file   : 14
    <327>   DW_AT_decl_line   : 32
    <328>   DW_AT_decl_column : 7
    <329>   DW_AT_type        : <0x61>
    <32d>   DW_AT_data_member_location: 16
 <2><32e>: Abbrev Number: 10 (DW_TAG_member)
    <32f>   DW_AT_name        : (indirect string, offset: 0x27bf): __spins
    <333>   DW_AT_decl_file   : 14
    <334>   DW_AT_decl_line   : 34
    <335>   DW_AT_decl_column : 9
    <336>   DW_AT_type        : <0xf7>
    <33a>   DW_AT_data_member_location: 20
 <2><33b>: Abbrev Number: 10 (DW_TAG_member)
    <33c>   DW_AT_name        : (indirect string, offset: 0x1e72): __elision
    <340>   DW_AT_decl_file   : 14
    <341>   DW_AT_decl_line   : 35
    <342>   DW_AT_decl_column : 9
    <343>   DW_AT_type        : <0xf7>
    <347>   DW_AT_data_member_location: 22
 <2><348>: Abbrev Number: 10 (DW_TAG_member)
    <349>   DW_AT_name        : (indirect string, offset: 0x322d): __list
    <34d>   DW_AT_decl_file   : 14
    <34e>   DW_AT_decl_line   : 36
    <34f>   DW_AT_decl_column : 20
    <350>   DW_AT_type        : <0x2d4>
    <354>   DW_AT_data_member_location: 24
 <2><355>: Abbrev Number: 0
 <1><356>: Abbrev Number: 16 (DW_TAG_structure_type)
    <357>   DW_AT_byte_size   : 8
    <358>   DW_AT_decl_file   : 13
    <359>   DW_AT_decl_line   : 97
    <35a>   DW_AT_decl_column : 5
    <35b>   DW_AT_sibling     : <0x37a>
 <2><35f>: Abbrev Number: 10 (DW_TAG_member)
    <360>   DW_AT_name        : (indirect string, offset: 0x2aa1): __low
    <364>   DW_AT_decl_file   : 13
    <365>   DW_AT_decl_line   : 99
    <366>   DW_AT_decl_column : 20
    <367>   DW_AT_type        : <0xe2>
    <36b>   DW_AT_data_member_location: 0
 <2><36c>: Abbrev Number: 10 (DW_TAG_member)
    <36d>   DW_AT_name        : (indirect string, offset: 0x298d): __high
    <371>   DW_AT_decl_file   : 13
    <372>   DW_AT_decl_line   : 100
    <373>   DW_AT_decl_column : 20
    <374>   DW_AT_type        : <0xe2>
    <378>   DW_AT_data_member_location: 4
 <2><379>: Abbrev Number: 0
 <1><37a>: Abbrev Number: 17 (DW_TAG_union_type)
    <37b>   DW_AT_byte_size   : 8
    <37c>   DW_AT_decl_file   : 13
    <37d>   DW_AT_decl_line   : 94
    <37e>   DW_AT_decl_column : 17
    <37f>   DW_AT_sibling     : <0x39c>
 <2><383>: Abbrev Number: 18 (DW_TAG_member)
    <384>   DW_AT_name        : (indirect string, offset: 0x3475): __wseq
    <388>   DW_AT_decl_file   : 13
    <389>   DW_AT_decl_line   : 96
    <38a>   DW_AT_decl_column : 42
    <38b>   DW_AT_type        : <0x39c>
 <2><38f>: Abbrev Number: 18 (DW_TAG_member)
    <390>   DW_AT_name        : (indirect string, offset: 0x22bb): __wseq32
    <394>   DW_AT_decl_file   : 13
    <395>   DW_AT_decl_line   : 101
    <396>   DW_AT_decl_column : 7
    <397>   DW_AT_type        : <0x356>
 <2><39b>: Abbrev Number: 0
 <1><39c>: Abbrev Number: 6 (DW_TAG_base_type)
    <39d>   DW_AT_byte_size   : 8
    <39e>   DW_AT_encoding    : 7	(unsigned)
    <39f>   DW_AT_name        : (indirect string, offset: 0x319f): long long unsigned int
 <1><3a3>: Abbrev Number: 16 (DW_TAG_structure_type)
    <3a4>   DW_AT_byte_size   : 8
    <3a5>   DW_AT_decl_file   : 13
    <3a6>   DW_AT_decl_line   : 106
    <3a7>   DW_AT_decl_column : 5
    <3a8>   DW_AT_sibling     : <0x3c7>
 <2><3ac>: Abbrev Number: 10 (DW_TAG_member)
    <3ad>   DW_AT_name        : (indirect string, offset: 0x2aa1): __low
    <3b1>   DW_AT_decl_file   : 13
    <3b2>   DW_AT_decl_line   : 108
    <3b3>   DW_AT_decl_column : 20
    <3b4>   DW_AT_type        : <0xe2>
    <3b8>   DW_AT_data_member_location: 0
 <2><3b9>: Abbrev Number: 10 (DW_TAG_member)
    <3ba>   DW_AT_name        : (indirect string, offset: 0x298d): __high
    <3be>   DW_AT_decl_file   : 13
    <3bf>   DW_AT_decl_line   : 109
    <3c0>   DW_AT_decl_column : 20
    <3c1>   DW_AT_type        : <0xe2>
    <3c5>   DW_AT_data_member_location: 4
 <2><3c6>: Abbrev Number: 0
 <1><3c7>: Abbrev Number: 17 (DW_TAG_union_type)
    <3c8>   DW_AT_byte_size   : 8
    <3c9>   DW_AT_decl_file   : 13
    <3ca>   DW_AT_decl_line   : 103
    <3cb>   DW_AT_decl_column : 17
    <3cc>   DW_AT_sibling     : <0x3e9>
 <2><3d0>: Abbrev Number: 18 (DW_TAG_member)
    <3d1>   DW_AT_name        : (indirect string, offset: 0x2006): __g1_start
    <3d5>   DW_AT_decl_file   : 13
    <3d6>   DW_AT_decl_line   : 105
    <3d7>   DW_AT_decl_column : 42
    <3d8>   DW_AT_type        : <0x39c>
 <2><3dc>: Abbrev Number: 18 (DW_TAG_member)
    <3dd>   DW_AT_name        : (indirect string, offset: 0x1e7c): __g1_start32
    <3e1>   DW_AT_decl_file   : 13
    <3e2>   DW_AT_decl_line   : 110
    <3e3>   DW_AT_decl_column : 7
    <3e4>   DW_AT_type        : <0x3a3>
 <2><3e8>: Abbrev Number: 0
 <1><3e9>: Abbrev Number: 9 (DW_TAG_structure_type)
    <3ea>   DW_AT_name        : (indirect string, offset: 0x358e): __pthread_cond_s
    <3ee>   DW_AT_byte_size   : 48
    <3ef>   DW_AT_decl_file   : 13
    <3f0>   DW_AT_decl_line   : 92
    <3f1>   DW_AT_decl_column : 8
    <3f2>   DW_AT_sibling     : <0x444>
 <2><3f6>: Abbrev Number: 19 (DW_TAG_member)
    <3f7>   DW_AT_type        : <0x37a>
    <3fb>   DW_AT_data_member_location: 0
 <2><3fc>: Abbrev Number: 19 (DW_TAG_member)
    <3fd>   DW_AT_type        : <0x3c7>
    <401>   DW_AT_data_member_location: 8
 <2><402>: Abbrev Number: 10 (DW_TAG_member)
    <403>   DW_AT_name        : (indirect string, offset: 0x1484): __g_refs
    <407>   DW_AT_decl_file   : 13
    <408>   DW_AT_decl_line   : 112
    <409>   DW_AT_decl_column : 16
    <40a>   DW_AT_type        : <0x444>
    <40e>   DW_AT_data_member_location: 16
 <2><40f>: Abbrev Number: 10 (DW_TAG_member)
    <410>   DW_AT_name        : (indirect string, offset: 0x1f3b): __g_size
    <414>   DW_AT_decl_file   : 13
    <415>   DW_AT_decl_line   : 113
    <416>   DW_AT_decl_column : 16
    <417>   DW_AT_type        : <0x444>
    <41b>   DW_AT_data_member_location: 24
 <2><41c>: Abbrev Number: 10 (DW_TAG_member)
    <41d>   DW_AT_name        : (indirect string, offset: 0x118b): __g1_orig_size
    <421>   DW_AT_decl_file   : 13
    <422>   DW_AT_decl_line   : 114
    <423>   DW_AT_decl_column : 16
    <424>   DW_AT_type        : <0xe2>
    <428>   DW_AT_data_member_location: 32
 <2><429>: Abbrev Number: 10 (DW_TAG_member)
    <42a>   DW_AT_name        : (indirect string, offset: 0x1641): __wrefs
    <42e>   DW_AT_decl_file   : 13
    <42f>   DW_AT_decl_line   : 115
    <430>   DW_AT_decl_column : 16
    <431>   DW_AT_type        : <0xe2>
    <435>   DW_AT_data_member_location: 36
 <2><436>: Abbrev Number: 10 (DW_TAG_member)
    <437>   DW_AT_name        : (indirect string, offset: 0x2d8e): __g_signals
    <43b>   DW_AT_decl_file   : 13
    <43c>   DW_AT_decl_line   : 116
    <43d>   DW_AT_decl_column : 16
    <43e>   DW_AT_type        : <0x444>
    <442>   DW_AT_data_member_location: 40
 <2><443>: Abbrev Number: 0
 <1><444>: Abbrev Number: 13 (DW_TAG_array_type)
    <445>   DW_AT_type        : <0xe2>
    <449>   DW_AT_sibling     : <0x454>
 <2><44d>: Abbrev Number: 14 (DW_TAG_subrange_type)
    <44e>   DW_AT_type        : <0xe9>
    <452>   DW_AT_upper_bound : 1
 <2><453>: Abbrev Number: 0
 <1><454>: Abbrev Number: 12 (DW_TAG_typedef)
    <455>   DW_AT_name        : (indirect string, offset: 0x63d): pthread_t
    <459>   DW_AT_decl_file   : 15
    <45a>   DW_AT_decl_line   : 27
    <45b>   DW_AT_decl_column : 27
    <45c>   DW_AT_type        : <0xe9>
 <1><460>: Abbrev Number: 17 (DW_TAG_union_type)
    <461>   DW_AT_byte_size   : 4
    <462>   DW_AT_decl_file   : 15
    <463>   DW_AT_decl_line   : 32
    <464>   DW_AT_decl_column : 9
    <465>   DW_AT_sibling     : <0x482>
 <2><469>: Abbrev Number: 18 (DW_TAG_member)
    <46a>   DW_AT_name        : (indirect string, offset: 0x1416): __size
    <46e>   DW_AT_decl_file   : 15
    <46f>   DW_AT_decl_line   : 34
    <470>   DW_AT_decl_column : 8
    <471>   DW_AT_type        : <0x482>
 <2><475>: Abbrev Number: 18 (DW_TAG_member)
    <476>   DW_AT_name        : (indirect string, offset: 0x27): __align
    <47a>   DW_AT_decl_file   : 15
    <47b>   DW_AT_decl_line   : 35
    <47c>   DW_AT_decl_column : 7
    <47d>   DW_AT_type        : <0x61>
 <2><481>: Abbrev Number: 0
 <1><482>: Abbrev Number: 13 (DW_TAG_array_type)
    <483>   DW_AT_type        : <0x49>
    <487>   DW_AT_sibling     : <0x492>
 <2><48b>: Abbrev Number: 14 (DW_TAG_subrange_type)
    <48c>   DW_AT_type        : <0xe9>
    <490>   DW_AT_upper_bound : 3
 <2><491>: Abbrev Number: 0
 <1><492>: Abbrev Number: 12 (DW_TAG_typedef)
    <493>   DW_AT_name        : (indirect string, offset: 0x1d7f): pthread_mutexattr_t
    <497>   DW_AT_decl_file   : 15
    <498>   DW_AT_decl_line   : 36
    <499>   DW_AT_decl_column : 3
    <49a>   DW_AT_type        : <0x460>
 <1><49e>: Abbrev Number: 4 (DW_TAG_const_type)
    <49f>   DW_AT_type        : <0x492>
 <1><4a3>: Abbrev Number: 17 (DW_TAG_union_type)
    <4a4>   DW_AT_byte_size   : 4
    <4a5>   DW_AT_decl_file   : 15
    <4a6>   DW_AT_decl_line   : 41
    <4a7>   DW_AT_decl_column : 9
    <4a8>   DW_AT_sibling     : <0x4c5>
 <2><4ac>: Abbrev Number: 18 (DW_TAG_member)
    <4ad>   DW_AT_name        : (indirect string, offset: 0x1416): __size
    <4b1>   DW_AT_decl_file   : 15
    <4b2>   DW_AT_decl_line   : 43
    <4b3>   DW_AT_decl_column : 8
    <4b4>   DW_AT_type        : <0x482>
 <2><4b8>: Abbrev Number: 18 (DW_TAG_member)
    <4b9>   DW_AT_name        : (indirect string, offset: 0x27): __align
    <4bd>   DW_AT_decl_file   : 15
    <4be>   DW_AT_decl_line   : 44
    <4bf>   DW_AT_decl_column : 7
    <4c0>   DW_AT_type        : <0x61>
 <2><4c4>: Abbrev Number: 0
 <1><4c5>: Abbrev Number: 12 (DW_TAG_typedef)
    <4c6>   DW_AT_name        : (indirect string, offset: 0x218): pthread_condattr_t
    <4ca>   DW_AT_decl_file   : 15
    <4cb>   DW_AT_decl_line   : 45
    <4cc>   DW_AT_decl_column : 3
    <4cd>   DW_AT_type        : <0x4a3>
 <1><4d1>: Abbrev Number: 4 (DW_TAG_const_type)
    <4d2>   DW_AT_type        : <0x4c5>
 <1><4d6>: Abbrev Number: 20 (DW_TAG_union_type)
    <4d7>   DW_AT_name        : (indirect string, offset: 0x3397): pthread_attr_t
    <4db>   DW_AT_byte_size   : 56
    <4dc>   DW_AT_decl_file   : 15
    <4dd>   DW_AT_decl_line   : 56
    <4de>   DW_AT_decl_column : 7
    <4df>   DW_AT_sibling     : <0x4fc>
 <2><4e3>: Abbrev Number: 18 (DW_TAG_member)
    <4e4>   DW_AT_name        : (indirect string, offset: 0x1416): __size
    <4e8>   DW_AT_decl_file   : 15
    <4e9>   DW_AT_decl_line   : 58
    <4ea>   DW_AT_decl_column : 8
    <4eb>   DW_AT_type        : <0x4fc>
 <2><4ef>: Abbrev Number: 18 (DW_TAG_member)
    <4f0>   DW_AT_name        : (indirect string, offset: 0x27): __align
    <4f4>   DW_AT_decl_file   : 15
    <4f5>   DW_AT_decl_line   : 59
    <4f6>   DW_AT_decl_column : 12
    <4f7>   DW_AT_type        : <0x10a>
 <2><4fb>: Abbrev Number: 0
 <1><4fc>: Abbrev Number: 13 (DW_TAG_array_type)
    <4fd>   DW_AT_type        : <0x49>
    <501>   DW_AT_sibling     : <0x50c>
 <2><505>: Abbrev Number: 14 (DW_TAG_subrange_type)
    <506>   DW_AT_type        : <0xe9>
    <50a>   DW_AT_upper_bound : 55
 <2><50b>: Abbrev Number: 0
 <1><50c>: Abbrev Number: 12 (DW_TAG_typedef)
    <50d>   DW_AT_name        : (indirect string, offset: 0x3397): pthread_attr_t
    <511>   DW_AT_decl_file   : 15
    <512>   DW_AT_decl_line   : 62
    <513>   DW_AT_decl_column : 30
    <514>   DW_AT_type        : <0x4d6>
 <1><518>: Abbrev Number: 4 (DW_TAG_const_type)
    <519>   DW_AT_type        : <0x50c>
 <1><51d>: Abbrev Number: 17 (DW_TAG_union_type)
    <51e>   DW_AT_byte_size   : 40
    <51f>   DW_AT_decl_file   : 15
    <520>   DW_AT_decl_line   : 67
    <521>   DW_AT_decl_column : 9
    <522>   DW_AT_sibling     : <0x54b>
 <2><526>: Abbrev Number: 18 (DW_TAG_member)
    <527>   DW_AT_name        : (indirect string, offset: 0xce7): __data
    <52b>   DW_AT_decl_file   : 15
    <52c>   DW_AT_decl_line   : 69
    <52d>   DW_AT_decl_column : 28
    <52e>   DW_AT_type        : <0x2e0>
 <2><532>: Abbrev Number: 18 (DW_TAG_member)
    <533>   DW_AT_name        : (indirect string, offset: 0x1416): __size
    <537>   DW_AT_decl_file   : 15
    <538>   DW_AT_decl_line   : 70
    <539>   DW_AT_decl_column : 8
    <53a>   DW_AT_type        : <0x54b>
 <2><53e>: Abbrev Number: 18 (DW_TAG_member)
    <53f>   DW_AT_name        : (indirect string, offset: 0x27): __align
    <543>   DW_AT_decl_file   : 15
    <544>   DW_AT_decl_line   : 71
    <545>   DW_AT_decl_column : 12
    <546>   DW_AT_type        : <0x10a>
 <2><54a>: Abbrev Number: 0
 <1><54b>: Abbrev Number: 13 (DW_TAG_array_type)
    <54c>   DW_AT_type        : <0x49>
    <550>   DW_AT_sibling     : <0x55b>
 <2><554>: Abbrev Number: 14 (DW_TAG_subrange_type)
    <555>   DW_AT_type        : <0xe9>
    <559>   DW_AT_upper_bound : 39
 <2><55a>: Abbrev Number: 0
 <1><55b>: Abbrev Number: 12 (DW_TAG_typedef)
    <55c>   DW_AT_name        : (indirect string, offset: 0xe85): pthread_mutex_t
    <560>   DW_AT_decl_file   : 15
    <561>   DW_AT_decl_line   : 72
    <562>   DW_AT_decl_column : 3
    <563>   DW_AT_type        : <0x51d>
 <1><567>: Abbrev Number: 17 (DW_TAG_union_type)
    <568>   DW_AT_byte_size   : 48
    <569>   DW_AT_decl_file   : 15
    <56a>   DW_AT_decl_line   : 75
    <56b>   DW_AT_decl_column : 9
    <56c>   DW_AT_sibling     : <0x595>
 <2><570>: Abbrev Number: 18 (DW_TAG_member)
    <571>   DW_AT_name        : (indirect string, offset: 0xce7): __data
    <575>   DW_AT_decl_file   : 15
    <576>   DW_AT_decl_line   : 77
    <577>   DW_AT_decl_column : 27
    <578>   DW_AT_type        : <0x3e9>
 <2><57c>: Abbrev Number: 18 (DW_TAG_member)
    <57d>   DW_AT_name        : (indirect string, offset: 0x1416): __size
    <581>   DW_AT_decl_file   : 15
    <582>   DW_AT_decl_line   : 78
    <583>   DW_AT_decl_column : 8
    <584>   DW_AT_type        : <0x595>
 <2><588>: Abbrev Number: 18 (DW_TAG_member)
    <589>   DW_AT_name        : (indirect string, offset: 0x27): __align
    <58d>   DW_AT_decl_file   : 15
    <58e>   DW_AT_decl_line   : 79
    <58f>   DW_AT_decl_column : 31
    <590>   DW_AT_type        : <0x5a5>
 <2><594>: Abbrev Number: 0
 <1><595>: Abbrev Number: 13 (DW_TAG_array_type)
    <596>   DW_AT_type        : <0x49>
    <59a>   DW_AT_sibling     : <0x5a5>
 <2><59e>: Abbrev Number: 14 (DW_TAG_subrange_type)
    <59f>   DW_AT_type        : <0xe9>
    <5a3>   DW_AT_upper_bound : 47
 <2><5a4>: Abbrev Number: 0
 <1><5a5>: Abbrev Number: 6 (DW_TAG_base_type)
    <5a6>   DW_AT_byte_size   : 8
    <5a7>   DW_AT_encoding    : 5	(signed)
    <5a8>   DW_AT_name        : (indirect string, offset: 0x3524): long long int
 <1><5ac>: Abbrev Number: 12 (DW_TAG_typedef)
    <5ad>   DW_AT_name        : (indirect string, offset: 0x1ade): pthread_cond_t
    <5b1>   DW_AT_decl_file   : 15
    <5b2>   DW_AT_decl_line   : 80
    <5b3>   DW_AT_decl_column : 3
    <5b4>   DW_AT_type        : <0x567>
 <1><5b8>: Abbrev Number: 3 (DW_TAG_pointer_type)
    <5b9>   DW_AT_byte_size   : 8
    <5ba>   DW_AT_type        : <0xdd>
 <1><5be>: Abbrev Number: 12 (DW_TAG_typedef)
    <5bf>   DW_AT_name        : (indirect string, offset: 0x1fb7): ptrdiff_t
    <5c3>   DW_AT_decl_file   : 6
    <5c4>   DW_AT_decl_line   : 143
    <5c5>   DW_AT_decl_column : 26
    <5c6>   DW_AT_type        : <0x10a>
 <1><5ca>: Abbrev Number: 6 (DW_TAG_base_type)
    <5cb>   DW_AT_byte_size   : 16
    <5cc>   DW_AT_encoding    : 4	(float)
    <5cd>   DW_AT_name        : (indirect string, offset: 0x25b3): long double
 <1><5d1>: Abbrev Number: 21 (DW_TAG_subroutine_type)
    <5d2>   DW_AT_prototyped  : 1
    <5d2>   DW_AT_sibling     : <0x5dc>
 <2><5d6>: Abbrev Number: 22 (DW_TAG_formal_parameter)
    <5d7>   DW_AT_type        : <0x1bd>
 <2><5db>: Abbrev Number: 0
 <1><5dc>: Abbrev Number: 3 (DW_TAG_pointer_type)
    <5dd>   DW_AT_byte_size   : 8
    <5de>   DW_AT_type        : <0x5d1>
 <1><5e2>: Abbrev Number: 23 (DW_TAG_typedef)
    <5e3>   DW_AT_name        : (indirect string, offset: 0x31eb): __compar_fn_t
    <5e7>   DW_AT_decl_file   : 16
    <5e8>   DW_AT_decl_line   : 808
    <5ea>   DW_AT_decl_column : 15
    <5eb>   DW_AT_type        : <0x5ef>
 <1><5ef>: Abbrev Number: 3 (DW_TAG_pointer_type)
    <5f0>   DW_AT_byte_size   : 8
    <5f1>   DW_AT_type        : <0x5f5>
 <1><5f5>: Abbrev Number: 24 (DW_TAG_subroutine_type)
    <5f6>   DW_AT_prototyped  : 1
    <5f6>   DW_AT_type        : <0x61>
    <5fa>   DW_AT_sibling     : <0x609>
 <2><5fe>: Abbrev Number: 22 (DW_TAG_formal_parameter)
    <5ff>   DW_AT_type        : <0x609>
 <2><603>: Abbrev Number: 22 (DW_TAG_formal_parameter)
    <604>   DW_AT_type        : <0x609>
 <2><608>: Abbrev Number: 0
 <1><609>: Abbrev Number: 3 (DW_TAG_pointer_type)
    <60a>   DW_AT_byte_size   : 8
    <60b>   DW_AT_type        : <0x614>
 <1><60f>: Abbrev Number: 5 (DW_TAG_restrict_type)
    <610>   DW_AT_type        : <0x609>
 <1><614>: Abbrev Number: 25 (DW_TAG_const_type)
 <1><615>: Abbrev Number: 26 (DW_TAG_enumeration_type)
    <616>   DW_AT_name        : (indirect string, offset: 0x384a): __rlimit_resource
    <61a>   DW_AT_encoding    : 7	(unsigned)
    <61b>   DW_AT_byte_size   : 4
    <61c>   DW_AT_type        : <0xe2>
    <620>   DW_AT_decl_file   : 17
    <621>   DW_AT_decl_line   : 31
    <622>   DW_AT_decl_column : 6
    <623>   DW_AT_sibling     : <0x69a>
 <2><627>: Abbrev Number: 27 (DW_TAG_enumerator)
    <628>   DW_AT_name        : (indirect string, offset: 0x2837): RLIMIT_CPU
    <62c>   DW_AT_const_value : 0
 <2><62d>: Abbrev Number: 27 (DW_TAG_enumerator)
    <62e>   DW_AT_name        : (indirect string, offset: 0x2d4a): RLIMIT_FSIZE
    <632>   DW_AT_const_value : 1
 <2><633>: Abbrev Number: 27 (DW_TAG_enumerator)
    <634>   DW_AT_name        : (indirect string, offset: 0x5ec): RLIMIT_DATA
    <638>   DW_AT_const_value : 2
 <2><639>: Abbrev Number: 27 (DW_TAG_enumerator)
    <63a>   DW_AT_name        : (indirect string, offset: 0xa8c): RLIMIT_STACK
    <63e>   DW_AT_const_value : 3
 <2><63f>: Abbrev Number: 27 (DW_TAG_enumerator)
    <640>   DW_AT_name        : (indirect string, offset: 0x36e2): RLIMIT_CORE
    <644>   DW_AT_const_value : 4
 <2><645>: Abbrev Number: 27 (DW_TAG_enumerator)
    <646>   DW_AT_name        : (indirect string, offset: 0x32b0): __RLIMIT_RSS
    <64a>   DW_AT_const_value : 5
 <2><64b>: Abbrev Number: 27 (DW_TAG_enumerator)
    <64c>   DW_AT_name        : (indirect string, offset: 0x69f): RLIMIT_NOFILE
    <650>   DW_AT_const_value : 7
 <2><651>: Abbrev Number: 27 (DW_TAG_enumerator)
    <652>   DW_AT_name        : (indirect string, offset: 0x26e2): __RLIMIT_OFILE
    <656>   DW_AT_const_value : 7
 <2><657>: Abbrev Number: 27 (DW_TAG_enumerator)
    <658>   DW_AT_name        : (indirect string, offset: 0x2a8e): RLIMIT_AS
    <65c>   DW_AT_const_value : 9
 <2><65d>: Abbrev Number: 27 (DW_TAG_enumerator)
    <65e>   DW_AT_name        : (indirect string, offset: 0x5b7): __RLIMIT_NPROC
    <662>   DW_AT_const_value : 6
 <2><663>: Abbrev Number: 27 (DW_TAG_enumerator)
    <664>   DW_AT_name        : (indirect string, offset: 0x13f8): __RLIMIT_MEMLOCK
    <668>   DW_AT_const_value : 8
 <2><669>: Abbrev Number: 27 (DW_TAG_enumerator)
    <66a>   DW_AT_name        : (indirect string, offset: 0x1b61): __RLIMIT_LOCKS
    <66e>   DW_AT_const_value : 10
 <2><66f>: Abbrev Number: 27 (DW_TAG_enumerator)
    <670>   DW_AT_name        : (indirect string, offset: 0x1118): __RLIMIT_SIGPENDING
    <674>   DW_AT_const_value : 11
 <2><675>: Abbrev Number: 27 (DW_TAG_enumerator)
    <676>   DW_AT_name        : (indirect string, offset: 0x2aaf): __RLIMIT_MSGQUEUE
    <67a>   DW_AT_const_value : 12
 <2><67b>: Abbrev Number: 27 (DW_TAG_enumerator)
    <67c>   DW_AT_name        : (indirect string, offset: 0x3a43): __RLIMIT_NICE
    <680>   DW_AT_const_value : 13
 <2><681>: Abbrev Number: 27 (DW_TAG_enumerator)
    <682>   DW_AT_name        : (indirect string, offset: 0x3b7e): __RLIMIT_RTPRIO
    <686>   DW_AT_const_value : 14
 <2><687>: Abbrev Number: 27 (DW_TAG_enumerator)
    <688>   DW_AT_name        : (indirect string, offset: 0x716): __RLIMIT_RTTIME
    <68c>   DW_AT_const_value : 15
 <2><68d>: Abbrev Number: 27 (DW_TAG_enumerator)
    <68e>   DW_AT_name        : (indirect string, offset: 0xe95): __RLIMIT_NLIMITS
    <692>   DW_AT_const_value : 16
 <2><693>: Abbrev Number: 27 (DW_TAG_enumerator)
    <694>   DW_AT_name        : (indirect string, offset: 0x32f): __RLIM_NLIMITS
    <698>   DW_AT_const_value : 16
 <2><699>: Abbrev Number: 0
 <1><69a>: Abbrev Number: 12 (DW_TAG_typedef)
    <69b>   DW_AT_name        : (indirect string, offset: 0x13dd): rlim_t
    <69f>   DW_AT_decl_file   : 17
    <6a0>   DW_AT_decl_line   : 131
    <6a1>   DW_AT_decl_column : 18
    <6a2>   DW_AT_type        : <0x1a5>
 <1><6a6>: Abbrev Number: 9 (DW_TAG_structure_type)
    <6a7>   DW_AT_name        : (indirect string, offset: 0x37d4): rlimit
    <6ab>   DW_AT_byte_size   : 16
    <6ac>   DW_AT_decl_file   : 17
    <6ad>   DW_AT_decl_line   : 139
    <6ae>   DW_AT_decl_column : 8
    <6af>   DW_AT_sibling     : <0x6ce>
 <2><6b3>: Abbrev Number: 10 (DW_TAG_member)
    <6b4>   DW_AT_name        : (indirect string, offset: 0x1f16): rlim_cur
    <6b8>   DW_AT_decl_file   : 17
    <6b9>   DW_AT_decl_line   : 142
    <6ba>   DW_AT_decl_column : 12
    <6bb>   DW_AT_type        : <0x69a>
    <6bf>   DW_AT_data_member_location: 0
 <2><6c0>: Abbrev Number: 10 (DW_TAG_member)
    <6c1>   DW_AT_name        : (indirect string, offset: 0xab1): rlim_max
    <6c5>   DW_AT_decl_file   : 17
    <6c6>   DW_AT_decl_line   : 144
    <6c7>   DW_AT_decl_column : 12
    <6c8>   DW_AT_type        : <0x69a>
    <6cc>   DW_AT_data_member_location: 8
 <2><6cd>: Abbrev Number: 0
 <1><6ce>: Abbrev Number: 12 (DW_TAG_typedef)
    <6cf>   DW_AT_name        : (indirect string, offset: 0xa6d): __rlimit_resource_t
    <6d3>   DW_AT_decl_file   : 18
    <6d4>   DW_AT_decl_line   : 38
    <6d5>   DW_AT_decl_column : 32
    <6d6>   DW_AT_type        : <0x615>
 <1><6da>: Abbrev Number: 20 (DW_TAG_union_type)
    <6db>   DW_AT_name        : (indirect string, offset: 0x3a87): sigval
    <6df>   DW_AT_byte_size   : 8
    <6e0>   DW_AT_decl_file   : 19
    <6e1>   DW_AT_decl_line   : 24
    <6e2>   DW_AT_decl_column : 7
    <6e3>   DW_AT_sibling     : <0x700>
 <2><6e7>: Abbrev Number: 18 (DW_TAG_member)
    <6e8>   DW_AT_name        : (indirect string, offset: 0x1896): sival_int
    <6ec>   DW_AT_decl_file   : 19
    <6ed>   DW_AT_decl_line   : 26
    <6ee>   DW_AT_decl_column : 7
    <6ef>   DW_AT_type        : <0x61>
 <2><6f3>: Abbrev Number: 18 (DW_TAG_member)
    <6f4>   DW_AT_name        : (indirect string, offset: 0xbe7): sival_ptr
    <6f8>   DW_AT_decl_file   : 19
    <6f9>   DW_AT_decl_line   : 27
    <6fa>   DW_AT_decl_column : 9
    <6fb>   DW_AT_type        : <0x1bd>
 <2><6ff>: Abbrev Number: 0
 <1><700>: Abbrev Number: 12 (DW_TAG_typedef)
    <701>   DW_AT_name        : (indirect string, offset: 0x16ca): __sigval_t
    <705>   DW_AT_decl_file   : 19
    <706>   DW_AT_decl_line   : 30
    <707>   DW_AT_decl_column : 22
    <708>   DW_AT_type        : <0x6da>
 <1><70c>: Abbrev Number: 16 (DW_TAG_structure_type)
    <70d>   DW_AT_byte_size   : 8
    <70e>   DW_AT_decl_file   : 20
    <70f>   DW_AT_decl_line   : 56
    <710>   DW_AT_decl_column : 2
    <711>   DW_AT_sibling     : <0x730>
 <2><715>: Abbrev Number: 10 (DW_TAG_member)
    <716>   DW_AT_name        : (indirect string, offset: 0x1fff): si_pid
    <71a>   DW_AT_decl_file   : 20
    <71b>   DW_AT_decl_line   : 58
    <71c>   DW_AT_decl_column : 14
    <71d>   DW_AT_type        : <0x17d>
    <721>   DW_AT_data_member_location: 0
 <2><722>: Abbrev Number: 10 (DW_TAG_member)
    <723>   DW_AT_name        : (indirect string, offset: 0x2da): si_uid
    <727>   DW_AT_decl_file   : 20
    <728>   DW_AT_decl_line   : 59
    <729>   DW_AT_decl_column : 14
    <72a>   DW_AT_type        : <0x129>
    <72e>   DW_AT_data_member_location: 4
 <2><72f>: Abbrev Number: 0
 <1><730>: Abbrev Number: 16 (DW_TAG_structure_type)
    <731>   DW_AT_byte_size   : 16
    <732>   DW_AT_decl_file   : 20
    <733>   DW_AT_decl_line   : 63
    <734>   DW_AT_decl_column : 2
    <735>   DW_AT_sibling     : <0x761>
 <2><739>: Abbrev Number: 10 (DW_TAG_member)
    <73a>   DW_AT_name        : (indirect string, offset: 0x36ee): si_tid
    <73e>   DW_AT_decl_file   : 20
    <73f>   DW_AT_decl_line   : 65
    <740>   DW_AT_decl_column : 10
    <741>   DW_AT_type        : <0x61>
    <745>   DW_AT_data_member_location: 0
 <2><746>: Abbrev Number: 10 (DW_TAG_member)
    <747>   DW_AT_name        : (indirect string, offset: 0x340a): si_overrun
    <74b>   DW_AT_decl_file   : 20
    <74c>   DW_AT_decl_line   : 66
    <74d>   DW_AT_decl_column : 10
    <74e>   DW_AT_type        : <0x61>
    <752>   DW_AT_data_member_location: 4
 <2><753>: Abbrev Number: 10 (DW_TAG_member)
    <754>   DW_AT_name        : (indirect string, offset: 0x3a84): si_sigval
    <758>   DW_AT_decl_file   : 20
    <759>   DW_AT_decl_line   : 67
    <75a>   DW_AT_decl_column : 17
    <75b>   DW_AT_type        : <0x700>
    <75f>   DW_AT_data_member_location: 8
 <2><760>: Abbrev Number: 0
 <1><761>: Abbrev Number: 16 (DW_TAG_structure_type)
    <762>   DW_AT_byte_size   : 16
    <763>   DW_AT_decl_file   : 20
    <764>   DW_AT_decl_line   : 71
    <765>   DW_AT_decl_column : 2
    <766>   DW_AT_sibling     : <0x792>
 <2><76a>: Abbrev Number: 10 (DW_TAG_member)
    <76b>   DW_AT_name        : (indirect string, offset: 0x1fff): si_pid
    <76f>   DW_AT_decl_file   : 20
    <770>   DW_AT_decl_line   : 73
    <771>   DW_AT_decl_column : 14
    <772>   DW_AT_type        : <0x17d>
    <776>   DW_AT_data_member_location: 0
 <2><777>: Abbrev Number: 10 (DW_TAG_member)
    <778>   DW_AT_name        : (indirect string, offset: 0x2da): si_uid
    <77c>   DW_AT_decl_file   : 20
    <77d>   DW_AT_decl_line   : 74
    <77e>   DW_AT_decl_column : 14
    <77f>   DW_AT_type        : <0x129>
    <783>   DW_AT_data_member_location: 4
 <2><784>: Abbrev Number: 10 (DW_TAG_member)
    <785>   DW_AT_name        : (indirect string, offset: 0x3a84): si_sigval
    <789>   DW_AT_decl_file   : 20
    <78a>   DW_AT_decl_line   : 75
    <78b>   DW_AT_decl_column : 17
    <78c>   DW_AT_type        : <0x700>
    <790>   DW_AT_data_member_location: 8
 <2><791>: Abbrev Number: 0
 <1><792>: Abbrev Number: 16 (DW_TAG_structure_type)
    <793>   DW_AT_byte_size   : 32
    <794>   DW_AT_decl_file   : 20
    <795>   DW_AT_decl_line   : 79
    <796>   DW_AT_decl_column : 2
    <797>   DW_AT_sibling     : <0x7dd>
 <2><79b>: Abbrev Number: 10 (DW_TAG_member)
    <79c>   DW_AT_name        : (indirect string, offset: 0x1fff): si_pid
    <7a0>   DW_AT_decl_file   : 20
    <7a1>   DW_AT_decl_line   : 81
    <7a2>   DW_AT_decl_column : 14
    <7a3>   DW_AT_type        : <0x17d>
    <7a7>   DW_AT_data_member_location: 0
 <2><7a8>: Abbrev Number: 10 (DW_TAG_member)
    <7a9>   DW_AT_name        : (indirect string, offset: 0x2da): si_uid
    <7ad>   DW_AT_decl_file   : 20
    <7ae>   DW_AT_decl_line   : 82
    <7af>   DW_AT_decl_column : 14
    <7b0>   DW_AT_type        : <0x129>
    <7b4>   DW_AT_data_member_location: 4
 <2><7b5>: Abbrev Number: 10 (DW_TAG_member)
    <7b6>   DW_AT_name        : (indirect string, offset: 0x26c6): si_status
    <7ba>   DW_AT_decl_file   : 20
    <7bb>   DW_AT_decl_line   : 83
    <7bc>   DW_AT_decl_column : 10
    <7bd>   DW_AT_type        : <0x61>
    <7c1>   DW_AT_data_member_location: 8
 <2><7c2>: Abbrev Number: 10 (DW_TAG_member)
    <7c3>   DW_AT_name        : (indirect string, offset: 0x313c): si_utime
    <7c7>   DW_AT_decl_file   : 20
    <7c8>   DW_AT_decl_line   : 84
    <7c9>   DW_AT_decl_column : 19
    <7ca>   DW_AT_type        : <0x199>
    <7ce>   DW_AT_data_member_location: 16
 <2><7cf>: Abbrev Number: 10 (DW_TAG_member)
    <7d0>   DW_AT_name        : (indirect string, offset: 0xc2d): si_stime
    <7d4>   DW_AT_decl_file   : 20
    <7d5>   DW_AT_decl_line   : 85
    <7d6>   DW_AT_decl_column : 19
    <7d7>   DW_AT_type        : <0x199>
    <7db>   DW_AT_data_member_location: 24
 <2><7dc>: Abbrev Number: 0
 <1><7dd>: Abbrev Number: 16 (DW_TAG_structure_type)
    <7de>   DW_AT_byte_size   : 16
    <7df>   DW_AT_decl_file   : 20
    <7e0>   DW_AT_decl_line   : 97
    <7e1>   DW_AT_decl_column : 3
    <7e2>   DW_AT_sibling     : <0x801>
 <2><7e6>: Abbrev Number: 10 (DW_TAG_member)
    <7e7>   DW_AT_name        : (indirect string, offset: 0x1be8): _lower
    <7eb>   DW_AT_decl_file   : 20
    <7ec>   DW_AT_decl_line   : 99
    <7ed>   DW_AT_decl_column : 13
    <7ee>   DW_AT_type        : <0x1bd>
    <7f2>   DW_AT_data_member_location: 0
 <2><7f3>: Abbrev Number: 10 (DW_TAG_member)
    <7f4>   DW_AT_name        : (indirect string, offset: 0x6d4): _upper
    <7f8>   DW_AT_decl_file   : 20
    <7f9>   DW_AT_decl_line   : 100
    <7fa>   DW_AT_decl_column : 13
    <7fb>   DW_AT_type        : <0x1bd>
    <7ff>   DW_AT_data_member_location: 8
 <2><800>: Abbrev Number: 0
 <1><801>: Abbrev Number: 17 (DW_TAG_union_type)
    <802>   DW_AT_byte_size   : 16
    <803>   DW_AT_decl_file   : 20
    <804>   DW_AT_decl_line   : 94
    <805>   DW_AT_decl_column : 6
    <806>   DW_AT_sibling     : <0x823>
 <2><80a>: Abbrev Number: 18 (DW_TAG_member)
    <80b>   DW_AT_name        : (indirect string, offset: 0x4ec): _addr_bnd
    <80f>   DW_AT_decl_file   : 20
    <810>   DW_AT_decl_line   : 101
    <811>   DW_AT_decl_column : 7
    <812>   DW_AT_type        : <0x7dd>
 <2><816>: Abbrev Number: 18 (DW_TAG_member)
    <817>   DW_AT_name        : (indirect string, offset: 0x26dc): _pkey
    <81b>   DW_AT_decl_file   : 20
    <81c>   DW_AT_decl_line   : 103
    <81d>   DW_AT_decl_column : 14
    <81e>   DW_AT_type        : <0xfe>
 <2><822>: Abbrev Number: 0
 <1><823>: Abbrev Number: 16 (DW_TAG_structure_type)
    <824>   DW_AT_byte_size   : 32
    <825>   DW_AT_decl_file   : 20
    <826>   DW_AT_decl_line   : 89
    <827>   DW_AT_decl_column : 2
    <828>   DW_AT_sibling     : <0x854>
 <2><82c>: Abbrev Number: 10 (DW_TAG_member)
    <82d>   DW_AT_name        : (indirect string, offset: 0x174e): si_addr
    <831>   DW_AT_decl_file   : 20
    <832>   DW_AT_decl_line   : 91
    <833>   DW_AT_decl_column : 12
    <834>   DW_AT_type        : <0x1bd>
    <838>   DW_AT_data_member_location: 0
 <2><839>: Abbrev Number: 10 (DW_TAG_member)
    <83a>   DW_AT_name        : (indirect string, offset: 0x60): si_addr_lsb
    <83e>   DW_AT_decl_file   : 20
    <83f>   DW_AT_decl_line   : 93
    <840>   DW_AT_decl_column : 16
    <841>   DW_AT_type        : <0xf7>
    <845>   DW_AT_data_member_location: 8
 <2><846>: Abbrev Number: 10 (DW_TAG_member)
    <847>   DW_AT_name        : (indirect string, offset: 0x2053): _bounds
    <84b>   DW_AT_decl_file   : 20
    <84c>   DW_AT_decl_line   : 104
    <84d>   DW_AT_decl_column : 10
    <84e>   DW_AT_type        : <0x801>
    <852>   DW_AT_data_member_location: 16
 <2><853>: Abbrev Number: 0
 <1><854>: Abbrev Number: 16 (DW_TAG_structure_type)
    <855>   DW_AT_byte_size   : 16
    <856>   DW_AT_decl_file   : 20
    <857>   DW_AT_decl_line   : 108
    <858>   DW_AT_decl_column : 2
    <859>   DW_AT_sibling     : <0x878>
 <2><85d>: Abbrev Number: 10 (DW_TAG_member)
    <85e>   DW_AT_name        : (indirect string, offset: 0x2c72): si_band
    <862>   DW_AT_decl_file   : 20
    <863>   DW_AT_decl_line   : 110
    <864>   DW_AT_decl_column : 21
    <865>   DW_AT_type        : <0x10a>
    <869>   DW_AT_data_member_location: 0
 <2><86a>: Abbrev Number: 10 (DW_TAG_member)
    <86b>   DW_AT_name        : (indirect string, offset: 0x31f9): si_fd
    <86f>   DW_AT_decl_file   : 20
    <870>   DW_AT_decl_line   : 111
    <871>   DW_AT_decl_column : 10
    <872>   DW_AT_type        : <0x61>
    <876>   DW_AT_data_member_location: 8
 <2><877>: Abbrev Number: 0
 <1><878>: Abbrev Number: 16 (DW_TAG_structure_type)
    <879>   DW_AT_byte_size   : 16
    <87a>   DW_AT_decl_file   : 20
    <87b>   DW_AT_decl_line   : 116
    <87c>   DW_AT_decl_column : 2
    <87d>   DW_AT_sibling     : <0x8a9>
 <2><881>: Abbrev Number: 10 (DW_TAG_member)
    <882>   DW_AT_name        : (indirect string, offset: 0xd4f): _call_addr
    <886>   DW_AT_decl_file   : 20
    <887>   DW_AT_decl_line   : 118
    <888>   DW_AT_decl_column : 12
    <889>   DW_AT_type        : <0x1bd>
    <88d>   DW_AT_data_member_location: 0
 <2><88e>: Abbrev Number: 10 (DW_TAG_member)
    <88f>   DW_AT_name        : (indirect string, offset: 0x8ce): _syscall
    <893>   DW_AT_decl_file   : 20
    <894>   DW_AT_decl_line   : 119
    <895>   DW_AT_decl_column : 10
    <896>   DW_AT_type        : <0x61>
    <89a>   DW_AT_data_member_location: 8
 <2><89b>: Abbrev Number: 10 (DW_TAG_member)
    <89c>   DW_AT_name        : (indirect string, offset: 0x490): _arch
    <8a0>   DW_AT_decl_file   : 20
    <8a1>   DW_AT_decl_line   : 120
    <8a2>   DW_AT_decl_column : 19
    <8a3>   DW_AT_type        : <0xe2>
    <8a7>   DW_AT_data_member_location: 12
 <2><8a8>: Abbrev Number: 0
 <1><8a9>: Abbrev Number: 17 (DW_TAG_union_type)
    <8aa>   DW_AT_byte_size   : 112
    <8ab>   DW_AT_decl_file   : 20
    <8ac>   DW_AT_decl_line   : 51
    <8ad>   DW_AT_decl_column : 5
    <8ae>   DW_AT_sibling     : <0x913>
 <2><8b2>: Abbrev Number: 18 (DW_TAG_member)
    <8b3>   DW_AT_name        : (indirect string, offset: 0x1ddd): _pad
    <8b7>   DW_AT_decl_file   : 20
    <8b8>   DW_AT_decl_line   : 53
    <8b9>   DW_AT_decl_column : 6
    <8ba>   DW_AT_type        : <0x913>
 <2><8be>: Abbrev Number: 18 (DW_TAG_member)
    <8bf>   DW_AT_name        : (indirect string, offset: 0xa67): _kill
    <8c3>   DW_AT_decl_file   : 20
    <8c4>   DW_AT_decl_line   : 60
    <8c5>   DW_AT_decl_column : 6
    <8c6>   DW_AT_type        : <0x70c>
 <2><8ca>: Abbrev Number: 18 (DW_TAG_member)
    <8cb>   DW_AT_name        : (indirect string, offset: 0x7ca): _timer
    <8cf>   DW_AT_decl_file   : 20
    <8d0>   DW_AT_decl_line   : 68
    <8d1>   DW_AT_decl_column : 6
    <8d2>   DW_AT_type        : <0x730>
 <2><8d6>: Abbrev Number: 28 (DW_TAG_member)
    <8d7>   DW_AT_name        : _rt
    <8db>   DW_AT_decl_file   : 20
    <8dc>   DW_AT_decl_line   : 76
    <8dd>   DW_AT_decl_column : 6
    <8de>   DW_AT_type        : <0x761>
 <2><8e2>: Abbrev Number: 18 (DW_TAG_member)
    <8e3>   DW_AT_name        : (indirect string, offset: 0x6b3): _sigchld
    <8e7>   DW_AT_decl_file   : 20
    <8e8>   DW_AT_decl_line   : 86
    <8e9>   DW_AT_decl_column : 6
    <8ea>   DW_AT_type        : <0x792>
 <2><8ee>: Abbrev Number: 18 (DW_TAG_member)
    <8ef>   DW_AT_name        : (indirect string, offset: 0x3114): _sigfault
    <8f3>   DW_AT_decl_file   : 20
    <8f4>   DW_AT_decl_line   : 105
    <8f5>   DW_AT_decl_column : 6
    <8f6>   DW_AT_type        : <0x823>
 <2><8fa>: Abbrev Number: 18 (DW_TAG_member)
    <8fb>   DW_AT_name        : (indirect string, offset: 0x416): _sigpoll
    <8ff>   DW_AT_decl_file   : 20
    <900>   DW_AT_decl_line   : 112
    <901>   DW_AT_decl_column : 6
    <902>   DW_AT_type        : <0x854>
 <2><906>: Abbrev Number: 18 (DW_TAG_member)
    <907>   DW_AT_name        : (indirect string, offset: 0x2099): _sigsys
    <90b>   DW_AT_decl_file   : 20
    <90c>   DW_AT_decl_line   : 121
    <90d>   DW_AT_decl_column : 6
    <90e>   DW_AT_type        : <0x878>
 <2><912>: Abbrev Number: 0
 <1><913>: Abbrev Number: 13 (DW_TAG_array_type)
    <914>   DW_AT_type        : <0x61>
    <918>   DW_AT_sibling     : <0x923>
 <2><91c>: Abbrev Number: 14 (DW_TAG_subrange_type)
    <91d>   DW_AT_type        : <0xe9>
    <921>   DW_AT_upper_bound : 27
 <2><922>: Abbrev Number: 0
 <1><923>: Abbrev Number: 16 (DW_TAG_structure_type)
    <924>   DW_AT_byte_size   : 128
    <925>   DW_AT_decl_file   : 20
    <926>   DW_AT_decl_line   : 36
    <927>   DW_AT_decl_column : 9
    <928>   DW_AT_sibling     : <0x96e>
 <2><92c>: Abbrev Number: 10 (DW_TAG_member)
    <92d>   DW_AT_name        : (indirect string, offset: 0x2a98): si_signo
    <931>   DW_AT_decl_file   : 20
    <932>   DW_AT_decl_line   : 38
    <933>   DW_AT_decl_column : 9
    <934>   DW_AT_type        : <0x61>
    <938>   DW_AT_data_member_location: 0
 <2><939>: Abbrev Number: 10 (DW_TAG_member)
    <93a>   DW_AT_name        : (indirect string, offset: 0x2be4): si_errno
    <93e>   DW_AT_decl_file   : 20
    <93f>   DW_AT_decl_line   : 40
    <940>   DW_AT_decl_column : 9
    <941>   DW_AT_type        : <0x61>
    <945>   DW_AT_data_member_location: 4
 <2><946>: Abbrev Number: 10 (DW_TAG_member)
    <947>   DW_AT_name        : (indirect string, offset: 0x18cd): si_code
    <94b>   DW_AT_decl_file   : 20
    <94c>   DW_AT_decl_line   : 42
    <94d>   DW_AT_decl_column : 9
    <94e>   DW_AT_type        : <0x61>
    <952>   DW_AT_data_member_location: 8
 <2><953>: Abbrev Number: 10 (DW_TAG_member)
    <954>   DW_AT_name        : (indirect string, offset: 0x2b54): __pad0
    <958>   DW_AT_decl_file   : 20
    <959>   DW_AT_decl_line   : 48
    <95a>   DW_AT_decl_column : 9
    <95b>   DW_AT_type        : <0x61>
    <95f>   DW_AT_data_member_location: 12
 <2><960>: Abbrev Number: 10 (DW_TAG_member)
    <961>   DW_AT_name        : (indirect string, offset: 0x2946): _sifields
    <965>   DW_AT_decl_file   : 20
    <966>   DW_AT_decl_line   : 123
    <967>   DW_AT_decl_column : 9
    <968>   DW_AT_type        : <0x8a9>
    <96c>   DW_AT_data_member_location: 16
 <2><96d>: Abbrev Number: 0
 <1><96e>: Abbrev Number: 12 (DW_TAG_typedef)
    <96f>   DW_AT_name        : (indirect string, offset: 0x34c2): siginfo_t
    <973>   DW_AT_decl_file   : 20
    <974>   DW_AT_decl_line   : 124
    <975>   DW_AT_decl_column : 5
    <976>   DW_AT_type        : <0x923>
 <1><97a>: Abbrev Number: 12 (DW_TAG_typedef)
    <97b>   DW_AT_name        : (indirect string, offset: 0x1b05): __sighandler_t
    <97f>   DW_AT_decl_file   : 21
    <980>   DW_AT_decl_line   : 72
    <981>   DW_AT_decl_column : 16
    <982>   DW_AT_type        : <0x986>
 <1><986>: Abbrev Number: 3 (DW_TAG_pointer_type)
    <987>   DW_AT_byte_size   : 8
    <988>   DW_AT_type        : <0x98c>
 <1><98c>: Abbrev Number: 21 (DW_TAG_subroutine_type)
    <98d>   DW_AT_prototyped  : 1
    <98d>   DW_AT_sibling     : <0x997>
 <2><991>: Abbrev Number: 22 (DW_TAG_formal_parameter)
    <992>   DW_AT_type        : <0x61>
 <2><996>: Abbrev Number: 0
 <1><997>: Abbrev Number: 17 (DW_TAG_union_type)
    <998>   DW_AT_byte_size   : 8
    <999>   DW_AT_decl_file   : 22
    <99a>   DW_AT_decl_line   : 31
    <99b>   DW_AT_decl_column : 5
    <99c>   DW_AT_sibling     : <0x9b9>
 <2><9a0>: Abbrev Number: 18 (DW_TAG_member)
    <9a1>   DW_AT_name        : (indirect string, offset: 0x2fda): sa_handler
    <9a5>   DW_AT_decl_file   : 22
    <9a6>   DW_AT_decl_line   : 34
    <9a7>   DW_AT_decl_column : 17
    <9a8>   DW_AT_type        : <0x97a>
 <2><9ac>: Abbrev Number: 18 (DW_TAG_member)
    <9ad>   DW_AT_name        : (indirect string, offset: 0x22e7): sa_sigaction
    <9b1>   DW_AT_decl_file   : 22
    <9b2>   DW_AT_decl_line   : 36
    <9b3>   DW_AT_decl_column : 9
    <9b4>   DW_AT_type        : <0x9d4>
 <2><9b8>: Abbrev Number: 0
 <1><9b9>: Abbrev Number: 21 (DW_TAG_subroutine_type)
    <9ba>   DW_AT_prototyped  : 1
    <9ba>   DW_AT_sibling     : <0x9ce>
 <2><9be>: Abbrev Number: 22 (DW_TAG_formal_parameter)
    <9bf>   DW_AT_type        : <0x61>
 <2><9c3>: Abbrev Number: 22 (DW_TAG_formal_parameter)
    <9c4>   DW_AT_type        : <0x9ce>
 <2><9c8>: Abbrev Number: 22 (DW_TAG_formal_parameter)
    <9c9>   DW_AT_type        : <0x1bd>
 <2><9cd>: Abbrev Number: 0
 <1><9ce>: Abbrev Number: 3 (DW_TAG_pointer_type)
    <9cf>   DW_AT_byte_size   : 8
    <9d0>   DW_AT_type        : <0x96e>
 <1><9d4>: Abbrev Number: 3 (DW_TAG_pointer_type)
    <9d5>   DW_AT_byte_size   : 8
    <9d6>   DW_AT_type        : <0x9b9>
 <1><9da>: Abbrev Number: 9 (DW_TAG_structure_type)
    <9db>   DW_AT_name        : (indirect string, offset: 0x22ea): sigaction
    <9df>   DW_AT_byte_size   : 152
    <9e0>   DW_AT_decl_file   : 22
    <9e1>   DW_AT_decl_line   : 27
    <9e2>   DW_AT_decl_column : 8
    <9e3>   DW_AT_sibling     : <0xa1c>
 <2><9e7>: Abbrev Number: 10 (DW_TAG_member)
    <9e8>   DW_AT_name        : (indirect string, offset: 0x24a1): __sigaction_handler
    <9ec>   DW_AT_decl_file   : 22
    <9ed>   DW_AT_decl_line   : 38
    <9ee>   DW_AT_decl_column : 5
    <9ef>   DW_AT_type        : <0x997>
    <9f3>   DW_AT_data_member_location: 0
 <2><9f4>: Abbrev Number: 10 (DW_TAG_member)
    <9f5>   DW_AT_name        : (indirect string, offset: 0x164e): sa_mask
    <9f9>   DW_AT_decl_file   : 22
    <9fa>   DW_AT_decl_line   : 46
    <9fb>   DW_AT_decl_column : 16
    <9fc>   DW_AT_type        : <0x284>
    <a00>   DW_AT_data_member_location: 8
 <2><a01>: Abbrev Number: 10 (DW_TAG_member)
    <a02>   DW_AT_name        : (indirect string, offset: 0xffd): sa_flags
    <a06>   DW_AT_decl_file   : 22
    <a07>   DW_AT_decl_line   : 49
    <a08>   DW_AT_decl_column : 9
    <a09>   DW_AT_type        : <0x61>
    <a0d>   DW_AT_data_member_location: 136
 <2><a0e>: Abbrev Number: 10 (DW_TAG_member)
    <a0f>   DW_AT_name        : (indirect string, offset: 0x814): sa_restorer
    <a13>   DW_AT_decl_file   : 22
    <a14>   DW_AT_decl_line   : 52
    <a15>   DW_AT_decl_column : 12
    <a16>   DW_AT_type        : <0xa22>
    <a1a>   DW_AT_data_member_location: 144
 <2><a1b>: Abbrev Number: 0
 <1><a1c>: Abbrev Number: 4 (DW_TAG_const_type)
    <a1d>   DW_AT_type        : <0x9da>
 <1><a21>: Abbrev Number: 29 (DW_TAG_subroutine_type)
    <a22>   DW_AT_prototyped  : 1
 <1><a22>: Abbrev Number: 3 (DW_TAG_pointer_type)
    <a23>   DW_AT_byte_size   : 8
    <a24>   DW_AT_type        : <0xa21>
 <1><a28>: Abbrev Number: 9 (DW_TAG_structure_type)
    <a29>   DW_AT_name        : (indirect string, offset: 0x6ae): stat
    <a2d>   DW_AT_byte_size   : 144
    <a2e>   DW_AT_decl_file   : 23
    <a2f>   DW_AT_decl_line   : 46
    <a30>   DW_AT_decl_column : 8
    <a31>   DW_AT_sibling     : <0xaf9>
 <2><a35>: Abbrev Number: 10 (DW_TAG_member)
    <a36>   DW_AT_name        : (indirect string, offset: 0x2d9f): st_dev
    <a3a>   DW_AT_decl_file   : 23
    <a3b>   DW_AT_decl_line   : 48
    <a3c>   DW_AT_decl_column : 13
    <a3d>   DW_AT_type        : <0x11d>
    <a41>   DW_AT_data_member_location: 0
 <2><a42>: Abbrev Number: 10 (DW_TAG_member)
    <a43>   DW_AT_name        : (indirect string, offset: 0x1772): st_ino
    <a47>   DW_AT_decl_file   : 23
    <a48>   DW_AT_decl_line   : 53
    <a49>   DW_AT_decl_column : 13
    <a4a>   DW_AT_type        : <0x141>
    <a4e>   DW_AT_data_member_location: 8
 <2><a4f>: Abbrev Number: 10 (DW_TAG_member)
    <a50>   DW_AT_name        : (indirect string, offset: 0x86f): st_nlink
    <a54>   DW_AT_decl_file   : 23
    <a55>   DW_AT_decl_line   : 61
    <a56>   DW_AT_decl_column : 15
    <a57>   DW_AT_type        : <0x159>
    <a5b>   DW_AT_data_member_location: 16
 <2><a5c>: Abbrev Number: 10 (DW_TAG_member)
    <a5d>   DW_AT_name        : (indirect string, offset: 0x1779): st_mode
    <a61>   DW_AT_decl_file   : 23
    <a62>   DW_AT_decl_line   : 62
    <a63>   DW_AT_decl_column : 14
    <a64>   DW_AT_type        : <0x14d>
    <a68>   DW_AT_data_member_location: 24
 <2><a69>: Abbrev Number: 10 (DW_TAG_member)
    <a6a>   DW_AT_name        : (indirect string, offset: 0x1b7b): st_uid
    <a6e>   DW_AT_decl_file   : 23
    <a6f>   DW_AT_decl_line   : 64
    <a70>   DW_AT_decl_column : 13
    <a71>   DW_AT_type        : <0x129>
    <a75>   DW_AT_data_member_location: 28
 <2><a76>: Abbrev Number: 10 (DW_TAG_member)
    <a77>   DW_AT_name        : (indirect string, offset: 0x780): st_gid
    <a7b>   DW_AT_decl_file   : 23
    <a7c>   DW_AT_decl_line   : 65
    <a7d>   DW_AT_decl_column : 13
    <a7e>   DW_AT_type        : <0x135>
    <a82>   DW_AT_data_member_location: 32
 <2><a83>: Abbrev Number: 10 (DW_TAG_member)
    <a84>   DW_AT_name        : (indirect string, offset: 0x2b54): __pad0
    <a88>   DW_AT_decl_file   : 23
    <a89>   DW_AT_decl_line   : 67
    <a8a>   DW_AT_decl_column : 9
    <a8b>   DW_AT_type        : <0x61>
    <a8f>   DW_AT_data_member_location: 36
 <2><a90>: Abbrev Number: 10 (DW_TAG_member)
    <a91>   DW_AT_name        : (indirect string, offset: 0x2d75): st_rdev
    <a95>   DW_AT_decl_file   : 23
    <a96>   DW_AT_decl_line   : 69
    <a97>   DW_AT_decl_column : 13
    <a98>   DW_AT_type        : <0x11d>
    <a9c>   DW_AT_data_member_location: 40
 <2><a9d>: Abbrev Number: 10 (DW_TAG_member)
    <a9e>   DW_AT_name        : (indirect string, offset: 0x501): st_size
    <aa2>   DW_AT_decl_file   : 23
    <aa3>   DW_AT_decl_line   : 74
    <aa4>   DW_AT_decl_column : 13
    <aa5>   DW_AT_type        : <0x165>
    <aa9>   DW_AT_data_member_location: 48
 <2><aaa>: Abbrev Number: 10 (DW_TAG_member)
    <aab>   DW_AT_name        : (indirect string, offset: 0x694): st_blksize
    <aaf>   DW_AT_decl_file   : 23
    <ab0>   DW_AT_decl_line   : 78
    <ab1>   DW_AT_decl_column : 17
    <ab2>   DW_AT_type        : <0x1c4>
    <ab6>   DW_AT_data_member_location: 56
 <2><ab7>: Abbrev Number: 10 (DW_TAG_member)
    <ab8>   DW_AT_name        : (indirect string, offset: 0x3234): st_blocks
    <abc>   DW_AT_decl_file   : 23
    <abd>   DW_AT_decl_line   : 80
    <abe>   DW_AT_decl_column : 16
    <abf>   DW_AT_type        : <0x1d0>
    <ac3>   DW_AT_data_member_location: 64
 <2><ac4>: Abbrev Number: 10 (DW_TAG_member)
    <ac5>   DW_AT_name        : (indirect string, offset: 0xaf0): st_atim
    <ac9>   DW_AT_decl_file   : 23
    <aca>   DW_AT_decl_line   : 91
    <acb>   DW_AT_decl_column : 21
    <acc>   DW_AT_type        : <0x211>
    <ad0>   DW_AT_data_member_location: 72
 <2><ad1>: Abbrev Number: 10 (DW_TAG_member)
    <ad2>   DW_AT_name        : (indirect string, offset: 0x3a3b): st_mtim
    <ad6>   DW_AT_decl_file   : 23
    <ad7>   DW_AT_decl_line   : 92
    <ad8>   DW_AT_decl_column : 21
    <ad9>   DW_AT_type        : <0x211>
    <add>   DW_AT_data_member_location: 88
 <2><ade>: Abbrev Number: 10 (DW_TAG_member)
    <adf>   DW_AT_name        : (indirect string, offset: 0x90c): st_ctim
    <ae3>   DW_AT_decl_file   : 23
    <ae4>   DW_AT_decl_line   : 93
    <ae5>   DW_AT_decl_column : 21
    <ae6>   DW_AT_type        : <0x211>
    <aea>   DW_AT_data_member_location: 104
 <2><aeb>: Abbrev Number: 10 (DW_TAG_member)
    <aec>   DW_AT_name        : (indirect string, offset: 0x2842): __glibc_reserved
    <af0>   DW_AT_decl_file   : 23
    <af1>   DW_AT_decl_line   : 106
    <af2>   DW_AT_decl_column : 23
    <af3>   DW_AT_type        : <0xaf9>
    <af7>   DW_AT_data_member_location: 120
 <2><af8>: Abbrev Number: 0
 <1><af9>: Abbrev Number: 13 (DW_TAG_array_type)
    <afa>   DW_AT_type        : <0x1e8>
    <afe>   DW_AT_sibling     : <0xb09>
 <2><b02>: Abbrev Number: 14 (DW_TAG_subrange_type)
    <b03>   DW_AT_type        : <0xe9>
    <b07>   DW_AT_upper_bound : 2
 <2><b08>: Abbrev Number: 0
 <1><b09>: Abbrev Number: 3 (DW_TAG_pointer_type)
    <b0a>   DW_AT_byte_size   : 8
    <b0b>   DW_AT_type        : <0x39>
 <1><b0f>: Abbrev Number: 5 (DW_TAG_restrict_type)
    <b10>   DW_AT_type        : <0xb09>
 <1><b14>: Abbrev Number: 2 (DW_TAG_variable)
    <b15>   DW_AT_name        : (indirect string, offset: 0x1006): Version
    <b19>   DW_AT_decl_file   : 24
    <b1a>   DW_AT_decl_line   : 1
    <b1b>   DW_AT_decl_column : 20
    <b1c>   DW_AT_type        : <0xb9>
    <b20>   DW_AT_external    : 1
    <b20>   DW_AT_declaration : 1
 <1><b20>: Abbrev Number: 2 (DW_TAG_variable)
    <b21>   DW_AT_name        : (indirect string, offset: 0x1348): exit_failure
    <b25>   DW_AT_decl_file   : 25
    <b26>   DW_AT_decl_line   : 18
    <b27>   DW_AT_decl_column : 21
    <b28>   DW_AT_type        : <0x68>
    <b2c>   DW_AT_external    : 1
    <b2c>   DW_AT_declaration : 1
 <1><b2c>: Abbrev Number: 13 (DW_TAG_array_type)
    <b2d>   DW_AT_type        : <0x49>
    <b31>   DW_AT_sibling     : <0xb3c>
 <2><b35>: Abbrev Number: 14 (DW_TAG_subrange_type)
    <b36>   DW_AT_type        : <0xe9>
    <b3a>   DW_AT_upper_bound : 255
 <2><b3b>: Abbrev Number: 0
 <1><b3c>: Abbrev Number: 12 (DW_TAG_typedef)
    <b3d>   DW_AT_name        : (indirect string, offset: 0x2e1e): uint32_t
    <b41>   DW_AT_decl_file   : 26
    <b42>   DW_AT_decl_line   : 26
    <b43>   DW_AT_decl_column : 20
    <b44>   DW_AT_type        : <0xfe>
 <1><b48>: Abbrev Number: 12 (DW_TAG_typedef)
    <b49>   DW_AT_name        : (indirect string, offset: 0xae6): uintmax_t
    <b4d>   DW_AT_decl_file   : 27
    <b4e>   DW_AT_decl_line   : 102
    <b4f>   DW_AT_decl_column : 22
    <b50>   DW_AT_type        : <0x111>
 <1><b54>: Abbrev Number: 30 (DW_TAG_enumeration_type)
    <b55>   DW_AT_encoding    : 7	(unsigned)
    <b56>   DW_AT_byte_size   : 4
    <b57>   DW_AT_type        : <0xe2>
    <b5b>   DW_AT_decl_file   : 28
    <b5c>   DW_AT_decl_line   : 41
    <b5d>   DW_AT_decl_column : 6
    <b5e>   DW_AT_sibling     : <0xb6c>
 <2><b62>: Abbrev Number: 31 (DW_TAG_enumerator)
    <b63>   DW_AT_name        : (indirect string, offset: 0x2981): TIMESPEC_HZ
    <b67>   DW_AT_const_value : 0x3b9aca00
 <2><b6b>: Abbrev Number: 0
 <1><b6c>: Abbrev Number: 30 (DW_TAG_enumeration_type)
    <b6d>   DW_AT_encoding    : 7	(unsigned)
    <b6e>   DW_AT_byte_size   : 4
    <b6f>   DW_AT_type        : <0xe2>
    <b73>   DW_AT_decl_file   : 28
    <b74>   DW_AT_decl_line   : 42
    <b75>   DW_AT_decl_column : 6
    <b76>   DW_AT_sibling     : <0xb81>
 <2><b7a>: Abbrev Number: 27 (DW_TAG_enumerator)
    <b7b>   DW_AT_name        : (indirect string, offset: 0x297b): LOG10_TIMESPEC_HZ
    <b7f>   DW_AT_const_value : 9
 <2><b80>: Abbrev Number: 0
 <1><b81>: Abbrev Number: 30 (DW_TAG_enumeration_type)
    <b82>   DW_AT_encoding    : 7	(unsigned)
    <b83>   DW_AT_byte_size   : 4
    <b84>   DW_AT_type        : <0xe2>
    <b88>   DW_AT_decl_file   : 29
    <b89>   DW_AT_decl_line   : 47
    <b8a>   DW_AT_decl_column : 1
    <b8b>   DW_AT_sibling     : <0xbe0>
 <2><b8f>: Abbrev Number: 32 (DW_TAG_enumerator)
    <b90>   DW_AT_name        : (indirect string, offset: 0x188d): _ISupper
    <b94>   DW_AT_const_value : 256
 <2><b96>: Abbrev Number: 32 (DW_TAG_enumerator)
    <b97>   DW_AT_name        : (indirect string, offset: 0x2ee7): _ISlower
    <b9b>   DW_AT_const_value : 512
 <2><b9d>: Abbrev Number: 32 (DW_TAG_enumerator)
    <b9e>   DW_AT_name        : (indirect string, offset: 0x1089): _ISalpha
    <ba2>   DW_AT_const_value : 1024
 <2><ba4>: Abbrev Number: 32 (DW_TAG_enumerator)
    <ba5>   DW_AT_name        : (indirect string, offset: 0x35eb): _ISdigit
    <ba9>   DW_AT_const_value : 2048
 <2><bab>: Abbrev Number: 32 (DW_TAG_enumerator)
    <bac>   DW_AT_name        : (indirect string, offset: 0x145e): _ISxdigit
    <bb0>   DW_AT_const_value : 4096
 <2><bb2>: Abbrev Number: 32 (DW_TAG_enumerator)
    <bb3>   DW_AT_name        : (indirect string, offset: 0x127f): _ISspace
    <bb7>   DW_AT_const_value : 8192
 <2><bb9>: Abbrev Number: 32 (DW_TAG_enumerator)
    <bba>   DW_AT_name        : (indirect string, offset: 0x11a7): _ISprint
    <bbe>   DW_AT_const_value : 16384
 <2><bc0>: Abbrev Number: 32 (DW_TAG_enumerator)
    <bc1>   DW_AT_name        : (indirect string, offset: 0x2ad2): _ISgraph
    <bc5>   DW_AT_const_value : 32768
 <2><bc7>: Abbrev Number: 27 (DW_TAG_enumerator)
    <bc8>   DW_AT_name        : (indirect string, offset: 0xdfd): _ISblank
    <bcc>   DW_AT_const_value : 1
 <2><bcd>: Abbrev Number: 27 (DW_TAG_enumerator)
    <bce>   DW_AT_name        : (indirect string, offset: 0x183b): _IScntrl
    <bd2>   DW_AT_const_value : 2
 <2><bd3>: Abbrev Number: 27 (DW_TAG_enumerator)
    <bd4>   DW_AT_name        : (indirect string, offset: 0x352): _ISpunct
    <bd8>   DW_AT_const_value : 4
 <2><bd9>: Abbrev Number: 27 (DW_TAG_enumerator)
    <bda>   DW_AT_name        : (indirect string, offset: 0x11c2): _ISalnum
    <bde>   DW_AT_const_value : 8
 <2><bdf>: Abbrev Number: 0
 <1><be0>: Abbrev Number: 9 (DW_TAG_structure_type)
    <be1>   DW_AT_name        : (indirect string, offset: 0x21): lconv
    <be5>   DW_AT_byte_size   : 96
    <be6>   DW_AT_decl_file   : 30
    <be7>   DW_AT_decl_line   : 51
    <be8>   DW_AT_decl_column : 8
    <be9>   DW_AT_sibling     : <0xd26>
 <2><bed>: Abbrev Number: 10 (DW_TAG_member)
    <bee>   DW_AT_name        : (indirect string, offset: 0x24d8): decimal_point
    <bf2>   DW_AT_decl_file   : 30
    <bf3>   DW_AT_decl_line   : 55
    <bf4>   DW_AT_decl_column : 9
    <bf5>   DW_AT_type        : <0x39>
    <bf9>   DW_AT_data_member_location: 0
 <2><bfa>: Abbrev Number: 10 (DW_TAG_member)
    <bfb>   DW_AT_name        : (indirect string, offset: 0xb02): thousands_sep
    <bff>   DW_AT_decl_file   : 30
    <c00>   DW_AT_decl_line   : 56
    <c01>   DW_AT_decl_column : 9
    <c02>   DW_AT_type        : <0x39>
    <c06>   DW_AT_data_member_location: 8
 <2><c07>: Abbrev Number: 10 (DW_TAG_member)
    <c08>   DW_AT_name        : (indirect string, offset: 0x1db7): grouping
    <c0c>   DW_AT_decl_file   : 30
    <c0d>   DW_AT_decl_line   : 62
    <c0e>   DW_AT_decl_column : 9
    <c0f>   DW_AT_type        : <0x39>
    <c13>   DW_AT_data_member_location: 16
 <2><c14>: Abbrev Number: 10 (DW_TAG_member)
    <c15>   DW_AT_name        : (indirect string, offset: 0x1326): int_curr_symbol
    <c19>   DW_AT_decl_file   : 30
    <c1a>   DW_AT_decl_line   : 68
    <c1b>   DW_AT_decl_column : 9
    <c1c>   DW_AT_type        : <0x39>
    <c20>   DW_AT_data_member_location: 24
 <2><c21>: Abbrev Number: 10 (DW_TAG_member)
    <c22>   DW_AT_name        : (indirect string, offset: 0xcb4): currency_symbol
    <c26>   DW_AT_decl_file   : 30
    <c27>   DW_AT_decl_line   : 69
    <c28>   DW_AT_decl_column : 9
    <c29>   DW_AT_type        : <0x39>
    <c2d>   DW_AT_data_member_location: 32
 <2><c2e>: Abbrev Number: 10 (DW_TAG_member)
    <c2f>   DW_AT_name        : (indirect string, offset: 0x24d4): mon_decimal_point
    <c33>   DW_AT_decl_file   : 30
    <c34>   DW_AT_decl_line   : 70
    <c35>   DW_AT_decl_column : 9
    <c36>   DW_AT_type        : <0x39>
    <c3a>   DW_AT_data_member_location: 40
 <2><c3b>: Abbrev Number: 10 (DW_TAG_member)
    <c3c>   DW_AT_name        : (indirect string, offset: 0x15f1): mon_thousands_sep
    <c40>   DW_AT_decl_file   : 30
    <c41>   DW_AT_decl_line   : 71
    <c42>   DW_AT_decl_column : 9
    <c43>   DW_AT_type        : <0x39>
    <c47>   DW_AT_data_member_location: 48
 <2><c48>: Abbrev Number: 10 (DW_TAG_member)
    <c49>   DW_AT_name        : (indirect string, offset: 0x1db3): mon_grouping
    <c4d>   DW_AT_decl_file   : 30
    <c4e>   DW_AT_decl_line   : 72
    <c4f>   DW_AT_decl_column : 9
    <c50>   DW_AT_type        : <0x39>
    <c54>   DW_AT_data_member_location: 56
 <2><c55>: Abbrev Number: 10 (DW_TAG_member)
    <c56>   DW_AT_name        : (indirect string, offset: 0x2fa3): positive_sign
    <c5a>   DW_AT_decl_file   : 30
    <c5b>   DW_AT_decl_line   : 73
    <c5c>   DW_AT_decl_column : 9
    <c5d>   DW_AT_type        : <0x39>
    <c61>   DW_AT_data_member_location: 64
 <2><c62>: Abbrev Number: 10 (DW_TAG_member)
    <c63>   DW_AT_name        : (indirect string, offset: 0x122d): negative_sign
    <c67>   DW_AT_decl_file   : 30
    <c68>   DW_AT_decl_line   : 74
    <c69>   DW_AT_decl_column : 9
    <c6a>   DW_AT_type        : <0x39>
    <c6e>   DW_AT_data_member_location: 72
 <2><c6f>: Abbrev Number: 10 (DW_TAG_member)
    <c70>   DW_AT_name        : (indirect string, offset: 0x37f7): int_frac_digits
    <c74>   DW_AT_decl_file   : 30
    <c75>   DW_AT_decl_line   : 75
    <c76>   DW_AT_decl_column : 8
    <c77>   DW_AT_type        : <0x49>
    <c7b>   DW_AT_data_member_location: 80
 <2><c7c>: Abbrev Number: 10 (DW_TAG_member)
    <c7d>   DW_AT_name        : (indirect string, offset: 0x37fb): frac_digits
    <c81>   DW_AT_decl_file   : 30
    <c82>   DW_AT_decl_line   : 76
    <c83>   DW_AT_decl_column : 8
    <c84>   DW_AT_type        : <0x49>
    <c88>   DW_AT_data_member_location: 81
 <2><c89>: Abbrev Number: 10 (DW_TAG_member)
    <c8a>   DW_AT_name        : (indirect string, offset: 0x3a5f): p_cs_precedes
    <c8e>   DW_AT_decl_file   : 30
    <c8f>   DW_AT_decl_line   : 78
    <c90>   DW_AT_decl_column : 8
    <c91>   DW_AT_type        : <0x49>
    <c95>   DW_AT_data_member_location: 82
 <2><c96>: Abbrev Number: 10 (DW_TAG_member)
    <c97>   DW_AT_name        : (indirect string, offset: 0x209): p_sep_by_space
    <c9b>   DW_AT_decl_file   : 30
    <c9c>   DW_AT_decl_line   : 80
    <c9d>   DW_AT_decl_column : 8
    <c9e>   DW_AT_type        : <0x49>
    <ca2>   DW_AT_data_member_location: 83
 <2><ca3>: Abbrev Number: 10 (DW_TAG_member)
    <ca4>   DW_AT_name        : (indirect string, offset: 0xd5e): n_cs_precedes
    <ca8>   DW_AT_decl_file   : 30
    <ca9>   DW_AT_decl_line   : 82
    <caa>   DW_AT_decl_column : 8
    <cab>   DW_AT_type        : <0x49>
    <caf>   DW_AT_data_member_location: 84
 <2><cb0>: Abbrev Number: 10 (DW_TAG_member)
    <cb1>   DW_AT_name        : (indirect string, offset: 0x32d1): n_sep_by_space
    <cb5>   DW_AT_decl_file   : 30
    <cb6>   DW_AT_decl_line   : 84
    <cb7>   DW_AT_decl_column : 8
    <cb8>   DW_AT_type        : <0x49>
    <cbc>   DW_AT_data_member_location: 85
 <2><cbd>: Abbrev Number: 10 (DW_TAG_member)
    <cbe>   DW_AT_name        : (indirect string, offset: 0x23cd): p_sign_posn
    <cc2>   DW_AT_decl_file   : 30
    <cc3>   DW_AT_decl_line   : 91
    <cc4>   DW_AT_decl_column : 8
    <cc5>   DW_AT_type        : <0x49>
    <cc9>   DW_AT_data_member_location: 86
 <2><cca>: Abbrev Number: 10 (DW_TAG_member)
    <ccb>   DW_AT_name        : (indirect string, offset: 0x2af9): n_sign_posn
    <ccf>   DW_AT_decl_file   : 30
    <cd0>   DW_AT_decl_line   : 92
    <cd1>   DW_AT_decl_column : 8
    <cd2>   DW_AT_type        : <0x49>
    <cd6>   DW_AT_data_member_location: 87
 <2><cd7>: Abbrev Number: 10 (DW_TAG_member)
    <cd8>   DW_AT_name        : (indirect string, offset: 0x3a5b): int_p_cs_precedes
    <cdc>   DW_AT_decl_file   : 30
    <cdd>   DW_AT_decl_line   : 95
    <cde>   DW_AT_decl_column : 8
    <cdf>   DW_AT_type        : <0x49>
    <ce3>   DW_AT_data_member_location: 88
 <2><ce4>: Abbrev Number: 10 (DW_TAG_member)
    <ce5>   DW_AT_name        : (indirect string, offset: 0x205): int_p_sep_by_space
    <ce9>   DW_AT_decl_file   : 30
    <cea>   DW_AT_decl_line   : 97
    <ceb>   DW_AT_decl_column : 8
    <cec>   DW_AT_type        : <0x49>
    <cf0>   DW_AT_data_member_location: 89
 <2><cf1>: Abbrev Number: 10 (DW_TAG_member)
    <cf2>   DW_AT_name        : (indirect string, offset: 0xd5a): int_n_cs_precedes
    <cf6>   DW_AT_decl_file   : 30
    <cf7>   DW_AT_decl_line   : 99
    <cf8>   DW_AT_decl_column : 8
    <cf9>   DW_AT_type        : <0x49>
    <cfd>   DW_AT_data_member_location: 90
 <2><cfe>: Abbrev Number: 10 (DW_TAG_member)
    <cff>   DW_AT_name        : (indirect string, offset: 0x32cd): int_n_sep_by_space
    <d03>   DW_AT_decl_file   : 30
    <d04>   DW_AT_decl_line   : 101
    <d05>   DW_AT_decl_column : 8
    <d06>   DW_AT_type        : <0x49>
    <d0a>   DW_AT_data_member_location: 91
 <2><d0b>: Abbrev Number: 10 (DW_TAG_member)
    <d0c>   DW_AT_name        : (indirect string, offset: 0x23c9): int_p_sign_posn
    <d10>   DW_AT_decl_file   : 30
    <d11>   DW_AT_decl_line   : 108
    <d12>   DW_AT_decl_column : 8
    <d13>   DW_AT_type        : <0x49>
    <d17>   DW_AT_data_member_location: 92
 <2><d18>: Abbrev Number: 10 (DW_TAG_member)
    <d19>   DW_AT_name        : (indirect string, offset: 0x2af5): int_n_sign_posn
    <d1d>   DW_AT_decl_file   : 30
    <d1e>   DW_AT_decl_line   : 109
    <d1f>   DW_AT_decl_column : 8
    <d20>   DW_AT_type        : <0x49>
    <d24>   DW_AT_data_member_location: 93
 <2><d25>: Abbrev Number: 0
 <1><d26>: Abbrev Number: 4 (DW_TAG_const_type)
    <d27>   DW_AT_type        : <0xbe0>
 <1><d2b>: Abbrev Number: 9 (DW_TAG_structure_type)
    <d2c>   DW_AT_name        : (indirect string, offset: 0x28eb): _IO_FILE
    <d30>   DW_AT_byte_size   : 216
    <d31>   DW_AT_decl_file   : 31
    <d32>   DW_AT_decl_line   : 49
    <d33>   DW_AT_decl_column : 8
    <d34>   DW_AT_sibling     : <0xeb2>
 <2><d38>: Abbrev Number: 10 (DW_TAG_member)
    <d39>   DW_AT_name        : (indirect string, offset: 0xfff): _flags
    <d3d>   DW_AT_decl_file   : 31
    <d3e>   DW_AT_decl_line   : 51
    <d3f>   DW_AT_decl_column : 7
    <d40>   DW_AT_type        : <0x61>
    <d44>   DW_AT_data_member_location: 0
 <2><d45>: Abbrev Number: 10 (DW_TAG_member)
    <d46>   DW_AT_name        : (indirect string, offset: 0x32e0): _IO_read_ptr
    <d4a>   DW_AT_decl_file   : 31
    <d4b>   DW_AT_decl_line   : 54
    <d4c>   DW_AT_decl_column : 9
    <d4d>   DW_AT_type        : <0x39>
    <d51>   DW_AT_data_member_location: 8
 <2><d52>: Abbrev Number: 10 (DW_TAG_member)
    <d53>   DW_AT_name        : (indirect string, offset: 0x287f): _IO_read_end
    <d57>   DW_AT_decl_file   : 31
    <d58>   DW_AT_decl_line   : 55
    <d59>   DW_AT_decl_column : 9
    <d5a>   DW_AT_type        : <0x39>
    <d5e>   DW_AT_data_member_location: 16
 <2><d5f>: Abbrev Number: 10 (DW_TAG_member)
    <d60>   DW_AT_name        : (indirect string, offset: 0x20a6): _IO_read_base
    <d64>   DW_AT_decl_file   : 31
    <d65>   DW_AT_decl_line   : 56
    <d66>   DW_AT_decl_column : 9
    <d67>   DW_AT_type        : <0x39>
    <d6b>   DW_AT_data_member_location: 24
 <2><d6c>: Abbrev Number: 10 (DW_TAG_member)
    <d6d>   DW_AT_name        : (indirect string, offset: 0x2193): _IO_write_base
    <d71>   DW_AT_decl_file   : 31
    <d72>   DW_AT_decl_line   : 57
    <d73>   DW_AT_decl_column : 9
    <d74>   DW_AT_type        : <0x39>
    <d78>   DW_AT_data_member_location: 32
 <2><d79>: Abbrev Number: 10 (DW_TAG_member)
    <d7a>   DW_AT_name        : (indirect string, offset: 0x1206): _IO_write_ptr
    <d7e>   DW_AT_decl_file   : 31
    <d7f>   DW_AT_decl_line   : 58
    <d80>   DW_AT_decl_column : 9
    <d81>   DW_AT_type        : <0x39>
    <d85>   DW_AT_data_member_location: 40
 <2><d86>: Abbrev Number: 10 (DW_TAG_member)
    <d87>   DW_AT_name        : (indirect string, offset: 0x820): _IO_write_end
    <d8b>   DW_AT_decl_file   : 31
    <d8c>   DW_AT_decl_line   : 59
    <d8d>   DW_AT_decl_column : 9
    <d8e>   DW_AT_type        : <0x39>
    <d92>   DW_AT_data_member_location: 48
 <2><d93>: Abbrev Number: 10 (DW_TAG_member)
    <d94>   DW_AT_name        : (indirect string, offset: 0x27d1): _IO_buf_base
    <d98>   DW_AT_decl_file   : 31
    <d99>   DW_AT_decl_line   : 60
    <d9a>   DW_AT_decl_column : 9
    <d9b>   DW_AT_type        : <0x39>
    <d9f>   DW_AT_data_member_location: 56
 <2><da0>: Abbrev Number: 10 (DW_TAG_member)
    <da1>   DW_AT_name        : (indirect string, offset: 0x323): _IO_buf_end
    <da5>   DW_AT_decl_file   : 31
    <da6>   DW_AT_decl_line   : 61
    <da7>   DW_AT_decl_column : 9
    <da8>   DW_AT_type        : <0x39>
    <dac>   DW_AT_data_member_location: 64
 <2><dad>: Abbrev Number: 10 (DW_TAG_member)
    <dae>   DW_AT_name        : (indirect string, offset: 0x1594): _IO_save_base
    <db2>   DW_AT_decl_file   : 31
    <db3>   DW_AT_decl_line   : 64
    <db4>   DW_AT_decl_column : 9
    <db5>   DW_AT_type        : <0x39>
    <db9>   DW_AT_data_member_location: 72
 <2><dba>: Abbrev Number: 10 (DW_TAG_member)
    <dbb>   DW_AT_name        : (indirect string, offset: 0x32bd): _IO_backup_base
    <dbf>   DW_AT_decl_file   : 31
    <dc0>   DW_AT_decl_line   : 65
    <dc1>   DW_AT_decl_column : 9
    <dc2>   DW_AT_type        : <0x39>
    <dc6>   DW_AT_data_member_location: 80
 <2><dc7>: Abbrev Number: 10 (DW_TAG_member)
    <dc8>   DW_AT_name        : (indirect string, offset: 0x1ca8): _IO_save_end
    <dcc>   DW_AT_decl_file   : 31
    <dcd>   DW_AT_decl_line   : 66
    <dce>   DW_AT_decl_column : 9
    <dcf>   DW_AT_type        : <0x39>
    <dd3>   DW_AT_data_member_location: 88
 <2><dd4>: Abbrev Number: 10 (DW_TAG_member)
    <dd5>   DW_AT_name        : (indirect string, offset: 0x2c08): _markers
    <dd9>   DW_AT_decl_file   : 31
    <dda>   DW_AT_decl_line   : 68
    <ddb>   DW_AT_decl_column : 22
    <ddc>   DW_AT_type        : <0xecb>
    <de0>   DW_AT_data_member_location: 96
 <2><de1>: Abbrev Number: 10 (DW_TAG_member)
    <de2>   DW_AT_name        : (indirect string, offset: 0xd48): _chain
    <de6>   DW_AT_decl_file   : 31
    <de7>   DW_AT_decl_line   : 70
    <de8>   DW_AT_decl_column : 20
    <de9>   DW_AT_type        : <0xed1>
    <ded>   DW_AT_data_member_location: 104
 <2><dee>: Abbrev Number: 10 (DW_TAG_member)
    <def>   DW_AT_name        : (indirect string, offset: 0x96): _fileno
    <df3>   DW_AT_decl_file   : 31
    <df4>   DW_AT_decl_line   : 72
    <df5>   DW_AT_decl_column : 7
    <df6>   DW_AT_type        : <0x61>
    <dfa>   DW_AT_data_member_location: 112
 <2><dfb>: Abbrev Number: 10 (DW_TAG_member)
    <dfc>   DW_AT_name        : (indirect string, offset: 0x353e): _flags2
    <e00>   DW_AT_decl_file   : 31
    <e01>   DW_AT_decl_line   : 73
    <e02>   DW_AT_decl_column : 7
    <e03>   DW_AT_type        : <0x61>
    <e07>   DW_AT_data_member_location: 116
 <2><e08>: Abbrev Number: 10 (DW_TAG_member)
    <e09>   DW_AT_name        : (indirect string, offset: 0x347c): _old_offset
    <e0d>   DW_AT_decl_file   : 31
    <e0e>   DW_AT_decl_line   : 74
    <e0f>   DW_AT_decl_column : 11
    <e10>   DW_AT_type        : <0x165>
    <e14>   DW_AT_data_member_location: 120
 <2><e15>: Abbrev Number: 10 (DW_TAG_member)
    <e16>   DW_AT_name        : (indirect string, offset: 0x31c6): _cur_column
    <e1a>   DW_AT_decl_file   : 31
    <e1b>   DW_AT_decl_line   : 77
    <e1c>   DW_AT_decl_column : 18
    <e1d>   DW_AT_type        : <0xd6>
    <e21>   DW_AT_data_member_location: 128
 <2><e22>: Abbrev Number: 10 (DW_TAG_member)
    <e23>   DW_AT_name        : (indirect string, offset: 0x3abb): _vtable_offset
    <e27>   DW_AT_decl_file   : 31
    <e28>   DW_AT_decl_line   : 78
    <e29>   DW_AT_decl_column : 15
    <e2a>   DW_AT_type        : <0xf0>
    <e2e>   DW_AT_data_member_location: 130
 <2><e2f>: Abbrev Number: 10 (DW_TAG_member)
    <e30>   DW_AT_name        : (indirect string, offset: 0x33e): _shortbuf
    <e34>   DW_AT_decl_file   : 31
    <e35>   DW_AT_decl_line   : 79
    <e36>   DW_AT_decl_column : 8
    <e37>   DW_AT_type        : <0xed7>
    <e3b>   DW_AT_data_member_location: 131
 <2><e3c>: Abbrev Number: 10 (DW_TAG_member)
    <e3d>   DW_AT_name        : (indirect string, offset: 0x9f4): _lock
    <e41>   DW_AT_decl_file   : 31
    <e42>   DW_AT_decl_line   : 81
    <e43>   DW_AT_decl_column : 15
    <e44>   DW_AT_type        : <0xee7>
    <e48>   DW_AT_data_member_location: 136
 <2><e49>: Abbrev Number: 10 (DW_TAG_member)
    <e4a>   DW_AT_name        : (indirect string, offset: 0x3480): _offset
    <e4e>   DW_AT_decl_file   : 31
    <e4f>   DW_AT_decl_line   : 89
    <e50>   DW_AT_decl_column : 13
    <e51>   DW_AT_type        : <0x171>
    <e55>   DW_AT_data_member_location: 144
 <2><e56>: Abbrev Number: 10 (DW_TAG_member)
    <e57>   DW_AT_name        : (indirect string, offset: 0x2543): _codecvt
    <e5b>   DW_AT_decl_file   : 31
    <e5c>   DW_AT_decl_line   : 91
    <e5d>   DW_AT_decl_column : 23
    <e5e>   DW_AT_type        : <0xef2>
    <e62>   DW_AT_data_member_location: 152
 <2><e63>: Abbrev Number: 10 (DW_TAG_member)
    <e64>   DW_AT_name        : (indirect string, offset: 0x2901): _wide_data
    <e68>   DW_AT_decl_file   : 31
    <e69>   DW_AT_decl_line   : 92
    <e6a>   DW_AT_decl_column : 25
    <e6b>   DW_AT_type        : <0xefd>
    <e6f>   DW_AT_data_member_location: 160
 <2><e70>: Abbrev Number: 10 (DW_TAG_member)
    <e71>   DW_AT_name        : (indirect string, offset: 0x335b): _freeres_list
    <e75>   DW_AT_decl_file   : 31
    <e76>   DW_AT_decl_line   : 93
    <e77>   DW_AT_decl_column : 20
    <e78>   DW_AT_type        : <0xed1>
    <e7c>   DW_AT_data_member_location: 168
 <2><e7d>: Abbrev Number: 10 (DW_TAG_member)
    <e7e>   DW_AT_name        : (indirect string, offset: 0x30f8): _freeres_buf
    <e82>   DW_AT_decl_file   : 31
    <e83>   DW_AT_decl_line   : 94
    <e84>   DW_AT_decl_column : 9
    <e85>   DW_AT_type        : <0x1bd>
    <e89>   DW_AT_data_member_location: 176
 <2><e8a>: Abbrev Number: 10 (DW_TAG_member)
    <e8b>   DW_AT_name        : (indirect string, offset: 0x2b5b): __pad5
    <e8f>   DW_AT_decl_file   : 31
    <e90>   DW_AT_decl_line   : 95
    <e91>   DW_AT_decl_column : 10
    <e92>   DW_AT_type        : <0x1f4>
    <e96>   DW_AT_data_member_location: 184
 <2><e97>: Abbrev Number: 10 (DW_TAG_member)
    <e98>   DW_AT_name        : (indirect string, offset: 0x177b): _mode
    <e9c>   DW_AT_decl_file   : 31
    <e9d>   DW_AT_decl_line   : 96
    <e9e>   DW_AT_decl_column : 7
    <e9f>   DW_AT_type        : <0x61>
    <ea3>   DW_AT_data_member_location: 192
 <2><ea4>: Abbrev Number: 10 (DW_TAG_member)
    <ea5>   DW_AT_name        : (indirect string, offset: 0x6c): _unused2
    <ea9>   DW_AT_decl_file   : 31
    <eaa>   DW_AT_decl_line   : 98
    <eab>   DW_AT_decl_column : 8
    <eac>   DW_AT_type        : <0xf03>
    <eb0>   DW_AT_data_member_location: 196
 <2><eb1>: Abbrev Number: 0
 <1><eb2>: Abbrev Number: 12 (DW_TAG_typedef)
    <eb3>   DW_AT_name        : (indirect string, offset: 0x6a8): FILE
    <eb7>   DW_AT_decl_file   : 32
    <eb8>   DW_AT_decl_line   : 7
    <eb9>   DW_AT_decl_column : 25
    <eba>   DW_AT_type        : <0xd2b>
 <1><ebe>: Abbrev Number: 33 (DW_TAG_typedef)
    <ebf>   DW_AT_name        : (indirect string, offset: 0xebc): _IO_lock_t
    <ec3>   DW_AT_decl_file   : 31
    <ec4>   DW_AT_decl_line   : 43
    <ec5>   DW_AT_decl_column : 14
 <1><ec6>: Abbrev Number: 34 (DW_TAG_structure_type)
    <ec7>   DW_AT_name        : (indirect string, offset: 0x23be): _IO_marker
    <ecb>   DW_AT_declaration : 1
 <1><ecb>: Abbrev Number: 3 (DW_TAG_pointer_type)
    <ecc>   DW_AT_byte_size   : 8
    <ecd>   DW_AT_type        : <0xec6>
 <1><ed1>: Abbrev Number: 3 (DW_TAG_pointer_type)
    <ed2>   DW_AT_byte_size   : 8
    <ed3>   DW_AT_type        : <0xd2b>
 <1><ed7>: Abbrev Number: 13 (DW_TAG_array_type)
    <ed8>   DW_AT_type        : <0x49>
    <edc>   DW_AT_sibling     : <0xee7>
 <2><ee0>: Abbrev Number: 14 (DW_TAG_subrange_type)
    <ee1>   DW_AT_type        : <0xe9>
    <ee5>   DW_AT_upper_bound : 0
 <2><ee6>: Abbrev Number: 0
 <1><ee7>: Abbrev Number: 3 (DW_TAG_pointer_type)
    <ee8>   DW_AT_byte_size   : 8
    <ee9>   DW_AT_type        : <0xebe>
 <1><eed>: Abbrev Number: 34 (DW_TAG_structure_type)
    <eee>   DW_AT_name        : (indirect string, offset: 0x2540): _IO_codecvt
    <ef2>   DW_AT_declaration : 1
 <1><ef2>: Abbrev Number: 3 (DW_TAG_pointer_type)
    <ef3>   DW_AT_byte_size   : 8
    <ef4>   DW_AT_type        : <0xeed>
 <1><ef8>: Abbrev Number: 34 (DW_TAG_structure_type)
    <ef9>   DW_AT_name        : (indirect string, offset: 0x28fe): _IO_wide_data
    <efd>   DW_AT_declaration : 1
 <1><efd>: Abbrev Number: 3 (DW_TAG_pointer_type)
    <efe>   DW_AT_byte_size   : 8
    <eff>   DW_AT_type        : <0xef8>
 <1><f03>: Abbrev Number: 13 (DW_TAG_array_type)
    <f04>   DW_AT_type        : <0x49>
    <f08>   DW_AT_sibling     : <0xf13>
 <2><f0c>: Abbrev Number: 14 (DW_TAG_subrange_type)
    <f0d>   DW_AT_type        : <0xe9>
    <f11>   DW_AT_upper_bound : 19
 <2><f12>: Abbrev Number: 0
 <1><f13>: Abbrev Number: 2 (DW_TAG_variable)
    <f14>   DW_AT_name        : (indirect string, offset: 0x20be): stdin
    <f18>   DW_AT_decl_file   : 33
    <f19>   DW_AT_decl_line   : 137
    <f1a>   DW_AT_decl_column : 14
    <f1b>   DW_AT_type        : <0xf1f>
    <f1f>   DW_AT_external    : 1
    <f1f>   DW_AT_declaration : 1
 <1><f1f>: Abbrev Number: 3 (DW_TAG_pointer_type)
    <f20>   DW_AT_byte_size   : 8
    <f21>   DW_AT_type        : <0xeb2>
 <1><f25>: Abbrev Number: 5 (DW_TAG_restrict_type)
    <f26>   DW_AT_type        : <0xf1f>
 <1><f2a>: Abbrev Number: 4 (DW_TAG_const_type)
    <f2b>   DW_AT_type        : <0xf1f>
 <1><f2f>: Abbrev Number: 2 (DW_TAG_variable)
    <f30>   DW_AT_name        : (indirect string, offset: 0x207f): stdout
    <f34>   DW_AT_decl_file   : 33
    <f35>   DW_AT_decl_line   : 138
    <f36>   DW_AT_decl_column : 14
    <f37>   DW_AT_type        : <0xf1f>
    <f3b>   DW_AT_external    : 1
    <f3b>   DW_AT_declaration : 1
 <1><f3b>: Abbrev Number: 2 (DW_TAG_variable)
    <f3c>   DW_AT_name        : (indirect string, offset: 0x1c4e): stderr
    <f40>   DW_AT_decl_file   : 33
    <f41>   DW_AT_decl_line   : 139
    <f42>   DW_AT_decl_column : 14
    <f43>   DW_AT_type        : <0xf1f>
    <f47>   DW_AT_external    : 1
    <f47>   DW_AT_declaration : 1
 <1><f47>: Abbrev Number: 35 (DW_TAG_enumeration_type)
    <f48>   DW_AT_encoding    : 5	(signed)
    <f49>   DW_AT_byte_size   : 4
    <f4a>   DW_AT_type        : <0x61>
    <f4e>   DW_AT_decl_file   : 1
    <f4f>   DW_AT_decl_line   : 330
    <f51>   DW_AT_decl_column : 1
    <f52>   DW_AT_sibling     : <0xf65>
 <2><f56>: Abbrev Number: 36 (DW_TAG_enumerator)
    <f57>   DW_AT_name        : (indirect string, offset: 0x3b3f): GETOPT_HELP_CHAR
    <f5b>   DW_AT_const_value : -130
 <2><f5d>: Abbrev Number: 36 (DW_TAG_enumerator)
    <f5e>   DW_AT_name        : (indirect string, offset: 0x1aa7): GETOPT_VERSION_CHAR
    <f62>   DW_AT_const_value : -131
 <2><f64>: Abbrev Number: 0
 <1><f65>: Abbrev Number: 2 (DW_TAG_variable)
    <f66>   DW_AT_name        : (indirect string, offset: 0x2c65): program_name
    <f6a>   DW_AT_decl_file   : 34
    <f6b>   DW_AT_decl_line   : 32
    <f6c>   DW_AT_decl_column : 20
    <f6d>   DW_AT_type        : <0xb9>
    <f71>   DW_AT_external    : 1
    <f71>   DW_AT_declaration : 1
 <1><f71>: Abbrev Number: 26 (DW_TAG_enumeration_type)
    <f72>   DW_AT_name        : (indirect string, offset: 0x2855): quoting_style
    <f76>   DW_AT_encoding    : 7	(unsigned)
    <f77>   DW_AT_byte_size   : 4
    <f78>   DW_AT_type        : <0xe2>
    <f7c>   DW_AT_decl_file   : 35
    <f7d>   DW_AT_decl_line   : 32
    <f7e>   DW_AT_decl_column : 6
    <f7f>   DW_AT_sibling     : <0xfc6>
 <2><f83>: Abbrev Number: 27 (DW_TAG_enumerator)
    <f84>   DW_AT_name        : (indirect string, offset: 0x256c): literal_quoting_style
    <f88>   DW_AT_const_value : 0
 <2><f89>: Abbrev Number: 27 (DW_TAG_enumerator)
    <f8a>   DW_AT_name        : (indirect string, offset: 0x175e): shell_quoting_style
    <f8e>   DW_AT_const_value : 1
 <2><f8f>: Abbrev Number: 27 (DW_TAG_enumerator)
    <f90>   DW_AT_name        : (indirect string, offset: 0xe5a): shell_always_quoting_style
    <f94>   DW_AT_const_value : 2
 <2><f95>: Abbrev Number: 27 (DW_TAG_enumerator)
    <f96>   DW_AT_name        : (indirect string, offset: 0x2c46): shell_escape_quoting_style
    <f9a>   DW_AT_const_value : 3
 <2><f9b>: Abbrev Number: 27 (DW_TAG_enumerator)
    <f9c>   DW_AT_name        : (indirect string, offset: 0x2b21): shell_escape_always_quoting_style
    <fa0>   DW_AT_const_value : 4
 <2><fa1>: Abbrev Number: 27 (DW_TAG_enumerator)
    <fa2>   DW_AT_name        : (indirect string, offset: 0x2853): c_quoting_style
    <fa6>   DW_AT_const_value : 5
 <2><fa7>: Abbrev Number: 27 (DW_TAG_enumerator)
    <fa8>   DW_AT_name        : (indirect string, offset: 0x20f2): c_maybe_quoting_style
    <fac>   DW_AT_const_value : 6
 <2><fad>: Abbrev Number: 27 (DW_TAG_enumerator)
    <fae>   DW_AT_name        : (indirect string, offset: 0x2c4c): escape_quoting_style
    <fb2>   DW_AT_const_value : 7
 <2><fb3>: Abbrev Number: 27 (DW_TAG_enumerator)
    <fb4>   DW_AT_name        : (indirect string, offset: 0xfa2): locale_quoting_style
    <fb8>   DW_AT_const_value : 8
 <2><fb9>: Abbrev Number: 27 (DW_TAG_enumerator)
    <fba>   DW_AT_name        : (indirect string, offset: 0xfa1): clocale_quoting_style
    <fbe>   DW_AT_const_value : 9
 <2><fbf>: Abbrev Number: 27 (DW_TAG_enumerator)
    <fc0>   DW_AT_name        : (indirect string, offset: 0x14fd): custom_quoting_style
    <fc4>   DW_AT_const_value : 10
 <2><fc5>: Abbrev Number: 0
 <1><fc6>: Abbrev Number: 12 (DW_TAG_typedef)
    <fc7>   DW_AT_name        : (indirect string, offset: 0x803): argmatch_exit_fn
    <fcb>   DW_AT_decl_file   : 36
    <fcc>   DW_AT_decl_line   : 67
    <fcd>   DW_AT_decl_column : 16
    <fce>   DW_AT_type        : <0xa22>
 <1><fd2>: Abbrev Number: 2 (DW_TAG_variable)
    <fd3>   DW_AT_name        : (indirect string, offset: 0x3c26): argmatch_die
    <fd7>   DW_AT_decl_file   : 36
    <fd8>   DW_AT_decl_line   : 68
    <fd9>   DW_AT_decl_column : 25
    <fda>   DW_AT_type        : <0xfc6>
    <fde>   DW_AT_external    : 1
    <fde>   DW_AT_declaration : 1
 <1><fde>: Abbrev Number: 30 (DW_TAG_enumeration_type)
    <fdf>   DW_AT_encoding    : 7	(unsigned)
    <fe0>   DW_AT_byte_size   : 4
    <fe1>   DW_AT_type        : <0xe2>
    <fe5>   DW_AT_decl_file   : 37
    <fe6>   DW_AT_decl_line   : 45
    <fe7>   DW_AT_decl_column : 14
    <fe8>   DW_AT_sibling     : <0x1011>
 <2><fec>: Abbrev Number: 27 (DW_TAG_enumerator)
    <fed>   DW_AT_name        : (indirect string, offset: 0x1b2b): FADVISE_NORMAL
    <ff1>   DW_AT_const_value : 0
 <2><ff2>: Abbrev Number: 27 (DW_TAG_enumerator)
    <ff3>   DW_AT_name        : (indirect string, offset: 0x3129): FADVISE_SEQUENTIAL
    <ff7>   DW_AT_const_value : 2
 <2><ff8>: Abbrev Number: 27 (DW_TAG_enumerator)
    <ff9>   DW_AT_name        : (indirect string, offset: 0x1b51): FADVISE_NOREUSE
    <ffd>   DW_AT_const_value : 5
 <2><ffe>: Abbrev Number: 27 (DW_TAG_enumerator)
    <fff>   DW_AT_name        : (indirect string, offset: 0x1cbf): FADVISE_DONTNEED
    <1003>   DW_AT_const_value : 4
 <2><1004>: Abbrev Number: 27 (DW_TAG_enumerator)
    <1005>   DW_AT_name        : (indirect string, offset: 0x2309): FADVISE_WILLNEED
    <1009>   DW_AT_const_value : 3
 <2><100a>: Abbrev Number: 27 (DW_TAG_enumerator)
    <100b>   DW_AT_name        : (indirect string, offset: 0x34e5): FADVISE_RANDOM
    <100f>   DW_AT_const_value : 1
 <2><1010>: Abbrev Number: 0
 <1><1011>: Abbrev Number: 12 (DW_TAG_typedef)
    <1012>   DW_AT_name        : (indirect string, offset: 0xac9): fadvice_t
    <1016>   DW_AT_decl_file   : 37
    <1017>   DW_AT_decl_line   : 52
    <1018>   DW_AT_decl_column : 3
    <1019>   DW_AT_type        : <0xfde>
 <1><101d>: Abbrev Number: 9 (DW_TAG_structure_type)
    <101e>   DW_AT_name        : (indirect string, offset: 0x2b43): hash_tuning
    <1022>   DW_AT_byte_size   : 20
    <1023>   DW_AT_decl_file   : 38
    <1024>   DW_AT_decl_line   : 34
    <1025>   DW_AT_decl_column : 8
    <1026>   DW_AT_sibling     : <0x106c>
 <2><102a>: Abbrev Number: 10 (DW_TAG_member)
    <102b>   DW_AT_name        : (indirect string, offset: 0x940): shrink_threshold
    <102f>   DW_AT_decl_file   : 38
    <1030>   DW_AT_decl_line   : 39
    <1031>   DW_AT_decl_column : 11
    <1032>   DW_AT_type        : <0x106c>
    <1036>   DW_AT_data_member_location: 0
 <2><1037>: Abbrev Number: 10 (DW_TAG_member)
    <1038>   DW_AT_name        : (indirect string, offset: 0x5a9): shrink_factor
    <103c>   DW_AT_decl_file   : 38
    <103d>   DW_AT_decl_line   : 40
    <103e>   DW_AT_decl_column : 11
    <103f>   DW_AT_type        : <0x106c>
    <1043>   DW_AT_data_member_location: 4
 <2><1044>: Abbrev Number: 10 (DW_TAG_member)
    <1045>   DW_AT_name        : (indirect string, offset: 0x305a): growth_threshold
    <1049>   DW_AT_decl_file   : 38
    <104a>   DW_AT_decl_line   : 41
    <104b>   DW_AT_decl_column : 11
    <104c>   DW_AT_type        : <0x106c>
    <1050>   DW_AT_data_member_location: 8
 <2><1051>: Abbrev Number: 10 (DW_TAG_member)
    <1052>   DW_AT_name        : (indirect string, offset: 0x3546): growth_factor
    <1056>   DW_AT_decl_file   : 38
    <1057>   DW_AT_decl_line   : 42
    <1058>   DW_AT_decl_column : 11
    <1059>   DW_AT_type        : <0x106c>
    <105d>   DW_AT_data_member_location: 12
 <2><105e>: Abbrev Number: 10 (DW_TAG_member)
    <105f>   DW_AT_name        : (indirect string, offset: 0x30a0): is_n_buckets
    <1063>   DW_AT_decl_file   : 38
    <1064>   DW_AT_decl_line   : 43
    <1065>   DW_AT_decl_column : 10
    <1066>   DW_AT_type        : <0x1073>
    <106a>   DW_AT_data_member_location: 16
 <2><106b>: Abbrev Number: 0
 <1><106c>: Abbrev Number: 6 (DW_TAG_base_type)
    <106d>   DW_AT_byte_size   : 4
    <106e>   DW_AT_encoding    : 4	(float)
    <106f>   DW_AT_name        : (indirect string, offset: 0xf68): float
 <1><1073>: Abbrev Number: 6 (DW_TAG_base_type)
    <1074>   DW_AT_byte_size   : 1
    <1075>   DW_AT_encoding    : 2	(boolean)
    <1076>   DW_AT_name        : (indirect string, offset: 0x270): _Bool
 <1><107a>: Abbrev Number: 4 (DW_TAG_const_type)
    <107b>   DW_AT_type        : <0x1073>
 <1><107f>: Abbrev Number: 12 (DW_TAG_typedef)
    <1080>   DW_AT_name        : (indirect string, offset: 0xd3c): Hash_tuning
    <1084>   DW_AT_decl_file   : 38
    <1085>   DW_AT_decl_line   : 46
    <1086>   DW_AT_decl_column : 28
    <1087>   DW_AT_type        : <0x101d>
 <1><108b>: Abbrev Number: 4 (DW_TAG_const_type)
    <108c>   DW_AT_type        : <0x107f>
 <1><1090>: Abbrev Number: 12 (DW_TAG_typedef)
    <1091>   DW_AT_name        : (indirect string, offset: 0x1423): Hash_table
    <1095>   DW_AT_decl_file   : 38
    <1096>   DW_AT_decl_line   : 50
    <1097>   DW_AT_decl_column : 27
    <1098>   DW_AT_type        : <0x109c>
 <1><109c>: Abbrev Number: 34 (DW_TAG_structure_type)
    <109d>   DW_AT_name        : (indirect string, offset: 0x224e): hash_table
    <10a1>   DW_AT_declaration : 1
 <1><10a1>: Abbrev Number: 12 (DW_TAG_typedef)
    <10a2>   DW_AT_name        : (indirect string, offset: 0x206d): Hash_hasher
    <10a6>   DW_AT_decl_file   : 38
    <10a7>   DW_AT_decl_line   : 138
    <10a8>   DW_AT_decl_column : 18
    <10a9>   DW_AT_type        : <0x10ad>
 <1><10ad>: Abbrev Number: 3 (DW_TAG_pointer_type)
    <10ae>   DW_AT_byte_size   : 8
    <10af>   DW_AT_type        : <0x10b3>
 <1><10b3>: Abbrev Number: 24 (DW_TAG_subroutine_type)
    <10b4>   DW_AT_prototyped  : 1
    <10b4>   DW_AT_type        : <0x1f4>
    <10b8>   DW_AT_sibling     : <0x10c7>
 <2><10bc>: Abbrev Number: 22 (DW_TAG_formal_parameter)
    <10bd>   DW_AT_type        : <0x609>
 <2><10c1>: Abbrev Number: 22 (DW_TAG_formal_parameter)
    <10c2>   DW_AT_type        : <0x1f4>
 <2><10c6>: Abbrev Number: 0
 <1><10c7>: Abbrev Number: 12 (DW_TAG_typedef)
    <10c8>   DW_AT_name        : (indirect string, offset: 0x2a53): Hash_comparator
    <10cc>   DW_AT_decl_file   : 38
    <10cd>   DW_AT_decl_line   : 139
    <10ce>   DW_AT_decl_column : 16
    <10cf>   DW_AT_type        : <0x10d3>
 <1><10d3>: Abbrev Number: 3 (DW_TAG_pointer_type)
    <10d4>   DW_AT_byte_size   : 8
    <10d5>   DW_AT_type        : <0x10d9>
 <1><10d9>: Abbrev Number: 24 (DW_TAG_subroutine_type)
    <10da>   DW_AT_prototyped  : 1
    <10da>   DW_AT_type        : <0x1073>
    <10de>   DW_AT_sibling     : <0x10ed>
 <2><10e2>: Abbrev Number: 22 (DW_TAG_formal_parameter)
    <10e3>   DW_AT_type        : <0x609>
 <2><10e7>: Abbrev Number: 22 (DW_TAG_formal_parameter)
    <10e8>   DW_AT_type        : <0x609>
 <2><10ec>: Abbrev Number: 0
 <1><10ed>: Abbrev Number: 12 (DW_TAG_typedef)
    <10ee>   DW_AT_name        : (indirect string, offset: 0xe75): Hash_data_freer
    <10f2>   DW_AT_decl_file   : 38
    <10f3>   DW_AT_decl_line   : 140
    <10f4>   DW_AT_decl_column : 16
    <10f5>   DW_AT_type        : <0x5dc>
 <1><10f9>: Abbrev Number: 9 (DW_TAG_structure_type)
    <10fa>   DW_AT_name        : (indirect string, offset: 0x157b): md5_ctx
    <10fe>   DW_AT_byte_size   : 156
    <10ff>   DW_AT_decl_file   : 39
    <1100>   DW_AT_decl_line   : 69
    <1101>   DW_AT_decl_column : 8
    <1102>   DW_AT_sibling     : <0x115a>
 <2><1106>: Abbrev Number: 11 (DW_TAG_member)
    <1107>   DW_AT_name        : A
    <1109>   DW_AT_decl_file   : 39
    <110a>   DW_AT_decl_line   : 71
    <110b>   DW_AT_decl_column : 12
    <110c>   DW_AT_type        : <0xb3c>
    <1110>   DW_AT_data_member_location: 0
 <2><1111>: Abbrev Number: 11 (DW_TAG_member)
    <1112>   DW_AT_name        : B
    <1114>   DW_AT_decl_file   : 39
    <1115>   DW_AT_decl_line   : 72
    <1116>   DW_AT_decl_column : 12
    <1117>   DW_AT_type        : <0xb3c>
    <111b>   DW_AT_data_member_location: 4
 <2><111c>: Abbrev Number: 11 (DW_TAG_member)
    <111d>   DW_AT_name        : C
    <111f>   DW_AT_decl_file   : 39
    <1120>   DW_AT_decl_line   : 73
    <1121>   DW_AT_decl_column : 12
    <1122>   DW_AT_type        : <0xb3c>
    <1126>   DW_AT_data_member_location: 8
 <2><1127>: Abbrev Number: 11 (DW_TAG_member)
    <1128>   DW_AT_name        : D
    <112a>   DW_AT_decl_file   : 39
    <112b>   DW_AT_decl_line   : 74
    <112c>   DW_AT_decl_column : 12
    <112d>   DW_AT_type        : <0xb3c>
    <1131>   DW_AT_data_member_location: 12
 <2><1132>: Abbrev Number: 10 (DW_TAG_member)
    <1133>   DW_AT_name        : (indirect string, offset: 0x2cfc): total
    <1137>   DW_AT_decl_file   : 39
    <1138>   DW_AT_decl_line   : 76
    <1139>   DW_AT_decl_column : 12
    <113a>   DW_AT_type        : <0x115a>
    <113e>   DW_AT_data_member_location: 16
 <2><113f>: Abbrev Number: 10 (DW_TAG_member)
    <1140>   DW_AT_name        : (indirect string, offset: 0x11b0): buflen
    <1144>   DW_AT_decl_file   : 39
    <1145>   DW_AT_decl_line   : 77
    <1146>   DW_AT_decl_column : 12
    <1147>   DW_AT_type        : <0xb3c>
    <114b>   DW_AT_data_member_location: 24
 <2><114c>: Abbrev Number: 10 (DW_TAG_member)
    <114d>   DW_AT_name        : (indirect string, offset: 0x3d3b): buffer
    <1151>   DW_AT_decl_file   : 39
    <1152>   DW_AT_decl_line   : 78
    <1153>   DW_AT_decl_column : 12
    <1154>   DW_AT_type        : <0x116a>
    <1158>   DW_AT_data_member_location: 28
 <2><1159>: Abbrev Number: 0
 <1><115a>: Abbrev Number: 13 (DW_TAG_array_type)
    <115b>   DW_AT_type        : <0xb3c>
    <115f>   DW_AT_sibling     : <0x116a>
 <2><1163>: Abbrev Number: 14 (DW_TAG_subrange_type)
    <1164>   DW_AT_type        : <0xe9>
    <1168>   DW_AT_upper_bound : 1
 <2><1169>: Abbrev Number: 0
 <1><116a>: Abbrev Number: 13 (DW_TAG_array_type)
    <116b>   DW_AT_type        : <0xb3c>
    <116f>   DW_AT_sibling     : <0x117a>
 <2><1173>: Abbrev Number: 14 (DW_TAG_subrange_type)
    <1174>   DW_AT_type        : <0xe9>
    <1178>   DW_AT_upper_bound : 31
 <2><1179>: Abbrev Number: 0
 <1><117a>: Abbrev Number: 26 (DW_TAG_enumeration_type)
    <117b>   DW_AT_name        : (indirect string, offset: 0x19b): nproc_query
    <117f>   DW_AT_encoding    : 7	(unsigned)
    <1180>   DW_AT_byte_size   : 4
    <1181>   DW_AT_type        : <0xe2>
    <1185>   DW_AT_decl_file   : 40
    <1186>   DW_AT_decl_line   : 32
    <1187>   DW_AT_decl_column : 6
    <1188>   DW_AT_sibling     : <0x119f>
 <2><118c>: Abbrev Number: 27 (DW_TAG_enumerator)
    <118d>   DW_AT_name        : (indirect string, offset: 0x1023): NPROC_ALL
    <1191>   DW_AT_const_value : 0
 <2><1192>: Abbrev Number: 27 (DW_TAG_enumerator)
    <1193>   DW_AT_name        : (indirect string, offset: 0x2f5f): NPROC_CURRENT
    <1197>   DW_AT_const_value : 1
 <2><1198>: Abbrev Number: 27 (DW_TAG_enumerator)
    <1199>   DW_AT_name        : (indirect string, offset: 0x2e86): NPROC_CURRENT_OVERRIDABLE
    <119d>   DW_AT_const_value : 2
 <2><119e>: Abbrev Number: 0
 <1><119f>: Abbrev Number: 9 (DW_TAG_structure_type)
    <11a0>   DW_AT_name        : (indirect string, offset: 0xcd8): _obstack_chunk
    <11a4>   DW_AT_byte_size   : 16
    <11a5>   DW_AT_decl_file   : 41
    <11a6>   DW_AT_decl_line   : 166
    <11a7>   DW_AT_decl_column : 8
    <11a8>   DW_AT_sibling     : <0x11d4>
 <2><11ac>: Abbrev Number: 10 (DW_TAG_member)
    <11ad>   DW_AT_name        : (indirect string, offset: 0x2f59): limit
    <11b1>   DW_AT_decl_file   : 41
    <11b2>   DW_AT_decl_line   : 168
    <11b3>   DW_AT_decl_column : 9
    <11b4>   DW_AT_type        : <0x39>
    <11b8>   DW_AT_data_member_location: 0
 <2><11b9>: Abbrev Number: 10 (DW_TAG_member)
    <11ba>   DW_AT_name        : (indirect string, offset: 0x181a): prev
    <11be>   DW_AT_decl_file   : 41
    <11bf>   DW_AT_decl_line   : 169
    <11c0>   DW_AT_decl_column : 26
    <11c1>   DW_AT_type        : <0x11d4>
    <11c5>   DW_AT_data_member_location: 8
 <2><11c6>: Abbrev Number: 10 (DW_TAG_member)
    <11c7>   DW_AT_name        : (indirect string, offset: 0x1253): contents
    <11cb>   DW_AT_decl_file   : 41
    <11cc>   DW_AT_decl_line   : 170
    <11cd>   DW_AT_decl_column : 8
    <11ce>   DW_AT_type        : <0x11da>
    <11d2>   DW_AT_data_member_location: 16
 <2><11d3>: Abbrev Number: 0
 <1><11d4>: Abbrev Number: 3 (DW_TAG_pointer_type)
    <11d5>   DW_AT_byte_size   : 8
    <11d6>   DW_AT_type        : <0x119f>
 <1><11da>: Abbrev Number: 13 (DW_TAG_array_type)
    <11db>   DW_AT_type        : <0x49>
    <11df>   DW_AT_sibling     : <0x11e9>
 <2><11e3>: Abbrev Number: 37 (DW_TAG_subrange_type)
    <11e4>   DW_AT_type        : <0xe9>
 <2><11e8>: Abbrev Number: 0
 <1><11e9>: Abbrev Number: 17 (DW_TAG_union_type)
    <11ea>   DW_AT_byte_size   : 8
    <11eb>   DW_AT_decl_file   : 41
    <11ec>   DW_AT_decl_line   : 180
    <11ed>   DW_AT_decl_column : 3
    <11ee>   DW_AT_sibling     : <0x1207>
 <2><11f2>: Abbrev Number: 28 (DW_TAG_member)
    <11f3>   DW_AT_name        : i
    <11f5>   DW_AT_decl_file   : 41
    <11f6>   DW_AT_decl_line   : 182
    <11f7>   DW_AT_decl_column : 21
    <11f8>   DW_AT_type        : <0x1f4>
 <2><11fc>: Abbrev Number: 28 (DW_TAG_member)
    <11fd>   DW_AT_name        : p
    <11ff>   DW_AT_decl_file   : 41
    <1200>   DW_AT_decl_line   : 183
    <1201>   DW_AT_decl_column : 11
    <1202>   DW_AT_type        : <0x1bd>
 <2><1206>: Abbrev Number: 0
 <1><1207>: Abbrev Number: 17 (DW_TAG_union_type)
    <1208>   DW_AT_byte_size   : 8
    <1209>   DW_AT_decl_file   : 41
    <120a>   DW_AT_decl_line   : 188
    <120b>   DW_AT_decl_column : 3
    <120c>   DW_AT_sibling     : <0x1229>
 <2><1210>: Abbrev Number: 18 (DW_TAG_member)
    <1211>   DW_AT_name        : (indirect string, offset: 0x9b5): plain
    <1215>   DW_AT_decl_file   : 41
    <1216>   DW_AT_decl_line   : 190
    <1217>   DW_AT_decl_column : 13
    <1218>   DW_AT_type        : <0x1238>
 <2><121c>: Abbrev Number: 18 (DW_TAG_member)
    <121d>   DW_AT_name        : (indirect string, offset: 0x1b9c): extra
    <1221>   DW_AT_decl_file   : 41
    <1222>   DW_AT_decl_line   : 191
    <1223>   DW_AT_decl_column : 13
    <1224>   DW_AT_type        : <0x1252>
 <2><1228>: Abbrev Number: 0
 <1><1229>: Abbrev Number: 24 (DW_TAG_subroutine_type)
    <122a>   DW_AT_prototyped  : 1
    <122a>   DW_AT_type        : <0x1bd>
    <122e>   DW_AT_sibling     : <0x1238>
 <2><1232>: Abbrev Number: 22 (DW_TAG_formal_parameter)
    <1233>   DW_AT_type        : <0x1f4>
 <2><1237>: Abbrev Number: 0
 <1><1238>: Abbrev Number: 3 (DW_TAG_pointer_type)
    <1239>   DW_AT_byte_size   : 8
    <123a>   DW_AT_type        : <0x1229>
 <1><123e>: Abbrev Number: 24 (DW_TAG_subroutine_type)
    <123f>   DW_AT_prototyped  : 1
    <123f>   DW_AT_type        : <0x1bd>
    <1243>   DW_AT_sibling     : <0x1252>
 <2><1247>: Abbrev Number: 22 (DW_TAG_formal_parameter)
    <1248>   DW_AT_type        : <0x1bd>
 <2><124c>: Abbrev Number: 22 (DW_TAG_formal_parameter)
    <124d>   DW_AT_type        : <0x1f4>
 <2><1251>: Abbrev Number: 0
 <1><1252>: Abbrev Number: 3 (DW_TAG_pointer_type)
    <1253>   DW_AT_byte_size   : 8
    <1254>   DW_AT_type        : <0x123e>
 <1><1258>: Abbrev Number: 17 (DW_TAG_union_type)
    <1259>   DW_AT_byte_size   : 8
    <125a>   DW_AT_decl_file   : 41
    <125b>   DW_AT_decl_line   : 193
    <125c>   DW_AT_decl_column : 3
    <125d>   DW_AT_sibling     : <0x127a>
 <2><1261>: Abbrev Number: 18 (DW_TAG_member)
    <1262>   DW_AT_name        : (indirect string, offset: 0x9b5): plain
    <1266>   DW_AT_decl_file   : 41
    <1267>   DW_AT_decl_line   : 195
    <1268>   DW_AT_decl_column : 12
    <1269>   DW_AT_type        : <0x5dc>
 <2><126d>: Abbrev Number: 18 (DW_TAG_member)
    <126e>   DW_AT_name        : (indirect string, offset: 0x1b9c): extra
    <1272>   DW_AT_decl_file   : 41
    <1273>   DW_AT_decl_line   : 196
    <1274>   DW_AT_decl_column : 12
    <1275>   DW_AT_type        : <0x128a>
 <2><1279>: Abbrev Number: 0
 <1><127a>: Abbrev Number: 21 (DW_TAG_subroutine_type)
    <127b>   DW_AT_prototyped  : 1
    <127b>   DW_AT_sibling     : <0x128a>
 <2><127f>: Abbrev Number: 22 (DW_TAG_formal_parameter)
    <1280>   DW_AT_type        : <0x1bd>
 <2><1284>: Abbrev Number: 22 (DW_TAG_formal_parameter)
    <1285>   DW_AT_type        : <0x1bd>
 <2><1289>: Abbrev Number: 0
 <1><128a>: Abbrev Number: 3 (DW_TAG_pointer_type)
    <128b>   DW_AT_byte_size   : 8
    <128c>   DW_AT_type        : <0x127a>
 <1><1290>: Abbrev Number: 9 (DW_TAG_structure_type)
    <1291>   DW_AT_name        : (indirect string, offset: 0x34fb): obstack
    <1295>   DW_AT_byte_size   : 88
    <1296>   DW_AT_decl_file   : 41
    <1297>   DW_AT_decl_line   : 173
    <1298>   DW_AT_decl_column : 8
    <1299>   DW_AT_sibling     : <0x1350>
 <2><129d>: Abbrev Number: 10 (DW_TAG_member)
    <129e>   DW_AT_name        : (indirect string, offset: 0xf6e): chunk_size
    <12a2>   DW_AT_decl_file   : 41
    <12a3>   DW_AT_decl_line   : 175
    <12a4>   DW_AT_decl_column : 17
    <12a5>   DW_AT_type        : <0x1f4>
    <12a9>   DW_AT_data_member_location: 0
 <2><12aa>: Abbrev Number: 10 (DW_TAG_member)
    <12ab>   DW_AT_name        : (indirect string, offset: 0x6260): chunk
    <12af>   DW_AT_decl_file   : 41
    <12b0>   DW_AT_decl_line   : 176
    <12b1>   DW_AT_decl_column : 26
    <12b2>   DW_AT_type        : <0x11d4>
    <12b6>   DW_AT_data_member_location: 8
 <2><12b7>: Abbrev Number: 10 (DW_TAG_member)
    <12b8>   DW_AT_name        : (indirect string, offset: 0x102d): object_base
    <12bc>   DW_AT_decl_file   : 41
    <12bd>   DW_AT_decl_line   : 177
    <12be>   DW_AT_decl_column : 9
    <12bf>   DW_AT_type        : <0x39>
    <12c3>   DW_AT_data_member_location: 16
 <2><12c4>: Abbrev Number: 10 (DW_TAG_member)
    <12c5>   DW_AT_name        : (indirect string, offset: 0x27c7): next_free
    <12c9>   DW_AT_decl_file   : 41
    <12ca>   DW_AT_decl_line   : 178
    <12cb>   DW_AT_decl_column : 9
    <12cc>   DW_AT_type        : <0x39>
    <12d0>   DW_AT_data_member_location: 24
 <2><12d1>: Abbrev Number: 10 (DW_TAG_member)
    <12d2>   DW_AT_name        : (indirect string, offset: 0x2f53): chunk_limit
    <12d6>   DW_AT_decl_file   : 41
    <12d7>   DW_AT_decl_line   : 179
    <12d8>   DW_AT_decl_column : 9
    <12d9>   DW_AT_type        : <0x39>
    <12dd>   DW_AT_data_member_location: 32
 <2><12de>: Abbrev Number: 10 (DW_TAG_member)
    <12df>   DW_AT_name        : (indirect string, offset: 0xd1b): temp
    <12e3>   DW_AT_decl_file   : 41
    <12e4>   DW_AT_decl_line   : 184
    <12e5>   DW_AT_decl_column : 5
    <12e6>   DW_AT_type        : <0x11e9>
    <12ea>   DW_AT_data_member_location: 40
 <2><12eb>: Abbrev Number: 10 (DW_TAG_member)
    <12ec>   DW_AT_name        : (indirect string, offset: 0x2604): alignment_mask
    <12f0>   DW_AT_decl_file   : 41
    <12f1>   DW_AT_decl_line   : 185
    <12f2>   DW_AT_decl_column : 19
    <12f3>   DW_AT_type        : <0x1f4>
    <12f7>   DW_AT_data_member_location: 48
 <2><12f8>: Abbrev Number: 10 (DW_TAG_member)
    <12f9>   DW_AT_name        : (indirect string, offset: 0x623c): chunkfun
    <12fd>   DW_AT_decl_file   : 41
    <12fe>   DW_AT_decl_line   : 192
    <12ff>   DW_AT_decl_column : 5
    <1300>   DW_AT_type        : <0x1207>
    <1304>   DW_AT_data_member_location: 56
 <2><1305>: Abbrev Number: 10 (DW_TAG_member)
    <1306>   DW_AT_name        : (indirect string, offset: 0x624a): freefun
    <130a>   DW_AT_decl_file   : 41
    <130b>   DW_AT_decl_line   : 197
    <130c>   DW_AT_decl_column : 5
    <130d>   DW_AT_type        : <0x1258>
    <1311>   DW_AT_data_member_location: 64
 <2><1312>: Abbrev Number: 10 (DW_TAG_member)
    <1313>   DW_AT_name        : (indirect string, offset: 0x27a0): extra_arg
    <1317>   DW_AT_decl_file   : 41
    <1318>   DW_AT_decl_line   : 199
    <1319>   DW_AT_decl_column : 9
    <131a>   DW_AT_type        : <0x1bd>
    <131e>   DW_AT_data_member_location: 72
 <2><131f>: Abbrev Number: 38 (DW_TAG_member)
    <1320>   DW_AT_name        : (indirect string, offset: 0x279c): use_extra_arg
    <1324>   DW_AT_decl_file   : 41
    <1325>   DW_AT_decl_line   : 200
    <1326>   DW_AT_decl_column : 12
    <1327>   DW_AT_type        : <0xe2>
    <132b>   DW_AT_byte_size   : 4
    <132c>   DW_AT_bit_size    : 1
    <132d>   DW_AT_bit_offset  : 31
    <132e>   DW_AT_data_member_location: 80
 <2><132f>: Abbrev Number: 38 (DW_TAG_member)
    <1330>   DW_AT_name        : (indirect string, offset: 0x2086): maybe_empty_object
    <1334>   DW_AT_decl_file   : 41
    <1335>   DW_AT_decl_line   : 201
    <1336>   DW_AT_decl_column : 12
    <1337>   DW_AT_type        : <0xe2>
    <133b>   DW_AT_byte_size   : 4
    <133c>   DW_AT_bit_size    : 1
    <133d>   DW_AT_bit_offset  : 30
    <133e>   DW_AT_data_member_location: 80
 <2><133f>: Abbrev Number: 38 (DW_TAG_member)
    <1340>   DW_AT_name        : (indirect string, offset: 0x2ca3): alloc_failed
    <1344>   DW_AT_decl_file   : 41
    <1345>   DW_AT_decl_line   : 205
    <1346>   DW_AT_decl_column : 12
    <1347>   DW_AT_type        : <0xe2>
    <134b>   DW_AT_byte_size   : 4
    <134c>   DW_AT_bit_size    : 1
    <134d>   DW_AT_bit_offset  : 29
    <134e>   DW_AT_data_member_location: 80
 <2><134f>: Abbrev Number: 0
 <1><1350>: Abbrev Number: 39 (DW_TAG_structure_type)
    <1351>   DW_AT_name        : (indirect string, offset: 0x12a8): Tokens
    <1355>   DW_AT_byte_size   : 288
    <1357>   DW_AT_decl_file   : 42
    <1358>   DW_AT_decl_line   : 28
    <1359>   DW_AT_decl_column : 8
    <135a>   DW_AT_sibling     : <0x13ad>
 <2><135e>: Abbrev Number: 10 (DW_TAG_member)
    <135f>   DW_AT_name        : (indirect string, offset: 0x1ea3): n_tok
    <1363>   DW_AT_decl_file   : 42
    <1364>   DW_AT_decl_line   : 30
    <1365>   DW_AT_decl_column : 10
    <1366>   DW_AT_type        : <0x1f4>
    <136a>   DW_AT_data_member_location: 0
 <2><136b>: Abbrev Number: 11 (DW_TAG_member)
    <136c>   DW_AT_name        : tok
    <1370>   DW_AT_decl_file   : 42
    <1371>   DW_AT_decl_line   : 31
    <1372>   DW_AT_decl_column : 10
    <1373>   DW_AT_type        : <0xb09>
    <1377>   DW_AT_data_member_location: 8
 <2><1378>: Abbrev Number: 10 (DW_TAG_member)
    <1379>   DW_AT_name        : (indirect string, offset: 0x28c5): tok_len
    <137d>   DW_AT_decl_file   : 42
    <137e>   DW_AT_decl_line   : 32
    <137f>   DW_AT_decl_column : 11
    <1380>   DW_AT_type        : <0x13ad>
    <1384>   DW_AT_data_member_location: 16
 <2><1385>: Abbrev Number: 10 (DW_TAG_member)
    <1386>   DW_AT_name        : (indirect string, offset: 0xac2): o_data
    <138a>   DW_AT_decl_file   : 42
    <138b>   DW_AT_decl_line   : 33
    <138c>   DW_AT_decl_column : 18
    <138d>   DW_AT_type        : <0x1290>
    <1391>   DW_AT_data_member_location: 24
 <2><1392>: Abbrev Number: 10 (DW_TAG_member)
    <1393>   DW_AT_name        : (indirect string, offset: 0x1d49): o_tok
    <1397>   DW_AT_decl_file   : 42
    <1398>   DW_AT_decl_line   : 34
    <1399>   DW_AT_decl_column : 18
    <139a>   DW_AT_type        : <0x1290>
    <139e>   DW_AT_data_member_location: 112
 <2><139f>: Abbrev Number: 10 (DW_TAG_member)
    <13a0>   DW_AT_name        : (indirect string, offset: 0x28c3): o_tok_len
    <13a4>   DW_AT_decl_file   : 42
    <13a5>   DW_AT_decl_line   : 35
    <13a6>   DW_AT_decl_column : 18
    <13a7>   DW_AT_type        : <0x1290>
    <13ab>   DW_AT_data_member_location: 200
 <2><13ac>: Abbrev Number: 0
 <1><13ad>: Abbrev Number: 3 (DW_TAG_pointer_type)
    <13ae>   DW_AT_byte_size   : 8
    <13af>   DW_AT_type        : <0x1f4>
 <1><13b3>: Abbrev Number: 26 (DW_TAG_enumeration_type)
    <13b4>   DW_AT_name        : (indirect string, offset: 0x5e96): strtol_error
    <13b8>   DW_AT_encoding    : 7	(unsigned)
    <13b9>   DW_AT_byte_size   : 4
    <13ba>   DW_AT_type        : <0xe2>
    <13be>   DW_AT_decl_file   : 43
    <13bf>   DW_AT_decl_line   : 26
    <13c0>   DW_AT_decl_column : 6
    <13c1>   DW_AT_sibling     : <0x13e4>
 <2><13c5>: Abbrev Number: 27 (DW_TAG_enumerator)
    <13c6>   DW_AT_name        : (indirect string, offset: 0x16e5): LONGINT_OK
    <13ca>   DW_AT_const_value : 0
 <2><13cb>: Abbrev Number: 27 (DW_TAG_enumerator)
    <13cc>   DW_AT_name        : (indirect string, offset: 0x1039): LONGINT_OVERFLOW
    <13d0>   DW_AT_const_value : 1
 <2><13d1>: Abbrev Number: 27 (DW_TAG_enumerator)
    <13d2>   DW_AT_name        : (indirect string, offset: 0x1a42): LONGINT_INVALID_SUFFIX_CHAR
    <13d6>   DW_AT_const_value : 2
 <2><13d7>: Abbrev Number: 27 (DW_TAG_enumerator)
    <13d8>   DW_AT_name        : (indirect string, offset: 0x3498): LONGINT_INVALID_SUFFIX_CHAR_WITH_OVERFLOW
    <13dc>   DW_AT_const_value : 3
 <2><13dd>: Abbrev Number: 27 (DW_TAG_enumerator)
    <13de>   DW_AT_name        : (indirect string, offset: 0xf91): LONGINT_INVALID
    <13e2>   DW_AT_const_value : 4
 <2><13e3>: Abbrev Number: 0
 <1><13e4>: Abbrev Number: 12 (DW_TAG_typedef)
    <13e5>   DW_AT_name        : (indirect string, offset: 0x5e96): strtol_error
    <13e9>   DW_AT_decl_file   : 43
    <13ea>   DW_AT_decl_line   : 39
    <13eb>   DW_AT_decl_column : 27
    <13ec>   DW_AT_type        : <0x13b3>
 <1><13f0>: Abbrev Number: 12 (DW_TAG_typedef)
    <13f1>   DW_AT_name        : (indirect string, offset: 0x938): nl_item
    <13f5>   DW_AT_decl_file   : 44
    <13f6>   DW_AT_decl_line   : 36
    <13f7>   DW_AT_decl_column : 13
    <13f8>   DW_AT_type        : <0x61>
 <1><13fc>: Abbrev Number: 30 (DW_TAG_enumeration_type)
    <13fd>   DW_AT_encoding    : 7	(unsigned)
    <13fe>   DW_AT_byte_size   : 4
    <13ff>   DW_AT_type        : <0xe2>
    <1403>   DW_AT_decl_file   : 45
    <1404>   DW_AT_decl_line   : 42
    <1405>   DW_AT_decl_column : 1
    <1406>   DW_AT_sibling     : <0x207a>
 <2><140a>: Abbrev Number: 31 (DW_TAG_enumerator)
    <140b>   DW_AT_name        : (indirect string, offset: 0x1d00): ABDAY_1
    <140f>   DW_AT_const_value : 0x20000
 <2><1413>: Abbrev Number: 31 (DW_TAG_enumerator)
    <1414>   DW_AT_name        : (indirect string, offset: 0x1d0d): ABDAY_2
    <1418>   DW_AT_const_value : 0x20001
 <2><141c>: Abbrev Number: 31 (DW_TAG_enumerator)
    <141d>   DW_AT_name        : (indirect string, offset: 0x1492): ABDAY_3
    <1421>   DW_AT_const_value : 0x20002
 <2><1425>: Abbrev Number: 31 (DW_TAG_enumerator)
    <1426>   DW_AT_name        : (indirect string, offset: 0x1d1a): ABDAY_4
    <142a>   DW_AT_const_value : 0x20003
 <2><142e>: Abbrev Number: 31 (DW_TAG_enumerator)
    <142f>   DW_AT_name        : (indirect string, offset: 0x1d27): ABDAY_5
    <1433>   DW_AT_const_value : 0x20004
 <2><1437>: Abbrev Number: 31 (DW_TAG_enumerator)
    <1438>   DW_AT_name        : (indirect string, offset: 0x1d34): ABDAY_6
    <143c>   DW_AT_const_value : 0x20005
 <2><1440>: Abbrev Number: 31 (DW_TAG_enumerator)
    <1441>   DW_AT_name        : (indirect string, offset: 0x1d41): ABDAY_7
    <1445>   DW_AT_const_value : 0x20006
 <2><1449>: Abbrev Number: 31 (DW_TAG_enumerator)
    <144a>   DW_AT_name        : (indirect string, offset: 0x1d02): DAY_1
    <144e>   DW_AT_const_value : 0x20007
 <2><1452>: Abbrev Number: 31 (DW_TAG_enumerator)
    <1453>   DW_AT_name        : (indirect string, offset: 0x1d0f): DAY_2
    <1457>   DW_AT_const_value : 0x20008
 <2><145b>: Abbrev Number: 31 (DW_TAG_enumerator)
    <145c>   DW_AT_name        : (indirect string, offset: 0x1494): DAY_3
    <1460>   DW_AT_const_value : 0x20009
 <2><1464>: Abbrev Number: 31 (DW_TAG_enumerator)
    <1465>   DW_AT_name        : (indirect string, offset: 0x1d1c): DAY_4
    <1469>   DW_AT_const_value : 0x2000a
 <2><146d>: Abbrev Number: 31 (DW_TAG_enumerator)
    <146e>   DW_AT_name        : (indirect string, offset: 0x1d29): DAY_5
    <1472>   DW_AT_const_value : 0x2000b
 <2><1476>: Abbrev Number: 31 (DW_TAG_enumerator)
    <1477>   DW_AT_name        : (indirect string, offset: 0x1d36): DAY_6
    <147b>   DW_AT_const_value : 0x2000c
 <2><147f>: Abbrev Number: 31 (DW_TAG_enumerator)
    <1480>   DW_AT_name        : (indirect string, offset: 0x1d43): DAY_7
    <1484>   DW_AT_const_value : 0x2000d
 <2><1488>: Abbrev Number: 31 (DW_TAG_enumerator)
    <1489>   DW_AT_name        : (indirect string, offset: 0x138): ABMON_1
    <148d>   DW_AT_const_value : 0x2000e
 <2><1491>: Abbrev Number: 31 (DW_TAG_enumerator)
    <1492>   DW_AT_name        : (indirect string, offset: 0x145): ABMON_2
    <1496>   DW_AT_const_value : 0x2000f
 <2><149a>: Abbrev Number: 31 (DW_TAG_enumerator)
    <149b>   DW_AT_name        : (indirect string, offset: 0x152): ABMON_3
    <149f>   DW_AT_const_value : 0x20010
 <2><14a3>: Abbrev Number: 31 (DW_TAG_enumerator)
    <14a4>   DW_AT_name        : (indirect string, offset: 0x15f): ABMON_4
    <14a8>   DW_AT_const_value : 0x20011
 <2><14ac>: Abbrev Number: 31 (DW_TAG_enumerator)
    <14ad>   DW_AT_name        : (indirect string, offset: 0x16c): ABMON_5
    <14b1>   DW_AT_const_value : 0x20012
 <2><14b5>: Abbrev Number: 31 (DW_TAG_enumerator)
    <14b6>   DW_AT_name        : (indirect string, offset: 0x179): ABMON_6
    <14ba>   DW_AT_const_value : 0x20013
 <2><14be>: Abbrev Number: 31 (DW_TAG_enumerator)
    <14bf>   DW_AT_name        : (indirect string, offset: 0x1e55): ABMON_7
    <14c3>   DW_AT_const_value : 0x20014
 <2><14c7>: Abbrev Number: 31 (DW_TAG_enumerator)
    <14c8>   DW_AT_name        : (indirect string, offset: 0x186): ABMON_8
    <14cc>   DW_AT_const_value : 0x20015
 <2><14d0>: Abbrev Number: 31 (DW_TAG_enumerator)
    <14d1>   DW_AT_name        : (indirect string, offset: 0x193): ABMON_9
    <14d5>   DW_AT_const_value : 0x20016
 <2><14d9>: Abbrev Number: 31 (DW_TAG_enumerator)
    <14da>   DW_AT_name        : (indirect string, offset: 0x1d0): ABMON_10
    <14de>   DW_AT_const_value : 0x20017
 <2><14e2>: Abbrev Number: 31 (DW_TAG_enumerator)
    <14e3>   DW_AT_name        : (indirect string, offset: 0x1de): ABMON_11
    <14e7>   DW_AT_const_value : 0x20018
 <2><14eb>: Abbrev Number: 31 (DW_TAG_enumerator)
    <14ec>   DW_AT_name        : (indirect string, offset: 0x1ec): ABMON_12
    <14f0>   DW_AT_const_value : 0x20019
 <2><14f4>: Abbrev Number: 31 (DW_TAG_enumerator)
    <14f5>   DW_AT_name        : (indirect string, offset: 0x13a): MON_1
    <14f9>   DW_AT_const_value : 0x2001a
 <2><14fd>: Abbrev Number: 31 (DW_TAG_enumerator)
    <14fe>   DW_AT_name        : (indirect string, offset: 0x147): MON_2
    <1502>   DW_AT_const_value : 0x2001b
 <2><1506>: Abbrev Number: 31 (DW_TAG_enumerator)
    <1507>   DW_AT_name        : (indirect string, offset: 0x154): MON_3
    <150b>   DW_AT_const_value : 0x2001c
 <2><150f>: Abbrev Number: 31 (DW_TAG_enumerator)
    <1510>   DW_AT_name        : (indirect string, offset: 0x161): MON_4
    <1514>   DW_AT_const_value : 0x2001d
 <2><1518>: Abbrev Number: 31 (DW_TAG_enumerator)
    <1519>   DW_AT_name        : (indirect string, offset: 0x16e): MON_5
    <151d>   DW_AT_const_value : 0x2001e
 <2><1521>: Abbrev Number: 31 (DW_TAG_enumerator)
    <1522>   DW_AT_name        : (indirect string, offset: 0x17b): MON_6
    <1526>   DW_AT_const_value : 0x2001f
 <2><152a>: Abbrev Number: 31 (DW_TAG_enumerator)
    <152b>   DW_AT_name        : (indirect string, offset: 0x1e57): MON_7
    <152f>   DW_AT_const_value : 0x20020
 <2><1533>: Abbrev Number: 31 (DW_TAG_enumerator)
    <1534>   DW_AT_name        : (indirect string, offset: 0x188): MON_8
    <1538>   DW_AT_const_value : 0x20021
 <2><153c>: Abbrev Number: 31 (DW_TAG_enumerator)
    <153d>   DW_AT_name        : (indirect string, offset: 0x195): MON_9
    <1541>   DW_AT_const_value : 0x20022
 <2><1545>: Abbrev Number: 31 (DW_TAG_enumerator)
    <1546>   DW_AT_name        : (indirect string, offset: 0x1d2): MON_10
    <154a>   DW_AT_const_value : 0x20023
 <2><154e>: Abbrev Number: 31 (DW_TAG_enumerator)
    <154f>   DW_AT_name        : (indirect string, offset: 0x1e0): MON_11
    <1553>   DW_AT_const_value : 0x20024
 <2><1557>: Abbrev Number: 31 (DW_TAG_enumerator)
    <1558>   DW_AT_name        : (indirect string, offset: 0x1ee): MON_12
    <155c>   DW_AT_const_value : 0x20025
 <2><1560>: Abbrev Number: 31 (DW_TAG_enumerator)
    <1561>   DW_AT_name        : (indirect string, offset: 0x194e): AM_STR
    <1565>   DW_AT_const_value : 0x20026
 <2><1569>: Abbrev Number: 31 (DW_TAG_enumerator)
    <156a>   DW_AT_name        : (indirect string, offset: 0x1786): PM_STR
    <156e>   DW_AT_const_value : 0x20027
 <2><1572>: Abbrev Number: 31 (DW_TAG_enumerator)
    <1573>   DW_AT_name        : (indirect string, offset: 0x19ef): D_T_FMT
    <1577>   DW_AT_const_value : 0x20028
 <2><157b>: Abbrev Number: 31 (DW_TAG_enumerator)
    <157c>   DW_AT_name        : (indirect string, offset: 0x9af): D_FMT
    <1580>   DW_AT_const_value : 0x20029
 <2><1584>: Abbrev Number: 31 (DW_TAG_enumerator)
    <1585>   DW_AT_name        : (indirect string, offset: 0x4dd): T_FMT
    <1589>   DW_AT_const_value : 0x2002a
 <2><158d>: Abbrev Number: 31 (DW_TAG_enumerator)
    <158e>   DW_AT_name        : (indirect string, offset: 0x263d): T_FMT_AMPM
    <1592>   DW_AT_const_value : 0x2002b
 <2><1596>: Abbrev Number: 40 (DW_TAG_enumerator)
    <1597>   DW_AT_name        : ERA
    <159b>   DW_AT_const_value : 0x2002c
 <2><159f>: Abbrev Number: 31 (DW_TAG_enumerator)
    <15a0>   DW_AT_name        : (indirect string, offset: 0x155c): __ERA_YEAR
    <15a4>   DW_AT_const_value : 0x2002d
 <2><15a8>: Abbrev Number: 31 (DW_TAG_enumerator)
    <15a9>   DW_AT_name        : (indirect string, offset: 0x2118): ERA_D_FMT
    <15ad>   DW_AT_const_value : 0x2002e
 <2><15b1>: Abbrev Number: 31 (DW_TAG_enumerator)
    <15b2>   DW_AT_name        : (indirect string, offset: 0x2f88): ALT_DIGITS
    <15b6>   DW_AT_const_value : 0x2002f
 <2><15ba>: Abbrev Number: 31 (DW_TAG_enumerator)
    <15bb>   DW_AT_name        : (indirect string, offset: 0x336e): ERA_D_T_FMT
    <15bf>   DW_AT_const_value : 0x20030
 <2><15c3>: Abbrev Number: 31 (DW_TAG_enumerator)
    <15c4>   DW_AT_name        : (indirect string, offset: 0x2169): ERA_T_FMT
    <15c8>   DW_AT_const_value : 0x20031
 <2><15cc>: Abbrev Number: 31 (DW_TAG_enumerator)
    <15cd>   DW_AT_name        : (indirect string, offset: 0x2962): _NL_TIME_ERA_NUM_ENTRIES
    <15d1>   DW_AT_const_value : 0x20032
 <2><15d5>: Abbrev Number: 31 (DW_TAG_enumerator)
    <15d6>   DW_AT_name        : (indirect string, offset: 0x1fea): _NL_TIME_ERA_ENTRIES
    <15da>   DW_AT_const_value : 0x20033
 <2><15de>: Abbrev Number: 31 (DW_TAG_enumerator)
    <15df>   DW_AT_name        : (indirect string, offset: 0x1cfb): _NL_WABDAY_1
    <15e3>   DW_AT_const_value : 0x20034
 <2><15e7>: Abbrev Number: 31 (DW_TAG_enumerator)
    <15e8>   DW_AT_name        : (indirect string, offset: 0x1d08): _NL_WABDAY_2
    <15ec>   DW_AT_const_value : 0x20035
 <2><15f0>: Abbrev Number: 31 (DW_TAG_enumerator)
    <15f1>   DW_AT_name        : (indirect string, offset: 0x148d): _NL_WABDAY_3
    <15f5>   DW_AT_const_value : 0x20036
 <2><15f9>: Abbrev Number: 31 (DW_TAG_enumerator)
    <15fa>   DW_AT_name        : (indirect string, offset: 0x1d15): _NL_WABDAY_4
    <15fe>   DW_AT_const_value : 0x20037
 <2><1602>: Abbrev Number: 31 (DW_TAG_enumerator)
    <1603>   DW_AT_name        : (indirect string, offset: 0x1d22): _NL_WABDAY_5
    <1607>   DW_AT_const_value : 0x20038
 <2><160b>: Abbrev Number: 31 (DW_TAG_enumerator)
    <160c>   DW_AT_name        : (indirect string, offset: 0x1d2f): _NL_WABDAY_6
    <1610>   DW_AT_const_value : 0x20039
 <2><1614>: Abbrev Number: 31 (DW_TAG_enumerator)
    <1615>   DW_AT_name        : (indirect string, offset: 0x1d3c): _NL_WABDAY_7
    <1619>   DW_AT_const_value : 0x2003a
 <2><161d>: Abbrev Number: 31 (DW_TAG_enumerator)
    <161e>   DW_AT_name        : (indirect string, offset: 0x2fb9): _NL_WDAY_1
    <1622>   DW_AT_const_value : 0x2003b
 <2><1626>: Abbrev Number: 31 (DW_TAG_enumerator)
    <1627>   DW_AT_name        : (indirect string, offset: 0x2fc4): _NL_WDAY_2
    <162b>   DW_AT_const_value : 0x2003c
 <2><162f>: Abbrev Number: 31 (DW_TAG_enumerator)
    <1630>   DW_AT_name        : (indirect string, offset: 0x2fcf): _NL_WDAY_3
    <1634>   DW_AT_const_value : 0x2003d
 <2><1638>: Abbrev Number: 31 (DW_TAG_enumerator)
    <1639>   DW_AT_name        : (indirect string, offset: 0x10a): _NL_WDAY_4
    <163d>   DW_AT_const_value : 0x2003e
 <2><1641>: Abbrev Number: 31 (DW_TAG_enumerator)
    <1642>   DW_AT_name        : (indirect string, offset: 0x2fe5): _NL_WDAY_5
    <1646>   DW_AT_const_value : 0x2003f
 <2><164a>: Abbrev Number: 31 (DW_TAG_enumerator)
    <164b>   DW_AT_name        : (indirect string, offset: 0x2ff0): _NL_WDAY_6
    <164f>   DW_AT_const_value : 0x20040
 <2><1653>: Abbrev Number: 31 (DW_TAG_enumerator)
    <1654>   DW_AT_name        : (indirect string, offset: 0x2ffb): _NL_WDAY_7
    <1658>   DW_AT_const_value : 0x20041
 <2><165c>: Abbrev Number: 31 (DW_TAG_enumerator)
    <165d>   DW_AT_name        : (indirect string, offset: 0x133): _NL_WABMON_1
    <1661>   DW_AT_const_value : 0x20042
 <2><1665>: Abbrev Number: 31 (DW_TAG_enumerator)
    <1666>   DW_AT_name        : (indirect string, offset: 0x140): _NL_WABMON_2
    <166a>   DW_AT_const_value : 0x20043
 <2><166e>: Abbrev Number: 31 (DW_TAG_enumerator)
    <166f>   DW_AT_name        : (indirect string, offset: 0x14d): _NL_WABMON_3
    <1673>   DW_AT_const_value : 0x20044
 <2><1677>: Abbrev Number: 31 (DW_TAG_enumerator)
    <1678>   DW_AT_name        : (indirect string, offset: 0x15a): _NL_WABMON_4
    <167c>   DW_AT_const_value : 0x20045
 <2><1680>: Abbrev Number: 31 (DW_TAG_enumerator)
    <1681>   DW_AT_name        : (indirect string, offset: 0x167): _NL_WABMON_5
    <1685>   DW_AT_const_value : 0x20046
 <2><1689>: Abbrev Number: 31 (DW_TAG_enumerator)
    <168a>   DW_AT_name        : (indirect string, offset: 0x174): _NL_WABMON_6
    <168e>   DW_AT_const_value : 0x20047
 <2><1692>: Abbrev Number: 31 (DW_TAG_enumerator)
    <1693>   DW_AT_name        : (indirect string, offset: 0x1e50): _NL_WABMON_7
    <1697>   DW_AT_const_value : 0x20048
 <2><169b>: Abbrev Number: 31 (DW_TAG_enumerator)
    <169c>   DW_AT_name        : (indirect string, offset: 0x181): _NL_WABMON_8
    <16a0>   DW_AT_const_value : 0x20049
 <2><16a4>: Abbrev Number: 31 (DW_TAG_enumerator)
    <16a5>   DW_AT_name        : (indirect string, offset: 0x18e): _NL_WABMON_9
    <16a9>   DW_AT_const_value : 0x2004a
 <2><16ad>: Abbrev Number: 31 (DW_TAG_enumerator)
    <16ae>   DW_AT_name        : (indirect string, offset: 0x1cb): _NL_WABMON_10
    <16b2>   DW_AT_const_value : 0x2004b
 <2><16b6>: Abbrev Number: 31 (DW_TAG_enumerator)
    <16b7>   DW_AT_name        : (indirect string, offset: 0x1d9): _NL_WABMON_11
    <16bb>   DW_AT_const_value : 0x2004c
 <2><16bf>: Abbrev Number: 31 (DW_TAG_enumerator)
    <16c0>   DW_AT_name        : (indirect string, offset: 0x1e7): _NL_WABMON_12
    <16c4>   DW_AT_const_value : 0x2004d
 <2><16c8>: Abbrev Number: 31 (DW_TAG_enumerator)
    <16c9>   DW_AT_name        : (indirect string, offset: 0x12ce): _NL_WMON_1
    <16cd>   DW_AT_const_value : 0x2004e
 <2><16d1>: Abbrev Number: 31 (DW_TAG_enumerator)
    <16d2>   DW_AT_name        : (indirect string, offset: 0x12d9): _NL_WMON_2
    <16d6>   DW_AT_const_value : 0x2004f
 <2><16da>: Abbrev Number: 31 (DW_TAG_enumerator)
    <16db>   DW_AT_name        : (indirect string, offset: 0x12e4): _NL_WMON_3
    <16df>   DW_AT_const_value : 0x20050
 <2><16e3>: Abbrev Number: 31 (DW_TAG_enumerator)
    <16e4>   DW_AT_name        : (indirect string, offset: 0x12ef): _NL_WMON_4
    <16e8>   DW_AT_const_value : 0x20051
 <2><16ec>: Abbrev Number: 31 (DW_TAG_enumerator)
    <16ed>   DW_AT_name        : (indirect string, offset: 0x12fa): _NL_WMON_5
    <16f1>   DW_AT_const_value : 0x20052
 <2><16f5>: Abbrev Number: 31 (DW_TAG_enumerator)
    <16f6>   DW_AT_name        : (indirect string, offset: 0x1305): _NL_WMON_6
    <16fa>   DW_AT_const_value : 0x20053
 <2><16fe>: Abbrev Number: 31 (DW_TAG_enumerator)
    <16ff>   DW_AT_name        : (indirect string, offset: 0x1310): _NL_WMON_7
    <1703>   DW_AT_const_value : 0x20054
 <2><1707>: Abbrev Number: 31 (DW_TAG_enumerator)
    <1708>   DW_AT_name        : (indirect string, offset: 0x131b): _NL_WMON_8
    <170c>   DW_AT_const_value : 0x20055
 <2><1710>: Abbrev Number: 31 (DW_TAG_enumerator)
    <1711>   DW_AT_name        : (indirect string, offset: 0x541): _NL_WMON_9
    <1715>   DW_AT_const_value : 0x20056
 <2><1719>: Abbrev Number: 31 (DW_TAG_enumerator)
    <171a>   DW_AT_name        : (indirect string, offset: 0x1a7): _NL_WMON_10
    <171e>   DW_AT_const_value : 0x20057
 <2><1722>: Abbrev Number: 31 (DW_TAG_enumerator)
    <1723>   DW_AT_name        : (indirect string, offset: 0x1b3): _NL_WMON_11
    <1727>   DW_AT_const_value : 0x20058
 <2><172b>: Abbrev Number: 31 (DW_TAG_enumerator)
    <172c>   DW_AT_name        : (indirect string, offset: 0x1bf): _NL_WMON_12
    <1730>   DW_AT_const_value : 0x20059
 <2><1734>: Abbrev Number: 31 (DW_TAG_enumerator)
    <1735>   DW_AT_name        : (indirect string, offset: 0x1949): _NL_WAM_STR
    <1739>   DW_AT_const_value : 0x2005a
 <2><173d>: Abbrev Number: 31 (DW_TAG_enumerator)
    <173e>   DW_AT_name        : (indirect string, offset: 0x1781): _NL_WPM_STR
    <1742>   DW_AT_const_value : 0x2005b
 <2><1746>: Abbrev Number: 31 (DW_TAG_enumerator)
    <1747>   DW_AT_name        : (indirect string, offset: 0x19ea): _NL_WD_T_FMT
    <174b>   DW_AT_const_value : 0x2005c
 <2><174f>: Abbrev Number: 31 (DW_TAG_enumerator)
    <1750>   DW_AT_name        : (indirect string, offset: 0x9aa): _NL_WD_FMT
    <1754>   DW_AT_const_value : 0x2005d
 <2><1758>: Abbrev Number: 31 (DW_TAG_enumerator)
    <1759>   DW_AT_name        : (indirect string, offset: 0xa2f): _NL_WT_FMT
    <175d>   DW_AT_const_value : 0x2005e
 <2><1761>: Abbrev Number: 31 (DW_TAG_enumerator)
    <1762>   DW_AT_name        : (indirect string, offset: 0x2638): _NL_WT_FMT_AMPM
    <1766>   DW_AT_const_value : 0x2005f
 <2><176a>: Abbrev Number: 31 (DW_TAG_enumerator)
    <176b>   DW_AT_name        : (indirect string, offset: 0x3191): _NL_WERA_YEAR
    <176f>   DW_AT_const_value : 0x20060
 <2><1773>: Abbrev Number: 31 (DW_TAG_enumerator)
    <1774>   DW_AT_name        : (indirect string, offset: 0x2113): _NL_WERA_D_FMT
    <1778>   DW_AT_const_value : 0x20061
 <2><177c>: Abbrev Number: 31 (DW_TAG_enumerator)
    <177d>   DW_AT_name        : (indirect string, offset: 0x2f83): _NL_WALT_DIGITS
    <1781>   DW_AT_const_value : 0x20062
 <2><1785>: Abbrev Number: 31 (DW_TAG_enumerator)
    <1786>   DW_AT_name        : (indirect string, offset: 0x3369): _NL_WERA_D_T_FMT
    <178a>   DW_AT_const_value : 0x20063
 <2><178e>: Abbrev Number: 31 (DW_TAG_enumerator)
    <178f>   DW_AT_name        : (indirect string, offset: 0x2164): _NL_WERA_T_FMT
    <1793>   DW_AT_const_value : 0x20064
 <2><1797>: Abbrev Number: 31 (DW_TAG_enumerator)
    <1798>   DW_AT_name        : (indirect string, offset: 0x2359): _NL_TIME_WEEK_NDAYS
    <179c>   DW_AT_const_value : 0x20065
 <2><17a0>: Abbrev Number: 31 (DW_TAG_enumerator)
    <17a1>   DW_AT_name        : (indirect string, offset: 0x2ae): _NL_TIME_WEEK_1STDAY
    <17a5>   DW_AT_const_value : 0x20066
 <2><17a9>: Abbrev Number: 31 (DW_TAG_enumerator)
    <17aa>   DW_AT_name        : (indirect string, offset: 0x1355): _NL_TIME_WEEK_1STWEEK
    <17ae>   DW_AT_const_value : 0x20067
 <2><17b2>: Abbrev Number: 31 (DW_TAG_enumerator)
    <17b3>   DW_AT_name        : (indirect string, offset: 0x1844): _NL_TIME_FIRST_WEEKDAY
    <17b7>   DW_AT_const_value : 0x20068
 <2><17bb>: Abbrev Number: 31 (DW_TAG_enumerator)
    <17bc>   DW_AT_name        : (indirect string, offset: 0x2680): _NL_TIME_FIRST_WORKDAY
    <17c0>   DW_AT_const_value : 0x20069
 <2><17c4>: Abbrev Number: 31 (DW_TAG_enumerator)
    <17c5>   DW_AT_name        : (indirect string, offset: 0x75): _NL_TIME_CAL_DIRECTION
    <17c9>   DW_AT_const_value : 0x2006a
 <2><17cd>: Abbrev Number: 31 (DW_TAG_enumerator)
    <17ce>   DW_AT_name        : (indirect string, offset: 0x1c03): _NL_TIME_TIMEZONE
    <17d2>   DW_AT_const_value : 0x2006b
 <2><17d6>: Abbrev Number: 31 (DW_TAG_enumerator)
    <17d7>   DW_AT_name        : (indirect string, offset: 0x2329): _DATE_FMT
    <17db>   DW_AT_const_value : 0x2006c
 <2><17df>: Abbrev Number: 31 (DW_TAG_enumerator)
    <17e0>   DW_AT_name        : (indirect string, offset: 0x2324): _NL_W_DATE_FMT
    <17e4>   DW_AT_const_value : 0x2006d
 <2><17e8>: Abbrev Number: 31 (DW_TAG_enumerator)
    <17e9>   DW_AT_name        : (indirect string, offset: 0x292e): _NL_TIME_CODESET
    <17ed>   DW_AT_const_value : 0x2006e
 <2><17f1>: Abbrev Number: 31 (DW_TAG_enumerator)
    <17f2>   DW_AT_name        : (indirect string, offset: 0xeb1): __ALTMON_1
    <17f6>   DW_AT_const_value : 0x2006f
 <2><17fa>: Abbrev Number: 31 (DW_TAG_enumerator)
    <17fb>   DW_AT_name        : (indirect string, offset: 0x2ef0): __ALTMON_2
    <17ff>   DW_AT_const_value : 0x20070
 <2><1803>: Abbrev Number: 31 (DW_TAG_enumerator)
    <1804>   DW_AT_name        : (indirect string, offset: 0x2efb): __ALTMON_3
    <1808>   DW_AT_const_value : 0x20071
 <2><180c>: Abbrev Number: 31 (DW_TAG_enumerator)
    <180d>   DW_AT_name        : (indirect string, offset: 0x2f06): __ALTMON_4
    <1811>   DW_AT_const_value : 0x20072
 <2><1815>: Abbrev Number: 31 (DW_TAG_enumerator)
    <1816>   DW_AT_name        : (indirect string, offset: 0x2f11): __ALTMON_5
    <181a>   DW_AT_const_value : 0x20073
 <2><181e>: Abbrev Number: 31 (DW_TAG_enumerator)
    <181f>   DW_AT_name        : (indirect string, offset: 0x2f1c): __ALTMON_6
    <1823>   DW_AT_const_value : 0x20074
 <2><1827>: Abbrev Number: 31 (DW_TAG_enumerator)
    <1828>   DW_AT_name        : (indirect string, offset: 0x2f27): __ALTMON_7
    <182c>   DW_AT_const_value : 0x20075
 <2><1830>: Abbrev Number: 31 (DW_TAG_enumerator)
    <1831>   DW_AT_name        : (indirect string, offset: 0x2f32): __ALTMON_8
    <1835>   DW_AT_const_value : 0x20076
 <2><1839>: Abbrev Number: 31 (DW_TAG_enumerator)
    <183a>   DW_AT_name        : (indirect string, offset: 0x2f3d): __ALTMON_9
    <183e>   DW_AT_const_value : 0x20077
 <2><1842>: Abbrev Number: 31 (DW_TAG_enumerator)
    <1843>   DW_AT_name        : (indirect string, offset: 0xda5): __ALTMON_10
    <1847>   DW_AT_const_value : 0x20078
 <2><184b>: Abbrev Number: 31 (DW_TAG_enumerator)
    <184c>   DW_AT_name        : (indirect string, offset: 0xdb1): __ALTMON_11
    <1850>   DW_AT_const_value : 0x20079
 <2><1854>: Abbrev Number: 31 (DW_TAG_enumerator)
    <1855>   DW_AT_name        : (indirect string, offset: 0xdbd): __ALTMON_12
    <1859>   DW_AT_const_value : 0x2007a
 <2><185d>: Abbrev Number: 31 (DW_TAG_enumerator)
    <185e>   DW_AT_name        : (indirect string, offset: 0x136b): _NL_WALTMON_1
    <1862>   DW_AT_const_value : 0x2007b
 <2><1866>: Abbrev Number: 31 (DW_TAG_enumerator)
    <1867>   DW_AT_name        : (indirect string, offset: 0x1379): _NL_WALTMON_2
    <186b>   DW_AT_const_value : 0x2007c
 <2><186f>: Abbrev Number: 31 (DW_TAG_enumerator)
    <1870>   DW_AT_name        : (indirect string, offset: 0x1387): _NL_WALTMON_3
    <1874>   DW_AT_const_value : 0x2007d
 <2><1878>: Abbrev Number: 31 (DW_TAG_enumerator)
    <1879>   DW_AT_name        : (indirect string, offset: 0x1395): _NL_WALTMON_4
    <187d>   DW_AT_const_value : 0x2007e
 <2><1881>: Abbrev Number: 31 (DW_TAG_enumerator)
    <1882>   DW_AT_name        : (indirect string, offset: 0x13a3): _NL_WALTMON_5
    <1886>   DW_AT_const_value : 0x2007f
 <2><188a>: Abbrev Number: 31 (DW_TAG_enumerator)
    <188b>   DW_AT_name        : (indirect string, offset: 0x13b1): _NL_WALTMON_6
    <188f>   DW_AT_const_value : 0x20080
 <2><1893>: Abbrev Number: 31 (DW_TAG_enumerator)
    <1894>   DW_AT_name        : (indirect string, offset: 0x13bf): _NL_WALTMON_7
    <1898>   DW_AT_const_value : 0x20081
 <2><189c>: Abbrev Number: 31 (DW_TAG_enumerator)
    <189d>   DW_AT_name        : (indirect string, offset: 0x2e2d): _NL_WALTMON_8
    <18a1>   DW_AT_const_value : 0x20082
 <2><18a5>: Abbrev Number: 31 (DW_TAG_enumerator)
    <18a6>   DW_AT_name        : (indirect string, offset: 0x13cd): _NL_WALTMON_9
    <18aa>   DW_AT_const_value : 0x20083
 <2><18ae>: Abbrev Number: 31 (DW_TAG_enumerator)
    <18af>   DW_AT_name        : (indirect string, offset: 0x2bb7): _NL_WALTMON_10
    <18b3>   DW_AT_const_value : 0x20084
 <2><18b7>: Abbrev Number: 31 (DW_TAG_enumerator)
    <18b8>   DW_AT_name        : (indirect string, offset: 0x2bc6): _NL_WALTMON_11
    <18bc>   DW_AT_const_value : 0x20085
 <2><18c0>: Abbrev Number: 31 (DW_TAG_enumerator)
    <18c1>   DW_AT_name        : (indirect string, offset: 0x2bd5): _NL_WALTMON_12
    <18c5>   DW_AT_const_value : 0x20086
 <2><18c9>: Abbrev Number: 31 (DW_TAG_enumerator)
    <18ca>   DW_AT_name        : (indirect string, offset: 0xb0): _NL_ABALTMON_1
    <18ce>   DW_AT_const_value : 0x20087
 <2><18d2>: Abbrev Number: 31 (DW_TAG_enumerator)
    <18d3>   DW_AT_name        : (indirect string, offset: 0xbf): _NL_ABALTMON_2
    <18d7>   DW_AT_const_value : 0x20088
 <2><18db>: Abbrev Number: 31 (DW_TAG_enumerator)
    <18dc>   DW_AT_name        : (indirect string, offset: 0xce): _NL_ABALTMON_3
    <18e0>   DW_AT_const_value : 0x20089
 <2><18e4>: Abbrev Number: 31 (DW_TAG_enumerator)
    <18e5>   DW_AT_name        : (indirect string, offset: 0xdd): _NL_ABALTMON_4
    <18e9>   DW_AT_const_value : 0x2008a
 <2><18ed>: Abbrev Number: 31 (DW_TAG_enumerator)
    <18ee>   DW_AT_name        : (indirect string, offset: 0xec): _NL_ABALTMON_5
    <18f2>   DW_AT_const_value : 0x2008b
 <2><18f6>: Abbrev Number: 31 (DW_TAG_enumerator)
    <18f7>   DW_AT_name        : (indirect string, offset: 0xfb): _NL_ABALTMON_6
    <18fb>   DW_AT_const_value : 0x2008c
 <2><18ff>: Abbrev Number: 31 (DW_TAG_enumerator)
    <1900>   DW_AT_name        : (indirect string, offset: 0x1fdb): _NL_ABALTMON_7
    <1904>   DW_AT_const_value : 0x2008d
 <2><1908>: Abbrev Number: 31 (DW_TAG_enumerator)
    <1909>   DW_AT_name        : (indirect string, offset: 0x115): _NL_ABALTMON_8
    <190d>   DW_AT_const_value : 0x2008e
 <2><1911>: Abbrev Number: 31 (DW_TAG_enumerator)
    <1912>   DW_AT_name        : (indirect string, offset: 0x124): _NL_ABALTMON_9
    <1916>   DW_AT_const_value : 0x2008f
 <2><191a>: Abbrev Number: 31 (DW_TAG_enumerator)
    <191b>   DW_AT_name        : (indirect string, offset: 0x2d1a): _NL_ABALTMON_10
    <191f>   DW_AT_const_value : 0x20090
 <2><1923>: Abbrev Number: 31 (DW_TAG_enumerator)
    <1924>   DW_AT_name        : (indirect string, offset: 0x2d2a): _NL_ABALTMON_11
    <1928>   DW_AT_const_value : 0x20091
 <2><192c>: Abbrev Number: 31 (DW_TAG_enumerator)
    <192d>   DW_AT_name        : (indirect string, offset: 0x2d3a): _NL_ABALTMON_12
    <1931>   DW_AT_const_value : 0x20092
 <2><1935>: Abbrev Number: 31 (DW_TAG_enumerator)
    <1936>   DW_AT_name        : (indirect string, offset: 0x2994): _NL_WABALTMON_1
    <193a>   DW_AT_const_value : 0x20093
 <2><193e>: Abbrev Number: 31 (DW_TAG_enumerator)
    <193f>   DW_AT_name        : (indirect string, offset: 0x29a4): _NL_WABALTMON_2
    <1943>   DW_AT_const_value : 0x20094
 <2><1947>: Abbrev Number: 31 (DW_TAG_enumerator)
    <1948>   DW_AT_name        : (indirect string, offset: 0x29b4): _NL_WABALTMON_3
    <194c>   DW_AT_const_value : 0x20095
 <2><1950>: Abbrev Number: 31 (DW_TAG_enumerator)
    <1951>   DW_AT_name        : (indirect string, offset: 0x29c4): _NL_WABALTMON_4
    <1955>   DW_AT_const_value : 0x20096
 <2><1959>: Abbrev Number: 31 (DW_TAG_enumerator)
    <195a>   DW_AT_name        : (indirect string, offset: 0x29d4): _NL_WABALTMON_5
    <195e>   DW_AT_const_value : 0x20097
 <2><1962>: Abbrev Number: 31 (DW_TAG_enumerator)
    <1963>   DW_AT_name        : (indirect string, offset: 0x29e4): _NL_WABALTMON_6
    <1967>   DW_AT_const_value : 0x20098
 <2><196b>: Abbrev Number: 31 (DW_TAG_enumerator)
    <196c>   DW_AT_name        : (indirect string, offset: 0x29f4): _NL_WABALTMON_7
    <1970>   DW_AT_const_value : 0x20099
 <2><1974>: Abbrev Number: 31 (DW_TAG_enumerator)
    <1975>   DW_AT_name        : (indirect string, offset: 0x2a04): _NL_WABALTMON_8
    <1979>   DW_AT_const_value : 0x2009a
 <2><197d>: Abbrev Number: 31 (DW_TAG_enumerator)
    <197e>   DW_AT_name        : (indirect string, offset: 0x2a14): _NL_WABALTMON_9
    <1982>   DW_AT_const_value : 0x2009b
 <2><1986>: Abbrev Number: 31 (DW_TAG_enumerator)
    <1987>   DW_AT_name        : (indirect string, offset: 0x2204): _NL_WABALTMON_10
    <198b>   DW_AT_const_value : 0x2009c
 <2><198f>: Abbrev Number: 31 (DW_TAG_enumerator)
    <1990>   DW_AT_name        : (indirect string, offset: 0x2215): _NL_WABALTMON_11
    <1994>   DW_AT_const_value : 0x2009d
 <2><1998>: Abbrev Number: 31 (DW_TAG_enumerator)
    <1999>   DW_AT_name        : (indirect string, offset: 0x2226): _NL_WABALTMON_12
    <199d>   DW_AT_const_value : 0x2009e
 <2><19a1>: Abbrev Number: 31 (DW_TAG_enumerator)
    <19a2>   DW_AT_name        : (indirect string, offset: 0x3634): _NL_NUM_LC_TIME
    <19a6>   DW_AT_const_value : 0x2009f
 <2><19aa>: Abbrev Number: 31 (DW_TAG_enumerator)
    <19ab>   DW_AT_name        : (indirect string, offset: 0x26b3): _NL_COLLATE_NRULES
    <19af>   DW_AT_const_value : 0x30000
 <2><19b3>: Abbrev Number: 31 (DW_TAG_enumerator)
    <19b4>   DW_AT_name        : (indirect string, offset: 0x35b): _NL_COLLATE_RULESETS
    <19b8>   DW_AT_const_value : 0x30001
 <2><19bc>: Abbrev Number: 31 (DW_TAG_enumerator)
    <19bd>   DW_AT_name        : (indirect string, offset: 0x25de): _NL_COLLATE_TABLEMB
    <19c1>   DW_AT_const_value : 0x30002
 <2><19c5>: Abbrev Number: 31 (DW_TAG_enumerator)
    <19c6>   DW_AT_name        : (indirect string, offset: 0x368a): _NL_COLLATE_WEIGHTMB
    <19ca>   DW_AT_const_value : 0x30003
 <2><19ce>: Abbrev Number: 31 (DW_TAG_enumerator)
    <19cf>   DW_AT_name        : (indirect string, offset: 0x2173): _NL_COLLATE_EXTRAMB
    <19d3>   DW_AT_const_value : 0x30004
 <2><19d7>: Abbrev Number: 31 (DW_TAG_enumerator)
    <19d8>   DW_AT_name        : (indirect string, offset: 0x880): _NL_COLLATE_INDIRECTMB
    <19dc>   DW_AT_const_value : 0x30005
 <2><19e0>: Abbrev Number: 31 (DW_TAG_enumerator)
    <19e1>   DW_AT_name        : (indirect string, offset: 0x3a08): _NL_COLLATE_GAP1
    <19e5>   DW_AT_const_value : 0x30006
 <2><19e9>: Abbrev Number: 31 (DW_TAG_enumerator)
    <19ea>   DW_AT_name        : (indirect string, offset: 0x3a19): _NL_COLLATE_GAP2
    <19ee>   DW_AT_const_value : 0x30007
 <2><19f2>: Abbrev Number: 31 (DW_TAG_enumerator)
    <19f3>   DW_AT_name        : (indirect string, offset: 0x3a2a): _NL_COLLATE_GAP3
    <19f7>   DW_AT_const_value : 0x30008
 <2><19fb>: Abbrev Number: 31 (DW_TAG_enumerator)
    <19fc>   DW_AT_name        : (indirect string, offset: 0x6db): _NL_COLLATE_TABLEWC
    <1a00>   DW_AT_const_value : 0x30009
 <2><1a04>: Abbrev Number: 31 (DW_TAG_enumerator)
    <1a05>   DW_AT_name        : (indirect string, offset: 0x583): _NL_COLLATE_WEIGHTWC
    <1a09>   DW_AT_const_value : 0x3000a
 <2><1a0d>: Abbrev Number: 31 (DW_TAG_enumerator)
    <1a0e>   DW_AT_name        : (indirect string, offset: 0x1c15): _NL_COLLATE_EXTRAWC
    <1a12>   DW_AT_const_value : 0x3000b
 <2><1a16>: Abbrev Number: 31 (DW_TAG_enumerator)
    <1a17>   DW_AT_name        : (indirect string, offset: 0x125c): _NL_COLLATE_INDIRECTWC
    <1a1b>   DW_AT_const_value : 0x3000c
 <2><1a1f>: Abbrev Number: 31 (DW_TAG_enumerator)
    <1a20>   DW_AT_name        : (indirect string, offset: 0x968): _NL_COLLATE_SYMB_HASH_SIZEMB
    <1a24>   DW_AT_const_value : 0x3000d
 <2><1a28>: Abbrev Number: 31 (DW_TAG_enumerator)
    <1a29>   DW_AT_name        : (indirect string, offset: 0x2282): _NL_COLLATE_SYMB_TABLEMB
    <1a2d>   DW_AT_const_value : 0x3000e
 <2><1a31>: Abbrev Number: 31 (DW_TAG_enumerator)
    <1a32>   DW_AT_name        : (indirect string, offset: 0x10f5): _NL_COLLATE_SYMB_EXTRAMB
    <1a36>   DW_AT_const_value : 0x3000f
 <2><1a3a>: Abbrev Number: 31 (DW_TAG_enumerator)
    <1a3b>   DW_AT_name        : (indirect string, offset: 0x238c): _NL_COLLATE_COLLSEQMB
    <1a3f>   DW_AT_const_value : 0x30010
 <2><1a43>: Abbrev Number: 31 (DW_TAG_enumerator)
    <1a44>   DW_AT_name        : (indirect string, offset: 0x2dd6): _NL_COLLATE_COLLSEQWC
    <1a48>   DW_AT_const_value : 0x30011
 <2><1a4c>: Abbrev Number: 31 (DW_TAG_enumerator)
    <1a4d>   DW_AT_name        : (indirect string, offset: 0x3ca): _NL_COLLATE_CODESET
    <1a51>   DW_AT_const_value : 0x30012
 <2><1a55>: Abbrev Number: 31 (DW_TAG_enumerator)
    <1a56>   DW_AT_name        : (indirect string, offset: 0x3896): _NL_NUM_LC_COLLATE
    <1a5a>   DW_AT_const_value : 0x30013
 <2><1a5e>: Abbrev Number: 27 (DW_TAG_enumerator)
    <1a5f>   DW_AT_name        : (indirect string, offset: 0x10cc): _NL_CTYPE_CLASS
    <1a63>   DW_AT_const_value : 0
 <2><1a64>: Abbrev Number: 27 (DW_TAG_enumerator)
    <1a65>   DW_AT_name        : (indirect string, offset: 0xc86): _NL_CTYPE_TOUPPER
    <1a69>   DW_AT_const_value : 1
 <2><1a6a>: Abbrev Number: 27 (DW_TAG_enumerator)
    <1a6b>   DW_AT_name        : (indirect string, offset: 0x18a0): _NL_CTYPE_GAP1
    <1a6f>   DW_AT_const_value : 2
 <2><1a70>: Abbrev Number: 27 (DW_TAG_enumerator)
    <1a71>   DW_AT_name        : (indirect string, offset: 0x21f2): _NL_CTYPE_TOLOWER
    <1a75>   DW_AT_const_value : 3
 <2><1a76>: Abbrev Number: 27 (DW_TAG_enumerator)
    <1a77>   DW_AT_name        : (indirect string, offset: 0x18af): _NL_CTYPE_GAP2
    <1a7b>   DW_AT_const_value : 4
 <2><1a7c>: Abbrev Number: 27 (DW_TAG_enumerator)
    <1a7d>   DW_AT_name        : (indirect string, offset: 0x36d0): _NL_CTYPE_CLASS32
    <1a81>   DW_AT_const_value : 5
 <2><1a82>: Abbrev Number: 27 (DW_TAG_enumerator)
    <1a83>   DW_AT_name        : (indirect string, offset: 0x18be): _NL_CTYPE_GAP3
    <1a87>   DW_AT_const_value : 6
 <2><1a88>: Abbrev Number: 27 (DW_TAG_enumerator)
    <1a89>   DW_AT_name        : (indirect string, offset: 0x2765): _NL_CTYPE_GAP4
    <1a8d>   DW_AT_const_value : 7
 <2><1a8e>: Abbrev Number: 27 (DW_TAG_enumerator)
    <1a8f>   DW_AT_name        : (indirect string, offset: 0x18d5): _NL_CTYPE_GAP5
    <1a93>   DW_AT_const_value : 8
 <2><1a94>: Abbrev Number: 27 (DW_TAG_enumerator)
    <1a95>   DW_AT_name        : (indirect string, offset: 0x18e4): _NL_CTYPE_GAP6
    <1a99>   DW_AT_const_value : 9
 <2><1a9a>: Abbrev Number: 27 (DW_TAG_enumerator)
    <1a9b>   DW_AT_name        : (indirect string, offset: 0xc0f): _NL_CTYPE_CLASS_NAMES
    <1a9f>   DW_AT_const_value : 10
 <2><1aa0>: Abbrev Number: 27 (DW_TAG_enumerator)
    <1aa1>   DW_AT_name        : (indirect string, offset: 0x13e4): _NL_CTYPE_MAP_NAMES
    <1aa5>   DW_AT_const_value : 11
 <2><1aa6>: Abbrev Number: 27 (DW_TAG_enumerator)
    <1aa7>   DW_AT_name        : (indirect string, offset: 0x31b6): _NL_CTYPE_WIDTH
    <1aab>   DW_AT_const_value : 12
 <2><1aac>: Abbrev Number: 27 (DW_TAG_enumerator)
    <1aad>   DW_AT_name        : (indirect string, offset: 0xb86): _NL_CTYPE_MB_CUR_MAX
    <1ab1>   DW_AT_const_value : 13
 <2><1ab2>: Abbrev Number: 27 (DW_TAG_enumerator)
    <1ab3>   DW_AT_name        : (indirect string, offset: 0x160e): _NL_CTYPE_CODESET_NAME
    <1ab7>   DW_AT_const_value : 14
 <2><1ab8>: Abbrev Number: 27 (DW_TAG_enumerator)
    <1ab9>   DW_AT_name        : (indirect string, offset: 0x2a44): CODESET
    <1abd>   DW_AT_const_value : 14
 <2><1abe>: Abbrev Number: 27 (DW_TAG_enumerator)
    <1abf>   DW_AT_name        : (indirect string, offset: 0x1567): _NL_CTYPE_TOUPPER32
    <1ac3>   DW_AT_const_value : 15
 <2><1ac4>: Abbrev Number: 27 (DW_TAG_enumerator)
    <1ac5>   DW_AT_name        : (indirect string, offset: 0xcc4): _NL_CTYPE_TOLOWER32
    <1ac9>   DW_AT_const_value : 16
 <2><1aca>: Abbrev Number: 27 (DW_TAG_enumerator)
    <1acb>   DW_AT_name        : (indirect string, offset: 0x2619): _NL_CTYPE_CLASS_OFFSET
    <1acf>   DW_AT_const_value : 17
 <2><1ad0>: Abbrev Number: 27 (DW_TAG_enumerator)
    <1ad1>   DW_AT_name        : (indirect string, offset: 0x1176): _NL_CTYPE_MAP_OFFSET
    <1ad5>   DW_AT_const_value : 18
 <2><1ad6>: Abbrev Number: 27 (DW_TAG_enumerator)
    <1ad7>   DW_AT_name        : (indirect string, offset: 0x171d): _NL_CTYPE_INDIGITS_MB_LEN
    <1adb>   DW_AT_const_value : 19
 <2><1adc>: Abbrev Number: 27 (DW_TAG_enumerator)
    <1add>   DW_AT_name        : (indirect string, offset: 0x1fa0): _NL_CTYPE_INDIGITS0_MB
    <1ae1>   DW_AT_const_value : 20
 <2><1ae2>: Abbrev Number: 27 (DW_TAG_enumerator)
    <1ae3>   DW_AT_name        : (indirect string, offset: 0x244): _NL_CTYPE_INDIGITS1_MB
    <1ae7>   DW_AT_const_value : 21
 <2><1ae8>: Abbrev Number: 27 (DW_TAG_enumerator)
    <1ae9>   DW_AT_name        : (indirect string, offset: 0x33dc): _NL_CTYPE_INDIGITS2_MB
    <1aed>   DW_AT_const_value : 22
 <2><1aee>: Abbrev Number: 27 (DW_TAG_enumerator)
    <1aef>   DW_AT_name        : (indirect string, offset: 0x33f3): _NL_CTYPE_INDIGITS3_MB
    <1af3>   DW_AT_const_value : 23
 <2><1af4>: Abbrev Number: 27 (DW_TAG_enumerator)
    <1af5>   DW_AT_name        : (indirect string, offset: 0x1b3a): _NL_CTYPE_INDIGITS4_MB
    <1af9>   DW_AT_const_value : 24
 <2><1afa>: Abbrev Number: 27 (DW_TAG_enumerator)
    <1afb>   DW_AT_name        : (indirect string, offset: 0x387f): _NL_CTYPE_INDIGITS5_MB
    <1aff>   DW_AT_const_value : 25
 <2><1b00>: Abbrev Number: 27 (DW_TAG_enumerator)
    <1b01>   DW_AT_name        : (indirect string, offset: 0x198b): _NL_CTYPE_INDIGITS6_MB
    <1b05>   DW_AT_const_value : 26
 <2><1b06>: Abbrev Number: 27 (DW_TAG_enumerator)
    <1b07>   DW_AT_name        : (indirect string, offset: 0x360d): _NL_CTYPE_INDIGITS7_MB
    <1b0b>   DW_AT_const_value : 27
 <2><1b0c>: Abbrev Number: 27 (DW_TAG_enumerator)
    <1b0d>   DW_AT_name        : (indirect string, offset: 0x1737): _NL_CTYPE_INDIGITS8_MB
    <1b11>   DW_AT_const_value : 28
 <2><1b12>: Abbrev Number: 27 (DW_TAG_enumerator)
    <1b13>   DW_AT_name        : (indirect string, offset: 0x345e): _NL_CTYPE_INDIGITS9_MB
    <1b17>   DW_AT_const_value : 29
 <2><1b18>: Abbrev Number: 27 (DW_TAG_enumerator)
    <1b19>   DW_AT_name        : (indirect string, offset: 0x342f): _NL_CTYPE_INDIGITS_WC_LEN
    <1b1d>   DW_AT_const_value : 30
 <2><1b1e>: Abbrev Number: 27 (DW_TAG_enumerator)
    <1b1f>   DW_AT_name        : (indirect string, offset: 0x290c): _NL_CTYPE_INDIGITS0_WC
    <1b23>   DW_AT_const_value : 31
 <2><1b24>: Abbrev Number: 27 (DW_TAG_enumerator)
    <1b25>   DW_AT_name        : (indirect string, offset: 0xc36): _NL_CTYPE_INDIGITS1_WC
    <1b29>   DW_AT_const_value : 32
 <2><1b2a>: Abbrev Number: 27 (DW_TAG_enumerator)
    <1b2b>   DW_AT_name        : (indirect string, offset: 0x2735): _NL_CTYPE_INDIGITS2_WC
    <1b2f>   DW_AT_const_value : 33
 <2><1b30>: Abbrev Number: 27 (DW_TAG_enumerator)
    <1b31>   DW_AT_name        : (indirect string, offset: 0x985): _NL_CTYPE_INDIGITS3_WC
    <1b35>   DW_AT_const_value : 34
 <2><1b36>: Abbrev Number: 27 (DW_TAG_enumerator)
    <1b37>   DW_AT_name        : (indirect string, offset: 0x24e6): _NL_CTYPE_INDIGITS4_WC
    <1b3b>   DW_AT_const_value : 35
 <2><1b3c>: Abbrev Number: 27 (DW_TAG_enumerator)
    <1b3d>   DW_AT_name        : (indirect string, offset: 0x732): _NL_CTYPE_INDIGITS5_WC
    <1b41>   DW_AT_const_value : 36
 <2><1b42>: Abbrev Number: 27 (DW_TAG_enumerator)
    <1b43>   DW_AT_name        : (indirect string, offset: 0x2261): _NL_CTYPE_INDIGITS6_WC
    <1b47>   DW_AT_const_value : 37
 <2><1b48>: Abbrev Number: 27 (DW_TAG_enumerator)
    <1b49>   DW_AT_name        : (indirect string, offset: 0x52a): _NL_CTYPE_INDIGITS7_WC
    <1b4d>   DW_AT_const_value : 38
 <2><1b4e>: Abbrev Number: 27 (DW_TAG_enumerator)
    <1b4f>   DW_AT_name        : (indirect string, offset: 0x20d4): _NL_CTYPE_INDIGITS8_WC
    <1b53>   DW_AT_const_value : 39
 <2><1b54>: Abbrev Number: 27 (DW_TAG_enumerator)
    <1b55>   DW_AT_name        : (indirect string, offset: 0x37e): _NL_CTYPE_INDIGITS9_WC
    <1b59>   DW_AT_const_value : 40
 <2><1b5a>: Abbrev Number: 27 (DW_TAG_enumerator)
    <1b5b>   DW_AT_name        : (indirect string, offset: 0x1c55): _NL_CTYPE_OUTDIGIT0_MB
    <1b5f>   DW_AT_const_value : 41
 <2><1b60>: Abbrev Number: 27 (DW_TAG_enumerator)
    <1b61>   DW_AT_name        : (indirect string, offset: 0x3a6d): _NL_CTYPE_OUTDIGIT1_MB
    <1b65>   DW_AT_const_value : 42
 <2><1b66>: Abbrev Number: 27 (DW_TAG_enumerator)
    <1b67>   DW_AT_name        : (indirect string, offset: 0x1a5e): _NL_CTYPE_OUTDIGIT2_MB
    <1b6b>   DW_AT_const_value : 43
 <2><1b6c>: Abbrev Number: 27 (DW_TAG_enumerator)
    <1b6d>   DW_AT_name        : (indirect string, offset: 0x3721): _NL_CTYPE_OUTDIGIT3_MB
    <1b71>   DW_AT_const_value : 44
 <2><1b72>: Abbrev Number: 27 (DW_TAG_enumerator)
    <1b73>   DW_AT_name        : (indirect string, offset: 0x1876): _NL_CTYPE_OUTDIGIT4_MB
    <1b77>   DW_AT_const_value : 45
 <2><1b78>: Abbrev Number: 27 (DW_TAG_enumerator)
    <1b79>   DW_AT_name        : (indirect string, offset: 0x3577): _NL_CTYPE_OUTDIGIT5_MB
    <1b7d>   DW_AT_const_value : 46
 <2><1b7e>: Abbrev Number: 27 (DW_TAG_enumerator)
    <1b7f>   DW_AT_name        : (indirect string, offset: 0x1686): _NL_CTYPE_OUTDIGIT6_MB
    <1b83>   DW_AT_const_value : 47
 <2><1b84>: Abbrev Number: 27 (DW_TAG_enumerator)
    <1b85>   DW_AT_name        : (indirect string, offset: 0x3331): _NL_CTYPE_OUTDIGIT7_MB
    <1b89>   DW_AT_const_value : 48
 <2><1b8a>: Abbrev Number: 27 (DW_TAG_enumerator)
    <1b8b>   DW_AT_name        : (indirect string, offset: 0x1512): _NL_CTYPE_OUTDIGIT8_MB
    <1b8f>   DW_AT_const_value : 49
 <2><1b90>: Abbrev Number: 27 (DW_TAG_enumerator)
    <1b91>   DW_AT_name        : (indirect string, offset: 0x2a63): _NL_CTYPE_OUTDIGIT9_MB
    <1b95>   DW_AT_const_value : 50
 <2><1b96>: Abbrev Number: 27 (DW_TAG_enumerator)
    <1b97>   DW_AT_name        : (indirect string, offset: 0x2662): _NL_CTYPE_OUTDIGIT0_WC
    <1b9b>   DW_AT_const_value : 51
 <2><1b9c>: Abbrev Number: 27 (DW_TAG_enumerator)
    <1b9d>   DW_AT_name        : (indirect string, offset: 0x858): _NL_CTYPE_OUTDIGIT1_WC
    <1ba1>   DW_AT_const_value : 52
 <2><1ba2>: Abbrev Number: 27 (DW_TAG_enumerator)
    <1ba3>   DW_AT_name        : (indirect string, offset: 0x2414): _NL_CTYPE_OUTDIGIT2_WC
    <1ba7>   DW_AT_const_value : 53
 <2><1ba8>: Abbrev Number: 27 (DW_TAG_enumerator)
    <1ba9>   DW_AT_name        : (indirect string, offset: 0x659): _NL_CTYPE_OUTDIGIT3_WC
    <1bad>   DW_AT_const_value : 54
 <2><1bae>: Abbrev Number: 27 (DW_TAG_enumerator)
    <1baf>   DW_AT_name        : (indirect string, offset: 0x21bd): _NL_CTYPE_OUTDIGIT4_WC
    <1bb3>   DW_AT_const_value : 55
 <2><1bb4>: Abbrev Number: 27 (DW_TAG_enumerator)
    <1bb5>   DW_AT_name        : (indirect string, offset: 0x479): _NL_CTYPE_OUTDIGIT5_WC
    <1bb9>   DW_AT_const_value : 56
 <2><1bba>: Abbrev Number: 27 (DW_TAG_enumerator)
    <1bbb>   DW_AT_name        : (indirect string, offset: 0x2011): _NL_CTYPE_OUTDIGIT6_WC
    <1bbf>   DW_AT_const_value : 57
 <2><1bc0>: Abbrev Number: 27 (DW_TAG_enumerator)
    <1bc1>   DW_AT_name        : (indirect string, offset: 0x3b3): _NL_CTYPE_OUTDIGIT7_WC
    <1bc5>   DW_AT_const_value : 58
 <2><1bc6>: Abbrev Number: 27 (DW_TAG_enumerator)
    <1bc7>   DW_AT_name        : (indirect string, offset: 0x1dc6): _NL_CTYPE_OUTDIGIT8_WC
    <1bcb>   DW_AT_const_value : 59
 <2><1bcc>: Abbrev Number: 27 (DW_TAG_enumerator)
    <1bcd>   DW_AT_name        : (indirect string, offset: 0xa): _NL_CTYPE_OUTDIGIT9_WC
    <1bd1>   DW_AT_const_value : 60
 <2><1bd2>: Abbrev Number: 27 (DW_TAG_enumerator)
    <1bd3>   DW_AT_name        : (indirect string, offset: 0x2697): _NL_CTYPE_TRANSLIT_TAB_SIZE
    <1bd7>   DW_AT_const_value : 61
 <2><1bd8>: Abbrev Number: 27 (DW_TAG_enumerator)
    <1bd9>   DW_AT_name        : (indirect string, offset: 0x2485): _NL_CTYPE_TRANSLIT_FROM_IDX
    <1bdd>   DW_AT_const_value : 62
 <2><1bde>: Abbrev Number: 27 (DW_TAG_enumerator)
    <1bdf>   DW_AT_name        : (indirect string, offset: 0x35c9): _NL_CTYPE_TRANSLIT_FROM_TBL
    <1be3>   DW_AT_const_value : 63
 <2><1be4>: Abbrev Number: 27 (DW_TAG_enumerator)
    <1be5>   DW_AT_name        : (indirect string, offset: 0x324c): _NL_CTYPE_TRANSLIT_TO_IDX
    <1be9>   DW_AT_const_value : 64
 <2><1bea>: Abbrev Number: 27 (DW_TAG_enumerator)
    <1beb>   DW_AT_name        : (indirect string, offset: 0x33a6): _NL_CTYPE_TRANSLIT_TO_TBL
    <1bef>   DW_AT_const_value : 65
 <2><1bf0>: Abbrev Number: 27 (DW_TAG_enumerator)
    <1bf1>   DW_AT_name        : (indirect string, offset: 0x2cc4): _NL_CTYPE_TRANSLIT_DEFAULT_MISSING_LEN
    <1bf5>   DW_AT_const_value : 66
 <2><1bf6>: Abbrev Number: 27 (DW_TAG_enumerator)
    <1bf7>   DW_AT_name        : (indirect string, offset: 0x3a8e): _NL_CTYPE_TRANSLIT_DEFAULT_MISSING
    <1bfb>   DW_AT_const_value : 67
 <2><1bfc>: Abbrev Number: 27 (DW_TAG_enumerator)
    <1bfd>   DW_AT_name        : (indirect string, offset: 0x2d57): _NL_CTYPE_TRANSLIT_IGNORE_LEN
    <1c01>   DW_AT_const_value : 68
 <2><1c02>: Abbrev Number: 27 (DW_TAG_enumerator)
    <1c03>   DW_AT_name        : (indirect string, offset: 0x2ea0): _NL_CTYPE_TRANSLIT_IGNORE
    <1c07>   DW_AT_const_value : 69
 <2><1c08>: Abbrev Number: 27 (DW_TAG_enumerator)
    <1c09>   DW_AT_name        : (indirect string, offset: 0x178d): _NL_CTYPE_MAP_TO_NONASCII
    <1c0d>   DW_AT_const_value : 70
 <2><1c0e>: Abbrev Number: 27 (DW_TAG_enumerator)
    <1c0f>   DW_AT_name        : (indirect string, offset: 0xbc8): _NL_CTYPE_NONASCII_CASE
    <1c13>   DW_AT_const_value : 71
 <2><1c14>: Abbrev Number: 27 (DW_TAG_enumerator)
    <1c15>   DW_AT_name        : (indirect string, offset: 0x38e6): _NL_CTYPE_EXTRA_MAP_1
    <1c19>   DW_AT_const_value : 72
 <2><1c1a>: Abbrev Number: 27 (DW_TAG_enumerator)
    <1c1b>   DW_AT_name        : (indirect string, offset: 0x8b8): _NL_CTYPE_EXTRA_MAP_2
    <1c1f>   DW_AT_const_value : 73
 <2><1c20>: Abbrev Number: 27 (DW_TAG_enumerator)
    <1c21>   DW_AT_name        : (indirect string, offset: 0x38fc): _NL_CTYPE_EXTRA_MAP_3
    <1c25>   DW_AT_const_value : 74
 <2><1c26>: Abbrev Number: 27 (DW_TAG_enumerator)
    <1c27>   DW_AT_name        : (indirect string, offset: 0x3912): _NL_CTYPE_EXTRA_MAP_4
    <1c2b>   DW_AT_const_value : 75
 <2><1c2c>: Abbrev Number: 27 (DW_TAG_enumerator)
    <1c2d>   DW_AT_name        : (indirect string, offset: 0x3928): _NL_CTYPE_EXTRA_MAP_5
    <1c31>   DW_AT_const_value : 76
 <2><1c32>: Abbrev Number: 27 (DW_TAG_enumerator)
    <1c33>   DW_AT_name        : (indirect string, offset: 0x393e): _NL_CTYPE_EXTRA_MAP_6
    <1c37>   DW_AT_const_value : 77
 <2><1c38>: Abbrev Number: 27 (DW_TAG_enumerator)
    <1c39>   DW_AT_name        : (indirect string, offset: 0x3954): _NL_CTYPE_EXTRA_MAP_7
    <1c3d>   DW_AT_const_value : 78
 <2><1c3e>: Abbrev Number: 27 (DW_TAG_enumerator)
    <1c3f>   DW_AT_name        : (indirect string, offset: 0x396a): _NL_CTYPE_EXTRA_MAP_8
    <1c43>   DW_AT_const_value : 79
 <2><1c44>: Abbrev Number: 27 (DW_TAG_enumerator)
    <1c45>   DW_AT_name        : (indirect string, offset: 0x3980): _NL_CTYPE_EXTRA_MAP_9
    <1c49>   DW_AT_const_value : 80
 <2><1c4a>: Abbrev Number: 27 (DW_TAG_enumerator)
    <1c4b>   DW_AT_name        : (indirect string, offset: 0x374a): _NL_CTYPE_EXTRA_MAP_10
    <1c4f>   DW_AT_const_value : 81
 <2><1c50>: Abbrev Number: 27 (DW_TAG_enumerator)
    <1c51>   DW_AT_name        : (indirect string, offset: 0x3761): _NL_CTYPE_EXTRA_MAP_11
    <1c55>   DW_AT_const_value : 82
 <2><1c56>: Abbrev Number: 27 (DW_TAG_enumerator)
    <1c57>   DW_AT_name        : (indirect string, offset: 0x3784): _NL_CTYPE_EXTRA_MAP_12
    <1c5b>   DW_AT_const_value : 83
 <2><1c5c>: Abbrev Number: 27 (DW_TAG_enumerator)
    <1c5d>   DW_AT_name        : (indirect string, offset: 0x379b): _NL_CTYPE_EXTRA_MAP_13
    <1c61>   DW_AT_const_value : 84
 <2><1c62>: Abbrev Number: 27 (DW_TAG_enumerator)
    <1c63>   DW_AT_name        : (indirect string, offset: 0x37ba): _NL_CTYPE_EXTRA_MAP_14
    <1c67>   DW_AT_const_value : 85
 <2><1c68>: Abbrev Number: 27 (DW_TAG_enumerator)
    <1c69>   DW_AT_name        : (indirect string, offset: 0x1d64): _NL_NUM_LC_CTYPE
    <1c6d>   DW_AT_const_value : 86
 <2><1c6e>: Abbrev Number: 31 (DW_TAG_enumerator)
    <1c6f>   DW_AT_name        : (indirect string, offset: 0xdc9): __INT_CURR_SYMBOL
    <1c73>   DW_AT_const_value : 0x40000
 <2><1c77>: Abbrev Number: 31 (DW_TAG_enumerator)
    <1c78>   DW_AT_name        : (indirect string, offset: 0x17ee): __CURRENCY_SYMBOL
    <1c7c>   DW_AT_const_value : 0x40001
 <2><1c80>: Abbrev Number: 31 (DW_TAG_enumerator)
    <1c81>   DW_AT_name        : (indirect string, offset: 0x7b6): __MON_DECIMAL_POINT
    <1c85>   DW_AT_const_value : 0x40002
 <2><1c89>: Abbrev Number: 31 (DW_TAG_enumerator)
    <1c8a>   DW_AT_name        : (indirect string, offset: 0x314c): __MON_THOUSANDS_SEP
    <1c8e>   DW_AT_const_value : 0x40003
 <2><1c92>: Abbrev Number: 31 (DW_TAG_enumerator)
    <1c93>   DW_AT_name        : (indirect string, offset: 0x3006): __MON_GROUPING
    <1c97>   DW_AT_const_value : 0x40004
 <2><1c9b>: Abbrev Number: 31 (DW_TAG_enumerator)
    <1c9c>   DW_AT_name        : (indirect string, offset: 0x2b11): __POSITIVE_SIGN
    <1ca0>   DW_AT_const_value : 0x40005
 <2><1ca4>: Abbrev Number: 31 (DW_TAG_enumerator)
    <1ca5>   DW_AT_name        : (indirect string, offset: 0x2e6c): __NEGATIVE_SIGN
    <1ca9>   DW_AT_const_value : 0x40006
 <2><1cad>: Abbrev Number: 31 (DW_TAG_enumerator)
    <1cae>   DW_AT_name        : (indirect string, offset: 0x370f): __INT_FRAC_DIGITS
    <1cb2>   DW_AT_const_value : 0x40007
 <2><1cb6>: Abbrev Number: 31 (DW_TAG_enumerator)
    <1cb7>   DW_AT_name        : (indirect string, offset: 0x1cdf): __FRAC_DIGITS
    <1cbb>   DW_AT_const_value : 0x40008
 <2><1cbf>: Abbrev Number: 31 (DW_TAG_enumerator)
    <1cc0>   DW_AT_name        : (indirect string, offset: 0xd20): __P_CS_PRECEDES
    <1cc4>   DW_AT_const_value : 0x40009
 <2><1cc8>: Abbrev Number: 31 (DW_TAG_enumerator)
    <1cc9>   DW_AT_name        : (indirect string, offset: 0x280e): __P_SEP_BY_SPACE
    <1ccd>   DW_AT_const_value : 0x4000a
 <2><1cd1>: Abbrev Number: 31 (DW_TAG_enumerator)
    <1cd2>   DW_AT_name        : (indirect string, offset: 0x31ff): __N_CS_PRECEDES
    <1cd6>   DW_AT_const_value : 0x4000b
 <2><1cda>: Abbrev Number: 31 (DW_TAG_enumerator)
    <1cdb>   DW_AT_name        : (indirect string, offset: 0x5c6): __N_SEP_BY_SPACE
    <1cdf>   DW_AT_const_value : 0x4000c
 <2><1ce3>: Abbrev Number: 31 (DW_TAG_enumerator)
    <1ce4>   DW_AT_name        : (indirect string, offset: 0x39d7): __P_SIGN_POSN
    <1ce8>   DW_AT_const_value : 0x4000d
 <2><1cec>: Abbrev Number: 31 (DW_TAG_enumerator)
    <1ced>   DW_AT_name        : (indirect string, offset: 0x323e): __N_SIGN_POSN
    <1cf1>   DW_AT_const_value : 0x4000e
 <2><1cf5>: Abbrev Number: 31 (DW_TAG_enumerator)
    <1cf6>   DW_AT_name        : (indirect string, offset: 0x8f6): _NL_MONETARY_CRNCYSTR
    <1cfa>   DW_AT_const_value : 0x4000f
 <2><1cfe>: Abbrev Number: 31 (DW_TAG_enumerator)
    <1cff>   DW_AT_name        : (indirect string, offset: 0x3046): __INT_P_CS_PRECEDES
    <1d03>   DW_AT_const_value : 0x40010
 <2><1d07>: Abbrev Number: 31 (DW_TAG_enumerator)
    <1d08>   DW_AT_name        : (indirect string, offset: 0x749): __INT_P_SEP_BY_SPACE
    <1d0c>   DW_AT_const_value : 0x40011
 <2><1d10>: Abbrev Number: 31 (DW_TAG_enumerator)
    <1d11>   DW_AT_name        : (indirect string, offset: 0x3314): __INT_N_CS_PRECEDES
    <1d15>   DW_AT_const_value : 0x40012
 <2><1d19>: Abbrev Number: 31 (DW_TAG_enumerator)
    <1d1a>   DW_AT_name        : (indirect string, offset: 0x27de): __INT_N_SEP_BY_SPACE
    <1d1e>   DW_AT_const_value : 0x40013
 <2><1d22>: Abbrev Number: 31 (DW_TAG_enumerator)
    <1d23>   DW_AT_name        : (indirect string, offset: 0x2c2d): __INT_P_SIGN_POSN
    <1d27>   DW_AT_const_value : 0x40014
 <2><1d2b>: Abbrev Number: 31 (DW_TAG_enumerator)
    <1d2c>   DW_AT_name        : (indirect string, offset: 0x18fd): __INT_N_SIGN_POSN
    <1d30>   DW_AT_const_value : 0x40015
 <2><1d34>: Abbrev Number: 31 (DW_TAG_enumerator)
    <1d35>   DW_AT_name        : (indirect string, offset: 0x2e3b): _NL_MONETARY_DUO_INT_CURR_SYMBOL
    <1d39>   DW_AT_const_value : 0x40016
 <2><1d3d>: Abbrev Number: 31 (DW_TAG_enumerator)
    <1d3e>   DW_AT_name        : (indirect string, offset: 0x3829): _NL_MONETARY_DUO_CURRENCY_SYMBOL
    <1d42>   DW_AT_const_value : 0x40017
 <2><1d46>: Abbrev Number: 31 (DW_TAG_enumerator)
    <1d47>   DW_AT_name        : (indirect string, offset: 0x2506): _NL_MONETARY_DUO_INT_FRAC_DIGITS
    <1d4b>   DW_AT_const_value : 0x40018
 <2><1d4f>: Abbrev Number: 31 (DW_TAG_enumerator)
    <1d50>   DW_AT_name        : (indirect string, offset: 0x32f7): _NL_MONETARY_DUO_FRAC_DIGITS
    <1d54>   DW_AT_const_value : 0x40019
 <2><1d58>: Abbrev Number: 31 (DW_TAG_enumerator)
    <1d59>   DW_AT_name        : (indirect string, offset: 0x25bf): _NL_MONETARY_DUO_P_CS_PRECEDES
    <1d5d>   DW_AT_const_value : 0x4001a
 <2><1d61>: Abbrev Number: 31 (DW_TAG_enumerator)
    <1d62>   DW_AT_name        : (indirect string, offset: 0x2122): _NL_MONETARY_DUO_P_SEP_BY_SPACE
    <1d66>   DW_AT_const_value : 0x4001b
 <2><1d6a>: Abbrev Number: 31 (DW_TAG_enumerator)
    <1d6b>   DW_AT_name        : (indirect string, offset: 0x24b5): _NL_MONETARY_DUO_N_CS_PRECEDES
    <1d6f>   DW_AT_const_value : 0x4001c
 <2><1d73>: Abbrev Number: 31 (DW_TAG_enumerator)
    <1d74>   DW_AT_name        : (indirect string, offset: 0x17ce): _NL_MONETARY_DUO_N_SEP_BY_SPACE
    <1d78>   DW_AT_const_value : 0x4001d
 <2><1d7c>: Abbrev Number: 31 (DW_TAG_enumerator)
    <1d7d>   DW_AT_name        : (indirect string, offset: 0x1ee0): _NL_MONETARY_DUO_INT_P_CS_PRECEDES
    <1d81>   DW_AT_const_value : 0x4001e
 <2><1d85>: Abbrev Number: 31 (DW_TAG_enumerator)
    <1d86>   DW_AT_name        : (indirect string, offset: 0x670): _NL_MONETARY_DUO_INT_P_SEP_BY_SPACE
    <1d8a>   DW_AT_const_value : 0x4001f
 <2><1d8e>: Abbrev Number: 31 (DW_TAG_enumerator)
    <1d8f>   DW_AT_name        : (indirect string, offset: 0x1e2d): _NL_MONETARY_DUO_INT_N_CS_PRECEDES
    <1d93>   DW_AT_const_value : 0x40020
 <2><1d97>: Abbrev Number: 31 (DW_TAG_enumerator)
    <1d98>   DW_AT_name        : (indirect string, offset: 0x1f5c): _NL_MONETARY_DUO_INT_N_SEP_BY_SPACE
    <1d9c>   DW_AT_const_value : 0x40021
 <2><1da0>: Abbrev Number: 31 (DW_TAG_enumerator)
    <1da1>   DW_AT_name        : (indirect string, offset: 0x1ea9): _NL_MONETARY_DUO_P_SIGN_POSN
    <1da5>   DW_AT_const_value : 0x40022
 <2><1da9>: Abbrev Number: 31 (DW_TAG_enumerator)
    <1daa>   DW_AT_name        : (indirect string, offset: 0xc69): _NL_MONETARY_DUO_N_SIGN_POSN
    <1dae>   DW_AT_const_value : 0x40023
 <2><1db2>: Abbrev Number: 31 (DW_TAG_enumerator)
    <1db3>   DW_AT_name        : (indirect string, offset: 0x11de): _NL_MONETARY_DUO_INT_P_SIGN_POSN
    <1db7>   DW_AT_const_value : 0x40024
 <2><1dbb>: Abbrev Number: 31 (DW_TAG_enumerator)
    <1dbc>   DW_AT_name        : (indirect string, offset: 0x3aca): _NL_MONETARY_DUO_INT_N_SIGN_POSN
    <1dc0>   DW_AT_const_value : 0x40025
 <2><1dc4>: Abbrev Number: 31 (DW_TAG_enumerator)
    <1dc5>   DW_AT_name        : (indirect string, offset: 0x1f1f): _NL_MONETARY_UNO_VALID_FROM
    <1dc9>   DW_AT_const_value : 0x40026
 <2><1dcd>: Abbrev Number: 31 (DW_TAG_enumerator)
    <1dce>   DW_AT_name        : (indirect string, offset: 0xb31): _NL_MONETARY_UNO_VALID_TO
    <1dd2>   DW_AT_const_value : 0x40027
 <2><1dd6>: Abbrev Number: 31 (DW_TAG_enumerator)
    <1dd7>   DW_AT_name        : (indirect string, offset: 0x233d): _NL_MONETARY_DUO_VALID_FROM
    <1ddb>   DW_AT_const_value : 0x40028
 <2><1ddf>: Abbrev Number: 31 (DW_TAG_enumerator)
    <1de0>   DW_AT_name        : (indirect string, offset: 0x2adb): _NL_MONETARY_DUO_VALID_TO
    <1de4>   DW_AT_const_value : 0x40029
 <2><1de8>: Abbrev Number: 31 (DW_TAG_enumerator)
    <1de9>   DW_AT_name        : (indirect string, offset: 0x1099): _NL_MONETARY_CONVERSION_RATE
    <1ded>   DW_AT_const_value : 0x4002a
 <2><1df1>: Abbrev Number: 31 (DW_TAG_enumerator)
    <1df2>   DW_AT_name        : (indirect string, offset: 0x1919): _NL_MONETARY_DECIMAL_POINT_WC
    <1df6>   DW_AT_const_value : 0x4002b
 <2><1dfa>: Abbrev Number: 31 (DW_TAG_enumerator)
    <1dfb>   DW_AT_name        : (indirect string, offset: 0xbf1): _NL_MONETARY_THOUSANDS_SEP_WC
    <1dff>   DW_AT_const_value : 0x4002c
 <2><1e03>: Abbrev Number: 31 (DW_TAG_enumerator)
    <1e04>   DW_AT_name        : (indirect string, offset: 0x236d): _NL_MONETARY_CODESET
    <1e08>   DW_AT_const_value : 0x4002d
 <2><1e0c>: Abbrev Number: 31 (DW_TAG_enumerator)
    <1e0d>   DW_AT_name        : (indirect string, offset: 0x1a88): _NL_NUM_LC_MONETARY
    <1e11>   DW_AT_const_value : 0x4002e
 <2><1e15>: Abbrev Number: 31 (DW_TAG_enumerator)
    <1e16>   DW_AT_name        : (indirect string, offset: 0x2f93): __DECIMAL_POINT
    <1e1a>   DW_AT_const_value : 0x10000
 <2><1e1e>: Abbrev Number: 31 (DW_TAG_enumerator)
    <1e1f>   DW_AT_name        : (indirect string, offset: 0x190f): RADIXCHAR
    <1e23>   DW_AT_const_value : 0x10000
 <2><1e27>: Abbrev Number: 31 (DW_TAG_enumerator)
    <1e28>   DW_AT_name        : (indirect string, offset: 0x185b): __THOUSANDS_SEP
    <1e2c>   DW_AT_const_value : 0x10001
 <2><1e30>: Abbrev Number: 31 (DW_TAG_enumerator)
    <1e31>   DW_AT_name        : (indirect string, offset: 0x471): THOUSEP
    <1e35>   DW_AT_const_value : 0x10001
 <2><1e39>: Abbrev Number: 31 (DW_TAG_enumerator)
    <1e3a>   DW_AT_name        : (indirect string, offset: 0x512): __GROUPING
    <1e3e>   DW_AT_const_value : 0x10002
 <2><1e42>: Abbrev Number: 31 (DW_TAG_enumerator)
    <1e43>   DW_AT_name        : (indirect string, offset: 0x61b): _NL_NUMERIC_DECIMAL_POINT_WC
    <1e47>   DW_AT_const_value : 0x10003
 <2><1e4b>: Abbrev Number: 31 (DW_TAG_enumerator)
    <1e4c>   DW_AT_name        : (indirect string, offset: 0x337a): _NL_NUMERIC_THOUSANDS_SEP_WC
    <1e50>   DW_AT_const_value : 0x10004
 <2><1e54>: Abbrev Number: 31 (DW_TAG_enumerator)
    <1e55>   DW_AT_name        : (indirect string, offset: 0x2a38): _NL_NUMERIC_CODESET
    <1e59>   DW_AT_const_value : 0x10005
 <2><1e5d>: Abbrev Number: 31 (DW_TAG_enumerator)
    <1e5e>   DW_AT_name        : (indirect string, offset: 0x366d): _NL_NUM_LC_NUMERIC
    <1e62>   DW_AT_const_value : 0x10006
 <2><1e66>: Abbrev Number: 31 (DW_TAG_enumerator)
    <1e67>   DW_AT_name        : (indirect string, offset: 0x2382): __YESEXPR
    <1e6b>   DW_AT_const_value : 0x50000
 <2><1e6f>: Abbrev Number: 31 (DW_TAG_enumerator)
    <1e70>   DW_AT_name        : (indirect string, offset: 0x3328): __NOEXPR
    <1e74>   DW_AT_const_value : 0x50001
 <2><1e78>: Abbrev Number: 31 (DW_TAG_enumerator)
    <1e79>   DW_AT_name        : (indirect string, offset: 0x32a7): __YESSTR
    <1e7d>   DW_AT_const_value : 0x50002
 <2><1e81>: Abbrev Number: 31 (DW_TAG_enumerator)
    <1e82>   DW_AT_name        : (indirect string, offset: 0x23e8): __NOSTR
    <1e86>   DW_AT_const_value : 0x50003
 <2><1e8a>: Abbrev Number: 31 (DW_TAG_enumerator)
    <1e8b>   DW_AT_name        : (indirect string, offset: 0x3aeb): _NL_MESSAGES_CODESET
    <1e8f>   DW_AT_const_value : 0x50004
 <2><1e93>: Abbrev Number: 31 (DW_TAG_enumerator)
    <1e94>   DW_AT_name        : (indirect string, offset: 0x2a24): _NL_NUM_LC_MESSAGES
    <1e98>   DW_AT_const_value : 0x50005
 <2><1e9c>: Abbrev Number: 31 (DW_TAG_enumerator)
    <1e9d>   DW_AT_name        : (indirect string, offset: 0x2d7d): _NL_PAPER_HEIGHT
    <1ea1>   DW_AT_const_value : 0x70000
 <2><1ea5>: Abbrev Number: 31 (DW_TAG_enumerator)
    <1ea6>   DW_AT_name        : (indirect string, offset: 0x320f): _NL_PAPER_WIDTH
    <1eaa>   DW_AT_const_value : 0x70001
 <2><1eae>: Abbrev Number: 31 (DW_TAG_enumerator)
    <1eaf>   DW_AT_name        : (indirect string, offset: 0x1bb3): _NL_PAPER_CODESET
    <1eb3>   DW_AT_const_value : 0x70002
 <2><1eb7>: Abbrev Number: 31 (DW_TAG_enumerator)
    <1eb8>   DW_AT_name        : (indirect string, offset: 0x1583): _NL_NUM_LC_PAPER
    <1ebc>   DW_AT_const_value : 0x70003
 <2><1ec0>: Abbrev Number: 31 (DW_TAG_enumerator)
    <1ec1>   DW_AT_name        : (indirect string, offset: 0x15cd): _NL_NAME_NAME_FMT
    <1ec5>   DW_AT_const_value : 0x80000
 <2><1ec9>: Abbrev Number: 31 (DW_TAG_enumerator)
    <1eca>   DW_AT_name        : (indirect string, offset: 0x144c): _NL_NAME_NAME_GEN
    <1ece>   DW_AT_const_value : 0x80001
 <2><1ed2>: Abbrev Number: 31 (DW_TAG_enumerator)
    <1ed3>   DW_AT_name        : (indirect string, offset: 0x3b8e): _NL_NAME_NAME_MR
    <1ed7>   DW_AT_const_value : 0x80002
 <2><1edb>: Abbrev Number: 31 (DW_TAG_enumerator)
    <1edc>   DW_AT_name        : (indirect string, offset: 0x1937): _NL_NAME_NAME_MRS
    <1ee0>   DW_AT_const_value : 0x80003
 <2><1ee4>: Abbrev Number: 31 (DW_TAG_enumerator)
    <1ee5>   DW_AT_name        : (indirect string, offset: 0x1434): _NL_NAME_NAME_MISS
    <1ee9>   DW_AT_const_value : 0x80004
 <2><1eed>: Abbrev Number: 31 (DW_TAG_enumerator)
    <1eee>   DW_AT_name        : (indirect string, offset: 0x3b9f): _NL_NAME_NAME_MS
    <1ef2>   DW_AT_const_value : 0x80005
 <2><1ef6>: Abbrev Number: 31 (DW_TAG_enumerator)
    <1ef7>   DW_AT_name        : (indirect string, offset: 0x558): _NL_NAME_CODESET
    <1efb>   DW_AT_const_value : 0x80006
 <2><1eff>: Abbrev Number: 31 (DW_TAG_enumerator)
    <1f00>   DW_AT_name        : (indirect string, offset: 0x31db): _NL_NUM_LC_NAME
    <1f04>   DW_AT_const_value : 0x80007
 <2><1f08>: Abbrev Number: 31 (DW_TAG_enumerator)
    <1f09>   DW_AT_name        : (indirect string, offset: 0x3656): _NL_ADDRESS_POSTAL_FMT
    <1f0d>   DW_AT_const_value : 0x90000
 <2><1f11>: Abbrev Number: 31 (DW_TAG_enumerator)
    <1f12>   DW_AT_name        : (indirect string, offset: 0x7d1): _NL_ADDRESS_COUNTRY_NAME
    <1f16>   DW_AT_const_value : 0x90001
 <2><1f1a>: Abbrev Number: 31 (DW_TAG_enumerator)
    <1f1b>   DW_AT_name        : (indirect string, offset: 0x203a): _NL_ADDRESS_COUNTRY_POST
    <1f1f>   DW_AT_const_value : 0x90002
 <2><1f23>: Abbrev Number: 31 (DW_TAG_enumerator)
    <1f24>   DW_AT_name        : (indirect string, offset: 0x1656): _NL_ADDRESS_COUNTRY_AB2
    <1f28>   DW_AT_const_value : 0x90003
 <2><1f2c>: Abbrev Number: 31 (DW_TAG_enumerator)
    <1f2d>   DW_AT_name        : (indirect string, offset: 0x166e): _NL_ADDRESS_COUNTRY_AB3
    <1f31>   DW_AT_const_value : 0x90004
 <2><1f35>: Abbrev Number: 31 (DW_TAG_enumerator)
    <1f36>   DW_AT_name        : (indirect string, offset: 0x123b): _NL_ADDRESS_COUNTRY_CAR
    <1f3a>   DW_AT_const_value : 0x90005
 <2><1f3e>: Abbrev Number: 31 (DW_TAG_enumerator)
    <1f3f>   DW_AT_name        : (indirect string, offset: 0x38c9): _NL_ADDRESS_COUNTRY_NUM
    <1f43>   DW_AT_const_value : 0x90006
 <2><1f47>: Abbrev Number: 31 (DW_TAG_enumerator)
    <1f48>   DW_AT_name        : (indirect string, offset: 0x112c): _NL_ADDRESS_COUNTRY_ISBN
    <1f4c>   DW_AT_const_value : 0x90007
 <2><1f50>: Abbrev Number: 31 (DW_TAG_enumerator)
    <1f51>   DW_AT_name        : (indirect string, offset: 0x10b6): _NL_ADDRESS_LANG_NAME
    <1f55>   DW_AT_const_value : 0x90008
 <2><1f59>: Abbrev Number: 31 (DW_TAG_enumerator)
    <1f5a>   DW_AT_name        : (indirect string, offset: 0x2cb0): _NL_ADDRESS_LANG_AB
    <1f5e>   DW_AT_const_value : 0x90009
 <2><1f62>: Abbrev Number: 31 (DW_TAG_enumerator)
    <1f63>   DW_AT_name        : (indirect string, offset: 0x2556): _NL_ADDRESS_LANG_TERM
    <1f67>   DW_AT_const_value : 0x9000a
 <2><1f6b>: Abbrev Number: 31 (DW_TAG_enumerator)
    <1f6c>   DW_AT_name        : (indirect string, offset: 0x5d7): _NL_ADDRESS_LANG_LIB
    <1f70>   DW_AT_const_value : 0x9000b
 <2><1f74>: Abbrev Number: 31 (DW_TAG_enumerator)
    <1f75>   DW_AT_name        : (indirect string, offset: 0xba7): _NL_ADDRESS_CODESET
    <1f79>   DW_AT_const_value : 0x9000c
 <2><1f7d>: Abbrev Number: 31 (DW_TAG_enumerator)
    <1f7e>   DW_AT_name        : (indirect string, offset: 0x845): _NL_NUM_LC_ADDRESS
    <1f82>   DW_AT_const_value : 0x9000d
 <2><1f86>: Abbrev Number: 31 (DW_TAG_enumerator)
    <1f87>   DW_AT_name        : (indirect string, offset: 0x4c9): _NL_TELEPHONE_TEL_INT_FMT
    <1f8b>   DW_AT_const_value : 0xa0000
 <2><1f8f>: Abbrev Number: 31 (DW_TAG_enumerator)
    <1f90>   DW_AT_name        : (indirect string, offset: 0x104a): _NL_TELEPHONE_TEL_DOM_FMT
    <1f94>   DW_AT_const_value : 0xa0001
 <2><1f98>: Abbrev Number: 31 (DW_TAG_enumerator)
    <1f99>   DW_AT_name        : (indirect string, offset: 0x34cc): _NL_TELEPHONE_INT_SELECT
    <1f9d>   DW_AT_const_value : 0xa0002
 <2><1fa1>: Abbrev Number: 31 (DW_TAG_enumerator)
    <1fa2>   DW_AT_name        : (indirect string, offset: 0x169d): _NL_TELEPHONE_INT_PREFIX
    <1fa6>   DW_AT_const_value : 0xa0003
 <2><1faa>: Abbrev Number: 31 (DW_TAG_enumerator)
    <1fab>   DW_AT_name        : (indirect string, offset: 0x2b97): _NL_TELEPHONE_CODESET
    <1faf>   DW_AT_const_value : 0xa0004
 <2><1fb3>: Abbrev Number: 31 (DW_TAG_enumerator)
    <1fb4>   DW_AT_name        : (indirect string, offset: 0x1e0f): _NL_NUM_LC_TELEPHONE
    <1fb8>   DW_AT_const_value : 0xa0005
 <2><1fbc>: Abbrev Number: 31 (DW_TAG_enumerator)
    <1fbd>   DW_AT_name        : (indirect string, offset: 0x30cb): _NL_MEASUREMENT_MEASUREMENT
    <1fc1>   DW_AT_const_value : 0xb0000
 <2><1fc5>: Abbrev Number: 31 (DW_TAG_enumerator)
    <1fc6>   DW_AT_name        : (indirect string, offset: 0x496): _NL_MEASUREMENT_CODESET
    <1fca>   DW_AT_const_value : 0xb0001
 <2><1fce>: Abbrev Number: 31 (DW_TAG_enumerator)
    <1fcf>   DW_AT_name        : (indirect string, offset: 0x28ac): _NL_NUM_LC_MEASUREMENT
    <1fd3>   DW_AT_const_value : 0xb0002
 <2><1fd7>: Abbrev Number: 31 (DW_TAG_enumerator)
    <1fd8>   DW_AT_name        : (indirect string, offset: 0x2774): _NL_IDENTIFICATION_TITLE
    <1fdc>   DW_AT_const_value : 0xc0000
 <2><1fe0>: Abbrev Number: 31 (DW_TAG_enumerator)
    <1fe1>   DW_AT_name        : (indirect string, offset: 0x2db0): _NL_IDENTIFICATION_SOURCE
    <1fe5>   DW_AT_const_value : 0xc0001
 <2><1fe9>: Abbrev Number: 31 (DW_TAG_enumerator)
    <1fea>   DW_AT_name        : (indirect string, offset: 0x75e): _NL_IDENTIFICATION_ADDRESS
    <1fee>   DW_AT_const_value : 0xc0002
 <2><1ff2>: Abbrev Number: 31 (DW_TAG_enumerator)
    <1ff3>   DW_AT_name        : (indirect string, offset: 0x21a2): _NL_IDENTIFICATION_CONTACT
    <1ff7>   DW_AT_const_value : 0xc0003
 <2><1ffb>: Abbrev Number: 31 (DW_TAG_enumerator)
    <1ffc>   DW_AT_name        : (indirect string, offset: 0x22b): _NL_IDENTIFICATION_EMAIL
    <2000>   DW_AT_const_value : 0xc0004
 <2><2004>: Abbrev Number: 31 (DW_TAG_enumerator)
    <2005>   DW_AT_name        : (indirect string, offset: 0x82e): _NL_IDENTIFICATION_TEL
    <2009>   DW_AT_const_value : 0xc0005
 <2><200d>: Abbrev Number: 31 (DW_TAG_enumerator)
    <200e>   DW_AT_name        : (indirect string, offset: 0x1b14): _NL_IDENTIFICATION_FAX
    <2012>   DW_AT_const_value : 0xc0006
 <2><2016>: Abbrev Number: 31 (DW_TAG_enumerator)
    <2017>   DW_AT_name        : (indirect string, offset: 0x1a26): _NL_IDENTIFICATION_LANGUAGE
    <201b>   DW_AT_const_value : 0xc0007
 <2><201f>: Abbrev Number: 31 (DW_TAG_enumerator)
    <2020>   DW_AT_name        : (indirect string, offset: 0x3b22): _NL_IDENTIFICATION_TERRITORY
    <2024>   DW_AT_const_value : 0xc0008
 <2><2028>: Abbrev Number: 31 (DW_TAG_enumerator)
    <2029>   DW_AT_name        : (indirect string, offset: 0x39bb): _NL_IDENTIFICATION_AUDIENCE
    <202d>   DW_AT_const_value : 0xc0009
 <2><2031>: Abbrev Number: 31 (DW_TAG_enumerator)
    <2032>   DW_AT_name        : (indirect string, offset: 0x8d7): _NL_IDENTIFICATION_APPLICATION
    <2036>   DW_AT_const_value : 0xc000a
 <2><203a>: Abbrev Number: 31 (DW_TAG_enumerator)
    <203b>   DW_AT_name        : (indirect string, offset: 0x288c): _NL_IDENTIFICATION_ABBREVIATION
    <203f>   DW_AT_const_value : 0xc000b
 <2><2043>: Abbrev Number: 31 (DW_TAG_enumerator)
    <2044>   DW_AT_name        : (indirect string, offset: 0xc4d): _NL_IDENTIFICATION_REVISION
    <2048>   DW_AT_const_value : 0xc000c
 <2><204c>: Abbrev Number: 31 (DW_TAG_enumerator)
    <204d>   DW_AT_name        : (indirect string, offset: 0x2b62): _NL_IDENTIFICATION_DATE
    <2051>   DW_AT_const_value : 0xc000d
 <2><2055>: Abbrev Number: 31 (DW_TAG_enumerator)
    <2056>   DW_AT_name        : (indirect string, offset: 0x1bcc): _NL_IDENTIFICATION_CATEGORY
    <205a>   DW_AT_const_value : 0xc000e
 <2><205e>: Abbrev Number: 31 (DW_TAG_enumerator)
    <205f>   DW_AT_name        : (indirect string, offset: 0x3b63): _NL_IDENTIFICATION_CODESET
    <2063>   DW_AT_const_value : 0xc000f
 <2><2067>: Abbrev Number: 31 (DW_TAG_enumerator)
    <2068>   DW_AT_name        : (indirect string, offset: 0x1ec6): _NL_NUM_LC_IDENTIFICATION
    <206c>   DW_AT_const_value : 0xc0010
 <2><2070>: Abbrev Number: 31 (DW_TAG_enumerator)
    <2071>   DW_AT_name        : (indirect string, offset: 0x14ce): _NL_NUM
    <2075>   DW_AT_const_value : 0xc0011
 <2><2079>: Abbrev Number: 0
 <1><207a>: Abbrev Number: 30 (DW_TAG_enumeration_type)
    <207b>   DW_AT_encoding    : 7	(unsigned)
    <207c>   DW_AT_byte_size   : 4
    <207d>   DW_AT_type        : <0xe2>
    <2081>   DW_AT_decl_file   : 2
    <2082>   DW_AT_decl_line   : 112
    <2083>   DW_AT_decl_column : 6
    <2084>   DW_AT_sibling     : <0x2092>
 <2><2088>: Abbrev Number: 31 (DW_TAG_enumerator)
    <2089>   DW_AT_name        : (indirect string, offset: 0x302c): SUBTHREAD_LINES_HEURISTIC
    <208d>   DW_AT_const_value : 0x20000
 <2><2091>: Abbrev Number: 0
 <1><2092>: Abbrev Number: 30 (DW_TAG_enumeration_type)
    <2093>   DW_AT_encoding    : 7	(unsigned)
    <2094>   DW_AT_byte_size   : 4
    <2095>   DW_AT_type        : <0xe2>
    <2099>   DW_AT_decl_file   : 2
    <209a>   DW_AT_decl_line   : 117
    <209b>   DW_AT_decl_column : 6
    <209c>   DW_AT_sibling     : <0x20a7>
 <2><20a0>: Abbrev Number: 27 (DW_TAG_enumerator)
    <20a1>   DW_AT_name        : (indirect string, offset: 0x2eba): DEFAULT_MAX_THREADS
    <20a5>   DW_AT_const_value : 8
 <2><20a6>: Abbrev Number: 0
 <1><20a7>: Abbrev Number: 30 (DW_TAG_enumeration_type)
    <20a8>   DW_AT_encoding    : 7	(unsigned)
    <20a9>   DW_AT_byte_size   : 4
    <20aa>   DW_AT_type        : <0xe2>
    <20ae>   DW_AT_decl_file   : 2
    <20af>   DW_AT_decl_line   : 121
    <20b0>   DW_AT_decl_column : 3
    <20b1>   DW_AT_sibling     : <0x20c2>
 <2><20b5>: Abbrev Number: 27 (DW_TAG_enumerator)
    <20b6>   DW_AT_name        : (indirect string, offset: 0xd93): SORT_OUT_OF_ORDER
    <20ba>   DW_AT_const_value : 1
 <2><20bb>: Abbrev Number: 27 (DW_TAG_enumerator)
    <20bc>   DW_AT_name        : (indirect string, offset: 0x3b00): SORT_FAILURE
    <20c0>   DW_AT_const_value : 2
 <2><20c1>: Abbrev Number: 0
 <1><20c2>: Abbrev Number: 30 (DW_TAG_enumeration_type)
    <20c3>   DW_AT_encoding    : 7	(unsigned)
    <20c4>   DW_AT_byte_size   : 4
    <20c5>   DW_AT_type        : <0xe2>
    <20c9>   DW_AT_decl_file   : 2
    <20ca>   DW_AT_decl_line   : 132
    <20cb>   DW_AT_decl_column : 3
    <20cc>   DW_AT_sibling     : <0x20dd>
 <2><20d0>: Abbrev Number: 27 (DW_TAG_enumerator)
    <20d1>   DW_AT_name        : (indirect string, offset: 0x1a0e): MAX_FORK_TRIES_COMPRESS
    <20d5>   DW_AT_const_value : 4
 <2><20d6>: Abbrev Number: 27 (DW_TAG_enumerator)
    <20d7>   DW_AT_name        : (indirect string, offset: 0x1b82): MAX_FORK_TRIES_DECOMPRESS
    <20db>   DW_AT_const_value : 9
 <2><20dc>: Abbrev Number: 0
 <1><20dd>: Abbrev Number: 30 (DW_TAG_enumeration_type)
    <20de>   DW_AT_encoding    : 7	(unsigned)
    <20df>   DW_AT_byte_size   : 4
    <20e0>   DW_AT_type        : <0xe2>
    <20e4>   DW_AT_decl_file   : 2
    <20e5>   DW_AT_decl_line   : 146
    <20e6>   DW_AT_decl_column : 3
    <20e7>   DW_AT_sibling     : <0x20f8>
 <2><20eb>: Abbrev Number: 27 (DW_TAG_enumerator)
    <20ec>   DW_AT_name        : (indirect string, offset: 0x18f3): MERGE_END
    <20f0>   DW_AT_const_value : 0
 <2><20f1>: Abbrev Number: 27 (DW_TAG_enumerator)
    <20f2>   DW_AT_name        : (indirect string, offset: 0x4f6): MERGE_ROOT
    <20f6>   DW_AT_const_value : 1
 <2><20f7>: Abbrev Number: 0
 <1><20f8>: Abbrev Number: 41 (DW_TAG_variable)
    <20f9>   DW_AT_name        : (indirect string, offset: 0x24d8): decimal_point
    <20fd>   DW_AT_decl_file   : 2
    <20fe>   DW_AT_decl_line   : 155
    <20ff>   DW_AT_decl_column : 13
    <2100>   DW_AT_type        : <0x49>
    <2104>   DW_AT_location    : 9 byte block: 3 0 52 2 0 0 0 0 0 	(DW_OP_addr: 25200)
 <1><210e>: Abbrev Number: 41 (DW_TAG_variable)
    <210f>   DW_AT_name        : (indirect string, offset: 0xb02): thousands_sep
    <2113>   DW_AT_decl_file   : 2
    <2114>   DW_AT_decl_line   : 158
    <2115>   DW_AT_decl_column : 12
    <2116>   DW_AT_type        : <0x61>
    <211a>   DW_AT_location    : 9 byte block: 3 4 52 2 0 0 0 0 0 	(DW_OP_addr: 25204)
 <1><2124>: Abbrev Number: 41 (DW_TAG_variable)
    <2125>   DW_AT_name        : (indirect string, offset: 0x36ab): thousands_sep_ignored
    <2129>   DW_AT_decl_file   : 2
    <212a>   DW_AT_decl_line   : 160
    <212b>   DW_AT_decl_column : 13
    <212c>   DW_AT_type        : <0x1073>
    <2130>   DW_AT_location    : 9 byte block: 3 8 52 2 0 0 0 0 0 	(DW_OP_addr: 25208)
 <1><213a>: Abbrev Number: 41 (DW_TAG_variable)
    <213b>   DW_AT_name        : (indirect string, offset: 0x448): hard_LC_COLLATE
    <213f>   DW_AT_decl_file   : 2
    <2140>   DW_AT_decl_line   : 163
    <2141>   DW_AT_decl_column : 13
    <2142>   DW_AT_type        : <0x1073>
    <2146>   DW_AT_location    : 9 byte block: 3 9 52 2 0 0 0 0 0 	(DW_OP_addr: 25209)
 <1><2150>: Abbrev Number: 41 (DW_TAG_variable)
    <2151>   DW_AT_name        : (indirect string, offset: 0x1409): hard_LC_TIME
    <2155>   DW_AT_decl_file   : 2
    <2156>   DW_AT_decl_line   : 165
    <2157>   DW_AT_decl_column : 13
    <2158>   DW_AT_type        : <0x1073>
    <215c>   DW_AT_location    : 9 byte block: 3 a 52 2 0 0 0 0 0 	(DW_OP_addr: 2520a)
 <1><2166>: Abbrev Number: 26 (DW_TAG_enumeration_type)
    <2167>   DW_AT_name        : (indirect string, offset: 0x1c29): blanktype
    <216b>   DW_AT_encoding    : 7	(unsigned)
    <216c>   DW_AT_byte_size   : 4
    <216d>   DW_AT_type        : <0xe2>
    <2171>   DW_AT_decl_file   : 2
    <2172>   DW_AT_decl_line   : 171
    <2173>   DW_AT_decl_column : 6
    <2174>   DW_AT_sibling     : <0x218b>
 <2><2178>: Abbrev Number: 27 (DW_TAG_enumerator)
    <2179>   DW_AT_name        : (indirect string, offset: 0x24fd): bl_start
    <217d>   DW_AT_const_value : 0
 <2><217e>: Abbrev Number: 27 (DW_TAG_enumerator)
    <217f>   DW_AT_name        : (indirect string, offset: 0x20eb): bl_end
    <2183>   DW_AT_const_value : 1
 <2><2184>: Abbrev Number: 27 (DW_TAG_enumerator)
    <2185>   DW_AT_name        : (indirect string, offset: 0x1f8c): bl_both
    <2189>   DW_AT_const_value : 2
 <2><218a>: Abbrev Number: 0
 <1><218b>: Abbrev Number: 41 (DW_TAG_variable)
    <218c>   DW_AT_name        : (indirect string, offset: 0x8a7): eolchar
    <2190>   DW_AT_decl_file   : 2
    <2191>   DW_AT_decl_line   : 174
    <2192>   DW_AT_decl_column : 13
    <2193>   DW_AT_type        : <0x49>
    <2197>   DW_AT_location    : 9 byte block: 3 10 50 2 0 0 0 0 0 	(DW_OP_addr: 25010)
 <1><21a1>: Abbrev Number: 9 (DW_TAG_structure_type)
    <21a2>   DW_AT_name        : (indirect string, offset: 0x56f): line
    <21a6>   DW_AT_byte_size   : 32
    <21a7>   DW_AT_decl_file   : 2
    <21a8>   DW_AT_decl_line   : 177
    <21a9>   DW_AT_decl_column : 8
    <21aa>   DW_AT_sibling     : <0x21e3>
 <2><21ae>: Abbrev Number: 10 (DW_TAG_member)
    <21af>   DW_AT_name        : (indirect string, offset: 0x3c6b): text
    <21b3>   DW_AT_decl_file   : 2
    <21b4>   DW_AT_decl_line   : 179
    <21b5>   DW_AT_decl_column : 9
    <21b6>   DW_AT_type        : <0x39>
    <21ba>   DW_AT_data_member_location: 0
 <2><21bb>: Abbrev Number: 10 (DW_TAG_member)
    <21bc>   DW_AT_name        : (indirect string, offset: 0x4013): length
    <21c0>   DW_AT_decl_file   : 2
    <21c1>   DW_AT_decl_line   : 180
    <21c2>   DW_AT_decl_column : 10
    <21c3>   DW_AT_type        : <0x1f4>
    <21c7>   DW_AT_data_member_location: 8
 <2><21c8>: Abbrev Number: 10 (DW_TAG_member)
    <21c9>   DW_AT_name        : (indirect string, offset: 0x2679): keybeg
    <21cd>   DW_AT_decl_file   : 2
    <21ce>   DW_AT_decl_line   : 181
    <21cf>   DW_AT_decl_column : 9
    <21d0>   DW_AT_type        : <0x39>
    <21d4>   DW_AT_data_member_location: 16
 <2><21d5>: Abbrev Number: 10 (DW_TAG_member)
    <21d6>   DW_AT_name        : (indirect string, offset: 0x2830): keylim
    <21da>   DW_AT_decl_file   : 2
    <21db>   DW_AT_decl_line   : 182
    <21dc>   DW_AT_decl_column : 9
    <21dd>   DW_AT_type        : <0x39>
    <21e1>   DW_AT_data_member_location: 24
 <2><21e2>: Abbrev Number: 0
 <1><21e3>: Abbrev Number: 4 (DW_TAG_const_type)
    <21e4>   DW_AT_type        : <0x21a1>
 <1><21e8>: Abbrev Number: 9 (DW_TAG_structure_type)
    <21e9>   DW_AT_name        : (indirect string, offset: 0x3d3b): buffer
    <21ed>   DW_AT_byte_size   : 56
    <21ee>   DW_AT_decl_file   : 2
    <21ef>   DW_AT_decl_line   : 186
    <21f0>   DW_AT_decl_column : 8
    <21f1>   DW_AT_sibling     : <0x2251>
 <2><21f5>: Abbrev Number: 11 (DW_TAG_member)
    <21f6>   DW_AT_name        : buf
    <21fa>   DW_AT_decl_file   : 2
    <21fb>   DW_AT_decl_line   : 188
    <21fc>   DW_AT_decl_column : 9
    <21fd>   DW_AT_type        : <0x39>
    <2201>   DW_AT_data_member_location: 0
 <2><2202>: Abbrev Number: 10 (DW_TAG_member)
    <2203>   DW_AT_name        : (indirect string, offset: 0x253b): used
    <2207>   DW_AT_decl_file   : 2
    <2208>   DW_AT_decl_line   : 193
    <2209>   DW_AT_decl_column : 10
    <220a>   DW_AT_type        : <0x1f4>
    <220e>   DW_AT_data_member_location: 8
 <2><220f>: Abbrev Number: 10 (DW_TAG_member)
    <2210>   DW_AT_name        : (indirect string, offset: 0x10e5): nlines
    <2214>   DW_AT_decl_file   : 2
    <2215>   DW_AT_decl_line   : 194
    <2216>   DW_AT_decl_column : 10
    <2217>   DW_AT_type        : <0x1f4>
    <221b>   DW_AT_data_member_location: 16
 <2><221c>: Abbrev Number: 10 (DW_TAG_member)
    <221d>   DW_AT_name        : (indirect string, offset: 0x2928): alloc
    <2221>   DW_AT_decl_file   : 2
    <2222>   DW_AT_decl_line   : 195
    <2223>   DW_AT_decl_column : 10
    <2224>   DW_AT_type        : <0x1f4>
    <2228>   DW_AT_data_member_location: 24
 <2><2229>: Abbrev Number: 10 (DW_TAG_member)
    <222a>   DW_AT_name        : (indirect string, offset: 0x443): left
    <222e>   DW_AT_decl_file   : 2
    <222f>   DW_AT_decl_line   : 196
    <2230>   DW_AT_decl_column : 10
    <2231>   DW_AT_type        : <0x1f4>
    <2235>   DW_AT_data_member_location: 32
 <2><2236>: Abbrev Number: 10 (DW_TAG_member)
    <2237>   DW_AT_name        : (indirect string, offset: 0x356c): line_bytes
    <223b>   DW_AT_decl_file   : 2
    <223c>   DW_AT_decl_line   : 197
    <223d>   DW_AT_decl_column : 10
    <223e>   DW_AT_type        : <0x1f4>
    <2242>   DW_AT_data_member_location: 40
 <2><2243>: Abbrev Number: 11 (DW_TAG_member)
    <2244>   DW_AT_name        : eof
    <2248>   DW_AT_decl_file   : 2
    <2249>   DW_AT_decl_line   : 198
    <224a>   DW_AT_decl_column : 8
    <224b>   DW_AT_type        : <0x1073>
    <224f>   DW_AT_data_member_location: 48
 <2><2250>: Abbrev Number: 0
 <1><2251>: Abbrev Number: 4 (DW_TAG_const_type)
    <2252>   DW_AT_type        : <0x21e8>
 <1><2256>: Abbrev Number: 9 (DW_TAG_structure_type)
    <2257>   DW_AT_name        : (indirect string, offset: 0x509): keyfield
    <225b>   DW_AT_byte_size   : 72
    <225c>   DW_AT_decl_file   : 2
    <225d>   DW_AT_decl_line   : 202
    <225e>   DW_AT_decl_column : 8
    <225f>   DW_AT_sibling     : <0x2341>
 <2><2263>: Abbrev Number: 10 (DW_TAG_member)
    <2264>   DW_AT_name        : (indirect string, offset: 0x142e): sword
    <2268>   DW_AT_decl_file   : 2
    <2269>   DW_AT_decl_line   : 204
    <226a>   DW_AT_decl_column : 10
    <226b>   DW_AT_type        : <0x1f4>
    <226f>   DW_AT_data_member_location: 0
 <2><2270>: Abbrev Number: 10 (DW_TAG_member)
    <2271>   DW_AT_name        : (indirect string, offset: 0x2e5c): schar
    <2275>   DW_AT_decl_file   : 2
    <2276>   DW_AT_decl_line   : 205
    <2277>   DW_AT_decl_column : 10
    <2278>   DW_AT_type        : <0x1f4>
    <227c>   DW_AT_data_member_location: 8
 <2><227d>: Abbrev Number: 10 (DW_TAG_member)
    <227e>   DW_AT_name        : (indirect string, offset: 0x1dc0): eword
    <2282>   DW_AT_decl_file   : 2
    <2283>   DW_AT_decl_line   : 206
    <2284>   DW_AT_decl_column : 10
    <2285>   DW_AT_type        : <0x1f4>
    <2289>   DW_AT_data_member_location: 16
 <2><228a>: Abbrev Number: 10 (DW_TAG_member)
    <228b>   DW_AT_name        : (indirect string, offset: 0x35e5): echar
    <228f>   DW_AT_decl_file   : 2
    <2290>   DW_AT_decl_line   : 207
    <2291>   DW_AT_decl_column : 10
    <2292>   DW_AT_type        : <0x1f4>
    <2296>   DW_AT_data_member_location: 24
 <2><2297>: Abbrev Number: 10 (DW_TAG_member)
    <2298>   DW_AT_name        : (indirect string, offset: 0x21d4): ignore
    <229c>   DW_AT_decl_file   : 2
    <229d>   DW_AT_decl_line   : 208
    <229e>   DW_AT_decl_column : 15
    <229f>   DW_AT_type        : <0x2346>
    <22a3>   DW_AT_data_member_location: 32
 <2><22a4>: Abbrev Number: 10 (DW_TAG_member)
    <22a5>   DW_AT_name        : (indirect string, offset: 0x1cb5): translate
    <22a9>   DW_AT_decl_file   : 2
    <22aa>   DW_AT_decl_line   : 209
    <22ab>   DW_AT_decl_column : 15
    <22ac>   DW_AT_type        : <0xb9>
    <22b0>   DW_AT_data_member_location: 40
 <2><22b1>: Abbrev Number: 10 (DW_TAG_member)
    <22b2>   DW_AT_name        : (indirect string, offset: 0x1273): skipsblanks
    <22b6>   DW_AT_decl_file   : 2
    <22b7>   DW_AT_decl_line   : 210
    <22b8>   DW_AT_decl_column : 8
    <22b9>   DW_AT_type        : <0x1073>
    <22bd>   DW_AT_data_member_location: 48
 <2><22be>: Abbrev Number: 10 (DW_TAG_member)
    <22bf>   DW_AT_name        : (indirect string, offset: 0x3503): skipeblanks
    <22c3>   DW_AT_decl_file   : 2
    <22c4>   DW_AT_decl_line   : 211
    <22c5>   DW_AT_decl_column : 8
    <22c6>   DW_AT_type        : <0x1073>
    <22ca>   DW_AT_data_member_location: 49
 <2><22cb>: Abbrev Number: 10 (DW_TAG_member)
    <22cc>   DW_AT_name        : (indirect string, offset: 0x2df4): numeric
    <22d0>   DW_AT_decl_file   : 2
    <22d1>   DW_AT_decl_line   : 212
    <22d2>   DW_AT_decl_column : 8
    <22d3>   DW_AT_type        : <0x1073>
    <22d7>   DW_AT_data_member_location: 50
 <2><22d8>: Abbrev Number: 10 (DW_TAG_member)
    <22d9>   DW_AT_name        : (indirect string, offset: 0x2e6): random
    <22dd>   DW_AT_decl_file   : 2
    <22de>   DW_AT_decl_line   : 215
    <22df>   DW_AT_decl_column : 8
    <22e0>   DW_AT_type        : <0x1073>
    <22e4>   DW_AT_data_member_location: 51
 <2><22e5>: Abbrev Number: 10 (DW_TAG_member)
    <22e6>   DW_AT_name        : (indirect string, offset: 0x2dec): general_numeric
    <22ea>   DW_AT_decl_file   : 2
    <22eb>   DW_AT_decl_line   : 216
    <22ec>   DW_AT_decl_column : 8
    <22ed>   DW_AT_type        : <0x1073>
    <22f1>   DW_AT_data_member_location: 52
 <2><22f2>: Abbrev Number: 10 (DW_TAG_member)
    <22f3>   DW_AT_name        : (indirect string, offset: 0x19aa): human_numeric
    <22f7>   DW_AT_decl_file   : 2
    <22f8>   DW_AT_decl_line   : 218
    <22f9>   DW_AT_decl_column : 8
    <22fa>   DW_AT_type        : <0x1073>
    <22fe>   DW_AT_data_member_location: 53
 <2><22ff>: Abbrev Number: 10 (DW_TAG_member)
    <2300>   DW_AT_name        : (indirect string, offset: 0x31d5): month
    <2304>   DW_AT_decl_file   : 2
    <2305>   DW_AT_decl_line   : 220
    <2306>   DW_AT_decl_column : 8
    <2307>   DW_AT_type        : <0x1073>
    <230b>   DW_AT_data_member_location: 54
 <2><230c>: Abbrev Number: 10 (DW_TAG_member)
    <230d>   DW_AT_name        : (indirect string, offset: 0x2c25): reverse
    <2311>   DW_AT_decl_file   : 2
    <2312>   DW_AT_decl_line   : 221
    <2313>   DW_AT_decl_column : 8
    <2314>   DW_AT_type        : <0x1073>
    <2318>   DW_AT_data_member_location: 55
 <2><2319>: Abbrev Number: 10 (DW_TAG_member)
    <231a>   DW_AT_name        : (indirect string, offset: 0x9eb): version
    <231e>   DW_AT_decl_file   : 2
    <231f>   DW_AT_decl_line   : 222
    <2320>   DW_AT_decl_column : 8
    <2321>   DW_AT_type        : <0x1073>
    <2325>   DW_AT_data_member_location: 56
 <2><2326>: Abbrev Number: 10 (DW_TAG_member)
    <2327>   DW_AT_name        : (indirect string, offset: 0x252f): traditional_used
    <232b>   DW_AT_decl_file   : 2
    <232c>   DW_AT_decl_line   : 223
    <232d>   DW_AT_decl_column : 8
    <232e>   DW_AT_type        : <0x1073>
    <2332>   DW_AT_data_member_location: 57
 <2><2333>: Abbrev Number: 10 (DW_TAG_member)
    <2334>   DW_AT_name        : (indirect string, offset: 0x1cda): next
    <2338>   DW_AT_decl_file   : 2
    <2339>   DW_AT_decl_line   : 224
    <233a>   DW_AT_decl_column : 20
    <233b>   DW_AT_type        : <0x234c>
    <233f>   DW_AT_data_member_location: 64
 <2><2340>: Abbrev Number: 0
 <1><2341>: Abbrev Number: 4 (DW_TAG_const_type)
    <2342>   DW_AT_type        : <0x2256>
 <1><2346>: Abbrev Number: 3 (DW_TAG_pointer_type)
    <2347>   DW_AT_byte_size   : 8
    <2348>   DW_AT_type        : <0x107a>
 <1><234c>: Abbrev Number: 3 (DW_TAG_pointer_type)
    <234d>   DW_AT_byte_size   : 8
    <234e>   DW_AT_type        : <0x2256>
 <1><2352>: Abbrev Number: 9 (DW_TAG_structure_type)
    <2353>   DW_AT_name        : (indirect string, offset: 0x31d5): month
    <2357>   DW_AT_byte_size   : 16
    <2358>   DW_AT_decl_file   : 2
    <2359>   DW_AT_decl_line   : 227
    <235a>   DW_AT_decl_column : 8
    <235b>   DW_AT_sibling     : <0x237a>
 <2><235f>: Abbrev Number: 10 (DW_TAG_member)
    <2360>   DW_AT_name        : (indirect string, offset: 0x5c3d): name
    <2364>   DW_AT_decl_file   : 2
    <2365>   DW_AT_decl_line   : 229
    <2366>   DW_AT_decl_column : 15
    <2367>   DW_AT_type        : <0xb9>
    <236b>   DW_AT_data_member_location: 0
 <2><236c>: Abbrev Number: 11 (DW_TAG_member)
    <236d>   DW_AT_name        : val
    <2371>   DW_AT_decl_file   : 2
    <2372>   DW_AT_decl_line   : 230
    <2373>   DW_AT_decl_column : 7
    <2374>   DW_AT_type        : <0x61>
    <2378>   DW_AT_data_member_location: 8
 <2><2379>: Abbrev Number: 0
 <1><237a>: Abbrev Number: 4 (DW_TAG_const_type)
    <237b>   DW_AT_type        : <0x2352>
 <1><237f>: Abbrev Number: 9 (DW_TAG_structure_type)
    <2380>   DW_AT_name        : (indirect string, offset: 0x45f): merge_node
    <2384>   DW_AT_byte_size   : 128
    <2385>   DW_AT_decl_file   : 2
    <2386>   DW_AT_decl_line   : 234
    <2387>   DW_AT_decl_column : 8
    <2388>   DW_AT_sibling     : <0x2434>
 <2><238c>: Abbrev Number: 11 (DW_TAG_member)
    <238d>   DW_AT_name        : lo
    <2390>   DW_AT_decl_file   : 2
    <2391>   DW_AT_decl_line   : 236
    <2392>   DW_AT_decl_column : 16
    <2393>   DW_AT_type        : <0x2439>
    <2397>   DW_AT_data_member_location: 0
 <2><2398>: Abbrev Number: 11 (DW_TAG_member)
    <2399>   DW_AT_name        : hi
    <239c>   DW_AT_decl_file   : 2
    <239d>   DW_AT_decl_line   : 237
    <239e>   DW_AT_decl_column : 16
    <239f>   DW_AT_type        : <0x2439>
    <23a3>   DW_AT_data_member_location: 8
 <2><23a4>: Abbrev Number: 10 (DW_TAG_member)
    <23a5>   DW_AT_name        : (indirect string, offset: 0x16b6): end_lo
    <23a9>   DW_AT_decl_file   : 2
    <23aa>   DW_AT_decl_line   : 238
    <23ab>   DW_AT_decl_column : 16
    <23ac>   DW_AT_type        : <0x2439>
    <23b0>   DW_AT_data_member_location: 16
 <2><23b1>: Abbrev Number: 10 (DW_TAG_member)
    <23b2>   DW_AT_name        : (indirect string, offset: 0x1336): end_hi
    <23b6>   DW_AT_decl_file   : 2
    <23b7>   DW_AT_decl_line   : 239
    <23b8>   DW_AT_decl_column : 16
    <23b9>   DW_AT_type        : <0x2439>
    <23bd>   DW_AT_data_member_location: 24
 <2><23be>: Abbrev Number: 10 (DW_TAG_member)
    <23bf>   DW_AT_name        : (indirect string, offset: 0x9ff): dest
    <23c3>   DW_AT_decl_file   : 2
    <23c4>   DW_AT_decl_line   : 240
    <23c5>   DW_AT_decl_column : 17
    <23c6>   DW_AT_type        : <0x2444>
    <23ca>   DW_AT_data_member_location: 32
 <2><23cb>: Abbrev Number: 11 (DW_TAG_member)
    <23cc>   DW_AT_name        : nlo
    <23d0>   DW_AT_decl_file   : 2
    <23d1>   DW_AT_decl_line   : 241
    <23d2>   DW_AT_decl_column : 10
    <23d3>   DW_AT_type        : <0x1f4>
    <23d7>   DW_AT_data_member_location: 40
 <2><23d8>: Abbrev Number: 11 (DW_TAG_member)
    <23d9>   DW_AT_name        : nhi
    <23dd>   DW_AT_decl_file   : 2
    <23de>   DW_AT_decl_line   : 242
    <23df>   DW_AT_decl_column : 10
    <23e0>   DW_AT_type        : <0x1f4>
    <23e4>   DW_AT_data_member_location: 48
 <2><23e5>: Abbrev Number: 10 (DW_TAG_member)
    <23e6>   DW_AT_name        : (indirect string, offset: 0x3428): parent
    <23ea>   DW_AT_decl_file   : 2
    <23eb>   DW_AT_decl_line   : 243
    <23ec>   DW_AT_decl_column : 22
    <23ed>   DW_AT_type        : <0x244a>
    <23f1>   DW_AT_data_member_location: 56
 <2><23f2>: Abbrev Number: 10 (DW_TAG_member)
    <23f3>   DW_AT_name        : (indirect string, offset: 0x1f53): lo_child
    <23f7>   DW_AT_decl_file   : 2
    <23f8>   DW_AT_decl_line   : 244
    <23f9>   DW_AT_decl_column : 22
    <23fa>   DW_AT_type        : <0x244a>
    <23fe>   DW_AT_data_member_location: 64
 <2><23ff>: Abbrev Number: 10 (DW_TAG_member)
    <2400>   DW_AT_name        : (indirect string, offset: 0x10ec): hi_child
    <2404>   DW_AT_decl_file   : 2
    <2405>   DW_AT_decl_line   : 245
    <2406>   DW_AT_decl_column : 22
    <2407>   DW_AT_type        : <0x244a>
    <240b>   DW_AT_data_member_location: 72
 <2><240c>: Abbrev Number: 10 (DW_TAG_member)
    <240d>   DW_AT_name        : (indirect string, offset: 0x1c48): level
    <2411>   DW_AT_decl_file   : 2
    <2412>   DW_AT_decl_line   : 246
    <2413>   DW_AT_decl_column : 16
    <2414>   DW_AT_type        : <0xe2>
    <2418>   DW_AT_data_member_location: 80
 <2><2419>: Abbrev Number: 10 (DW_TAG_member)
    <241a>   DW_AT_name        : (indirect string, offset: 0x25f2): queued
    <241e>   DW_AT_decl_file   : 2
    <241f>   DW_AT_decl_line   : 247
    <2420>   DW_AT_decl_column : 8
    <2421>   DW_AT_type        : <0x1073>
    <2425>   DW_AT_data_member_location: 84
 <2><2426>: Abbrev Number: 10 (DW_TAG_member)
    <2427>   DW_AT_name        : (indirect string, offset: 0x9f5): lock
    <242b>   DW_AT_decl_file   : 2
    <242c>   DW_AT_decl_line   : 248
    <242d>   DW_AT_decl_column : 19
    <242e>   DW_AT_type        : <0x55b>
    <2432>   DW_AT_data_member_location: 88
 <2><2433>: Abbrev Number: 0
 <1><2434>: Abbrev Number: 4 (DW_TAG_const_type)
    <2435>   DW_AT_type        : <0x237f>
 <1><2439>: Abbrev Number: 3 (DW_TAG_pointer_type)
    <243a>   DW_AT_byte_size   : 8
    <243b>   DW_AT_type        : <0x21a1>
 <1><243f>: Abbrev Number: 5 (DW_TAG_restrict_type)
    <2440>   DW_AT_type        : <0x2439>
 <1><2444>: Abbrev Number: 3 (DW_TAG_pointer_type)
    <2445>   DW_AT_byte_size   : 8
    <2446>   DW_AT_type        : <0x2439>
 <1><244a>: Abbrev Number: 3 (DW_TAG_pointer_type)
    <244b>   DW_AT_byte_size   : 8
    <244c>   DW_AT_type        : <0x237f>
 <1><2450>: Abbrev Number: 4 (DW_TAG_const_type)
    <2451>   DW_AT_type        : <0x244a>
 <1><2455>: Abbrev Number: 5 (DW_TAG_restrict_type)
    <2456>   DW_AT_type        : <0x244a>
 <1><245a>: Abbrev Number: 9 (DW_TAG_structure_type)
    <245b>   DW_AT_name        : (indirect string, offset: 0x30e7): merge_node_queue
    <245f>   DW_AT_byte_size   : 96
    <2460>   DW_AT_decl_file   : 2
    <2461>   DW_AT_decl_line   : 252
    <2462>   DW_AT_decl_column : 8
    <2463>   DW_AT_sibling     : <0x2490>
 <2><2467>: Abbrev Number: 10 (DW_TAG_member)
    <2468>   DW_AT_name        : (indirect string, offset: 0x278d): priority_queue
    <246c>   DW_AT_decl_file   : 2
    <246d>   DW_AT_decl_line   : 254
    <246e>   DW_AT_decl_column : 16
    <246f>   DW_AT_type        : <0x2495>
    <2473>   DW_AT_data_member_location: 0
 <2><2474>: Abbrev Number: 10 (DW_TAG_member)
    <2475>   DW_AT_name        : (indirect string, offset: 0x141d): mutex
    <2479>   DW_AT_decl_file   : 2
    <247a>   DW_AT_decl_line   : 255
    <247b>   DW_AT_decl_column : 19
    <247c>   DW_AT_type        : <0x55b>
    <2480>   DW_AT_data_member_location: 8
 <2><2481>: Abbrev Number: 42 (DW_TAG_member)
    <2482>   DW_AT_name        : (indirect string, offset: 0x20a1): cond
    <2486>   DW_AT_decl_file   : 2
    <2487>   DW_AT_decl_line   : 256
    <2489>   DW_AT_decl_column : 18
    <248a>   DW_AT_type        : <0x5ac>
    <248e>   DW_AT_data_member_location: 48
 <2><248f>: Abbrev Number: 0
 <1><2490>: Abbrev Number: 34 (DW_TAG_structure_type)
    <2491>   DW_AT_name        : (indirect string, offset: 0x1013): heap
    <2495>   DW_AT_declaration : 1
 <1><2495>: Abbrev Number: 3 (DW_TAG_pointer_type)
    <2496>   DW_AT_byte_size   : 8
    <2497>   DW_AT_type        : <0x2490>
 <1><249b>: Abbrev Number: 43 (DW_TAG_variable)
    <249c>   DW_AT_name        : (indirect string, offset: 0x569): saved_line
    <24a0>   DW_AT_decl_file   : 2
    <24a1>   DW_AT_decl_line   : 261
    <24a3>   DW_AT_decl_column : 20
    <24a4>   DW_AT_type        : <0x21a1>
    <24a8>   DW_AT_location    : 9 byte block: 3 20 52 2 0 0 0 0 0 	(DW_OP_addr: 25220)
 <1><24b2>: Abbrev Number: 13 (DW_TAG_array_type)
    <24b3>   DW_AT_type        : <0x1073>
    <24b7>   DW_AT_sibling     : <0x24c2>
 <2><24bb>: Abbrev Number: 14 (DW_TAG_subrange_type)
    <24bc>   DW_AT_type        : <0xe9>
    <24c0>   DW_AT_upper_bound : 255
 <2><24c1>: Abbrev Number: 0
 <1><24c2>: Abbrev Number: 43 (DW_TAG_variable)
    <24c3>   DW_AT_name        : (indirect string, offset: 0x3508): blanks
    <24c7>   DW_AT_decl_file   : 2
    <24c8>   DW_AT_decl_line   : 270
    <24ca>   DW_AT_decl_column : 13
    <24cb>   DW_AT_type        : <0x24b2>
    <24cf>   DW_AT_location    : 9 byte block: 3 40 52 2 0 0 0 0 0 	(DW_OP_addr: 25240)
 <1><24d9>: Abbrev Number: 43 (DW_TAG_variable)
    <24da>   DW_AT_name        : (indirect string, offset: 0x1f80): nonprinting
    <24de>   DW_AT_decl_file   : 2
    <24df>   DW_AT_decl_line   : 273
    <24e1>   DW_AT_decl_column : 13
    <24e2>   DW_AT_type        : <0x24b2>
    <24e6>   DW_AT_location    : 9 byte block: 3 40 53 2 0 0 0 0 0 	(DW_OP_addr: 25340)
 <1><24f0>: Abbrev Number: 43 (DW_TAG_variable)
    <24f1>   DW_AT_name        : (indirect string, offset: 0x370): nondictionary
    <24f5>   DW_AT_decl_file   : 2
    <24f6>   DW_AT_decl_line   : 276
    <24f8>   DW_AT_decl_column : 13
    <24f9>   DW_AT_type        : <0x24b2>
    <24fd>   DW_AT_location    : 9 byte block: 3 40 54 2 0 0 0 0 0 	(DW_OP_addr: 25440)
 <1><2507>: Abbrev Number: 43 (DW_TAG_variable)
    <2508>   DW_AT_name        : (indirect string, offset: 0x38bc): fold_toupper
    <250c>   DW_AT_decl_file   : 2
    <250d>   DW_AT_decl_line   : 279
    <250f>   DW_AT_decl_column : 13
    <2510>   DW_AT_type        : <0xb2c>
    <2514>   DW_AT_location    : 9 byte block: 3 40 55 2 0 0 0 0 0 	(DW_OP_addr: 25540)
 <1><251e>: Abbrev Number: 13 (DW_TAG_array_type)
    <251f>   DW_AT_type        : <0x2352>
    <2523>   DW_AT_sibling     : <0x252e>
 <2><2527>: Abbrev Number: 14 (DW_TAG_subrange_type)
    <2528>   DW_AT_type        : <0xe9>
    <252c>   DW_AT_upper_bound : 11
 <2><252d>: Abbrev Number: 0
 <1><252e>: Abbrev Number: 43 (DW_TAG_variable)
    <252f>   DW_AT_name        : (indirect string, offset: 0x106d): monthtab
    <2533>   DW_AT_decl_file   : 2
    <2534>   DW_AT_decl_line   : 285
    <2536>   DW_AT_decl_column : 21
    <2537>   DW_AT_type        : <0x251e>
    <253b>   DW_AT_location    : 9 byte block: 3 40 50 2 0 0 0 0 0 	(DW_OP_addr: 25040)
 <1><2545>: Abbrev Number: 43 (DW_TAG_variable)
    <2546>   DW_AT_name        : (indirect string, offset: 0x286d): merge_buffer_size
    <254a>   DW_AT_decl_file   : 2
    <254b>   DW_AT_decl_line   : 313
    <254d>   DW_AT_decl_column : 15
    <254e>   DW_AT_type        : <0x1f4>
    <2552>   DW_AT_location    : 9 byte block: 3 18 50 2 0 0 0 0 0 	(DW_OP_addr: 25018)
 <1><255c>: Abbrev Number: 43 (DW_TAG_variable)
    <255d>   DW_AT_name        : (indirect string, offset: 0xa0c): sort_size
    <2561>   DW_AT_decl_file   : 2
    <2562>   DW_AT_decl_line   : 317
    <2564>   DW_AT_decl_column : 15
    <2565>   DW_AT_type        : <0x1f4>
    <2569>   DW_AT_location    : 9 byte block: 3 40 56 2 0 0 0 0 0 	(DW_OP_addr: 25640)
 <1><2573>: Abbrev Number: 43 (DW_TAG_variable)
    <2574>   DW_AT_name        : (indirect string, offset: 0x3644): temp_dirs
    <2578>   DW_AT_decl_file   : 2
    <2579>   DW_AT_decl_line   : 327
    <257b>   DW_AT_decl_column : 21
    <257c>   DW_AT_type        : <0x258a>
    <2580>   DW_AT_location    : 9 byte block: 3 48 56 2 0 0 0 0 0 	(DW_OP_addr: 25648)
 <1><258a>: Abbrev Number: 3 (DW_TAG_pointer_type)
    <258b>   DW_AT_byte_size   : 8
    <258c>   DW_AT_type        : <0xb9>
 <1><2590>: Abbrev Number: 43 (DW_TAG_variable)
    <2591>   DW_AT_name        : (indirect string, offset: 0x1e89): temp_dir_count
    <2595>   DW_AT_decl_file   : 2
    <2596>   DW_AT_decl_line   : 330
    <2598>   DW_AT_decl_column : 15
    <2599>   DW_AT_type        : <0x1f4>
    <259d>   DW_AT_location    : 9 byte block: 3 50 56 2 0 0 0 0 0 	(DW_OP_addr: 25650)
 <1><25a7>: Abbrev Number: 43 (DW_TAG_variable)
    <25a8>   DW_AT_name        : (indirect string, offset: 0x223f): temp_dir_alloc
    <25ac>   DW_AT_decl_file   : 2
    <25ad>   DW_AT_decl_line   : 333
    <25af>   DW_AT_decl_column : 15
    <25b0>   DW_AT_type        : <0x1f4>
    <25b4>   DW_AT_location    : 9 byte block: 3 58 56 2 0 0 0 0 0 	(DW_OP_addr: 25658)
 <1><25be>: Abbrev Number: 43 (DW_TAG_variable)
    <25bf>   DW_AT_name        : (indirect string, offset: 0x2c25): reverse
    <25c3>   DW_AT_decl_file   : 2
    <25c4>   DW_AT_decl_line   : 336
    <25c6>   DW_AT_decl_column : 13
    <25c7>   DW_AT_type        : <0x1073>
    <25cb>   DW_AT_location    : 9 byte block: 3 60 56 2 0 0 0 0 0 	(DW_OP_addr: 25660)
 <1><25d5>: Abbrev Number: 43 (DW_TAG_variable)
    <25d6>   DW_AT_name        : (indirect string, offset: 0x265b): stable
    <25da>   DW_AT_decl_file   : 2
    <25db>   DW_AT_decl_line   : 341
    <25dd>   DW_AT_decl_column : 13
    <25de>   DW_AT_type        : <0x1073>
    <25e2>   DW_AT_location    : 9 byte block: 3 61 56 2 0 0 0 0 0 	(DW_OP_addr: 25661)
 <1><25ec>: Abbrev Number: 35 (DW_TAG_enumeration_type)
    <25ed>   DW_AT_encoding    : 7	(unsigned)
    <25ee>   DW_AT_byte_size   : 4
    <25ef>   DW_AT_type        : <0xe2>
    <25f3>   DW_AT_decl_file   : 2
    <25f4>   DW_AT_decl_line   : 344
    <25f6>   DW_AT_decl_column : 6
    <25f7>   DW_AT_sibling     : <0x2602>
 <2><25fb>: Abbrev Number: 27 (DW_TAG_enumerator)
    <25fc>   DW_AT_name        : (indirect string, offset: 0x1f5): NON_CHAR
    <2600>   DW_AT_const_value : 128
 <2><2601>: Abbrev Number: 0
 <1><2602>: Abbrev Number: 35 (DW_TAG_enumeration_type)
    <2603>   DW_AT_encoding    : 7	(unsigned)
    <2604>   DW_AT_byte_size   : 4
    <2605>   DW_AT_type        : <0xe2>
    <2609>   DW_AT_decl_file   : 2
    <260a>   DW_AT_decl_line   : 347
    <260c>   DW_AT_decl_column : 6
    <260d>   DW_AT_sibling     : <0x2618>
 <2><2611>: Abbrev Number: 27 (DW_TAG_enumerator)
    <2612>   DW_AT_name        : (indirect string, offset: 0x2469): TAB_DEFAULT
    <2616>   DW_AT_const_value : 128
 <2><2617>: Abbrev Number: 0
 <1><2618>: Abbrev Number: 44 (DW_TAG_variable)
    <2619>   DW_AT_name        : tab
    <261d>   DW_AT_decl_file   : 2
    <261e>   DW_AT_decl_line   : 352
    <2620>   DW_AT_decl_column : 12
    <2621>   DW_AT_type        : <0x61>
    <2625>   DW_AT_location    : 9 byte block: 3 20 50 2 0 0 0 0 0 	(DW_OP_addr: 25020)
 <1><262f>: Abbrev Number: 43 (DW_TAG_variable)
    <2630>   DW_AT_name        : (indirect string, offset: 0x344f): unique
    <2634>   DW_AT_decl_file   : 2
    <2635>   DW_AT_decl_line   : 356
    <2637>   DW_AT_decl_column : 13
    <2638>   DW_AT_type        : <0x1073>
    <263c>   DW_AT_location    : 9 byte block: 3 62 56 2 0 0 0 0 0 	(DW_OP_addr: 25662)
 <1><2646>: Abbrev Number: 43 (DW_TAG_variable)
    <2647>   DW_AT_name        : (indirect string, offset: 0x20b4): have_read_stdin
    <264b>   DW_AT_decl_file   : 2
    <264c>   DW_AT_decl_line   : 359
    <264e>   DW_AT_decl_column : 13
    <264f>   DW_AT_type        : <0x1073>
    <2653>   DW_AT_location    : 9 byte block: 3 63 56 2 0 0 0 0 0 	(DW_OP_addr: 25663)
 <1><265d>: Abbrev Number: 43 (DW_TAG_variable)
    <265e>   DW_AT_name        : (indirect string, offset: 0x43b): keylist
    <2662>   DW_AT_decl_file   : 2
    <2663>   DW_AT_decl_line   : 362
    <2665>   DW_AT_decl_column : 25
    <2666>   DW_AT_type        : <0x234c>
    <266a>   DW_AT_location    : 9 byte block: 3 68 56 2 0 0 0 0 0 	(DW_OP_addr: 25668)
 <1><2674>: Abbrev Number: 43 (DW_TAG_variable)
    <2675>   DW_AT_name        : (indirect string, offset: 0x2ac1): compress_program
    <2679>   DW_AT_decl_file   : 2
    <267a>   DW_AT_decl_line   : 365
    <267c>   DW_AT_decl_column : 20
    <267d>   DW_AT_type        : <0xb9>
    <2681>   DW_AT_location    : 9 byte block: 3 70 56 2 0 0 0 0 0 	(DW_OP_addr: 25670)
 <1><268b>: Abbrev Number: 43 (DW_TAG_variable)
    <268c>   DW_AT_name        : (indirect string, offset: 0x12a2): debug
    <2690>   DW_AT_decl_file   : 2
    <2691>   DW_AT_decl_line   : 368
    <2693>   DW_AT_decl_column : 13
    <2694>   DW_AT_type        : <0x1073>
    <2698>   DW_AT_location    : 9 byte block: 3 78 56 2 0 0 0 0 0 	(DW_OP_addr: 25678)
 <1><26a2>: Abbrev Number: 43 (DW_TAG_variable)
    <26a3>   DW_AT_name        : (indirect string, offset: 0x3e2): nmerge
    <26a7>   DW_AT_decl_file   : 2
    <26a8>   DW_AT_decl_line   : 372
    <26aa>   DW_AT_decl_column : 21
    <26ab>   DW_AT_type        : <0xe2>
    <26af>   DW_AT_location    : 9 byte block: 3 24 50 2 0 0 0 0 0 	(DW_OP_addr: 25024)
 <1><26b9>: Abbrev Number: 35 (DW_TAG_enumeration_type)
    <26ba>   DW_AT_encoding    : 7	(unsigned)
    <26bb>   DW_AT_byte_size   : 4
    <26bc>   DW_AT_type        : <0xe2>
    <26c0>   DW_AT_decl_file   : 2
    <26c1>   DW_AT_decl_line   : 538
    <26c3>   DW_AT_decl_column : 1
    <26c4>   DW_AT_sibling     : <0x26f9>
 <2><26c8>: Abbrev Number: 27 (DW_TAG_enumerator)
    <26c9>   DW_AT_name        : (indirect string, offset: 0x301f): CHECK_OPTION
    <26cd>   DW_AT_const_value : 128
 <2><26ce>: Abbrev Number: 27 (DW_TAG_enumerator)
    <26cf>   DW_AT_name        : (indirect string, offset: 0x3811): COMPRESS_PROGRAM_OPTION
    <26d3>   DW_AT_const_value : 129
 <2><26d4>: Abbrev Number: 27 (DW_TAG_enumerator)
    <26d5>   DW_AT_name        : (indirect string, offset: 0xcf9): DEBUG_PROGRAM_OPTION
    <26d9>   DW_AT_const_value : 130
 <2><26da>: Abbrev Number: 27 (DW_TAG_enumerator)
    <26db>   DW_AT_name        : (indirect string, offset: 0x2711): FILES0_FROM_OPTION
    <26df>   DW_AT_const_value : 131
 <2><26e0>: Abbrev Number: 27 (DW_TAG_enumerator)
    <26e1>   DW_AT_name        : (indirect string, offset: 0x197d): NMERGE_OPTION
    <26e5>   DW_AT_const_value : 132
 <2><26e6>: Abbrev Number: 27 (DW_TAG_enumerator)
    <26e7>   DW_AT_name        : (indirect string, offset: 0x2b7a): RANDOM_SOURCE_OPTION
    <26eb>   DW_AT_const_value : 133
 <2><26ec>: Abbrev Number: 27 (DW_TAG_enumerator)
    <26ed>   DW_AT_name        : (indirect string, offset: 0xa5b): SORT_OPTION
    <26f1>   DW_AT_const_value : 134
 <2><26f2>: Abbrev Number: 27 (DW_TAG_enumerator)
    <26f3>   DW_AT_name        : (indirect string, offset: 0x14e5): PARALLEL_OPTION
    <26f7>   DW_AT_const_value : 135
 <2><26f8>: Abbrev Number: 0
 <1><26f9>: Abbrev Number: 13 (DW_TAG_array_type)
    <26fa>   DW_AT_type        : <0x50>
    <26fe>   DW_AT_sibling     : <0x2709>
 <2><2702>: Abbrev Number: 14 (DW_TAG_subrange_type)
    <2703>   DW_AT_type        : <0xe9>
    <2707>   DW_AT_upper_bound : 30
 <2><2708>: Abbrev Number: 0
 <1><2709>: Abbrev Number: 4 (DW_TAG_const_type)
    <270a>   DW_AT_type        : <0x26f9>
 <1><270e>: Abbrev Number: 43 (DW_TAG_variable)
    <270f>   DW_AT_name        : (indirect string, offset: 0x1c3a): short_options
    <2713>   DW_AT_decl_file   : 2
    <2714>   DW_AT_decl_line   : 549
    <2716>   DW_AT_decl_column : 19
    <2717>   DW_AT_type        : <0x2709>
    <271b>   DW_AT_location    : 9 byte block: 3 90 e1 1 0 0 0 0 0 	(DW_OP_addr: 1e190)
 <1><2725>: Abbrev Number: 13 (DW_TAG_array_type)
    <2726>   DW_AT_type        : <0xb4>
    <272a>   DW_AT_sibling     : <0x2735>
 <2><272e>: Abbrev Number: 14 (DW_TAG_subrange_type)
    <272f>   DW_AT_type        : <0xe9>
    <2733>   DW_AT_upper_bound : 30
 <2><2734>: Abbrev Number: 0
 <1><2735>: Abbrev Number: 4 (DW_TAG_const_type)
    <2736>   DW_AT_type        : <0x2725>
 <1><273a>: Abbrev Number: 43 (DW_TAG_variable)
    <273b>   DW_AT_name        : (indirect string, offset: 0x3093): long_options
    <273f>   DW_AT_decl_file   : 2
    <2740>   DW_AT_decl_line   : 551
    <2742>   DW_AT_decl_column : 28
    <2743>   DW_AT_type        : <0x2735>
    <2747>   DW_AT_location    : 9 byte block: 3 60 45 2 0 0 0 0 0 	(DW_OP_addr: 24560)
 <1><2751>: Abbrev Number: 13 (DW_TAG_array_type)
    <2752>   DW_AT_type        : <0xbf>
    <2756>   DW_AT_sibling     : <0x2761>
 <2><275a>: Abbrev Number: 14 (DW_TAG_subrange_type)
    <275b>   DW_AT_type        : <0xe9>
    <275f>   DW_AT_upper_bound : 3
 <2><2760>: Abbrev Number: 0
 <1><2761>: Abbrev Number: 4 (DW_TAG_const_type)
    <2762>   DW_AT_type        : <0x2751>
 <1><2766>: Abbrev Number: 43 (DW_TAG_variable)
    <2767>   DW_AT_name        : (indirect string, offset: 0x6fe): check_args
    <276b>   DW_AT_decl_file   : 2
    <276c>   DW_AT_decl_line   : 591
    <276e>   DW_AT_decl_column : 26
    <276f>   DW_AT_type        : <0x2761>
    <2773>   DW_AT_location    : 9 byte block: 3 40 49 2 0 0 0 0 0 	(DW_OP_addr: 24940)
 <1><277d>: Abbrev Number: 13 (DW_TAG_array_type)
    <277e>   DW_AT_type        : <0x50>
    <2782>   DW_AT_sibling     : <0x278d>
 <2><2786>: Abbrev Number: 14 (DW_TAG_subrange_type)
    <2787>   DW_AT_type        : <0xe9>
    <278b>   DW_AT_upper_bound : 2
 <2><278c>: Abbrev Number: 0
 <1><278d>: Abbrev Number: 4 (DW_TAG_const_type)
    <278e>   DW_AT_type        : <0x277d>
 <1><2792>: Abbrev Number: 43 (DW_TAG_variable)
    <2793>   DW_AT_name        : (indirect string, offset: 0x54c): check_types
    <2797>   DW_AT_decl_file   : 2
    <2798>   DW_AT_decl_line   : 597
    <279a>   DW_AT_decl_column : 19
    <279b>   DW_AT_type        : <0x278d>
    <279f>   DW_AT_location    : 9 byte block: 3 29 e3 1 0 0 0 0 0 	(DW_OP_addr: 1e329)
 <1><27a9>: Abbrev Number: 13 (DW_TAG_array_type)
    <27aa>   DW_AT_type        : <0xbf>
    <27ae>   DW_AT_sibling     : <0x27b9>
 <2><27b2>: Abbrev Number: 14 (DW_TAG_subrange_type)
    <27b3>   DW_AT_type        : <0xe9>
    <27b7>   DW_AT_upper_bound : 6
 <2><27b8>: Abbrev Number: 0
 <1><27b9>: Abbrev Number: 4 (DW_TAG_const_type)
    <27ba>   DW_AT_type        : <0x27a9>
 <1><27be>: Abbrev Number: 43 (DW_TAG_variable)
    <27bf>   DW_AT_name        : (indirect string, offset: 0x28f4): sort_args
    <27c3>   DW_AT_decl_file   : 2
    <27c4>   DW_AT_decl_line   : 612
    <27c6>   DW_AT_decl_column : 26
    <27c7>   DW_AT_type        : <0x27b9>
    <27cb>   DW_AT_location    : 9 byte block: 3 60 49 2 0 0 0 0 0 	(DW_OP_addr: 24960)
 <1><27d5>: Abbrev Number: 13 (DW_TAG_array_type)
    <27d6>   DW_AT_type        : <0x50>
    <27da>   DW_AT_sibling     : <0x27e5>
 <2><27de>: Abbrev Number: 14 (DW_TAG_subrange_type)
    <27df>   DW_AT_type        : <0xe9>
    <27e3>   DW_AT_upper_bound : 5
 <2><27e4>: Abbrev Number: 0
 <1><27e5>: Abbrev Number: 4 (DW_TAG_const_type)
    <27e6>   DW_AT_type        : <0x27d5>
 <1><27ea>: Abbrev Number: 43 (DW_TAG_variable)
    <27eb>   DW_AT_name        : (indirect string, offset: 0x920): sort_types
    <27ef>   DW_AT_decl_file   : 2
    <27f0>   DW_AT_decl_line   : 618
    <27f2>   DW_AT_decl_column : 19
    <27f3>   DW_AT_type        : <0x27e5>
    <27f7>   DW_AT_location    : 9 byte block: 3 5f e3 1 0 0 0 0 0 	(DW_OP_addr: 1e35f)
 <1><2801>: Abbrev Number: 43 (DW_TAG_variable)
    <2802>   DW_AT_name        : (indirect string, offset: 0x17a7): caught_signals
    <2806>   DW_AT_decl_file   : 2
    <2807>   DW_AT_decl_line   : 626
    <2809>   DW_AT_decl_column : 17
    <280a>   DW_AT_type        : <0x295>
    <280e>   DW_AT_location    : 9 byte block: 3 80 56 2 0 0 0 0 0 	(DW_OP_addr: 25680)
 <1><2818>: Abbrev Number: 45 (DW_TAG_structure_type)
    <2819>   DW_AT_name        : (indirect string, offset: 0x110e): cs_status
    <281d>   DW_AT_byte_size   : 136
    <281e>   DW_AT_decl_file   : 2
    <281f>   DW_AT_decl_line   : 629
    <2821>   DW_AT_decl_column : 8
    <2822>   DW_AT_sibling     : <0x2843>
 <2><2826>: Abbrev Number: 42 (DW_TAG_member)
    <2827>   DW_AT_name        : (indirect string, offset: 0x3c79): valid
    <282b>   DW_AT_decl_file   : 2
    <282c>   DW_AT_decl_line   : 631
    <282e>   DW_AT_decl_column : 8
    <282f>   DW_AT_type        : <0x1073>
    <2833>   DW_AT_data_member_location: 0
 <2><2834>: Abbrev Number: 42 (DW_TAG_member)
    <2835>   DW_AT_name        : (indirect string, offset: 0x8a2): sigs
    <2839>   DW_AT_decl_file   : 2
    <283a>   DW_AT_decl_line   : 632
    <283c>   DW_AT_decl_column : 12
    <283d>   DW_AT_type        : <0x295>
    <2841>   DW_AT_data_member_location: 8
 <2><2842>: Abbrev Number: 0
 <1><2843>: Abbrev Number: 4 (DW_TAG_const_type)
    <2844>   DW_AT_type        : <0x2818>
 <1><2848>: Abbrev Number: 35 (DW_TAG_enumeration_type)
    <2849>   DW_AT_encoding    : 7	(unsigned)
    <284a>   DW_AT_byte_size   : 4
    <284b>   DW_AT_type        : <0xe2>
    <284f>   DW_AT_decl_file   : 2
    <2850>   DW_AT_decl_line   : 657
    <2852>   DW_AT_decl_column : 6
    <2853>   DW_AT_sibling     : <0x286a>
 <2><2857>: Abbrev Number: 27 (DW_TAG_enumerator)
    <2858>   DW_AT_name        : (indirect string, offset: 0x709): UNCOMPRESSED
    <285c>   DW_AT_const_value : 0
 <2><285d>: Abbrev Number: 27 (DW_TAG_enumerator)
    <285e>   DW_AT_name        : (indirect string, offset: 0x1d5b): UNREAPED
    <2862>   DW_AT_const_value : 1
 <2><2863>: Abbrev Number: 27 (DW_TAG_enumerator)
    <2864>   DW_AT_name        : (indirect string, offset: 0x1d5d): REAPED
    <2868>   DW_AT_const_value : 2
 <2><2869>: Abbrev Number: 0
 <1><286a>: Abbrev Number: 45 (DW_TAG_structure_type)
    <286b>   DW_AT_name        : (indirect string, offset: 0x1e5d): tempnode
    <286f>   DW_AT_byte_size   : 16
    <2870>   DW_AT_decl_file   : 2
    <2871>   DW_AT_decl_line   : 660
    <2873>   DW_AT_decl_column : 8
    <2874>   DW_AT_sibling     : <0x28b1>
 <2><2878>: Abbrev Number: 42 (DW_TAG_member)
    <2879>   DW_AT_name        : (indirect string, offset: 0x1cda): next
    <287d>   DW_AT_decl_file   : 2
    <287e>   DW_AT_decl_line   : 662
    <2880>   DW_AT_decl_column : 29
    <2881>   DW_AT_type        : <0x28bc>
    <2885>   DW_AT_data_member_location: 0
 <2><2886>: Abbrev Number: 46 (DW_TAG_member)
    <2887>   DW_AT_name        : pid
    <288b>   DW_AT_decl_file   : 2
    <288c>   DW_AT_decl_line   : 663
    <288e>   DW_AT_decl_column : 9
    <288f>   DW_AT_type        : <0x239>
    <2893>   DW_AT_data_member_location: 8
 <2><2894>: Abbrev Number: 42 (DW_TAG_member)
    <2895>   DW_AT_name        : (indirect string, offset: 0xfc2): state
    <2899>   DW_AT_decl_file   : 2
    <289a>   DW_AT_decl_line   : 664
    <289c>   DW_AT_decl_column : 8
    <289d>   DW_AT_type        : <0x49>
    <28a1>   DW_AT_data_member_location: 12
 <2><28a2>: Abbrev Number: 42 (DW_TAG_member)
    <28a3>   DW_AT_name        : (indirect string, offset: 0x5c3d): name
    <28a7>   DW_AT_decl_file   : 2
    <28a8>   DW_AT_decl_line   : 665
    <28aa>   DW_AT_decl_column : 8
    <28ab>   DW_AT_type        : <0x11da>
    <28af>   DW_AT_data_member_location: 13
 <2><28b0>: Abbrev Number: 0
 <1><28b1>: Abbrev Number: 4 (DW_TAG_const_type)
    <28b2>   DW_AT_type        : <0x286a>
 <1><28b6>: Abbrev Number: 3 (DW_TAG_pointer_type)
    <28b7>   DW_AT_byte_size   : 8
    <28b8>   DW_AT_type        : <0x286a>
 <1><28bc>: Abbrev Number: 8 (DW_TAG_volatile_type)
    <28bd>   DW_AT_type        : <0x28b6>
 <1><28c1>: Abbrev Number: 43 (DW_TAG_variable)
    <28c2>   DW_AT_name        : (indirect string, offset: 0x17bc): temphead
    <28c6>   DW_AT_decl_file   : 2
    <28c7>   DW_AT_decl_line   : 667
    <28c9>   DW_AT_decl_column : 34
    <28ca>   DW_AT_type        : <0x28bc>
    <28ce>   DW_AT_location    : 9 byte block: 3 0 57 2 0 0 0 0 0 	(DW_OP_addr: 25700)
 <1><28d8>: Abbrev Number: 43 (DW_TAG_variable)
    <28d9>   DW_AT_name        : (indirect string, offset: 0x8af): temptail
    <28dd>   DW_AT_decl_file   : 2
    <28de>   DW_AT_decl_line   : 668
    <28e0>   DW_AT_decl_column : 35
    <28e1>   DW_AT_type        : <0x28ef>
    <28e5>   DW_AT_location    : 9 byte block: 3 0 51 2 0 0 0 0 0 	(DW_OP_addr: 25100)
 <1><28ef>: Abbrev Number: 3 (DW_TAG_pointer_type)
    <28f0>   DW_AT_byte_size   : 8
    <28f1>   DW_AT_type        : <0x28bc>
 <1><28f5>: Abbrev Number: 45 (DW_TAG_structure_type)
    <28f6>   DW_AT_name        : (indirect string, offset: 0x15df): sortfile
    <28fa>   DW_AT_byte_size   : 16
    <28fb>   DW_AT_decl_file   : 2
    <28fc>   DW_AT_decl_line   : 671
    <28fe>   DW_AT_decl_column : 8
    <28ff>   DW_AT_sibling     : <0x2920>
 <2><2903>: Abbrev Number: 42 (DW_TAG_member)
    <2904>   DW_AT_name        : (indirect string, offset: 0x5c3d): name
    <2908>   DW_AT_decl_file   : 2
    <2909>   DW_AT_decl_line   : 674
    <290b>   DW_AT_decl_column : 15
    <290c>   DW_AT_type        : <0xb9>
    <2910>   DW_AT_data_member_location: 0
 <2><2911>: Abbrev Number: 42 (DW_TAG_member)
    <2912>   DW_AT_name        : (indirect string, offset: 0xd1b): temp
    <2916>   DW_AT_decl_file   : 2
    <2917>   DW_AT_decl_line   : 677
    <2919>   DW_AT_decl_column : 20
    <291a>   DW_AT_type        : <0x28b6>
    <291e>   DW_AT_data_member_location: 8
 <2><291f>: Abbrev Number: 0
 <1><2920>: Abbrev Number: 43 (DW_TAG_variable)
    <2921>   DW_AT_name        : (indirect string, offset: 0x181f): proctab
    <2925>   DW_AT_decl_file   : 2
    <2926>   DW_AT_decl_line   : 681
    <2928>   DW_AT_decl_column : 20
    <2929>   DW_AT_type        : <0x2937>
    <292d>   DW_AT_location    : 9 byte block: 3 8 57 2 0 0 0 0 0 	(DW_OP_addr: 25708)
 <1><2937>: Abbrev Number: 3 (DW_TAG_pointer_type)
    <2938>   DW_AT_byte_size   : 8
    <2939>   DW_AT_type        : <0x1090>
 <1><293d>: Abbrev Number: 35 (DW_TAG_enumeration_type)
    <293e>   DW_AT_encoding    : 7	(unsigned)
    <293f>   DW_AT_byte_size   : 4
    <2940>   DW_AT_type        : <0xe2>
    <2944>   DW_AT_decl_file   : 2
    <2945>   DW_AT_decl_line   : 683
    <2947>   DW_AT_decl_column : 6
    <2948>   DW_AT_sibling     : <0x2953>
 <2><294c>: Abbrev Number: 27 (DW_TAG_enumerator)
    <294d>   DW_AT_name        : (indirect string, offset: 0x3738): INIT_PROCTAB_SIZE
    <2951>   DW_AT_const_value : 47
 <2><2952>: Abbrev Number: 0
 <1><2953>: Abbrev Number: 43 (DW_TAG_variable)
    <2954>   DW_AT_name        : (indirect string, offset: 0x14d6): nprocs
    <2958>   DW_AT_decl_file   : 2
    <2959>   DW_AT_decl_line   : 701
    <295b>   DW_AT_decl_column : 14
    <295c>   DW_AT_type        : <0x239>
    <2960>   DW_AT_location    : 9 byte block: 3 10 57 2 0 0 0 0 0 	(DW_OP_addr: 25710)
 <1><296a>: Abbrev Number: 13 (DW_TAG_array_type)
    <296b>   DW_AT_type        : <0x50>
    <296f>   DW_AT_sibling     : <0x297a>
 <2><2973>: Abbrev Number: 14 (DW_TAG_subrange_type)
    <2974>   DW_AT_type        : <0xe9>
    <2978>   DW_AT_upper_bound : 255
 <2><2979>: Abbrev Number: 0
 <1><297a>: Abbrev Number: 4 (DW_TAG_const_type)
    <297b>   DW_AT_type        : <0x296a>
 <1><297f>: Abbrev Number: 43 (DW_TAG_variable)
    <2980>   DW_AT_name        : (indirect string, offset: 0x2c7f): unit_order
    <2984>   DW_AT_decl_file   : 2
    <2985>   DW_AT_decl_line   : 1877
    <2987>   DW_AT_decl_column : 19
    <2988>   DW_AT_type        : <0x297a>
    <298c>   DW_AT_location    : 9 byte block: 3 c0 e5 1 0 0 0 0 0 	(DW_OP_addr: 1e5c0)
 <1><2996>: Abbrev Number: 43 (DW_TAG_variable)
    <2997>   DW_AT_name        : (indirect string, offset: 0xfb7): random_md5_state
    <299b>   DW_AT_decl_file   : 2
    <299c>   DW_AT_decl_line   : 2096
    <299e>   DW_AT_decl_column : 23
    <299f>   DW_AT_type        : <0x10f9>
    <29a3>   DW_AT_location    : 9 byte block: 3 20 57 2 0 0 0 0 0 	(DW_OP_addr: 25720)
 <1><29ad>: Abbrev Number: 45 (DW_TAG_structure_type)
    <29ae>   DW_AT_name        : (indirect string, offset: 0x22c4): thread_args
    <29b2>   DW_AT_byte_size   : 56
    <29b3>   DW_AT_decl_file   : 2
    <29b4>   DW_AT_decl_line   : 3668
    <29b6>   DW_AT_decl_column : 8
    <29b7>   DW_AT_sibling     : <0x2a1e>
 <2><29bb>: Abbrev Number: 42 (DW_TAG_member)
    <29bc>   DW_AT_name        : (indirect string, offset: 0x318b): lines
    <29c0>   DW_AT_decl_file   : 2
    <29c1>   DW_AT_decl_line   : 3672
    <29c3>   DW_AT_decl_column : 16
    <29c4>   DW_AT_type        : <0x2439>
    <29c8>   DW_AT_data_member_location: 0
 <2><29c9>: Abbrev Number: 42 (DW_TAG_member)
    <29ca>   DW_AT_name        : (indirect string, offset: 0x1553): nthreads
    <29ce>   DW_AT_decl_file   : 2
    <29cf>   DW_AT_decl_line   : 3675
    <29d1>   DW_AT_decl_column : 10
    <29d2>   DW_AT_type        : <0x1f4>
    <29d6>   DW_AT_data_member_location: 8
 <2><29d7>: Abbrev Number: 42 (DW_TAG_member)
    <29d8>   DW_AT_name        : (indirect string, offset: 0x3185): total_lines
    <29dc>   DW_AT_decl_file   : 2
    <29dd>   DW_AT_decl_line   : 3678
    <29df>   DW_AT_decl_column : 16
    <29e0>   DW_AT_type        : <0x200>
    <29e4>   DW_AT_data_member_location: 16
 <2><29e5>: Abbrev Number: 42 (DW_TAG_member)
    <29e6>   DW_AT_name        : (indirect string, offset: 0x465): node
    <29ea>   DW_AT_decl_file   : 2
    <29eb>   DW_AT_decl_line   : 3682
    <29ed>   DW_AT_decl_column : 28
    <29ee>   DW_AT_type        : <0x2450>
    <29f2>   DW_AT_data_member_location: 24
 <2><29f3>: Abbrev Number: 42 (DW_TAG_member)
    <29f4>   DW_AT_name        : (indirect string, offset: 0x30f2): queue
    <29f8>   DW_AT_decl_file   : 2
    <29f9>   DW_AT_decl_line   : 3686
    <29fb>   DW_AT_decl_column : 34
    <29fc>   DW_AT_type        : <0x2a29>
    <2a00>   DW_AT_data_member_location: 32
 <2><2a01>: Abbrev Number: 46 (DW_TAG_member)
    <2a02>   DW_AT_name        : tfp
    <2a06>   DW_AT_decl_file   : 2
    <2a07>   DW_AT_decl_line   : 3690
    <2a09>   DW_AT_decl_column : 9
    <2a0a>   DW_AT_type        : <0xf1f>
    <2a0e>   DW_AT_data_member_location: 40
 <2><2a0f>: Abbrev Number: 42 (DW_TAG_member)
    <2a10>   DW_AT_name        : (indirect string, offset: 0xdf1): output_temp
    <2a14>   DW_AT_decl_file   : 2
    <2a15>   DW_AT_decl_line   : 3691
    <2a17>   DW_AT_decl_column : 15
    <2a18>   DW_AT_type        : <0xb9>
    <2a1c>   DW_AT_data_member_location: 48
 <2><2a1d>: Abbrev Number: 0
 <1><2a1e>: Abbrev Number: 4 (DW_TAG_const_type)
    <2a1f>   DW_AT_type        : <0x29ad>
 <1><2a23>: Abbrev Number: 3 (DW_TAG_pointer_type)
    <2a24>   DW_AT_byte_size   : 8
    <2a25>   DW_AT_type        : <0x245a>
 <1><2a29>: Abbrev Number: 4 (DW_TAG_const_type)
    <2a2a>   DW_AT_type        : <0x2a23>
 <1><2a2e>: Abbrev Number: 47 (DW_TAG_subprogram)
    <2a2f>   DW_AT_external    : 1
    <2a2f>   DW_AT_name        : (indirect string, offset: 0x574): num_processors
    <2a33>   DW_AT_decl_file   : 40
    <2a34>   DW_AT_decl_line   : 42
    <2a35>   DW_AT_decl_column : 26
    <2a36>   DW_AT_prototyped  : 1
    <2a36>   DW_AT_type        : <0xe9>
    <2a3a>   DW_AT_declaration : 1
    <2a3a>   DW_AT_sibling     : <0x2a44>
 <2><2a3e>: Abbrev Number: 22 (DW_TAG_formal_parameter)
    <2a3f>   DW_AT_type        : <0x117a>
 <2><2a43>: Abbrev Number: 0
 <1><2a44>: Abbrev Number: 47 (DW_TAG_subprogram)
    <2a45>   DW_AT_external    : 1
    <2a45>   DW_AT_name        : (indirect string, offset: 0x205b): xcalloc
    <2a49>   DW_AT_decl_file   : 46
    <2a4a>   DW_AT_decl_line   : 72
    <2a4b>   DW_AT_decl_column : 7
    <2a4c>   DW_AT_prototyped  : 1
    <2a4c>   DW_AT_type        : <0x1bd>
    <2a50>   DW_AT_declaration : 1
    <2a50>   DW_AT_sibling     : <0x2a5f>
 <2><2a54>: Abbrev Number: 22 (DW_TAG_formal_parameter)
    <2a55>   DW_AT_type        : <0x1f4>
 <2><2a59>: Abbrev Number: 22 (DW_TAG_formal_parameter)
    <2a5a>   DW_AT_type        : <0x1f4>
 <2><2a5e>: Abbrev Number: 0
 <1><2a5f>: Abbrev Number: 47 (DW_TAG_subprogram)
    <2a60>   DW_AT_external    : 1
    <2a60>   DW_AT_name        : (indirect string, offset: 0xd87): readtokens0
    <2a64>   DW_AT_decl_file   : 42
    <2a65>   DW_AT_decl_line   : 40
    <2a66>   DW_AT_decl_column : 6
    <2a67>   DW_AT_prototyped  : 1
    <2a67>   DW_AT_type        : <0x1073>
    <2a6b>   DW_AT_declaration : 1
    <2a6b>   DW_AT_sibling     : <0x2a7a>
 <2><2a6f>: Abbrev Number: 22 (DW_TAG_formal_parameter)
    <2a70>   DW_AT_type        : <0xf1f>
 <2><2a74>: Abbrev Number: 22 (DW_TAG_formal_parameter)
    <2a75>   DW_AT_type        : <0x2a7a>
 <2><2a79>: Abbrev Number: 0
 <1><2a7a>: Abbrev Number: 3 (DW_TAG_pointer_type)
    <2a7b>   DW_AT_byte_size   : 8
    <2a7c>   DW_AT_type        : <0x1350>
 <1><2a80>: Abbrev Number: 48 (DW_TAG_subprogram)
    <2a81>   DW_AT_external    : 1
    <2a81>   DW_AT_name        : (indirect string, offset: 0xb1a): readtokens0_init
    <2a85>   DW_AT_decl_file   : 42
    <2a86>   DW_AT_decl_line   : 38
    <2a87>   DW_AT_decl_column : 6
    <2a88>   DW_AT_prototyped  : 1
    <2a88>   DW_AT_declaration : 1
    <2a88>   DW_AT_sibling     : <0x2a92>
 <2><2a8c>: Abbrev Number: 22 (DW_TAG_formal_parameter)
    <2a8d>   DW_AT_type        : <0x2a7a>
 <2><2a91>: Abbrev Number: 0
 <1><2a92>: Abbrev Number: 48 (DW_TAG_subprogram)
    <2a93>   DW_AT_external    : 1
    <2a93>   DW_AT_name        : (indirect string, offset: 0x726): version_etc
    <2a97>   DW_AT_decl_file   : 47
    <2a98>   DW_AT_decl_line   : 65
    <2a99>   DW_AT_decl_column : 13
    <2a9a>   DW_AT_prototyped  : 1
    <2a9a>   DW_AT_declaration : 1
    <2a9a>   DW_AT_sibling     : <0x2ab4>
 <2><2a9e>: Abbrev Number: 22 (DW_TAG_formal_parameter)
    <2a9f>   DW_AT_type        : <0xf1f>
 <2><2aa3>: Abbrev Number: 22 (DW_TAG_formal_parameter)
    <2aa4>   DW_AT_type        : <0xb9>
 <2><2aa8>: Abbrev Number: 22 (DW_TAG_formal_parameter)
    <2aa9>   DW_AT_type        : <0xb9>
 <2><2aad>: Abbrev Number: 22 (DW_TAG_formal_parameter)
    <2aae>   DW_AT_type        : <0xb9>
 <2><2ab2>: Abbrev Number: 49 (DW_TAG_unspecified_parameters)
 <2><2ab3>: Abbrev Number: 0
 <1><2ab4>: Abbrev Number: 47 (DW_TAG_subprogram)
    <2ab5>   DW_AT_external    : 1
    <2ab5>   DW_AT_name        : (indirect string, offset: 0xd72): __xargmatch_internal
    <2ab9>   DW_AT_decl_file   : 36
    <2aba>   DW_AT_decl_line   : 95
    <2abb>   DW_AT_decl_column : 11
    <2abc>   DW_AT_prototyped  : 1
    <2abc>   DW_AT_type        : <0x5be>
    <2ac0>   DW_AT_declaration : 1
    <2ac0>   DW_AT_sibling     : <0x2ae8>
 <2><2ac4>: Abbrev Number: 22 (DW_TAG_formal_parameter)
    <2ac5>   DW_AT_type        : <0xb9>
 <2><2ac9>: Abbrev Number: 22 (DW_TAG_formal_parameter)
    <2aca>   DW_AT_type        : <0xb9>
 <2><2ace>: Abbrev Number: 22 (DW_TAG_formal_parameter)
    <2acf>   DW_AT_type        : <0x2ae8>
 <2><2ad3>: Abbrev Number: 22 (DW_TAG_formal_parameter)
    <2ad4>   DW_AT_type        : <0x609>
 <2><2ad8>: Abbrev Number: 22 (DW_TAG_formal_parameter)
    <2ad9>   DW_AT_type        : <0x1f4>
 <2><2add>: Abbrev Number: 22 (DW_TAG_formal_parameter)
    <2ade>   DW_AT_type        : <0xfc6>
 <2><2ae2>: Abbrev Number: 22 (DW_TAG_formal_parameter)
    <2ae3>   DW_AT_type        : <0x1073>
 <2><2ae7>: Abbrev Number: 0
 <1><2ae8>: Abbrev Number: 3 (DW_TAG_pointer_type)
    <2ae9>   DW_AT_byte_size   : 8
    <2aea>   DW_AT_type        : <0xbf>
 <1><2aee>: Abbrev Number: 47 (DW_TAG_subprogram)
    <2aef>   DW_AT_external    : 1
    <2aef>   DW_AT_name        : (indirect string, offset: 0x15a2): getopt_long
    <2af3>   DW_AT_decl_file   : 4
    <2af4>   DW_AT_decl_line   : 66
    <2af5>   DW_AT_decl_column : 12
    <2af6>   DW_AT_prototyped  : 1
    <2af6>   DW_AT_type        : <0x61>
    <2afa>   DW_AT_declaration : 1
    <2afa>   DW_AT_sibling     : <0x2b18>
 <2><2afe>: Abbrev Number: 22 (DW_TAG_formal_parameter)
    <2aff>   DW_AT_type        : <0x61>
 <2><2b03>: Abbrev Number: 22 (DW_TAG_formal_parameter)
    <2b04>   DW_AT_type        : <0x2b18>
 <2><2b08>: Abbrev Number: 22 (DW_TAG_formal_parameter)
    <2b09>   DW_AT_type        : <0xb9>
 <2><2b0d>: Abbrev Number: 22 (DW_TAG_formal_parameter)
    <2b0e>   DW_AT_type        : <0x2b1e>
 <2><2b12>: Abbrev Number: 22 (DW_TAG_formal_parameter)
    <2b13>   DW_AT_type        : <0xc9>
 <2><2b17>: Abbrev Number: 0
 <1><2b18>: Abbrev Number: 3 (DW_TAG_pointer_type)
    <2b19>   DW_AT_byte_size   : 8
    <2b1a>   DW_AT_type        : <0x3f>
 <1><2b1e>: Abbrev Number: 3 (DW_TAG_pointer_type)
    <2b1f>   DW_AT_byte_size   : 8
    <2b20>   DW_AT_type        : <0xb4>
 <1><2b24>: Abbrev Number: 50 (DW_TAG_subprogram)
    <2b25>   DW_AT_external    : 1
    <2b25>   DW_AT_name        : (indirect string, offset: 0x11ff): atexit
    <2b29>   DW_AT_decl_file   : 16
    <2b2a>   DW_AT_decl_line   : 595
    <2b2c>   DW_AT_decl_column : 12
    <2b2d>   DW_AT_prototyped  : 1
    <2b2d>   DW_AT_type        : <0x61>
    <2b31>   DW_AT_declaration : 1
    <2b31>   DW_AT_sibling     : <0x2b3b>
 <2><2b35>: Abbrev Number: 22 (DW_TAG_formal_parameter)
    <2b36>   DW_AT_type        : <0xa22>
 <2><2b3a>: Abbrev Number: 0
 <1><2b3b>: Abbrev Number: 47 (DW_TAG_subprogram)
    <2b3c>   DW_AT_external    : 1
    <2b3c>   DW_AT_name        : (indirect string, offset: 0x3778): sigismember
    <2b40>   DW_AT_decl_file   : 21
    <2b41>   DW_AT_decl_line   : 208
    <2b42>   DW_AT_decl_column : 12
    <2b43>   DW_AT_prototyped  : 1
    <2b43>   DW_AT_type        : <0x61>
    <2b47>   DW_AT_declaration : 1
    <2b47>   DW_AT_sibling     : <0x2b56>
 <2><2b4b>: Abbrev Number: 22 (DW_TAG_formal_parameter)
    <2b4c>   DW_AT_type        : <0x2b56>
 <2><2b50>: Abbrev Number: 22 (DW_TAG_formal_parameter)
    <2b51>   DW_AT_type        : <0x61>
 <2><2b55>: Abbrev Number: 0
 <1><2b56>: Abbrev Number: 3 (DW_TAG_pointer_type)
    <2b57>   DW_AT_byte_size   : 8
    <2b58>   DW_AT_type        : <0x2a1>
 <1><2b5c>: Abbrev Number: 47 (DW_TAG_subprogram)
    <2b5d>   DW_AT_external    : 1
    <2b5d>   DW_AT_name        : (indirect string, offset: 0x1e05): sigaddset
    <2b61>   DW_AT_decl_file   : 21
    <2b62>   DW_AT_decl_line   : 202
    <2b63>   DW_AT_decl_column : 12
    <2b64>   DW_AT_prototyped  : 1
    <2b64>   DW_AT_type        : <0x61>
    <2b68>   DW_AT_declaration : 1
    <2b68>   DW_AT_sibling     : <0x2b77>
 <2><2b6c>: Abbrev Number: 22 (DW_TAG_formal_parameter)
    <2b6d>   DW_AT_type        : <0x2b77>
 <2><2b71>: Abbrev Number: 22 (DW_TAG_formal_parameter)
    <2b72>   DW_AT_type        : <0x61>
 <2><2b76>: Abbrev Number: 0
 <1><2b77>: Abbrev Number: 3 (DW_TAG_pointer_type)
    <2b78>   DW_AT_byte_size   : 8
    <2b79>   DW_AT_type        : <0x295>
 <1><2b7d>: Abbrev Number: 47 (DW_TAG_subprogram)
    <2b7e>   DW_AT_external    : 1
    <2b7e>   DW_AT_name        : (indirect string, offset: 0x22ea): sigaction
    <2b82>   DW_AT_decl_file   : 21
    <2b83>   DW_AT_decl_line   : 240
    <2b84>   DW_AT_decl_column : 12
    <2b85>   DW_AT_prototyped  : 1
    <2b85>   DW_AT_type        : <0x61>
    <2b89>   DW_AT_declaration : 1
    <2b89>   DW_AT_sibling     : <0x2b9d>
 <2><2b8d>: Abbrev Number: 22 (DW_TAG_formal_parameter)
    <2b8e>   DW_AT_type        : <0x61>
 <2><2b92>: Abbrev Number: 22 (DW_TAG_formal_parameter)
    <2b93>   DW_AT_type        : <0x2ba3>
 <2><2b97>: Abbrev Number: 22 (DW_TAG_formal_parameter)
    <2b98>   DW_AT_type        : <0x2bae>
 <2><2b9c>: Abbrev Number: 0
 <1><2b9d>: Abbrev Number: 3 (DW_TAG_pointer_type)
    <2b9e>   DW_AT_byte_size   : 8
    <2b9f>   DW_AT_type        : <0xa1c>
 <1><2ba3>: Abbrev Number: 5 (DW_TAG_restrict_type)
    <2ba4>   DW_AT_type        : <0x2b9d>
 <1><2ba8>: Abbrev Number: 3 (DW_TAG_pointer_type)
    <2ba9>   DW_AT_byte_size   : 8
    <2baa>   DW_AT_type        : <0x9da>
 <1><2bae>: Abbrev Number: 5 (DW_TAG_restrict_type)
    <2baf>   DW_AT_type        : <0x2ba8>
 <1><2bb3>: Abbrev Number: 47 (DW_TAG_subprogram)
    <2bb4>   DW_AT_external    : 1
    <2bb4>   DW_AT_name        : (indirect string, offset: 0x26d0): sigemptyset
    <2bb8>   DW_AT_decl_file   : 21
    <2bb9>   DW_AT_decl_line   : 196
    <2bba>   DW_AT_decl_column : 12
    <2bbb>   DW_AT_prototyped  : 1
    <2bbb>   DW_AT_type        : <0x61>
    <2bbf>   DW_AT_declaration : 1
    <2bbf>   DW_AT_sibling     : <0x2bc9>
 <2><2bc3>: Abbrev Number: 22 (DW_TAG_formal_parameter)
    <2bc4>   DW_AT_type        : <0x2b77>
 <2><2bc8>: Abbrev Number: 0
 <1><2bc9>: Abbrev Number: 51 (DW_TAG_subprogram)
    <2bca>   DW_AT_external    : 1
    <2bca>   DW_AT_name        : (indirect string, offset: 0x3704): localeconv
    <2bce>   DW_AT_decl_file   : 30
    <2bcf>   DW_AT_decl_line   : 125
    <2bd0>   DW_AT_decl_column : 22
    <2bd1>   DW_AT_prototyped  : 1
    <2bd1>   DW_AT_type        : <0x2bd5>
    <2bd5>   DW_AT_declaration : 1
 <1><2bd5>: Abbrev Number: 3 (DW_TAG_pointer_type)
    <2bd6>   DW_AT_byte_size   : 8
    <2bd7>   DW_AT_type        : <0xbe0>
 <1><2bdb>: Abbrev Number: 47 (DW_TAG_subprogram)
    <2bdc>   DW_AT_external    : 1
    <2bdc>   DW_AT_name        : (indirect string, offset: 0x1a02): hard_locale
    <2be0>   DW_AT_decl_file   : 48
    <2be1>   DW_AT_decl_line   : 26
    <2be2>   DW_AT_decl_column : 13
    <2be3>   DW_AT_prototyped  : 1
    <2be3>   DW_AT_type        : <0x1073>
    <2be7>   DW_AT_declaration : 1
    <2be7>   DW_AT_sibling     : <0x2bf1>
 <2><2beb>: Abbrev Number: 22 (DW_TAG_formal_parameter)
    <2bec>   DW_AT_type        : <0x61>
 <2><2bf0>: Abbrev Number: 0
 <1><2bf1>: Abbrev Number: 47 (DW_TAG_subprogram)
    <2bf2>   DW_AT_external    : 1
    <2bf2>   DW_AT_name        : (indirect string, offset: 0x152d): textdomain
    <2bf6>   DW_AT_decl_file   : 49
    <2bf7>   DW_AT_decl_line   : 82
    <2bf8>   DW_AT_decl_column : 14
    <2bf9>   DW_AT_prototyped  : 1
    <2bf9>   DW_AT_type        : <0x39>
    <2bfd>   DW_AT_declaration : 1
    <2bfd>   DW_AT_sibling     : <0x2c07>
 <2><2c01>: Abbrev Number: 22 (DW_TAG_formal_parameter)
    <2c02>   DW_AT_type        : <0xb9>
 <2><2c06>: Abbrev Number: 0
 <1><2c07>: Abbrev Number: 47 (DW_TAG_subprogram)
    <2c08>   DW_AT_external    : 1
    <2c08>   DW_AT_name        : (indirect string, offset: 0x1529): bindtextdomain
    <2c0c>   DW_AT_decl_file   : 49
    <2c0d>   DW_AT_decl_line   : 86
    <2c0e>   DW_AT_decl_column : 14
    <2c0f>   DW_AT_prototyped  : 1
    <2c0f>   DW_AT_type        : <0x39>
    <2c13>   DW_AT_declaration : 1
    <2c13>   DW_AT_sibling     : <0x2c22>
 <2><2c17>: Abbrev Number: 22 (DW_TAG_formal_parameter)
    <2c18>   DW_AT_type        : <0xb9>
 <2><2c1c>: Abbrev Number: 22 (DW_TAG_formal_parameter)
    <2c1d>   DW_AT_type        : <0xb9>
 <2><2c21>: Abbrev Number: 0
 <1><2c22>: Abbrev Number: 48 (DW_TAG_subprogram)
    <2c23>   DW_AT_external    : 1
    <2c23>   DW_AT_name        : (indirect string, offset: 0x2c61): set_program_name
    <2c27>   DW_AT_decl_file   : 34
    <2c28>   DW_AT_decl_line   : 37
    <2c29>   DW_AT_decl_column : 13
    <2c2a>   DW_AT_prototyped  : 1
    <2c2a>   DW_AT_declaration : 1
    <2c2a>   DW_AT_sibling     : <0x2c34>
 <2><2c2e>: Abbrev Number: 22 (DW_TAG_formal_parameter)
    <2c2f>   DW_AT_type        : <0xb9>
 <2><2c33>: Abbrev Number: 0
 <1><2c34>: Abbrev Number: 51 (DW_TAG_subprogram)
    <2c35>   DW_AT_external    : 1
    <2c35>   DW_AT_name        : (indirect string, offset: 0x9e4): posix2_version
    <2c39>   DW_AT_decl_file   : 50
    <2c3a>   DW_AT_decl_line   : 18
    <2c3b>   DW_AT_decl_column : 5
    <2c3c>   DW_AT_prototyped  : 1
    <2c3c>   DW_AT_type        : <0x61>
    <2c40>   DW_AT_declaration : 1
 <1><2c40>: Abbrev Number: 50 (DW_TAG_subprogram)
    <2c41>   DW_AT_external    : 1
    <2c41>   DW_AT_name        : (indirect string, offset: 0x3354): getenv
    <2c45>   DW_AT_decl_file   : 16
    <2c46>   DW_AT_decl_line   : 634
    <2c48>   DW_AT_decl_column : 14
    <2c49>   DW_AT_prototyped  : 1
    <2c49>   DW_AT_type        : <0x39>
    <2c4d>   DW_AT_declaration : 1
    <2c4d>   DW_AT_sibling     : <0x2c57>
 <2><2c51>: Abbrev Number: 22 (DW_TAG_formal_parameter)
    <2c52>   DW_AT_type        : <0xb9>
 <2><2c56>: Abbrev Number: 0
 <1><2c57>: Abbrev Number: 47 (DW_TAG_subprogram)
    <2c58>   DW_AT_external    : 1
    <2c58>   DW_AT_name        : (indirect string, offset: 0x3266): raise
    <2c5c>   DW_AT_decl_file   : 21
    <2c5d>   DW_AT_decl_line   : 123
    <2c5e>   DW_AT_decl_column : 12
    <2c5f>   DW_AT_prototyped  : 1
    <2c5f>   DW_AT_type        : <0x61>
    <2c63>   DW_AT_declaration : 1
    <2c63>   DW_AT_sibling     : <0x2c6d>
 <2><2c67>: Abbrev Number: 22 (DW_TAG_formal_parameter)
    <2c68>   DW_AT_type        : <0x61>
 <2><2c6c>: Abbrev Number: 0
 <1><2c6d>: Abbrev Number: 47 (DW_TAG_subprogram)
    <2c6e>   DW_AT_external    : 1
    <2c6e>   DW_AT_name        : (indirect string, offset: 0x2c97): signal
    <2c72>   DW_AT_decl_file   : 21
    <2c73>   DW_AT_decl_line   : 88
    <2c74>   DW_AT_decl_column : 23
    <2c75>   DW_AT_prototyped  : 1
    <2c75>   DW_AT_type        : <0x97a>
    <2c79>   DW_AT_declaration : 1
    <2c79>   DW_AT_sibling     : <0x2c88>
 <2><2c7d>: Abbrev Number: 22 (DW_TAG_formal_parameter)
    <2c7e>   DW_AT_type        : <0x61>
 <2><2c82>: Abbrev Number: 22 (DW_TAG_formal_parameter)
    <2c83>   DW_AT_type        : <0x97a>
 <2><2c87>: Abbrev Number: 0
 <1><2c88>: Abbrev Number: 47 (DW_TAG_subprogram)
    <2c89>   DW_AT_external    : 1
    <2c89>   DW_AT_name        : (indirect string, offset: 0xa27): xmemdup
    <2c8d>   DW_AT_decl_file   : 46
    <2c8e>   DW_AT_decl_line   : 92
    <2c8f>   DW_AT_decl_column : 7
    <2c90>   DW_AT_prototyped  : 1
    <2c90>   DW_AT_type        : <0x1bd>
    <2c94>   DW_AT_declaration : 1
    <2c94>   DW_AT_sibling     : <0x2ca3>
 <2><2c98>: Abbrev Number: 22 (DW_TAG_formal_parameter)
    <2c99>   DW_AT_type        : <0x609>
 <2><2c9d>: Abbrev Number: 22 (DW_TAG_formal_parameter)
    <2c9e>   DW_AT_type        : <0x1f4>
 <2><2ca2>: Abbrev Number: 0
 <1><2ca3>: Abbrev Number: 50 (DW_TAG_subprogram)
    <2ca4>   DW_AT_external    : 1
    <2ca4>   DW_AT_name        : (indirect string, offset: 0xe2a): euidaccess
    <2ca8>   DW_AT_decl_file   : 51
    <2ca9>   DW_AT_decl_line   : 292
    <2cab>   DW_AT_decl_column : 12
    <2cac>   DW_AT_prototyped  : 1
    <2cac>   DW_AT_type        : <0x61>
    <2cb0>   DW_AT_declaration : 1
    <2cb0>   DW_AT_sibling     : <0x2cbf>
 <2><2cb4>: Abbrev Number: 22 (DW_TAG_formal_parameter)
    <2cb5>   DW_AT_type        : <0xb9>
 <2><2cb9>: Abbrev Number: 22 (DW_TAG_formal_parameter)
    <2cba>   DW_AT_type        : <0x61>
 <2><2cbe>: Abbrev Number: 0
 <1><2cbf>: Abbrev Number: 47 (DW_TAG_subprogram)
    <2cc0>   DW_AT_external    : 1
    <2cc0>   DW_AT_name        : (indirect string, offset: 0x35a7): pthread_join
    <2cc4>   DW_AT_decl_file   : 52
    <2cc5>   DW_AT_decl_line   : 215
    <2cc6>   DW_AT_decl_column : 12
    <2cc7>   DW_AT_prototyped  : 1
    <2cc7>   DW_AT_type        : <0x61>
    <2ccb>   DW_AT_declaration : 1
    <2ccb>   DW_AT_sibling     : <0x2cda>
 <2><2ccf>: Abbrev Number: 22 (DW_TAG_formal_parameter)
    <2cd0>   DW_AT_type        : <0x454>
 <2><2cd4>: Abbrev Number: 22 (DW_TAG_formal_parameter)
    <2cd5>   DW_AT_type        : <0x2cda>
 <2><2cd9>: Abbrev Number: 0
 <1><2cda>: Abbrev Number: 3 (DW_TAG_pointer_type)
    <2cdb>   DW_AT_byte_size   : 8
    <2cdc>   DW_AT_type        : <0x1bd>
 <1><2ce0>: Abbrev Number: 47 (DW_TAG_subprogram)
    <2ce1>   DW_AT_external    : 1
    <2ce1>   DW_AT_name        : (indirect string, offset: 0x6ef): pthread_create
    <2ce5>   DW_AT_decl_file   : 52
    <2ce6>   DW_AT_decl_line   : 198
    <2ce7>   DW_AT_decl_column : 12
    <2ce8>   DW_AT_prototyped  : 1
    <2ce8>   DW_AT_type        : <0x61>
    <2cec>   DW_AT_declaration : 1
    <2cec>   DW_AT_sibling     : <0x2d05>
 <2><2cf0>: Abbrev Number: 22 (DW_TAG_formal_parameter)
    <2cf1>   DW_AT_type        : <0x2d0b>
 <2><2cf5>: Abbrev Number: 22 (DW_TAG_formal_parameter)
    <2cf6>   DW_AT_type        : <0x2d16>
 <2><2cfa>: Abbrev Number: 22 (DW_TAG_formal_parameter)
    <2cfb>   DW_AT_type        : <0x2d1b>
 <2><2cff>: Abbrev Number: 22 (DW_TAG_formal_parameter)
    <2d00>   DW_AT_type        : <0x1bf>
 <2><2d04>: Abbrev Number: 0
 <1><2d05>: Abbrev Number: 3 (DW_TAG_pointer_type)
    <2d06>   DW_AT_byte_size   : 8
    <2d07>   DW_AT_type        : <0x454>
 <1><2d0b>: Abbrev Number: 5 (DW_TAG_restrict_type)
    <2d0c>   DW_AT_type        : <0x2d05>
 <1><2d10>: Abbrev Number: 3 (DW_TAG_pointer_type)
    <2d11>   DW_AT_byte_size   : 8
    <2d12>   DW_AT_type        : <0x518>
 <1><2d16>: Abbrev Number: 5 (DW_TAG_restrict_type)
    <2d17>   DW_AT_type        : <0x2d10>
 <1><2d1b>: Abbrev Number: 3 (DW_TAG_pointer_type)
    <2d1c>   DW_AT_byte_size   : 8
    <2d1d>   DW_AT_type        : <0x2d21>
 <1><2d21>: Abbrev Number: 24 (DW_TAG_subroutine_type)
    <2d22>   DW_AT_prototyped  : 1
    <2d22>   DW_AT_type        : <0x1bd>
    <2d26>   DW_AT_sibling     : <0x2d30>
 <2><2d2a>: Abbrev Number: 22 (DW_TAG_formal_parameter)
    <2d2b>   DW_AT_type        : <0x1bd>
 <2><2d2f>: Abbrev Number: 0
 <1><2d30>: Abbrev Number: 47 (DW_TAG_subprogram)
    <2d31>   DW_AT_external    : 1
    <2d31>   DW_AT_name        : (indirect string, offset: 0x28db): heap_remove_top
    <2d35>   DW_AT_decl_file   : 53
    <2d36>   DW_AT_decl_line   : 32
    <2d37>   DW_AT_decl_column : 7
    <2d38>   DW_AT_prototyped  : 1
    <2d38>   DW_AT_type        : <0x1bd>
    <2d3c>   DW_AT_declaration : 1
    <2d3c>   DW_AT_sibling     : <0x2d46>
 <2><2d40>: Abbrev Number: 22 (DW_TAG_formal_parameter)
    <2d41>   DW_AT_type        : <0x2495>
 <2><2d45>: Abbrev Number: 0
 <1><2d46>: Abbrev Number: 50 (DW_TAG_subprogram)
    <2d47>   DW_AT_external    : 1
    <2d47>   DW_AT_name        : (indirect string, offset: 0x1c7c): pthread_cond_wait
    <2d4b>   DW_AT_decl_file   : 52
    <2d4c>   DW_AT_decl_line   : 986
    <2d4e>   DW_AT_decl_column : 12
    <2d4f>   DW_AT_prototyped  : 1
    <2d4f>   DW_AT_type        : <0x61>
    <2d53>   DW_AT_declaration : 1
    <2d53>   DW_AT_sibling     : <0x2d62>
 <2><2d57>: Abbrev Number: 22 (DW_TAG_formal_parameter)
    <2d58>   DW_AT_type        : <0x2d68>
 <2><2d5c>: Abbrev Number: 22 (DW_TAG_formal_parameter)
    <2d5d>   DW_AT_type        : <0x2d73>
 <2><2d61>: Abbrev Number: 0
 <1><2d62>: Abbrev Number: 3 (DW_TAG_pointer_type)
    <2d63>   DW_AT_byte_size   : 8
    <2d64>   DW_AT_type        : <0x5ac>
 <1><2d68>: Abbrev Number: 5 (DW_TAG_restrict_type)
    <2d69>   DW_AT_type        : <0x2d62>
 <1><2d6d>: Abbrev Number: 3 (DW_TAG_pointer_type)
    <2d6e>   DW_AT_byte_size   : 8
    <2d6f>   DW_AT_type        : <0x55b>
 <1><2d73>: Abbrev Number: 5 (DW_TAG_restrict_type)
    <2d74>   DW_AT_type        : <0x2d6d>
 <1><2d78>: Abbrev Number: 50 (DW_TAG_subprogram)
    <2d79>   DW_AT_external    : 1
    <2d79>   DW_AT_name        : (indirect string, offset: 0x22f4): pthread_mutex_unlock
    <2d7d>   DW_AT_decl_file   : 52
    <2d7e>   DW_AT_decl_line   : 756
    <2d80>   DW_AT_decl_column : 12
    <2d81>   DW_AT_prototyped  : 1
    <2d81>   DW_AT_type        : <0x61>
    <2d85>   DW_AT_declaration : 1
    <2d85>   DW_AT_sibling     : <0x2d8f>
 <2><2d89>: Abbrev Number: 22 (DW_TAG_formal_parameter)
    <2d8a>   DW_AT_type        : <0x2d6d>
 <2><2d8e>: Abbrev Number: 0
 <1><2d8f>: Abbrev Number: 50 (DW_TAG_subprogram)
    <2d90>   DW_AT_external    : 1
    <2d90>   DW_AT_name        : (indirect string, offset: 0x2c8a): pthread_cond_signal
    <2d94>   DW_AT_decl_file   : 52
    <2d95>   DW_AT_decl_line   : 974
    <2d97>   DW_AT_decl_column : 12
    <2d98>   DW_AT_prototyped  : 1
    <2d98>   DW_AT_type        : <0x61>
    <2d9c>   DW_AT_declaration : 1
    <2d9c>   DW_AT_sibling     : <0x2da6>
 <2><2da0>: Abbrev Number: 22 (DW_TAG_formal_parameter)
    <2da1>   DW_AT_type        : <0x2d62>
 <2><2da5>: Abbrev Number: 0
 <1><2da6>: Abbrev Number: 47 (DW_TAG_subprogram)
    <2da7>   DW_AT_external    : 1
    <2da7>   DW_AT_name        : (indirect string, offset: 0x1e66): heap_insert
    <2dab>   DW_AT_decl_file   : 53
    <2dac>   DW_AT_decl_line   : 31
    <2dad>   DW_AT_decl_column : 5
    <2dae>   DW_AT_prototyped  : 1
    <2dae>   DW_AT_type        : <0x61>
    <2db2>   DW_AT_declaration : 1
    <2db2>   DW_AT_sibling     : <0x2dc1>
 <2><2db6>: Abbrev Number: 22 (DW_TAG_formal_parameter)
    <2db7>   DW_AT_type        : <0x2495>
 <2><2dbb>: Abbrev Number: 22 (DW_TAG_formal_parameter)
    <2dbc>   DW_AT_type        : <0x1bd>
 <2><2dc0>: Abbrev Number: 0
 <1><2dc1>: Abbrev Number: 50 (DW_TAG_subprogram)
    <2dc2>   DW_AT_external    : 1
    <2dc2>   DW_AT_name        : (indirect string, offset: 0xf79): pthread_mutex_lock
    <2dc6>   DW_AT_decl_file   : 52
    <2dc7>   DW_AT_decl_line   : 738
    <2dc9>   DW_AT_decl_column : 12
    <2dca>   DW_AT_prototyped  : 1
    <2dca>   DW_AT_type        : <0x61>
    <2dce>   DW_AT_declaration : 1
    <2dce>   DW_AT_sibling     : <0x2dd8>
 <2><2dd2>: Abbrev Number: 22 (DW_TAG_formal_parameter)
    <2dd3>   DW_AT_type        : <0x2d6d>
 <2><2dd7>: Abbrev Number: 0
 <1><2dd8>: Abbrev Number: 50 (DW_TAG_subprogram)
    <2dd9>   DW_AT_external    : 1
    <2dd9>   DW_AT_name        : (indirect string, offset: 0x4e): pthread_cond_init
    <2ddd>   DW_AT_decl_file   : 52
    <2dde>   DW_AT_decl_line   : 965
    <2de0>   DW_AT_decl_column : 12
    <2de1>   DW_AT_prototyped  : 1
    <2de1>   DW_AT_type        : <0x61>
    <2de5>   DW_AT_declaration : 1
    <2de5>   DW_AT_sibling     : <0x2df4>
 <2><2de9>: Abbrev Number: 22 (DW_TAG_formal_parameter)
    <2dea>   DW_AT_type        : <0x2d68>
 <2><2dee>: Abbrev Number: 22 (DW_TAG_formal_parameter)
    <2def>   DW_AT_type        : <0x2dfa>
 <2><2df3>: Abbrev Number: 0
 <1><2df4>: Abbrev Number: 3 (DW_TAG_pointer_type)
    <2df5>   DW_AT_byte_size   : 8
    <2df6>   DW_AT_type        : <0x4d1>
 <1><2dfa>: Abbrev Number: 5 (DW_TAG_restrict_type)
    <2dfb>   DW_AT_type        : <0x2df4>
 <1><2dff>: Abbrev Number: 47 (DW_TAG_subprogram)
    <2e00>   DW_AT_external    : 1
    <2e00>   DW_AT_name        : (indirect string, offset: 0x276): heap_alloc
    <2e04>   DW_AT_decl_file   : 53
    <2e05>   DW_AT_decl_line   : 27
    <2e06>   DW_AT_decl_column : 14
    <2e07>   DW_AT_prototyped  : 1
    <2e07>   DW_AT_type        : <0x2495>
    <2e0b>   DW_AT_declaration : 1
    <2e0b>   DW_AT_sibling     : <0x2e1a>
 <2><2e0f>: Abbrev Number: 22 (DW_TAG_formal_parameter)
    <2e10>   DW_AT_type        : <0x5ef>
 <2><2e14>: Abbrev Number: 22 (DW_TAG_formal_parameter)
    <2e15>   DW_AT_type        : <0x1f4>
 <2><2e19>: Abbrev Number: 0
 <1><2e1a>: Abbrev Number: 50 (DW_TAG_subprogram)
    <2e1b>   DW_AT_external    : 1
    <2e1b>   DW_AT_name        : (indirect string, offset: 0x3b0d): pthread_cond_destroy
    <2e1f>   DW_AT_decl_file   : 52
    <2e20>   DW_AT_decl_line   : 970
    <2e22>   DW_AT_decl_column : 12
    <2e23>   DW_AT_prototyped  : 1
    <2e23>   DW_AT_type        : <0x61>
    <2e27>   DW_AT_declaration : 1
    <2e27>   DW_AT_sibling     : <0x2e31>
 <2><2e2b>: Abbrev Number: 22 (DW_TAG_formal_parameter)
    <2e2c>   DW_AT_type        : <0x2d62>
 <2><2e30>: Abbrev Number: 0
 <1><2e31>: Abbrev Number: 48 (DW_TAG_subprogram)
    <2e32>   DW_AT_external    : 1
    <2e32>   DW_AT_name        : (indirect string, offset: 0x3807): heap_free
    <2e36>   DW_AT_decl_file   : 53
    <2e37>   DW_AT_decl_line   : 25
    <2e38>   DW_AT_decl_column : 6
    <2e39>   DW_AT_prototyped  : 1
    <2e39>   DW_AT_declaration : 1
    <2e39>   DW_AT_sibling     : <0x2e43>
 <2><2e3d>: Abbrev Number: 22 (DW_TAG_formal_parameter)
    <2e3e>   DW_AT_type        : <0x2495>
 <2><2e42>: Abbrev Number: 0
 <1><2e43>: Abbrev Number: 50 (DW_TAG_subprogram)
    <2e44>   DW_AT_external    : 1
    <2e44>   DW_AT_name        : (indirect string, offset: 0xddb): pthread_mutex_destroy
    <2e48>   DW_AT_decl_file   : 52
    <2e49>   DW_AT_decl_line   : 730
    <2e4b>   DW_AT_decl_column : 12
    <2e4c>   DW_AT_prototyped  : 1
    <2e4c>   DW_AT_type        : <0x61>
    <2e50>   DW_AT_declaration : 1
    <2e50>   DW_AT_sibling     : <0x2e5a>
 <2><2e54>: Abbrev Number: 22 (DW_TAG_formal_parameter)
    <2e55>   DW_AT_type        : <0x2d6d>
 <2><2e59>: Abbrev Number: 0
 <1><2e5a>: Abbrev Number: 50 (DW_TAG_subprogram)
    <2e5b>   DW_AT_external    : 1
    <2e5b>   DW_AT_name        : (indirect string, offset: 0x2401): pthread_mutex_init
    <2e5f>   DW_AT_decl_file   : 52
    <2e60>   DW_AT_decl_line   : 725
    <2e62>   DW_AT_decl_column : 12
    <2e63>   DW_AT_prototyped  : 1
    <2e63>   DW_AT_type        : <0x61>
    <2e67>   DW_AT_declaration : 1
    <2e67>   DW_AT_sibling     : <0x2e76>
 <2><2e6b>: Abbrev Number: 22 (DW_TAG_formal_parameter)
    <2e6c>   DW_AT_type        : <0x2d6d>
 <2><2e70>: Abbrev Number: 22 (DW_TAG_formal_parameter)
    <2e71>   DW_AT_type        : <0x2e76>
 <2><2e75>: Abbrev Number: 0
 <1><2e76>: Abbrev Number: 3 (DW_TAG_pointer_type)
    <2e77>   DW_AT_byte_size   : 8
    <2e78>   DW_AT_type        : <0x49e>
 <1><2e7c>: Abbrev Number: 47 (DW_TAG_subprogram)
    <2e7d>   DW_AT_external    : 1
    <2e7d>   DW_AT_name        : (indirect string, offset: 0xb5b): xnmalloc
    <2e81>   DW_AT_decl_file   : 46
    <2e82>   DW_AT_decl_line   : 134
    <2e83>   DW_AT_decl_column : 7
    <2e84>   DW_AT_prototyped  : 1
    <2e84>   DW_AT_type        : <0x1bd>
    <2e88>   DW_AT_declaration : 1
    <2e88>   DW_AT_sibling     : <0x2e97>
 <2><2e8c>: Abbrev Number: 22 (DW_TAG_formal_parameter)
    <2e8d>   DW_AT_type        : <0x1f4>
 <2><2e91>: Abbrev Number: 22 (DW_TAG_formal_parameter)
    <2e92>   DW_AT_type        : <0x1f4>
 <2><2e96>: Abbrev Number: 0
 <1><2e97>: Abbrev Number: 50 (DW_TAG_subprogram)
    <2e98>   DW_AT_external    : 1
    <2e98>   DW_AT_name        : (indirect string, offset: 0x3624): fwrite_unlocked
    <2e9c>   DW_AT_decl_file   : 33
    <2e9d>   DW_AT_decl_line   : 675
    <2e9f>   DW_AT_decl_column : 15
    <2ea0>   DW_AT_prototyped  : 1
    <2ea0>   DW_AT_type        : <0x1f4>
    <2ea4>   DW_AT_declaration : 1
    <2ea4>   DW_AT_sibling     : <0x2ebd>
 <2><2ea8>: Abbrev Number: 22 (DW_TAG_formal_parameter)
    <2ea9>   DW_AT_type        : <0x60f>
 <2><2ead>: Abbrev Number: 22 (DW_TAG_formal_parameter)
    <2eae>   DW_AT_type        : <0x1f4>
 <2><2eb2>: Abbrev Number: 22 (DW_TAG_formal_parameter)
    <2eb3>   DW_AT_type        : <0x1f4>
 <2><2eb7>: Abbrev Number: 22 (DW_TAG_formal_parameter)
    <2eb8>   DW_AT_type        : <0xf25>
 <2><2ebc>: Abbrev Number: 0
 <1><2ebd>: Abbrev Number: 50 (DW_TAG_subprogram)
    <2ebe>   DW_AT_external    : 1
    <2ebe>   DW_AT_name        : (indirect string, offset: 0x21db): fputc_unlocked
    <2ec2>   DW_AT_decl_file   : 33
    <2ec3>   DW_AT_decl_line   : 537
    <2ec5>   DW_AT_decl_column : 12
    <2ec6>   DW_AT_prototyped  : 1
    <2ec6>   DW_AT_type        : <0x61>
    <2eca>   DW_AT_declaration : 1
    <2eca>   DW_AT_sibling     : <0x2ed9>
 <2><2ece>: Abbrev Number: 22 (DW_TAG_formal_parameter)
    <2ecf>   DW_AT_type        : <0x61>
 <2><2ed3>: Abbrev Number: 22 (DW_TAG_formal_parameter)
    <2ed4>   DW_AT_type        : <0xf1f>
 <2><2ed8>: Abbrev Number: 0
 <1><2ed9>: Abbrev Number: 47 (DW_TAG_subprogram)
    <2eda>   DW_AT_external    : 1
    <2eda>   DW_AT_name        : (indirect string, offset: 0xb10): xmemcoll0
    <2ede>   DW_AT_decl_file   : 54
    <2edf>   DW_AT_decl_line   : 21
    <2ee0>   DW_AT_decl_column : 5
    <2ee1>   DW_AT_prototyped  : 1
    <2ee1>   DW_AT_type        : <0x61>
    <2ee5>   DW_AT_declaration : 1
    <2ee5>   DW_AT_sibling     : <0x2efe>
 <2><2ee9>: Abbrev Number: 22 (DW_TAG_formal_parameter)
    <2eea>   DW_AT_type        : <0xb9>
 <2><2eee>: Abbrev Number: 22 (DW_TAG_formal_parameter)
    <2eef>   DW_AT_type        : <0x1f4>
 <2><2ef3>: Abbrev Number: 22 (DW_TAG_formal_parameter)
    <2ef4>   DW_AT_type        : <0xb9>
 <2><2ef8>: Abbrev Number: 22 (DW_TAG_formal_parameter)
    <2ef9>   DW_AT_type        : <0x1f4>
 <2><2efd>: Abbrev Number: 0
 <1><2efe>: Abbrev Number: 47 (DW_TAG_subprogram)
    <2eff>   DW_AT_external    : 1
    <2eff>   DW_AT_name        : (indirect string, offset: 0x1d4f): filenvercmp
    <2f03>   DW_AT_decl_file   : 55
    <2f04>   DW_AT_decl_line   : 73
    <2f05>   DW_AT_decl_column : 5
    <2f06>   DW_AT_prototyped  : 1
    <2f06>   DW_AT_type        : <0x61>
    <2f0a>   DW_AT_declaration : 1
    <2f0a>   DW_AT_sibling     : <0x2f23>
 <2><2f0e>: Abbrev Number: 22 (DW_TAG_formal_parameter)
    <2f0f>   DW_AT_type        : <0xb9>
 <2><2f13>: Abbrev Number: 22 (DW_TAG_formal_parameter)
    <2f14>   DW_AT_type        : <0x5be>
 <2><2f18>: Abbrev Number: 22 (DW_TAG_formal_parameter)
    <2f19>   DW_AT_type        : <0xb9>
 <2><2f1d>: Abbrev Number: 22 (DW_TAG_formal_parameter)
    <2f1e>   DW_AT_type        : <0x5be>
 <2><2f22>: Abbrev Number: 0
 <1><2f23>: Abbrev Number: 47 (DW_TAG_subprogram)
    <2f24>   DW_AT_external    : 1
    <2f24>   DW_AT_name        : (indirect string, offset: 0x790): ngettext
    <2f28>   DW_AT_decl_file   : 49
    <2f29>   DW_AT_decl_line   : 61
    <2f2a>   DW_AT_decl_column : 14
    <2f2b>   DW_AT_prototyped  : 1
    <2f2b>   DW_AT_type        : <0x39>
    <2f2f>   DW_AT_declaration : 1
    <2f2f>   DW_AT_sibling     : <0x2f43>
 <2><2f33>: Abbrev Number: 22 (DW_TAG_formal_parameter)
    <2f34>   DW_AT_type        : <0xb9>
 <2><2f38>: Abbrev Number: 22 (DW_TAG_formal_parameter)
    <2f39>   DW_AT_type        : <0xb9>
 <2><2f3d>: Abbrev Number: 22 (DW_TAG_formal_parameter)
    <2f3e>   DW_AT_type        : <0xe9>
 <2><2f42>: Abbrev Number: 0
 <1><2f43>: Abbrev Number: 47 (DW_TAG_subprogram)
    <2f44>   DW_AT_external    : 1
    <2f44>   DW_AT_name        : (indirect string, offset: 0x2b8f): quote_n
    <2f48>   DW_AT_decl_file   : 56
    <2f49>   DW_AT_decl_line   : 40
    <2f4a>   DW_AT_decl_column : 13
    <2f4b>   DW_AT_prototyped  : 1
    <2f4b>   DW_AT_type        : <0xb9>
    <2f4f>   DW_AT_declaration : 1
    <2f4f>   DW_AT_sibling     : <0x2f5e>
 <2><2f53>: Abbrev Number: 22 (DW_TAG_formal_parameter)
    <2f54>   DW_AT_type        : <0x61>
 <2><2f58>: Abbrev Number: 22 (DW_TAG_formal_parameter)
    <2f59>   DW_AT_type        : <0xb9>
 <2><2f5d>: Abbrev Number: 0
 <1><2f5e>: Abbrev Number: 50 (DW_TAG_subprogram)
    <2f5f>   DW_AT_external    : 1
    <2f5f>   DW_AT_name        : (indirect string, offset: 0x40f): stpcpy
    <2f63>   DW_AT_decl_file   : 57
    <2f64>   DW_AT_decl_line   : 452
    <2f66>   DW_AT_decl_column : 14
    <2f67>   DW_AT_prototyped  : 1
    <2f67>   DW_AT_type        : <0x39>
    <2f6b>   DW_AT_declaration : 1
    <2f6b>   DW_AT_sibling     : <0x2f7a>
 <2><2f6f>: Abbrev Number: 22 (DW_TAG_formal_parameter)
    <2f70>   DW_AT_type        : <0x39>
 <2><2f74>: Abbrev Number: 22 (DW_TAG_formal_parameter)
    <2f75>   DW_AT_type        : <0xb9>
 <2><2f79>: Abbrev Number: 0
 <1><2f7a>: Abbrev Number: 47 (DW_TAG_subprogram)
    <2f7b>   DW_AT_external    : 1
    <2f7b>   DW_AT_name        : (indirect string, offset: 0x242b): umaxtostr
    <2f7f>   DW_AT_decl_file   : 58
    <2f80>   DW_AT_decl_line   : 29
    <2f81>   DW_AT_decl_column : 31
    <2f82>   DW_AT_prototyped  : 1
    <2f82>   DW_AT_type        : <0x39>
    <2f86>   DW_AT_declaration : 1
    <2f86>   DW_AT_sibling     : <0x2f95>
 <2><2f8a>: Abbrev Number: 22 (DW_TAG_formal_parameter)
    <2f8b>   DW_AT_type        : <0xb48>
 <2><2f8f>: Abbrev Number: 22 (DW_TAG_formal_parameter)
    <2f90>   DW_AT_type        : <0x39>
 <2><2f94>: Abbrev Number: 0
 <1><2f95>: Abbrev Number: 50 (DW_TAG_subprogram)
    <2f96>   DW_AT_external    : 1
    <2f96>   DW_AT_name        : (indirect string, offset: 0x39aa): putchar_unlocked
    <2f9a>   DW_AT_decl_file   : 33
    <2f9b>   DW_AT_decl_line   : 546
    <2f9d>   DW_AT_decl_column : 12
    <2f9e>   DW_AT_prototyped  : 1
    <2f9e>   DW_AT_type        : <0x61>
    <2fa2>   DW_AT_declaration : 1
    <2fa2>   DW_AT_sibling     : <0x2fac>
 <2><2fa6>: Abbrev Number: 22 (DW_TAG_formal_parameter)
    <2fa7>   DW_AT_type        : <0x61>
 <2><2fab>: Abbrev Number: 0
 <1><2fac>: Abbrev Number: 47 (DW_TAG_subprogram)
    <2fad>   DW_AT_external    : 1
    <2fad>   DW_AT_name        : (indirect string, offset: 0x23f0): mbsnwidth
    <2fb1>   DW_AT_decl_file   : 59
    <2fb2>   DW_AT_decl_line   : 50
    <2fb3>   DW_AT_decl_column : 12
    <2fb4>   DW_AT_prototyped  : 1
    <2fb4>   DW_AT_type        : <0x61>
    <2fb8>   DW_AT_declaration : 1
    <2fb8>   DW_AT_sibling     : <0x2fcc>
 <2><2fbc>: Abbrev Number: 22 (DW_TAG_formal_parameter)
    <2fbd>   DW_AT_type        : <0xb9>
 <2><2fc1>: Abbrev Number: 22 (DW_TAG_formal_parameter)
    <2fc2>   DW_AT_type        : <0x1f4>
 <2><2fc6>: Abbrev Number: 22 (DW_TAG_formal_parameter)
    <2fc7>   DW_AT_type        : <0x61>
 <2><2fcb>: Abbrev Number: 0
 <1><2fcc>: Abbrev Number: 47 (DW_TAG_subprogram)
    <2fcd>   DW_AT_external    : 1
    <2fcd>   DW_AT_name        : (indirect string, offset: 0x3105): md5_finish_ctx
    <2fd1>   DW_AT_decl_file   : 39
    <2fd2>   DW_AT_decl_line   : 108
    <2fd3>   DW_AT_decl_column : 14
    <2fd4>   DW_AT_prototyped  : 1
    <2fd4>   DW_AT_type        : <0x1bd>
    <2fd8>   DW_AT_declaration : 1
    <2fd8>   DW_AT_sibling     : <0x2fe7>
 <2><2fdc>: Abbrev Number: 22 (DW_TAG_formal_parameter)
    <2fdd>   DW_AT_type        : <0x2fe7>
 <2><2fe1>: Abbrev Number: 22 (DW_TAG_formal_parameter)
    <2fe2>   DW_AT_type        : <0x1bf>
 <2><2fe6>: Abbrev Number: 0
 <1><2fe7>: Abbrev Number: 3 (DW_TAG_pointer_type)
    <2fe8>   DW_AT_byte_size   : 8
    <2fe9>   DW_AT_type        : <0x10f9>
 <1><2fed>: Abbrev Number: 50 (DW_TAG_subprogram)
    <2fee>   DW_AT_external    : 1
    <2fee>   DW_AT_name        : (indirect string, offset: 0x15bc): quotearg_n_style
    <2ff2>   DW_AT_decl_file   : 35
    <2ff3>   DW_AT_decl_line   : 374
    <2ff5>   DW_AT_decl_column : 7
    <2ff6>   DW_AT_prototyped  : 1
    <2ff6>   DW_AT_type        : <0x39>
    <2ffa>   DW_AT_declaration : 1
    <2ffa>   DW_AT_sibling     : <0x300e>
 <2><2ffe>: Abbrev Number: 22 (DW_TAG_formal_parameter)
    <2fff>   DW_AT_type        : <0x61>
 <2><3003>: Abbrev Number: 22 (DW_TAG_formal_parameter)
    <3004>   DW_AT_type        : <0xf71>
 <2><3008>: Abbrev Number: 22 (DW_TAG_formal_parameter)
    <3009>   DW_AT_type        : <0xb9>
 <2><300d>: Abbrev Number: 0
 <1><300e>: Abbrev Number: 47 (DW_TAG_subprogram)
    <300f>   DW_AT_external    : 1
    <300f>   DW_AT_name        : (indirect string, offset: 0x23a3): strxfrm
    <3013>   DW_AT_decl_file   : 57
    <3014>   DW_AT_decl_line   : 147
    <3015>   DW_AT_decl_column : 15
    <3016>   DW_AT_prototyped  : 1
    <3016>   DW_AT_type        : <0x1f4>
    <301a>   DW_AT_declaration : 1
    <301a>   DW_AT_sibling     : <0x302e>
 <2><301e>: Abbrev Number: 22 (DW_TAG_formal_parameter)
    <301f>   DW_AT_type        : <0x44>
 <2><3023>: Abbrev Number: 22 (DW_TAG_formal_parameter)
    <3024>   DW_AT_type        : <0xc4>
 <2><3028>: Abbrev Number: 22 (DW_TAG_formal_parameter)
    <3029>   DW_AT_type        : <0x1f4>
 <2><302d>: Abbrev Number: 0
 <1><302e>: Abbrev Number: 48 (DW_TAG_subprogram)
    <302f>   DW_AT_external    : 1
    <302f>   DW_AT_name        : (indirect string, offset: 0x2f): md5_process_bytes
    <3033>   DW_AT_decl_file   : 39
    <3034>   DW_AT_decl_line   : 101
    <3035>   DW_AT_decl_column : 13
    <3036>   DW_AT_prototyped  : 1
    <3036>   DW_AT_declaration : 1
    <3036>   DW_AT_sibling     : <0x304a>
 <2><303a>: Abbrev Number: 22 (DW_TAG_formal_parameter)
    <303b>   DW_AT_type        : <0x609>
 <2><303f>: Abbrev Number: 22 (DW_TAG_formal_parameter)
    <3040>   DW_AT_type        : <0x1f4>
 <2><3044>: Abbrev Number: 22 (DW_TAG_formal_parameter)
    <3045>   DW_AT_type        : <0x2fe7>
 <2><3049>: Abbrev Number: 0
 <1><304a>: Abbrev Number: 48 (DW_TAG_subprogram)
    <304b>   DW_AT_external    : 1
    <304b>   DW_AT_name        : (indirect string, offset: 0x274c): md5_init_ctx
    <304f>   DW_AT_decl_file   : 39
    <3050>   DW_AT_decl_line   : 88
    <3051>   DW_AT_decl_column : 13
    <3052>   DW_AT_prototyped  : 1
    <3052>   DW_AT_declaration : 1
    <3052>   DW_AT_sibling     : <0x305c>
 <2><3056>: Abbrev Number: 22 (DW_TAG_formal_parameter)
    <3057>   DW_AT_type        : <0x2fe7>
 <2><305b>: Abbrev Number: 0
 <1><305c>: Abbrev Number: 47 (DW_TAG_subprogram)
    <305d>   DW_AT_external    : 1
    <305d>   DW_AT_name        : (indirect string, offset: 0x33c0): randread_free
    <3061>   DW_AT_decl_file   : 60
    <3062>   DW_AT_decl_line   : 27
    <3063>   DW_AT_decl_column : 5
    <3064>   DW_AT_prototyped  : 1
    <3064>   DW_AT_type        : <0x61>
    <3068>   DW_AT_declaration : 1
    <3068>   DW_AT_sibling     : <0x3072>
 <2><306c>: Abbrev Number: 22 (DW_TAG_formal_parameter)
    <306d>   DW_AT_type        : <0x3072>
 <2><3071>: Abbrev Number: 0
 <1><3072>: Abbrev Number: 3 (DW_TAG_pointer_type)
    <3073>   DW_AT_byte_size   : 8
    <3074>   DW_AT_type        : <0x3078>
 <1><3078>: Abbrev Number: 34 (DW_TAG_structure_type)
    <3079>   DW_AT_name        : (indirect string, offset: 0x244f): randread_source
    <307d>   DW_AT_declaration : 1
 <1><307d>: Abbrev Number: 48 (DW_TAG_subprogram)
    <307e>   DW_AT_external    : 1
    <307e>   DW_AT_name        : (indirect string, offset: 0x2d11): randread
    <3082>   DW_AT_decl_file   : 60
    <3083>   DW_AT_decl_line   : 30
    <3084>   DW_AT_decl_column : 6
    <3085>   DW_AT_prototyped  : 1
    <3085>   DW_AT_declaration : 1
    <3085>   DW_AT_sibling     : <0x3099>
 <2><3089>: Abbrev Number: 22 (DW_TAG_formal_parameter)
    <308a>   DW_AT_type        : <0x3072>
 <2><308e>: Abbrev Number: 22 (DW_TAG_formal_parameter)
    <308f>   DW_AT_type        : <0x1bd>
 <2><3093>: Abbrev Number: 22 (DW_TAG_formal_parameter)
    <3094>   DW_AT_type        : <0x1f4>
 <2><3098>: Abbrev Number: 0
 <1><3099>: Abbrev Number: 47 (DW_TAG_subprogram)
    <309a>   DW_AT_external    : 1
    <309a>   DW_AT_name        : (indirect string, offset: 0x2dfc): randread_new
    <309e>   DW_AT_decl_file   : 60
    <309f>   DW_AT_decl_line   : 28
    <30a0>   DW_AT_decl_column : 25
    <30a1>   DW_AT_prototyped  : 1
    <30a1>   DW_AT_type        : <0x3072>
    <30a5>   DW_AT_declaration : 1
    <30a5>   DW_AT_sibling     : <0x30b4>
 <2><30a9>: Abbrev Number: 22 (DW_TAG_formal_parameter)
    <30aa>   DW_AT_type        : <0xb9>
 <2><30ae>: Abbrev Number: 22 (DW_TAG_formal_parameter)
    <30af>   DW_AT_type        : <0x1f4>
 <2><30b3>: Abbrev Number: 0
 <1><30b4>: Abbrev Number: 47 (DW_TAG_subprogram)
    <30b5>   DW_AT_external    : 1
    <30b5>   DW_AT_name        : (indirect string, offset: 0x4b6): memcmp
    <30b9>   DW_AT_decl_file   : 57
    <30ba>   DW_AT_decl_line   : 64
    <30bb>   DW_AT_decl_column : 12
    <30bc>   DW_AT_prototyped  : 1
    <30bc>   DW_AT_type        : <0x61>
    <30c0>   DW_AT_declaration : 1
    <30c0>   DW_AT_sibling     : <0x30d4>
 <2><30c4>: Abbrev Number: 22 (DW_TAG_formal_parameter)
    <30c5>   DW_AT_type        : <0x609>
 <2><30c9>: Abbrev Number: 22 (DW_TAG_formal_parameter)
    <30ca>   DW_AT_type        : <0x609>
 <2><30ce>: Abbrev Number: 22 (DW_TAG_formal_parameter)
    <30cf>   DW_AT_type        : <0x1f4>
 <2><30d3>: Abbrev Number: 0
 <1><30d4>: Abbrev Number: 47 (DW_TAG_subprogram)
    <30d5>   DW_AT_external    : 1
    <30d5>   DW_AT_name        : (indirect string, offset: 0x11cb): strtold
    <30d9>   DW_AT_decl_file   : 16
    <30da>   DW_AT_decl_line   : 126
    <30db>   DW_AT_decl_column : 20
    <30dc>   DW_AT_prototyped  : 1
    <30dc>   DW_AT_type        : <0x5ca>
    <30e0>   DW_AT_declaration : 1
    <30e0>   DW_AT_sibling     : <0x30ef>
 <2><30e4>: Abbrev Number: 22 (DW_TAG_formal_parameter)
    <30e5>   DW_AT_type        : <0xc4>
 <2><30e9>: Abbrev Number: 22 (DW_TAG_formal_parameter)
    <30ea>   DW_AT_type        : <0xb0f>
 <2><30ee>: Abbrev Number: 0
 <1><30ef>: Abbrev Number: 47 (DW_TAG_subprogram)
    <30f0>   DW_AT_external    : 1
    <30f0>   DW_AT_name        : (indirect string, offset: 0x1c33): memset
    <30f4>   DW_AT_decl_file   : 57
    <30f5>   DW_AT_decl_line   : 61
    <30f6>   DW_AT_decl_column : 14
    <30f7>   DW_AT_prototyped  : 1
    <30f7>   DW_AT_type        : <0x1bd>
    <30fb>   DW_AT_declaration : 1
    <30fb>   DW_AT_sibling     : <0x310f>
 <2><30ff>: Abbrev Number: 22 (DW_TAG_formal_parameter)
    <3100>   DW_AT_type        : <0x1bd>
 <2><3104>: Abbrev Number: 22 (DW_TAG_formal_parameter)
    <3105>   DW_AT_type        : <0x61>
 <2><3109>: Abbrev Number: 22 (DW_TAG_formal_parameter)
    <310a>   DW_AT_type        : <0x1f4>
 <2><310e>: Abbrev Number: 0
 <1><310f>: Abbrev Number: 47 (DW_TAG_subprogram)
    <3110>   DW_AT_external    : 1
    <3110>   DW_AT_name        : (indirect string, offset: 0x2e62): strnumcmp
    <3114>   DW_AT_decl_file   : 61
    <3115>   DW_AT_decl_line   : 3
    <3116>   DW_AT_decl_column : 5
    <3117>   DW_AT_prototyped  : 1
    <3117>   DW_AT_type        : <0x61>
    <311b>   DW_AT_declaration : 1
    <311b>   DW_AT_sibling     : <0x3134>
 <2><311f>: Abbrev Number: 22 (DW_TAG_formal_parameter)
    <3120>   DW_AT_type        : <0xb9>
 <2><3124>: Abbrev Number: 22 (DW_TAG_formal_parameter)
    <3125>   DW_AT_type        : <0xb9>
 <2><3129>: Abbrev Number: 22 (DW_TAG_formal_parameter)
    <312a>   DW_AT_type        : <0x61>
 <2><312e>: Abbrev Number: 22 (DW_TAG_formal_parameter)
    <312f>   DW_AT_type        : <0x61>
 <2><3133>: Abbrev Number: 0
 <1><3134>: Abbrev Number: 47 (DW_TAG_subprogram)
    <3135>   DW_AT_external    : 1
    <3135>   DW_AT_name        : (indirect string, offset: 0x3b50): memchr
    <3139>   DW_AT_decl_file   : 57
    <313a>   DW_AT_decl_line   : 91
    <313b>   DW_AT_decl_column : 14
    <313c>   DW_AT_prototyped  : 1
    <313c>   DW_AT_type        : <0x1bd>
    <3140>   DW_AT_declaration : 1
    <3140>   DW_AT_sibling     : <0x3154>
 <2><3144>: Abbrev Number: 22 (DW_TAG_formal_parameter)
    <3145>   DW_AT_type        : <0x609>
 <2><3149>: Abbrev Number: 22 (DW_TAG_formal_parameter)
    <314a>   DW_AT_type        : <0x61>
 <2><314e>: Abbrev Number: 22 (DW_TAG_formal_parameter)
    <314f>   DW_AT_type        : <0x1f4>
 <2><3153>: Abbrev Number: 0
 <1><3154>: Abbrev Number: 50 (DW_TAG_subprogram)
    <3155>   DW_AT_external    : 1
    <3155>   DW_AT_name        : (indirect string, offset: 0x35bb): feof_unlocked
    <3159>   DW_AT_decl_file   : 33
    <315a>   DW_AT_decl_line   : 766
    <315c>   DW_AT_decl_column : 12
    <315d>   DW_AT_prototyped  : 1
    <315d>   DW_AT_type        : <0x61>
    <3161>   DW_AT_declaration : 1
    <3161>   DW_AT_sibling     : <0x316b>
 <2><3165>: Abbrev Number: 22 (DW_TAG_formal_parameter)
    <3166>   DW_AT_type        : <0xf1f>
 <2><316a>: Abbrev Number: 0
 <1><316b>: Abbrev Number: 50 (DW_TAG_subprogram)
    <316c>   DW_AT_external    : 1
    <316c>   DW_AT_name        : (indirect string, offset: 0x22ab): ferror_unlocked
    <3170>   DW_AT_decl_file   : 33
    <3171>   DW_AT_decl_line   : 767
    <3173>   DW_AT_decl_column : 12
    <3174>   DW_AT_prototyped  : 1
    <3174>   DW_AT_type        : <0x61>
    <3178>   DW_AT_declaration : 1
    <3178>   DW_AT_sibling     : <0x3182>
 <2><317c>: Abbrev Number: 22 (DW_TAG_formal_parameter)
    <317d>   DW_AT_type        : <0xf1f>
 <2><3181>: Abbrev Number: 0
 <1><3182>: Abbrev Number: 50 (DW_TAG_subprogram)
    <3183>   DW_AT_external    : 1
    <3183>   DW_AT_name        : (indirect string, offset: 0x27b0): fread_unlocked
    <3187>   DW_AT_decl_file   : 33
    <3188>   DW_AT_decl_line   : 673
    <318a>   DW_AT_decl_column : 15
    <318b>   DW_AT_prototyped  : 1
    <318b>   DW_AT_type        : <0x1f4>
    <318f>   DW_AT_declaration : 1
    <318f>   DW_AT_sibling     : <0x31a8>
 <2><3193>: Abbrev Number: 22 (DW_TAG_formal_parameter)
    <3194>   DW_AT_type        : <0x1bf>
 <2><3198>: Abbrev Number: 22 (DW_TAG_formal_parameter)
    <3199>   DW_AT_type        : <0x1f4>
 <2><319d>: Abbrev Number: 22 (DW_TAG_formal_parameter)
    <319e>   DW_AT_type        : <0x1f4>
 <2><31a2>: Abbrev Number: 22 (DW_TAG_formal_parameter)
    <31a3>   DW_AT_type        : <0xf25>
 <2><31a7>: Abbrev Number: 0
 <1><31a8>: Abbrev Number: 47 (DW_TAG_subprogram)
    <31a9>   DW_AT_external    : 1
    <31a9>   DW_AT_name        : (indirect string, offset: 0x2259): memmove
    <31ad>   DW_AT_decl_file   : 57
    <31ae>   DW_AT_decl_line   : 47
    <31af>   DW_AT_decl_column : 14
    <31b0>   DW_AT_prototyped  : 1
    <31b0>   DW_AT_type        : <0x1bd>
    <31b4>   DW_AT_declaration : 1
    <31b4>   DW_AT_sibling     : <0x31c8>
 <2><31b8>: Abbrev Number: 22 (DW_TAG_formal_parameter)
    <31b9>   DW_AT_type        : <0x1bd>
 <2><31bd>: Abbrev Number: 22 (DW_TAG_formal_parameter)
    <31be>   DW_AT_type        : <0x609>
 <2><31c2>: Abbrev Number: 22 (DW_TAG_formal_parameter)
    <31c3>   DW_AT_type        : <0x1f4>
 <2><31c7>: Abbrev Number: 0
 <1><31c8>: Abbrev Number: 50 (DW_TAG_subprogram)
    <31c9>   DW_AT_external    : 1
    <31c9>   DW_AT_name        : (indirect string, offset: 0x5d53): malloc
    <31cd>   DW_AT_decl_file   : 62
    <31ce>   DW_AT_decl_line   : 1044
    <31d0>   DW_AT_decl_column : 1
    <31d1>   DW_AT_prototyped  : 1
    <31d1>   DW_AT_type        : <0x1bd>
    <31d5>   DW_AT_declaration : 1
    <31d5>   DW_AT_sibling     : <0x31df>
 <2><31d9>: Abbrev Number: 22 (DW_TAG_formal_parameter)
    <31da>   DW_AT_type        : <0x1f4>
 <2><31de>: Abbrev Number: 0
 <1><31df>: Abbrev Number: 47 (DW_TAG_subprogram)
    <31e0>   DW_AT_external    : 1
    <31e0>   DW_AT_name        : (indirect string, offset: 0x6ae): stat
    <31e4>   DW_AT_decl_file   : 63
    <31e5>   DW_AT_decl_line   : 205
    <31e6>   DW_AT_decl_column : 12
    <31e7>   DW_AT_prototyped  : 1
    <31e7>   DW_AT_type        : <0x61>
    <31eb>   DW_AT_declaration : 1
    <31eb>   DW_AT_sibling     : <0x31fa>
 <2><31ef>: Abbrev Number: 22 (DW_TAG_formal_parameter)
    <31f0>   DW_AT_type        : <0xc4>
 <2><31f4>: Abbrev Number: 22 (DW_TAG_formal_parameter)
    <31f5>   DW_AT_type        : <0x3200>
 <2><31f9>: Abbrev Number: 0
 <1><31fa>: Abbrev Number: 3 (DW_TAG_pointer_type)
    <31fb>   DW_AT_byte_size   : 8
    <31fc>   DW_AT_type        : <0xa28>
 <1><3200>: Abbrev Number: 5 (DW_TAG_restrict_type)
    <3201>   DW_AT_type        : <0x31fa>
 <1><3205>: Abbrev Number: 51 (DW_TAG_subprogram)
    <3206>   DW_AT_external    : 1
    <3206>   DW_AT_name        : (indirect string, offset: 0x2028): physmem_available
    <320a>   DW_AT_decl_file   : 64
    <320b>   DW_AT_decl_line   : 24
    <320c>   DW_AT_decl_column : 8
    <320d>   DW_AT_prototyped  : 1
    <320d>   DW_AT_type        : <0x3211>
    <3211>   DW_AT_declaration : 1
 <1><3211>: Abbrev Number: 6 (DW_TAG_base_type)
    <3212>   DW_AT_byte_size   : 8
    <3213>   DW_AT_encoding    : 4	(float)
    <3214>   DW_AT_name        : (indirect string, offset: 0x25b8): double
 <1><3218>: Abbrev Number: 51 (DW_TAG_subprogram)
    <3219>   DW_AT_external    : 1
    <3219>   DW_AT_name        : (indirect string, offset: 0x2cf4): physmem_total
    <321d>   DW_AT_decl_file   : 64
    <321e>   DW_AT_decl_line   : 23
    <321f>   DW_AT_decl_column : 8
    <3220>   DW_AT_prototyped  : 1
    <3220>   DW_AT_type        : <0x3211>
    <3224>   DW_AT_declaration : 1
 <1><3224>: Abbrev Number: 52 (DW_TAG_subprogram)
    <3225>   DW_AT_external    : 1
    <3225>   DW_AT_name        : (indirect string, offset: 0x321f): xstrtol_fatal
    <3229>   DW_AT_decl_file   : 65
    <322a>   DW_AT_decl_line   : 41
    <322b>   DW_AT_decl_column : 16
    <322c>   DW_AT_prototyped  : 1
    <322c>   DW_AT_noreturn    : 1
    <322c>   DW_AT_declaration : 1
    <322c>   DW_AT_sibling     : <0x324a>
 <2><3230>: Abbrev Number: 22 (DW_TAG_formal_parameter)
    <3231>   DW_AT_type        : <0x13b3>
 <2><3235>: Abbrev Number: 22 (DW_TAG_formal_parameter)
    <3236>   DW_AT_type        : <0x61>
 <2><323a>: Abbrev Number: 22 (DW_TAG_formal_parameter)
    <323b>   DW_AT_type        : <0x49>
 <2><323f>: Abbrev Number: 22 (DW_TAG_formal_parameter)
    <3240>   DW_AT_type        : <0x2b1e>
 <2><3244>: Abbrev Number: 22 (DW_TAG_formal_parameter)
    <3245>   DW_AT_type        : <0xb9>
 <2><3249>: Abbrev Number: 0
 <1><324a>: Abbrev Number: 47 (DW_TAG_subprogram)
    <324b>   DW_AT_external    : 1
    <324b>   DW_AT_name        : (indirect string, offset: 0x3680): uinttostr
    <324f>   DW_AT_decl_file   : 58
    <3250>   DW_AT_decl_line   : 28
    <3251>   DW_AT_decl_column : 31
    <3252>   DW_AT_prototyped  : 1
    <3252>   DW_AT_type        : <0x39>
    <3256>   DW_AT_declaration : 1
    <3256>   DW_AT_sibling     : <0x3265>
 <2><325a>: Abbrev Number: 22 (DW_TAG_formal_parameter)
    <325b>   DW_AT_type        : <0xe2>
 <2><325f>: Abbrev Number: 22 (DW_TAG_formal_parameter)
    <3260>   DW_AT_type        : <0x39>
 <2><3264>: Abbrev Number: 0
 <1><3265>: Abbrev Number: 47 (DW_TAG_subprogram)
    <3266>   DW_AT_external    : 1
    <3266>   DW_AT_name        : (indirect string, offset: 0x54b1): quote
    <326a>   DW_AT_decl_file   : 56
    <326b>   DW_AT_decl_line   : 44
    <326c>   DW_AT_decl_column : 13
    <326d>   DW_AT_prototyped  : 1
    <326d>   DW_AT_type        : <0xb9>
    <3271>   DW_AT_declaration : 1
    <3271>   DW_AT_sibling     : <0x327b>
 <2><3275>: Abbrev Number: 22 (DW_TAG_formal_parameter)
    <3276>   DW_AT_type        : <0xb9>
 <2><327a>: Abbrev Number: 0
 <1><327b>: Abbrev Number: 47 (DW_TAG_subprogram)
    <327c>   DW_AT_external    : 1
    <327c>   DW_AT_name        : (indirect string, offset: 0x37d1): getrlimit
    <3280>   DW_AT_decl_file   : 18
    <3281>   DW_AT_decl_line   : 50
    <3282>   DW_AT_decl_column : 12
    <3283>   DW_AT_prototyped  : 1
    <3283>   DW_AT_type        : <0x61>
    <3287>   DW_AT_declaration : 1
    <3287>   DW_AT_sibling     : <0x3296>
 <2><328b>: Abbrev Number: 22 (DW_TAG_formal_parameter)
    <328c>   DW_AT_type        : <0x6ce>
 <2><3290>: Abbrev Number: 22 (DW_TAG_formal_parameter)
    <3291>   DW_AT_type        : <0x3296>
 <2><3295>: Abbrev Number: 0
 <1><3296>: Abbrev Number: 3 (DW_TAG_pointer_type)
    <3297>   DW_AT_byte_size   : 8
    <3298>   DW_AT_type        : <0x6a6>
 <1><329c>: Abbrev Number: 47 (DW_TAG_subprogram)
    <329d>   DW_AT_external    : 1
    <329d>   DW_AT_name        : (indirect string, offset: 0x3ff): xstrtoumax
    <32a1>   DW_AT_decl_file   : 43
    <32a2>   DW_AT_decl_line   : 49
    <32a3>   DW_AT_decl_column : 1
    <32a4>   DW_AT_prototyped  : 1
    <32a4>   DW_AT_type        : <0x13e4>
    <32a8>   DW_AT_declaration : 1
    <32a8>   DW_AT_sibling     : <0x32c6>
 <2><32ac>: Abbrev Number: 22 (DW_TAG_formal_parameter)
    <32ad>   DW_AT_type        : <0xb9>
 <2><32b1>: Abbrev Number: 22 (DW_TAG_formal_parameter)
    <32b2>   DW_AT_type        : <0xb09>
 <2><32b6>: Abbrev Number: 22 (DW_TAG_formal_parameter)
    <32b7>   DW_AT_type        : <0x61>
 <2><32bb>: Abbrev Number: 22 (DW_TAG_formal_parameter)
    <32bc>   DW_AT_type        : <0x32c6>
 <2><32c0>: Abbrev Number: 22 (DW_TAG_formal_parameter)
    <32c1>   DW_AT_type        : <0xb9>
 <2><32c5>: Abbrev Number: 0
 <1><32c6>: Abbrev Number: 3 (DW_TAG_pointer_type)
    <32c7>   DW_AT_byte_size   : 8
    <32c8>   DW_AT_type        : <0xb48>
 <1><32cc>: Abbrev Number: 53 (DW_TAG_subprogram)
    <32cd>   DW_AT_external    : 1
    <32cd>   DW_AT_name        : (indirect string, offset: 0x2e27): qsort
    <32d1>   DW_AT_decl_file   : 16
    <32d2>   DW_AT_decl_line   : 830
    <32d4>   DW_AT_decl_column : 13
    <32d5>   DW_AT_prototyped  : 1
    <32d5>   DW_AT_declaration : 1
    <32d5>   DW_AT_sibling     : <0x32ee>
 <2><32d9>: Abbrev Number: 22 (DW_TAG_formal_parameter)
    <32da>   DW_AT_type        : <0x1bd>
 <2><32de>: Abbrev Number: 22 (DW_TAG_formal_parameter)
    <32df>   DW_AT_type        : <0x1f4>
 <2><32e3>: Abbrev Number: 22 (DW_TAG_formal_parameter)
    <32e4>   DW_AT_type        : <0x1f4>
 <2><32e8>: Abbrev Number: 22 (DW_TAG_formal_parameter)
    <32e9>   DW_AT_type        : <0x5e2>
 <2><32ed>: Abbrev Number: 0
 <1><32ee>: Abbrev Number: 50 (DW_TAG_subprogram)
    <32ef>   DW_AT_external    : 1
    <32ef>   DW_AT_name        : (indirect string, offset: 0x2f8): nl_langinfo
    <32f3>   DW_AT_decl_file   : 45
    <32f4>   DW_AT_decl_line   : 661
    <32f6>   DW_AT_decl_column : 14
    <32f7>   DW_AT_prototyped  : 1
    <32f7>   DW_AT_type        : <0x39>
    <32fb>   DW_AT_declaration : 1
    <32fb>   DW_AT_sibling     : <0x3305>
 <2><32ff>: Abbrev Number: 22 (DW_TAG_formal_parameter)
    <3300>   DW_AT_type        : <0x13f0>
 <2><3304>: Abbrev Number: 0
 <1><3305>: Abbrev Number: 47 (DW_TAG_subprogram)
    <3306>   DW_AT_external    : 1
    <3306>   DW_AT_name        : (indirect string, offset: 0x5fc4): toupper
    <330a>   DW_AT_decl_file   : 29
    <330b>   DW_AT_decl_line   : 125
    <330c>   DW_AT_decl_column : 12
    <330d>   DW_AT_prototyped  : 1
    <330d>   DW_AT_type        : <0x61>
    <3311>   DW_AT_declaration : 1
    <3311>   DW_AT_sibling     : <0x331b>
 <2><3315>: Abbrev Number: 22 (DW_TAG_formal_parameter)
    <3316>   DW_AT_type        : <0x61>
 <2><331a>: Abbrev Number: 0
 <1><331b>: Abbrev Number: 51 (DW_TAG_subprogram)
    <331c>   DW_AT_external    : 1
    <331c>   DW_AT_name        : (indirect string, offset: 0x355e): __ctype_b_loc
    <3320>   DW_AT_decl_file   : 29
    <3321>   DW_AT_decl_line   : 79
    <3322>   DW_AT_decl_column : 35
    <3323>   DW_AT_prototyped  : 1
    <3323>   DW_AT_type        : <0x3327>
    <3327>   DW_AT_declaration : 1
 <1><3327>: Abbrev Number: 3 (DW_TAG_pointer_type)
    <3328>   DW_AT_byte_size   : 8
    <3329>   DW_AT_type        : <0x5b8>
 <1><332d>: Abbrev Number: 47 (DW_TAG_subprogram)
    <332e>   DW_AT_external    : 1
    <332e>   DW_AT_name        : (indirect string, offset: 0x30c0): x2nrealloc
    <3332>   DW_AT_decl_file   : 46
    <3333>   DW_AT_decl_line   : 88
    <3334>   DW_AT_decl_column : 7
    <3335>   DW_AT_prototyped  : 1
    <3335>   DW_AT_type        : <0x1bd>
    <3339>   DW_AT_declaration : 1
    <3339>   DW_AT_sibling     : <0x334d>
 <2><333d>: Abbrev Number: 22 (DW_TAG_formal_parameter)
    <333e>   DW_AT_type        : <0x1bd>
 <2><3342>: Abbrev Number: 22 (DW_TAG_formal_parameter)
    <3343>   DW_AT_type        : <0x13ad>
 <2><3347>: Abbrev Number: 22 (DW_TAG_formal_parameter)
    <3348>   DW_AT_type        : <0x1f4>
 <2><334c>: Abbrev Number: 0
 <1><334d>: Abbrev Number: 50 (DW_TAG_subprogram)
    <334e>   DW_AT_external    : 1
    <334e>   DW_AT_name        : (indirect string, offset: 0x16d5): execlp
    <3352>   DW_AT_decl_file   : 51
    <3353>   DW_AT_decl_line   : 584
    <3355>   DW_AT_decl_column : 12
    <3356>   DW_AT_prototyped  : 1
    <3356>   DW_AT_type        : <0x61>
    <335a>   DW_AT_declaration : 1
    <335a>   DW_AT_sibling     : <0x336a>
 <2><335e>: Abbrev Number: 22 (DW_TAG_formal_parameter)
    <335f>   DW_AT_type        : <0xb9>
 <2><3363>: Abbrev Number: 22 (DW_TAG_formal_parameter)
    <3364>   DW_AT_type        : <0xb9>
 <2><3368>: Abbrev Number: 49 (DW_TAG_unspecified_parameters)
 <2><3369>: Abbrev Number: 0
 <1><336a>: Abbrev Number: 47 (DW_TAG_subprogram)
    <336b>   DW_AT_external    : 1
    <336b>   DW_AT_name        : (indirect string, offset: 0x1540): xnanosleep
    <336f>   DW_AT_decl_file   : 66
    <3370>   DW_AT_decl_line   : 21
    <3371>   DW_AT_decl_column : 5
    <3372>   DW_AT_prototyped  : 1
    <3372>   DW_AT_type        : <0x61>
    <3376>   DW_AT_declaration : 1
    <3376>   DW_AT_sibling     : <0x3380>
 <2><337a>: Abbrev Number: 22 (DW_TAG_formal_parameter)
    <337b>   DW_AT_type        : <0x3211>
 <2><337f>: Abbrev Number: 0
 <1><3380>: Abbrev Number: 54 (DW_TAG_subprogram)
    <3381>   DW_AT_external    : 1
    <3381>   DW_AT_name        : (indirect string, offset: 0x1ad9): fork
    <3385>   DW_AT_decl_file   : 51
    <3386>   DW_AT_decl_line   : 756
    <3388>   DW_AT_decl_column : 16
    <3389>   DW_AT_prototyped  : 1
    <3389>   DW_AT_type        : <0x17d>
    <338d>   DW_AT_declaration : 1
 <1><338d>: Abbrev Number: 50 (DW_TAG_subprogram)
    <338e>   DW_AT_external    : 1
    <338e>   DW_AT_name        : (indirect string, offset: 0x247b): rpl_pipe2
    <3392>   DW_AT_decl_file   : 67
    <3393>   DW_AT_decl_line   : 2254
    <3395>   DW_AT_decl_column : 1
    <3396>   DW_AT_prototyped  : 1
    <3396>   DW_AT_type        : <0x61>
    <339a>   DW_AT_declaration : 1
    <339a>   DW_AT_sibling     : <0x33a9>
 <2><339e>: Abbrev Number: 22 (DW_TAG_formal_parameter)
    <339f>   DW_AT_type        : <0xc9>
 <2><33a3>: Abbrev Number: 22 (DW_TAG_formal_parameter)
    <33a4>   DW_AT_type        : <0x61>
 <2><33a8>: Abbrev Number: 0
 <1><33a9>: Abbrev Number: 50 (DW_TAG_subprogram)
    <33aa>   DW_AT_external    : 1
    <33aa>   DW_AT_name        : (indirect string, offset: 0x2f4d): close
    <33ae>   DW_AT_decl_file   : 51
    <33af>   DW_AT_decl_line   : 353
    <33b1>   DW_AT_decl_column : 12
    <33b2>   DW_AT_prototyped  : 1
    <33b2>   DW_AT_type        : <0x61>
    <33b6>   DW_AT_declaration : 1
    <33b6>   DW_AT_sibling     : <0x33c0>
 <2><33ba>: Abbrev Number: 22 (DW_TAG_formal_parameter)
    <33bb>   DW_AT_type        : <0x61>
 <2><33bf>: Abbrev Number: 0
 <1><33c0>: Abbrev Number: 50 (DW_TAG_subprogram)
    <33c1>   DW_AT_external    : 1
    <33c1>   DW_AT_name        : (indirect string, offset: 0x259e): dup2
    <33c5>   DW_AT_decl_file   : 51
    <33c6>   DW_AT_decl_line   : 534
    <33c8>   DW_AT_decl_column : 12
    <33c9>   DW_AT_prototyped  : 1
    <33c9>   DW_AT_type        : <0x61>
    <33cd>   DW_AT_declaration : 1
    <33cd>   DW_AT_sibling     : <0x33dc>
 <2><33d1>: Abbrev Number: 22 (DW_TAG_formal_parameter)
    <33d2>   DW_AT_type        : <0x61>
 <2><33d6>: Abbrev Number: 22 (DW_TAG_formal_parameter)
    <33d7>   DW_AT_type        : <0x61>
 <2><33db>: Abbrev Number: 0
 <1><33dc>: Abbrev Number: 50 (DW_TAG_subprogram)
    <33dd>   DW_AT_external    : 1
    <33dd>   DW_AT_name        : (indirect string, offset: 0x2f48): rpl_fclose
    <33e1>   DW_AT_decl_file   : 68
    <33e2>   DW_AT_decl_line   : 735
    <33e4>   DW_AT_decl_column : 1
    <33e5>   DW_AT_prototyped  : 1
    <33e5>   DW_AT_type        : <0x61>
    <33e9>   DW_AT_declaration : 1
    <33e9>   DW_AT_sibling     : <0x33f3>
 <2><33ed>: Abbrev Number: 22 (DW_TAG_formal_parameter)
    <33ee>   DW_AT_type        : <0xf1f>
 <2><33f2>: Abbrev Number: 0
 <1><33f3>: Abbrev Number: 47 (DW_TAG_subprogram)
    <33f4>   DW_AT_external    : 1
    <33f4>   DW_AT_name        : (indirect string, offset: 0x1151): fflush_unlocked
    <33f8>   DW_AT_decl_file   : 33
    <33f9>   DW_AT_decl_line   : 227
    <33fa>   DW_AT_decl_column : 12
    <33fb>   DW_AT_prototyped  : 1
    <33fb>   DW_AT_type        : <0x61>
    <33ff>   DW_AT_declaration : 1
    <33ff>   DW_AT_sibling     : <0x3409>
 <2><3403>: Abbrev Number: 22 (DW_TAG_formal_parameter)
    <3404>   DW_AT_type        : <0xf1f>
 <2><3408>: Abbrev Number: 0
 <1><3409>: Abbrev Number: 53 (DW_TAG_subprogram)
    <340a>   DW_AT_external    : 1
    <340a>   DW_AT_name        : (indirect string, offset: 0x647): clearerr_unlocked
    <340e>   DW_AT_decl_file   : 33
    <340f>   DW_AT_decl_line   : 765
    <3411>   DW_AT_decl_column : 13
    <3412>   DW_AT_prototyped  : 1
    <3412>   DW_AT_declaration : 1
    <3412>   DW_AT_sibling     : <0x341c>
 <2><3416>: Abbrev Number: 22 (DW_TAG_formal_parameter)
    <3417>   DW_AT_type        : <0xf1f>
 <2><341b>: Abbrev Number: 0
 <1><341c>: Abbrev Number: 50 (DW_TAG_subprogram)
    <341d>   DW_AT_external    : 1
    <341d>   DW_AT_name        : (indirect string, offset: 0x97): fileno
    <3421>   DW_AT_decl_file   : 33
    <3422>   DW_AT_decl_line   : 786
    <3424>   DW_AT_decl_column : 12
    <3425>   DW_AT_prototyped  : 1
    <3425>   DW_AT_type        : <0x61>
    <3429>   DW_AT_declaration : 1
    <3429>   DW_AT_sibling     : <0x3433>
 <2><342d>: Abbrev Number: 22 (DW_TAG_formal_parameter)
    <342e>   DW_AT_type        : <0xf1f>
 <2><3432>: Abbrev Number: 0
 <1><3433>: Abbrev Number: 52 (DW_TAG_subprogram)
    <3434>   DW_AT_external    : 1
    <3434>   DW_AT_name        : (indirect string, offset: 0x1ced): __assert_fail
    <3438>   DW_AT_decl_file   : 69
    <3439>   DW_AT_decl_line   : 69
    <343a>   DW_AT_decl_column : 13
    <343b>   DW_AT_prototyped  : 1
    <343b>   DW_AT_noreturn    : 1
    <343b>   DW_AT_declaration : 1
    <343b>   DW_AT_sibling     : <0x3454>
 <2><343f>: Abbrev Number: 22 (DW_TAG_formal_parameter)
    <3440>   DW_AT_type        : <0xb9>
 <2><3444>: Abbrev Number: 22 (DW_TAG_formal_parameter)
    <3445>   DW_AT_type        : <0xb9>
 <2><3449>: Abbrev Number: 22 (DW_TAG_formal_parameter)
    <344a>   DW_AT_type        : <0xe2>
 <2><344e>: Abbrev Number: 22 (DW_TAG_formal_parameter)
    <344f>   DW_AT_type        : <0xb9>
 <2><3453>: Abbrev Number: 0
 <1><3454>: Abbrev Number: 50 (DW_TAG_subprogram)
    <3455>   DW_AT_external    : 1
    <3455>   DW_AT_name        : (indirect string, offset: 0x2333): ftruncate
    <3459>   DW_AT_decl_file   : 51
    <345a>   DW_AT_decl_line   : 1014
    <345c>   DW_AT_decl_column : 12
    <345d>   DW_AT_prototyped  : 1
    <345d>   DW_AT_type        : <0x61>
    <3461>   DW_AT_declaration : 1
    <3461>   DW_AT_sibling     : <0x3470>
 <2><3465>: Abbrev Number: 22 (DW_TAG_formal_parameter)
    <3466>   DW_AT_type        : <0x61>
 <2><346a>: Abbrev Number: 22 (DW_TAG_formal_parameter)
    <346b>   DW_AT_type        : <0x165>
 <2><346f>: Abbrev Number: 0
 <1><3470>: Abbrev Number: 48 (DW_TAG_subprogram)
    <3471>   DW_AT_external    : 1
    <3471>   DW_AT_name        : (indirect string, offset: 0x3dd3): fadvise
    <3475>   DW_AT_decl_file   : 37
    <3476>   DW_AT_decl_line   : 72
    <3477>   DW_AT_decl_column : 6
    <3478>   DW_AT_prototyped  : 1
    <3478>   DW_AT_declaration : 1
    <3478>   DW_AT_sibling     : <0x3487>
 <2><347c>: Abbrev Number: 22 (DW_TAG_formal_parameter)
    <347d>   DW_AT_type        : <0xf1f>
 <2><3481>: Abbrev Number: 22 (DW_TAG_formal_parameter)
    <3482>   DW_AT_type        : <0x1011>
 <2><3486>: Abbrev Number: 0
 <1><3487>: Abbrev Number: 50 (DW_TAG_subprogram)
    <3488>   DW_AT_external    : 1
    <3488>   DW_AT_name        : (indirect string, offset: 0x2c3f): fdopen
    <348c>   DW_AT_decl_file   : 68
    <348d>   DW_AT_decl_line   : 794
    <348f>   DW_AT_decl_column : 1
    <3490>   DW_AT_prototyped  : 1
    <3490>   DW_AT_type        : <0xf1f>
    <3494>   DW_AT_declaration : 1
    <3494>   DW_AT_sibling     : <0x34a3>
 <2><3498>: Abbrev Number: 22 (DW_TAG_formal_parameter)
    <3499>   DW_AT_type        : <0x61>
 <2><349d>: Abbrev Number: 22 (DW_TAG_formal_parameter)
    <349e>   DW_AT_type        : <0xb9>
 <2><34a2>: Abbrev Number: 0
 <1><34a3>: Abbrev Number: 47 (DW_TAG_subprogram)
    <34a4>   DW_AT_external    : 1
    <34a4>   DW_AT_name        : (indirect string, offset: 0x9df): open
    <34a8>   DW_AT_decl_file   : 70
    <34a9>   DW_AT_decl_line   : 168
    <34aa>   DW_AT_decl_column : 12
    <34ab>   DW_AT_prototyped  : 1
    <34ab>   DW_AT_type        : <0x61>
    <34af>   DW_AT_declaration : 1
    <34af>   DW_AT_sibling     : <0x34bf>
 <2><34b3>: Abbrev Number: 22 (DW_TAG_formal_parameter)
    <34b4>   DW_AT_type        : <0xb9>
 <2><34b8>: Abbrev Number: 22 (DW_TAG_formal_parameter)
    <34b9>   DW_AT_type        : <0x61>
 <2><34bd>: Abbrev Number: 49 (DW_TAG_unspecified_parameters)
 <2><34be>: Abbrev Number: 0
 <1><34bf>: Abbrev Number: 47 (DW_TAG_subprogram)
    <34c0>   DW_AT_external    : 1
    <34c0>   DW_AT_name        : (indirect string, offset: 0x6ad): fstat
    <34c4>   DW_AT_decl_file   : 63
    <34c5>   DW_AT_decl_line   : 210
    <34c6>   DW_AT_decl_column : 12
    <34c7>   DW_AT_prototyped  : 1
    <34c7>   DW_AT_type        : <0x61>
    <34cb>   DW_AT_declaration : 1
    <34cb>   DW_AT_sibling     : <0x34da>
 <2><34cf>: Abbrev Number: 22 (DW_TAG_formal_parameter)
    <34d0>   DW_AT_type        : <0x61>
 <2><34d4>: Abbrev Number: 22 (DW_TAG_formal_parameter)
    <34d5>   DW_AT_type        : <0x31fa>
 <2><34d9>: Abbrev Number: 0
 <1><34da>: Abbrev Number: 53 (DW_TAG_subprogram)
    <34db>   DW_AT_external    : 1
    <34db>   DW_AT_name        : (indirect string, offset: 0x38b3): rpl_free
    <34df>   DW_AT_decl_file   : 62
    <34e0>   DW_AT_decl_line   : 739
    <34e2>   DW_AT_decl_column : 1
    <34e3>   DW_AT_prototyped  : 1
    <34e3>   DW_AT_declaration : 1
    <34e3>   DW_AT_sibling     : <0x34ed>
 <2><34e7>: Abbrev Number: 22 (DW_TAG_formal_parameter)
    <34e8>   DW_AT_type        : <0x1bd>
 <2><34ec>: Abbrev Number: 0
 <1><34ed>: Abbrev Number: 47 (DW_TAG_subprogram)
    <34ee>   DW_AT_external    : 1
    <34ee>   DW_AT_name        : (indirect string, offset: 0x1ac5): mkostemp_safer
    <34f2>   DW_AT_decl_file   : 71
    <34f3>   DW_AT_decl_line   : 23
    <34f4>   DW_AT_decl_column : 5
    <34f5>   DW_AT_prototyped  : 1
    <34f5>   DW_AT_type        : <0x61>
    <34f9>   DW_AT_declaration : 1
    <34f9>   DW_AT_sibling     : <0x3508>
 <2><34fd>: Abbrev Number: 22 (DW_TAG_formal_parameter)
    <34fe>   DW_AT_type        : <0x39>
 <2><3502>: Abbrev Number: 22 (DW_TAG_formal_parameter)
    <3503>   DW_AT_type        : <0x61>
 <2><3507>: Abbrev Number: 0
 <1><3508>: Abbrev Number: 47 (DW_TAG_subprogram)
    <3509>   DW_AT_external    : 1
    <3509>   DW_AT_name        : (indirect string, offset: 0x779): memcpy
    <350d>   DW_AT_decl_file   : 57
    <350e>   DW_AT_decl_line   : 43
    <350f>   DW_AT_decl_column : 14
    <3510>   DW_AT_prototyped  : 1
    <3510>   DW_AT_type        : <0x1bd>
    <3514>   DW_AT_declaration : 1
    <3514>   DW_AT_sibling     : <0x3528>
 <2><3518>: Abbrev Number: 22 (DW_TAG_formal_parameter)
    <3519>   DW_AT_type        : <0x1bd>
 <2><351d>: Abbrev Number: 22 (DW_TAG_formal_parameter)
    <351e>   DW_AT_type        : <0x609>
 <2><3522>: Abbrev Number: 22 (DW_TAG_formal_parameter)
    <3523>   DW_AT_type        : <0x1f4>
 <2><3527>: Abbrev Number: 0
 <1><3528>: Abbrev Number: 47 (DW_TAG_subprogram)
    <3529>   DW_AT_external    : 1
    <3529>   DW_AT_name        : (indirect string, offset: 0xa1f): xmalloc
    <352d>   DW_AT_decl_file   : 46
    <352e>   DW_AT_decl_line   : 57
    <352f>   DW_AT_decl_column : 7
    <3530>   DW_AT_prototyped  : 1
    <3530>   DW_AT_type        : <0x1bd>
    <3534>   DW_AT_declaration : 1
    <3534>   DW_AT_sibling     : <0x353e>
 <2><3538>: Abbrev Number: 22 (DW_TAG_formal_parameter)
    <3539>   DW_AT_type        : <0x1f4>
 <2><353d>: Abbrev Number: 0
 <1><353e>: Abbrev Number: 55 (DW_TAG_subprogram)
    <353f>   DW_AT_external    : 1
    <353f>   DW_AT_name        : (indirect string, offset: 0x2079): close_stdout
    <3543>   DW_AT_decl_file   : 76
    <3544>   DW_AT_decl_line   : 30
    <3545>   DW_AT_decl_column : 6
    <3546>   DW_AT_prototyped  : 1
    <3546>   DW_AT_declaration : 1
 <1><3546>: Abbrev Number: 50 (DW_TAG_subprogram)
    <3547>   DW_AT_external    : 1
    <3547>   DW_AT_name        : (indirect string, offset: 0xbe0): unlink
    <354b>   DW_AT_decl_file   : 51
    <354c>   DW_AT_decl_line   : 825
    <354e>   DW_AT_decl_column : 12
    <354f>   DW_AT_prototyped  : 1
    <354f>   DW_AT_type        : <0x61>
    <3553>   DW_AT_declaration : 1
    <3553>   DW_AT_sibling     : <0x355d>
 <2><3557>: Abbrev Number: 22 (DW_TAG_formal_parameter)
    <3558>   DW_AT_type        : <0xb9>
 <2><355c>: Abbrev Number: 0
 <1><355d>: Abbrev Number: 47 (DW_TAG_subprogram)
    <355e>   DW_AT_external    : 1
    <355e>   DW_AT_name        : (indirect string, offset: 0x1f94): hash_remove
    <3562>   DW_AT_decl_file   : 38
    <3563>   DW_AT_decl_line   : 253
    <3564>   DW_AT_decl_column : 14
    <3565>   DW_AT_prototyped  : 1
    <3565>   DW_AT_type        : <0x1bd>
    <3569>   DW_AT_declaration : 1
    <3569>   DW_AT_sibling     : <0x3578>
 <2><356d>: Abbrev Number: 22 (DW_TAG_formal_parameter)
    <356e>   DW_AT_type        : <0x2937>
 <2><3572>: Abbrev Number: 22 (DW_TAG_formal_parameter)
    <3573>   DW_AT_type        : <0x609>
 <2><3577>: Abbrev Number: 0
 <1><3578>: Abbrev Number: 47 (DW_TAG_subprogram)
    <3579>   DW_AT_external    : 1
    <3579>   DW_AT_name        : (indirect string, offset: 0x1fc1): hash_insert
    <357d>   DW_AT_decl_file   : 38
    <357e>   DW_AT_decl_line   : 225
    <357f>   DW_AT_decl_column : 14
    <3580>   DW_AT_prototyped  : 1
    <3580>   DW_AT_type        : <0x1bd>
    <3584>   DW_AT_declaration : 1
    <3584>   DW_AT_sibling     : <0x3593>
 <2><3588>: Abbrev Number: 22 (DW_TAG_formal_parameter)
    <3589>   DW_AT_type        : <0x2937>
 <2><358d>: Abbrev Number: 22 (DW_TAG_formal_parameter)
    <358e>   DW_AT_type        : <0x609>
 <2><3592>: Abbrev Number: 0
 <1><3593>: Abbrev Number: 56 (DW_TAG_subprogram)
    <3594>   DW_AT_external    : 1
    <3594>   DW_AT_name        : (indirect string, offset: 0x11b7): xalloc_die
    <3598>   DW_AT_decl_file   : 46
    <3599>   DW_AT_decl_line   : 51
    <359a>   DW_AT_decl_column : 27
    <359b>   DW_AT_prototyped  : 1
    <359b>   DW_AT_noreturn    : 1
    <359b>   DW_AT_declaration : 1
 <1><359b>: Abbrev Number: 47 (DW_TAG_subprogram)
    <359c>   DW_AT_external    : 1
    <359c>   DW_AT_name        : (indirect string, offset: 0x1631): hash_initialize
    <35a0>   DW_AT_decl_file   : 38
    <35a1>   DW_AT_decl_line   : 182
    <35a2>   DW_AT_decl_column : 20
    <35a3>   DW_AT_prototyped  : 1
    <35a3>   DW_AT_type        : <0x2937>
    <35a7>   DW_AT_declaration : 1
    <35a7>   DW_AT_sibling     : <0x35c5>
 <2><35ab>: Abbrev Number: 22 (DW_TAG_formal_parameter)
    <35ac>   DW_AT_type        : <0x1f4>
 <2><35b0>: Abbrev Number: 22 (DW_TAG_formal_parameter)
    <35b1>   DW_AT_type        : <0x35c5>
 <2><35b5>: Abbrev Number: 22 (DW_TAG_formal_parameter)
    <35b6>   DW_AT_type        : <0x10a1>
 <2><35ba>: Abbrev Number: 22 (DW_TAG_formal_parameter)
    <35bb>   DW_AT_type        : <0x10c7>
 <2><35bf>: Abbrev Number: 22 (DW_TAG_formal_parameter)
    <35c0>   DW_AT_type        : <0x10ed>
 <2><35c4>: Abbrev Number: 0
 <1><35c5>: Abbrev Number: 3 (DW_TAG_pointer_type)
    <35c6>   DW_AT_byte_size   : 8
    <35c7>   DW_AT_type        : <0x108b>
 <1><35cb>: Abbrev Number: 50 (DW_TAG_subprogram)
    <35cc>   DW_AT_external    : 1
    <35cc>   DW_AT_name        : (indirect string, offset: 0x1475): quotearg_style
    <35d0>   DW_AT_decl_file   : 35
    <35d1>   DW_AT_decl_line   : 383
    <35d3>   DW_AT_decl_column : 7
    <35d4>   DW_AT_prototyped  : 1
    <35d4>   DW_AT_type        : <0x39>
    <35d8>   DW_AT_declaration : 1
    <35d8>   DW_AT_sibling     : <0x35e7>
 <2><35dc>: Abbrev Number: 22 (DW_TAG_formal_parameter)
    <35dd>   DW_AT_type        : <0xf71>
 <2><35e1>: Abbrev Number: 22 (DW_TAG_formal_parameter)
    <35e2>   DW_AT_type        : <0xb9>
 <2><35e6>: Abbrev Number: 0
 <1><35e7>: Abbrev Number: 47 (DW_TAG_subprogram)
    <35e8>   DW_AT_external    : 1
    <35e8>   DW_AT_name        : (indirect string, offset: 0x2a6): waitpid
    <35ec>   DW_AT_decl_file   : 72
    <35ed>   DW_AT_decl_line   : 100
    <35ee>   DW_AT_decl_column : 16
    <35ef>   DW_AT_prototyped  : 1
    <35ef>   DW_AT_type        : <0x17d>
    <35f3>   DW_AT_declaration : 1
    <35f3>   DW_AT_sibling     : <0x3607>
 <2><35f7>: Abbrev Number: 22 (DW_TAG_formal_parameter)
    <35f8>   DW_AT_type        : <0x17d>
 <2><35fc>: Abbrev Number: 22 (DW_TAG_formal_parameter)
    <35fd>   DW_AT_type        : <0xc9>
 <2><3601>: Abbrev Number: 22 (DW_TAG_formal_parameter)
    <3602>   DW_AT_type        : <0x61>
 <2><3606>: Abbrev Number: 0
 <1><3607>: Abbrev Number: 47 (DW_TAG_subprogram)
    <3608>   DW_AT_external    : 1
    <3608>   DW_AT_name        : (indirect string, offset: 0x3160): pthread_sigmask
    <360c>   DW_AT_decl_file   : 73
    <360d>   DW_AT_decl_line   : 31
    <360e>   DW_AT_decl_column : 12
    <360f>   DW_AT_prototyped  : 1
    <360f>   DW_AT_type        : <0x61>
    <3613>   DW_AT_declaration : 1
    <3613>   DW_AT_sibling     : <0x3627>
 <2><3617>: Abbrev Number: 22 (DW_TAG_formal_parameter)
    <3618>   DW_AT_type        : <0x61>
 <2><361c>: Abbrev Number: 22 (DW_TAG_formal_parameter)
    <361d>   DW_AT_type        : <0x362d>
 <2><3621>: Abbrev Number: 22 (DW_TAG_formal_parameter)
    <3622>   DW_AT_type        : <0x3638>
 <2><3626>: Abbrev Number: 0
 <1><3627>: Abbrev Number: 3 (DW_TAG_pointer_type)
    <3628>   DW_AT_byte_size   : 8
    <3629>   DW_AT_type        : <0x290>
 <1><362d>: Abbrev Number: 5 (DW_TAG_restrict_type)
    <362e>   DW_AT_type        : <0x3627>
 <1><3632>: Abbrev Number: 3 (DW_TAG_pointer_type)
    <3633>   DW_AT_byte_size   : 8
    <3634>   DW_AT_type        : <0x284>
 <1><3638>: Abbrev Number: 5 (DW_TAG_restrict_type)
    <3639>   DW_AT_type        : <0x3632>
 <1><363d>: Abbrev Number: 47 (DW_TAG_subprogram)
    <363e>   DW_AT_external    : 1
    <363e>   DW_AT_name        : (indirect string, offset: 0xff5): strncmp
    <3642>   DW_AT_decl_file   : 57
    <3643>   DW_AT_decl_line   : 140
    <3644>   DW_AT_decl_column : 12
    <3645>   DW_AT_prototyped  : 1
    <3645>   DW_AT_type        : <0x61>
    <3649>   DW_AT_declaration : 1
    <3649>   DW_AT_sibling     : <0x365d>
 <2><364d>: Abbrev Number: 22 (DW_TAG_formal_parameter)
    <364e>   DW_AT_type        : <0xb9>
 <2><3652>: Abbrev Number: 22 (DW_TAG_formal_parameter)
    <3653>   DW_AT_type        : <0xb9>
 <2><3657>: Abbrev Number: 22 (DW_TAG_formal_parameter)
    <3658>   DW_AT_type        : <0x1f4>
 <2><365c>: Abbrev Number: 0
 <1><365d>: Abbrev Number: 47 (DW_TAG_subprogram)
    <365e>   DW_AT_external    : 1
    <365e>   DW_AT_name        : (indirect string, offset: 0x8c): setlocale
    <3662>   DW_AT_decl_file   : 30
    <3663>   DW_AT_decl_line   : 122
    <3664>   DW_AT_decl_column : 14
    <3665>   DW_AT_prototyped  : 1
    <3665>   DW_AT_type        : <0x39>
    <3669>   DW_AT_declaration : 1
    <3669>   DW_AT_sibling     : <0x3678>
 <2><366d>: Abbrev Number: 22 (DW_TAG_formal_parameter)
    <366e>   DW_AT_type        : <0x61>
 <2><3672>: Abbrev Number: 22 (DW_TAG_formal_parameter)
    <3673>   DW_AT_type        : <0xb9>
 <2><3677>: Abbrev Number: 0
 <1><3678>: Abbrev Number: 47 (DW_TAG_subprogram)
    <3679>   DW_AT_external    : 1
    <3679>   DW_AT_name        : (indirect string, offset: 0x3a01): strcmp
    <367d>   DW_AT_decl_file   : 57
    <367e>   DW_AT_decl_line   : 137
    <367f>   DW_AT_decl_column : 12
    <3680>   DW_AT_prototyped  : 1
    <3680>   DW_AT_type        : <0x61>
    <3684>   DW_AT_declaration : 1
    <3684>   DW_AT_sibling     : <0x3693>
 <2><3688>: Abbrev Number: 22 (DW_TAG_formal_parameter)
    <3689>   DW_AT_type        : <0xb9>
 <2><368d>: Abbrev Number: 22 (DW_TAG_formal_parameter)
    <368e>   DW_AT_type        : <0xb9>
 <2><3692>: Abbrev Number: 0
 <1><3693>: Abbrev Number: 57 (DW_TAG_subprogram)
    <3694>   DW_AT_external    : 1
    <3694>   DW_AT_name        : (indirect string, offset: 0x27ab): exit
    <3698>   DW_AT_decl_file   : 16
    <3699>   DW_AT_decl_line   : 617
    <369b>   DW_AT_decl_column : 13
    <369c>   DW_AT_prototyped  : 1
    <369c>   DW_AT_noreturn    : 1
    <369c>   DW_AT_declaration : 1
    <369c>   DW_AT_sibling     : <0x36a6>
 <2><36a0>: Abbrev Number: 22 (DW_TAG_formal_parameter)
    <36a1>   DW_AT_type        : <0x61>
 <2><36a5>: Abbrev Number: 0
 <1><36a6>: Abbrev Number: 50 (DW_TAG_subprogram)
    <36a7>   DW_AT_external    : 1
    <36a7>   DW_AT_name        : (indirect string, offset: 0x2c3): fputs_unlocked
    <36ab>   DW_AT_decl_file   : 33
    <36ac>   DW_AT_decl_line   : 662
    <36ae>   DW_AT_decl_column : 12
    <36af>   DW_AT_prototyped  : 1
    <36af>   DW_AT_type        : <0x61>
    <36b3>   DW_AT_declaration : 1
    <36b3>   DW_AT_sibling     : <0x36c2>
 <2><36b7>: Abbrev Number: 22 (DW_TAG_formal_parameter)
    <36b8>   DW_AT_type        : <0xc4>
 <2><36bc>: Abbrev Number: 22 (DW_TAG_formal_parameter)
    <36bd>   DW_AT_type        : <0xf25>
 <2><36c1>: Abbrev Number: 0
 <1><36c2>: Abbrev Number: 50 (DW_TAG_subprogram)
    <36c3>   DW_AT_external    : 1
    <36c3>   DW_AT_name        : (indirect string, offset: 0x19a3): printf
    <36c7>   DW_AT_decl_file   : 33
    <36c8>   DW_AT_decl_line   : 332
    <36ca>   DW_AT_decl_column : 12
    <36cb>   DW_AT_prototyped  : 1
    <36cb>   DW_AT_type        : <0x61>
    <36cf>   DW_AT_declaration : 1
    <36cf>   DW_AT_sibling     : <0x36da>
 <2><36d3>: Abbrev Number: 22 (DW_TAG_formal_parameter)
    <36d4>   DW_AT_type        : <0xb9>
 <2><36d8>: Abbrev Number: 49 (DW_TAG_unspecified_parameters)
 <2><36d9>: Abbrev Number: 0
 <1><36da>: Abbrev Number: 50 (DW_TAG_subprogram)
    <36db>   DW_AT_external    : 1
    <36db>   DW_AT_name        : (indirect string, offset: 0x19a2): fprintf
    <36df>   DW_AT_decl_file   : 33
    <36e0>   DW_AT_decl_line   : 326
    <36e2>   DW_AT_decl_column : 12
    <36e3>   DW_AT_prototyped  : 1
    <36e3>   DW_AT_type        : <0x61>
    <36e7>   DW_AT_declaration : 1
    <36e7>   DW_AT_sibling     : <0x36f7>
 <2><36eb>: Abbrev Number: 22 (DW_TAG_formal_parameter)
    <36ec>   DW_AT_type        : <0xf25>
 <2><36f0>: Abbrev Number: 22 (DW_TAG_formal_parameter)
    <36f1>   DW_AT_type        : <0xc4>
 <2><36f5>: Abbrev Number: 49 (DW_TAG_unspecified_parameters)
 <2><36f6>: Abbrev Number: 0
 <1><36f7>: Abbrev Number: 48 (DW_TAG_subprogram)
    <36f8>   DW_AT_external    : 1
    <36f8>   DW_AT_name        : (indirect string, offset: 0x5977): error
    <36fc>   DW_AT_decl_file   : 74
    <36fd>   DW_AT_decl_line   : 33
    <36fe>   DW_AT_decl_column : 13
    <36ff>   DW_AT_prototyped  : 1
    <36ff>   DW_AT_declaration : 1
    <36ff>   DW_AT_sibling     : <0x3714>
 <2><3703>: Abbrev Number: 22 (DW_TAG_formal_parameter)
    <3704>   DW_AT_type        : <0x61>
 <2><3708>: Abbrev Number: 22 (DW_TAG_formal_parameter)
    <3709>   DW_AT_type        : <0x61>
 <2><370d>: Abbrev Number: 22 (DW_TAG_formal_parameter)
    <370e>   DW_AT_type        : <0xb9>
 <2><3712>: Abbrev Number: 49 (DW_TAG_unspecified_parameters)
 <2><3713>: Abbrev Number: 0
 <1><3714>: Abbrev Number: 51 (DW_TAG_subprogram)
    <3715>   DW_AT_external    : 1
    <3715>   DW_AT_name        : (indirect string, offset: 0x2724): __errno_location
    <3719>   DW_AT_decl_file   : 75
    <371a>   DW_AT_decl_line   : 37
    <371b>   DW_AT_decl_column : 13
    <371c>   DW_AT_prototyped  : 1
    <371c>   DW_AT_type        : <0xc9>
    <3720>   DW_AT_declaration : 1
 <1><3720>: Abbrev Number: 50 (DW_TAG_subprogram)
    <3721>   DW_AT_external    : 1
    <3721>   DW_AT_name        : (indirect string, offset: 0x22d0): quotearg_n_style_colon
    <3725>   DW_AT_decl_file   : 35
    <3726>   DW_AT_decl_line   : 403
    <3728>   DW_AT_decl_column : 7
    <3729>   DW_AT_prototyped  : 1
    <3729>   DW_AT_type        : <0x39>
    <372d>   DW_AT_declaration : 1
    <372d>   DW_AT_sibling     : <0x3741>
 <2><3731>: Abbrev Number: 22 (DW_TAG_formal_parameter)
    <3732>   DW_AT_type        : <0x61>
 <2><3736>: Abbrev Number: 22 (DW_TAG_formal_parameter)
    <3737>   DW_AT_type        : <0xf71>
 <2><373b>: Abbrev Number: 22 (DW_TAG_formal_parameter)
    <373c>   DW_AT_type        : <0xb9>
 <2><3740>: Abbrev Number: 0
 <1><3741>: Abbrev Number: 47 (DW_TAG_subprogram)
    <3742>   DW_AT_external    : 1
    <3742>   DW_AT_name        : (indirect string, offset: 0x791): gettext
    <3746>   DW_AT_decl_file   : 49
    <3747>   DW_AT_decl_line   : 39
    <3748>   DW_AT_decl_column : 14
    <3749>   DW_AT_prototyped  : 1
    <3749>   DW_AT_type        : <0x39>
    <374d>   DW_AT_declaration : 1
    <374d>   DW_AT_sibling     : <0x3757>
 <2><3751>: Abbrev Number: 22 (DW_TAG_formal_parameter)
    <3752>   DW_AT_type        : <0xb9>
 <2><3756>: Abbrev Number: 0
 <1><3757>: Abbrev Number: 57 (DW_TAG_subprogram)
    <3758>   DW_AT_external    : 1
    <3758>   DW_AT_name        : (indirect string, offset: 0x27aa): _exit
    <375c>   DW_AT_decl_file   : 51
    <375d>   DW_AT_decl_line   : 603
    <375f>   DW_AT_decl_column : 13
    <3760>   DW_AT_prototyped  : 1
    <3760>   DW_AT_noreturn    : 1
    <3760>   DW_AT_declaration : 1
    <3760>   DW_AT_sibling     : <0x376a>
 <2><3764>: Abbrev Number: 22 (DW_TAG_formal_parameter)
    <3765>   DW_AT_type        : <0x61>
 <2><3769>: Abbrev Number: 0
 <1><376a>: Abbrev Number: 47 (DW_TAG_subprogram)
    <376b>   DW_AT_external    : 1
    <376b>   DW_AT_name        : (indirect string, offset: 0x3681): inttostr
    <376f>   DW_AT_decl_file   : 58
    <3770>   DW_AT_decl_line   : 26
    <3771>   DW_AT_decl_column : 31
    <3772>   DW_AT_prototyped  : 1
    <3772>   DW_AT_type        : <0x39>
    <3776>   DW_AT_declaration : 1
    <3776>   DW_AT_sibling     : <0x3785>
 <2><377a>: Abbrev Number: 22 (DW_TAG_formal_parameter)
    <377b>   DW_AT_type        : <0x61>
 <2><377f>: Abbrev Number: 22 (DW_TAG_formal_parameter)
    <3780>   DW_AT_type        : <0x39>
 <2><3784>: Abbrev Number: 0
 <1><3785>: Abbrev Number: 50 (DW_TAG_subprogram)
    <3786>   DW_AT_external    : 1
    <3786>   DW_AT_name        : (indirect string, offset: 0x2475): write
    <378a>   DW_AT_decl_file   : 51
    <378b>   DW_AT_decl_line   : 366
    <378d>   DW_AT_decl_column : 16
    <378e>   DW_AT_prototyped  : 1
    <378e>   DW_AT_type        : <0x251>
    <3792>   DW_AT_declaration : 1
    <3792>   DW_AT_sibling     : <0x37a6>
 <2><3796>: Abbrev Number: 22 (DW_TAG_formal_parameter)
    <3797>   DW_AT_type        : <0x61>
 <2><379b>: Abbrev Number: 22 (DW_TAG_formal_parameter)
    <379c>   DW_AT_type        : <0x609>
 <2><37a0>: Abbrev Number: 22 (DW_TAG_formal_parameter)
    <37a1>   DW_AT_type        : <0x1f4>
 <2><37a5>: Abbrev Number: 0
 <1><37a6>: Abbrev Number: 50 (DW_TAG_subprogram)
    <37a7>   DW_AT_external    : 1
    <37a7>   DW_AT_name        : (indirect string, offset: 0x293f): strlen
    <37ab>   DW_AT_decl_file   : 57
    <37ac>   DW_AT_decl_line   : 385
    <37ae>   DW_AT_decl_column : 15
    <37af>   DW_AT_prototyped  : 1
    <37af>   DW_AT_type        : <0x1f4>
    <37b3>   DW_AT_declaration : 1
    <37b3>   DW_AT_sibling     : <0x37bd>
 <2><37b7>: Abbrev Number: 22 (DW_TAG_formal_parameter)
    <37b8>   DW_AT_type        : <0xb9>
 <2><37bc>: Abbrev Number: 0
 <1><37bd>: Abbrev Number: 58 (DW_TAG_subprogram)
    <37be>   DW_AT_external    : 1
    <37be>   DW_AT_name        : (indirect string, offset: 0x1533): main
    <37c2>   DW_AT_decl_file   : 2
    <37c3>   DW_AT_decl_line   : 4276
    <37c5>   DW_AT_decl_column : 1
    <37c6>   DW_AT_prototyped  : 1
    <37c6>   DW_AT_type        : <0x61>
    <37ca>   DW_AT_low_pc      : 0xdb1b
    <37d2>   DW_AT_high_pc     : 0x1a86
    <37da>   DW_AT_frame_base  : 1 byte block: 9c 	(DW_OP_call_frame_cfa)
    <37dc>   DW_AT_GNU_all_tail_call_sites: 1
    <37dc>   DW_AT_sibling     : <0x3cdd>
 <2><37e0>: Abbrev Number: 59 (DW_TAG_formal_parameter)
    <37e1>   DW_AT_name        : (indirect string, offset: 0x2d9a): argc
    <37e5>   DW_AT_decl_file   : 2
    <37e6>   DW_AT_decl_line   : 4276
    <37e8>   DW_AT_decl_column : 11
    <37e9>   DW_AT_type        : <0x61>
    <37ed>   DW_AT_location    : 3 byte block: 91 ac 79 	(DW_OP_fbreg: -852)
 <2><37f1>: Abbrev Number: 59 (DW_TAG_formal_parameter)
    <37f2>   DW_AT_name        : (indirect string, offset: 0x2dd1): argv
    <37f6>   DW_AT_decl_file   : 2
    <37f7>   DW_AT_decl_line   : 4276
    <37f9>   DW_AT_decl_column : 24
    <37fa>   DW_AT_type        : <0xb09>
    <37fe>   DW_AT_location    : 3 byte block: 91 a0 79 	(DW_OP_fbreg: -864)
 <2><3802>: Abbrev Number: 44 (DW_TAG_variable)
    <3803>   DW_AT_name        : key
    <3807>   DW_AT_decl_file   : 2
    <3808>   DW_AT_decl_line   : 4278
    <380a>   DW_AT_decl_column : 20
    <380b>   DW_AT_type        : <0x234c>
    <380f>   DW_AT_location    : 3 byte block: 91 d0 79 	(DW_OP_fbreg: -816)
 <2><3813>: Abbrev Number: 43 (DW_TAG_variable)
    <3814>   DW_AT_name        : (indirect string, offset: 0x1cd0): key_buf
    <3818>   DW_AT_decl_file   : 2
    <3819>   DW_AT_decl_line   : 4279
    <381b>   DW_AT_decl_column : 19
    <381c>   DW_AT_type        : <0x2256>
    <3820>   DW_AT_location    : 3 byte block: 91 f0 7a 	(DW_OP_fbreg: -656)
 <2><3824>: Abbrev Number: 43 (DW_TAG_variable)
    <3825>   DW_AT_name        : (indirect string, offset: 0x2614): gkey
    <3829>   DW_AT_decl_file   : 2
    <382a>   DW_AT_decl_line   : 4280
    <382c>   DW_AT_decl_column : 19
    <382d>   DW_AT_type        : <0x2256>
    <3831>   DW_AT_location    : 3 byte block: 91 c0 7b 	(DW_OP_fbreg: -576)
 <2><3835>: Abbrev Number: 43 (DW_TAG_variable)
    <3836>   DW_AT_name        : (indirect string, offset: 0x245f): gkey_only
    <383a>   DW_AT_decl_file   : 2
    <383b>   DW_AT_decl_line   : 4281
    <383d>   DW_AT_decl_column : 8
    <383e>   DW_AT_type        : <0x1073>
    <3842>   DW_AT_location    : 3 byte block: 91 bf 79 	(DW_OP_fbreg: -833)
 <2><3846>: Abbrev Number: 44 (DW_TAG_variable)
    <3847>   DW_AT_name        : s
    <3849>   DW_AT_decl_file   : 2
    <384a>   DW_AT_decl_line   : 4282
    <384c>   DW_AT_decl_column : 15
    <384d>   DW_AT_type        : <0xb9>
    <3851>   DW_AT_location    : 3 byte block: 91 d8 79 	(DW_OP_fbreg: -808)
 <2><3855>: Abbrev Number: 44 (DW_TAG_variable)
    <3856>   DW_AT_name        : c
    <3858>   DW_AT_decl_file   : 2
    <3859>   DW_AT_decl_line   : 4283
    <385b>   DW_AT_decl_column : 7
    <385c>   DW_AT_type        : <0x61>
    <3860>   DW_AT_location    : 3 byte block: 91 c8 79 	(DW_OP_fbreg: -824)
 <2><3864>: Abbrev Number: 43 (DW_TAG_variable)
    <3865>   DW_AT_name        : (indirect string, offset: 0x799): checkonly
    <3869>   DW_AT_decl_file   : 2
    <386a>   DW_AT_decl_line   : 4284
    <386c>   DW_AT_decl_column : 8
    <386d>   DW_AT_type        : <0x49>
    <3871>   DW_AT_location    : 3 byte block: 91 c0 79 	(DW_OP_fbreg: -832)
 <2><3875>: Abbrev Number: 43 (DW_TAG_variable)
    <3876>   DW_AT_name        : (indirect string, offset: 0x2e7c): mergeonly
    <387a>   DW_AT_decl_file   : 2
    <387b>   DW_AT_decl_line   : 4285
    <387d>   DW_AT_decl_column : 8
    <387e>   DW_AT_type        : <0x1073>
    <3882>   DW_AT_location    : 3 byte block: 91 c1 79 	(DW_OP_fbreg: -831)
 <2><3886>: Abbrev Number: 43 (DW_TAG_variable)
    <3887>   DW_AT_name        : (indirect string, offset: 0x2f6d): random_source
    <388b>   DW_AT_decl_file   : 2
    <388c>   DW_AT_decl_line   : 4286
    <388e>   DW_AT_decl_column : 9
    <388f>   DW_AT_type        : <0x39>
    <3893>   DW_AT_location    : 3 byte block: 91 e0 79 	(DW_OP_fbreg: -800)
 <2><3897>: Abbrev Number: 43 (DW_TAG_variable)
    <3898>   DW_AT_name        : (indirect string, offset: 0x2e1): need_random
    <389c>   DW_AT_decl_file   : 2
    <389d>   DW_AT_decl_line   : 4287
    <389f>   DW_AT_decl_column : 8
    <38a0>   DW_AT_type        : <0x1073>
    <38a4>   DW_AT_location    : 3 byte block: 91 c2 79 	(DW_OP_fbreg: -830)
 <2><38a8>: Abbrev Number: 43 (DW_TAG_variable)
    <38a9>   DW_AT_name        : (indirect string, offset: 0x1553): nthreads
    <38ad>   DW_AT_decl_file   : 2
    <38ae>   DW_AT_decl_line   : 4288
    <38b0>   DW_AT_decl_column : 10
    <38b1>   DW_AT_type        : <0x1f4>
    <38b5>   DW_AT_location    : 3 byte block: 91 e8 79 	(DW_OP_fbreg: -792)
 <2><38b9>: Abbrev Number: 43 (DW_TAG_variable)
    <38ba>   DW_AT_name        : (indirect string, offset: 0x23fa): nfiles
    <38be>   DW_AT_decl_file   : 2
    <38bf>   DW_AT_decl_line   : 4289
    <38c1>   DW_AT_decl_column : 10
    <38c2>   DW_AT_type        : <0x1f4>
    <38c6>   DW_AT_location    : 3 byte block: 91 f0 79 	(DW_OP_fbreg: -784)
 <2><38ca>: Abbrev Number: 43 (DW_TAG_variable)
    <38cb>   DW_AT_name        : (indirect string, offset: 0x1c6c): posixly_correct
    <38cf>   DW_AT_decl_file   : 2
    <38d0>   DW_AT_decl_line   : 4290
    <38d2>   DW_AT_decl_column : 8
    <38d3>   DW_AT_type        : <0x1073>
    <38d7>   DW_AT_location    : 3 byte block: 91 c6 79 	(DW_OP_fbreg: -826)
 <2><38db>: Abbrev Number: 43 (DW_TAG_variable)
    <38dc>   DW_AT_name        : (indirect string, offset: 0x3ab1): posix_ver
    <38e0>   DW_AT_decl_file   : 2
    <38e1>   DW_AT_decl_line   : 4291
    <38e3>   DW_AT_decl_column : 7
    <38e4>   DW_AT_type        : <0x61>
    <38e8>   DW_AT_location    : 3 byte block: 91 cc 79 	(DW_OP_fbreg: -820)
 <2><38ec>: Abbrev Number: 43 (DW_TAG_variable)
    <38ed>   DW_AT_name        : (indirect string, offset: 0x27f3): traditional_usage
    <38f1>   DW_AT_decl_file   : 2
    <38f2>   DW_AT_decl_line   : 4292
    <38f4>   DW_AT_decl_column : 8
    <38f5>   DW_AT_type        : <0x1073>
    <38f9>   DW_AT_location    : 3 byte block: 91 c3 79 	(DW_OP_fbreg: -829)
 <2><38fd>: Abbrev Number: 43 (DW_TAG_variable)
    <38fe>   DW_AT_name        : (indirect string, offset: 0x386e): files
    <3902>   DW_AT_decl_file   : 2
    <3903>   DW_AT_decl_line   : 4293
    <3905>   DW_AT_decl_column : 10
    <3906>   DW_AT_type        : <0xb09>
    <390a>   DW_AT_location    : 3 byte block: 91 f8 79 	(DW_OP_fbreg: -776)
 <2><390e>: Abbrev Number: 43 (DW_TAG_variable)
    <390f>   DW_AT_name        : (indirect string, offset: 0x1827): files_from
    <3913>   DW_AT_decl_file   : 2
    <3914>   DW_AT_decl_line   : 4294
    <3916>   DW_AT_decl_column : 9
    <3917>   DW_AT_type        : <0x39>
    <391b>   DW_AT_location    : 3 byte block: 91 80 7a 	(DW_OP_fbreg: -768)
 <2><391f>: Abbrev Number: 44 (DW_TAG_variable)
    <3920>   DW_AT_name        : tok
    <3924>   DW_AT_decl_file   : 2
    <3925>   DW_AT_decl_line   : 4295
    <3927>   DW_AT_decl_column : 17
    <3928>   DW_AT_type        : <0x1350>
    <392c>   DW_AT_location    : 3 byte block: 91 90 7c 	(DW_OP_fbreg: -496)
 <2><3930>: Abbrev Number: 43 (DW_TAG_variable)
    <3931>   DW_AT_name        : (indirect string, offset: 0x2aa7): outfile
    <3935>   DW_AT_decl_file   : 2
    <3936>   DW_AT_decl_line   : 4296
    <3938>   DW_AT_decl_column : 15
    <3939>   DW_AT_type        : <0xb9>
    <393d>   DW_AT_location    : 3 byte block: 91 88 7a 	(DW_OP_fbreg: -760)
 <2><3941>: Abbrev Number: 43 (DW_TAG_variable)
    <3942>   DW_AT_name        : (indirect string, offset: 0x0): locale_ok
    <3946>   DW_AT_decl_file   : 2
    <3947>   DW_AT_decl_line   : 4297
    <3949>   DW_AT_decl_column : 8
    <394a>   DW_AT_type        : <0x1073>
    <394e>   DW_AT_location    : 3 byte block: 91 c4 79 	(DW_OP_fbreg: -828)
 <2><3952>: Abbrev Number: 60 (DW_TAG_variable)
    <3953>   DW_AT_name        : (indirect string, offset: 0x1df1): __PRETTY_FUNCTION__
    <3957>   DW_AT_type        : <0x3ced>
    <395b>   DW_AT_artificial  : 1
    <395b>   DW_AT_location    : 9 byte block: 3 2c f1 1 0 0 0 0 0 	(DW_OP_addr: 1f12c)
 <2><3965>: Abbrev Number: 61 (DW_TAG_lexical_block)
    <3966>   DW_AT_low_pc      : 0xdc81
    <396e>   DW_AT_high_pc     : 0xae
    <3976>   DW_AT_sibling     : <0x398c>
 <3><397a>: Abbrev Number: 43 (DW_TAG_variable)
    <397b>   DW_AT_name        : (indirect string, offset: 0x1a07): locale
    <397f>   DW_AT_decl_file   : 2
    <3980>   DW_AT_decl_line   : 4314
    <3982>   DW_AT_decl_column : 25
    <3983>   DW_AT_type        : <0x3cf2>
    <3987>   DW_AT_location    : 3 byte block: 91 b0 7a 	(DW_OP_fbreg: -720)
 <3><398b>: Abbrev Number: 0
 <2><398c>: Abbrev Number: 61 (DW_TAG_lexical_block)
    <398d>   DW_AT_low_pc      : 0xdd3b
    <3995>   DW_AT_high_pc     : 0x1e7
    <399d>   DW_AT_sibling     : <0x39ef>
 <3><39a1>: Abbrev Number: 44 (DW_TAG_variable)
    <39a2>   DW_AT_name        : i
    <39a4>   DW_AT_decl_file   : 2
    <39a5>   DW_AT_decl_line   : 4335
    <39a7>   DW_AT_decl_column : 12
    <39a8>   DW_AT_type        : <0x1f4>
    <39ac>   DW_AT_location    : 3 byte block: 91 90 7a 	(DW_OP_fbreg: -752)
 <3><39b0>: Abbrev Number: 44 (DW_TAG_variable)
    <39b1>   DW_AT_name        : sig
    <39b5>   DW_AT_decl_file   : 2
    <39b6>   DW_AT_decl_line   : 4336
    <39b8>   DW_AT_decl_column : 22
    <39b9>   DW_AT_type        : <0x3d08>
    <39bd>   DW_AT_location    : 9 byte block: 3 0 f1 1 0 0 0 0 0 	(DW_OP_addr: 1f100)
 <3><39c7>: Abbrev Number: 35 (DW_TAG_enumeration_type)
    <39c8>   DW_AT_encoding    : 7	(unsigned)
    <39c9>   DW_AT_byte_size   : 4
    <39ca>   DW_AT_type        : <0xe2>
    <39ce>   DW_AT_decl_file   : 2
    <39cf>   DW_AT_decl_line   : 4356
    <39d1>   DW_AT_decl_column : 10
    <39d2>   DW_AT_sibling     : <0x39dd>
 <4><39d6>: Abbrev Number: 27 (DW_TAG_enumerator)
    <39d7>   DW_AT_name        : (indirect string, offset: 0x8a1): nsigs
    <39db>   DW_AT_const_value : 11
 <4><39dc>: Abbrev Number: 0
 <3><39dd>: Abbrev Number: 44 (DW_TAG_variable)
    <39de>   DW_AT_name        : act
    <39e2>   DW_AT_decl_file   : 2
    <39e3>   DW_AT_decl_line   : 4359
    <39e5>   DW_AT_decl_column : 22
    <39e6>   DW_AT_type        : <0x9da>
    <39ea>   DW_AT_location    : 3 byte block: 91 b0 7e 	(DW_OP_fbreg: -208)
 <3><39ee>: Abbrev Number: 0
 <2><39ef>: Abbrev Number: 62 (DW_TAG_lexical_block)
    <39f0>   DW_AT_ranges      : 0x230
    <39f4>   DW_AT_sibling     : <0x3b27>
 <3><39f8>: Abbrev Number: 44 (DW_TAG_variable)
    <39f9>   DW_AT_name        : oi
    <39fc>   DW_AT_decl_file   : 2
    <39fd>   DW_AT_decl_line   : 4401
    <39ff>   DW_AT_decl_column : 11
    <3a00>   DW_AT_type        : <0x61>
    <3a04>   DW_AT_location    : 3 byte block: 91 90 7c 	(DW_OP_fbreg: -496)
 <3><3a08>: Abbrev Number: 61 (DW_TAG_lexical_block)
    <3a09>   DW_AT_low_pc      : 0xe1a6
    <3a11>   DW_AT_high_pc     : 0x318
    <3a19>   DW_AT_sibling     : <0x3a52>
 <4><3a1d>: Abbrev Number: 43 (DW_TAG_variable)
    <3a1e>   DW_AT_name        : (indirect string, offset: 0xa4b): minus_pos_usage
    <3a22>   DW_AT_decl_file   : 2
    <3a23>   DW_AT_decl_line   : 4424
    <3a25>   DW_AT_decl_column : 20
    <3a26>   DW_AT_type        : <0x1073>
    <3a2a>   DW_AT_location    : 3 byte block: 91 c7 79 	(DW_OP_fbreg: -825)
 <4><3a2e>: Abbrev Number: 63 (DW_TAG_lexical_block)
    <3a2f>   DW_AT_low_pc      : 0xe361
    <3a37>   DW_AT_high_pc     : 0x143
 <5><3a3f>: Abbrev Number: 43 (DW_TAG_variable)
    <3a40>   DW_AT_name        : (indirect string, offset: 0x116e): optarg1
    <3a44>   DW_AT_decl_file   : 2
    <3a45>   DW_AT_decl_line   : 4443
    <3a47>   DW_AT_decl_column : 39
    <3a48>   DW_AT_type        : <0xb9>
    <3a4c>   DW_AT_location    : 3 byte block: 91 b8 7a 	(DW_OP_fbreg: -712)
 <5><3a50>: Abbrev Number: 0
 <4><3a51>: Abbrev Number: 0
 <3><3a52>: Abbrev Number: 61 (DW_TAG_lexical_block)
    <3a53>   DW_AT_low_pc      : 0xe557
    <3a5b>   DW_AT_high_pc     : 0x28
    <3a63>   DW_AT_sibling     : <0x3a78>
 <4><3a67>: Abbrev Number: 44 (DW_TAG_variable)
    <3a68>   DW_AT_name        : str
    <3a6c>   DW_AT_decl_file   : 2
    <3a6d>   DW_AT_decl_line   : 4491
    <3a6f>   DW_AT_decl_column : 18
    <3a70>   DW_AT_type        : <0x3d0d>
    <3a74>   DW_AT_location    : 2 byte block: 91 56 	(DW_OP_fbreg: -42)
 <4><3a77>: Abbrev Number: 0
 <3><3a78>: Abbrev Number: 64 (DW_TAG_lexical_block)
    <3a79>   DW_AT_low_pc      : 0xe650
    <3a81>   DW_AT_high_pc     : 0x26
 <3><3a89>: Abbrev Number: 64 (DW_TAG_lexical_block)
    <3a8a>   DW_AT_low_pc      : 0xe96e
    <3a92>   DW_AT_high_pc     : 0x26
 <3><3a9a>: Abbrev Number: 64 (DW_TAG_lexical_block)
    <3a9b>   DW_AT_low_pc      : 0xe9ce
    <3aa3>   DW_AT_high_pc     : 0x26
 <3><3aab>: Abbrev Number: 61 (DW_TAG_lexical_block)
    <3aac>   DW_AT_low_pc      : 0xea37
    <3ab4>   DW_AT_high_pc     : 0x103
    <3abc>   DW_AT_sibling     : <0x3b05>
 <4><3ac0>: Abbrev Number: 43 (DW_TAG_variable)
    <3ac1>   DW_AT_name        : (indirect string, offset: 0x2d02): newtab
    <3ac5>   DW_AT_decl_file   : 2
    <3ac6>   DW_AT_decl_line   : 4605
    <3ac8>   DW_AT_decl_column : 18
    <3ac9>   DW_AT_type        : <0x49>
    <3acd>   DW_AT_location    : 3 byte block: 91 c5 79 	(DW_OP_fbreg: -827)
 <4><3ad1>: Abbrev Number: 64 (DW_TAG_lexical_block)
    <3ad2>   DW_AT_low_pc      : 0xea50
    <3ada>   DW_AT_high_pc     : 0x26
 <4><3ae2>: Abbrev Number: 64 (DW_TAG_lexical_block)
    <3ae3>   DW_AT_low_pc      : 0xeaae
    <3aeb>   DW_AT_high_pc     : 0x3b
 <4><3af3>: Abbrev Number: 64 (DW_TAG_lexical_block)
    <3af4>   DW_AT_low_pc      : 0xeb07
    <3afc>   DW_AT_high_pc     : 0x26
 <4><3b04>: Abbrev Number: 0
 <3><3b05>: Abbrev Number: 63 (DW_TAG_lexical_block)
    <3b06>   DW_AT_low_pc      : 0xebb7
    <3b0e>   DW_AT_high_pc     : 0x50
 <4><3b16>: Abbrev Number: 44 (DW_TAG_variable)
    <3b17>   DW_AT_name        : p
    <3b19>   DW_AT_decl_file   : 2
    <3b1a>   DW_AT_decl_line   : 4653
    <3b1c>   DW_AT_decl_column : 27
    <3b1d>   DW_AT_type        : <0xb9>
    <3b21>   DW_AT_location    : 3 byte block: 91 98 7a 	(DW_OP_fbreg: -744)
 <4><3b25>: Abbrev Number: 0
 <3><3b26>: Abbrev Number: 0
 <2><3b27>: Abbrev Number: 62 (DW_TAG_lexical_block)
    <3b28>   DW_AT_ranges      : 0x260
    <3b2c>   DW_AT_sibling     : <0x3bbd>
 <3><3b30>: Abbrev Number: 43 (DW_TAG_variable)
    <3b31>   DW_AT_name        : (indirect string, offset: 0x3cd9): stream
    <3b35>   DW_AT_decl_file   : 2
    <3b36>   DW_AT_decl_line   : 4685
    <3b38>   DW_AT_decl_column : 13
    <3b39>   DW_AT_type        : <0xf1f>
    <3b3d>   DW_AT_location    : 3 byte block: 91 c0 7a 	(DW_OP_fbreg: -704)
 <3><3b41>: Abbrev Number: 64 (DW_TAG_lexical_block)
    <3b42>   DW_AT_low_pc      : 0xed56
    <3b4a>   DW_AT_high_pc     : 0x40
 <3><3b52>: Abbrev Number: 61 (DW_TAG_lexical_block)
    <3b53>   DW_AT_low_pc      : 0xedea
    <3b5b>   DW_AT_high_pc     : 0x139
    <3b63>   DW_AT_sibling     : <0x3bab>
 <4><3b67>: Abbrev Number: 44 (DW_TAG_variable)
    <3b68>   DW_AT_name        : i
    <3b6a>   DW_AT_decl_file   : 2
    <3b6b>   DW_AT_decl_line   : 4699
    <3b6d>   DW_AT_decl_column : 23
    <3b6e>   DW_AT_type        : <0x1f4>
    <3b72>   DW_AT_location    : 3 byte block: 91 a0 7a 	(DW_OP_fbreg: -736)
 <4><3b76>: Abbrev Number: 64 (DW_TAG_lexical_block)
    <3b77>   DW_AT_low_pc      : 0xee2c
    <3b7f>   DW_AT_high_pc     : 0x55
 <4><3b87>: Abbrev Number: 63 (DW_TAG_lexical_block)
    <3b88>   DW_AT_low_pc      : 0xeea4
    <3b90>   DW_AT_high_pc     : 0x61
 <5><3b98>: Abbrev Number: 43 (DW_TAG_variable)
    <3b99>   DW_AT_name        : (indirect string, offset: 0xe14): file_number
    <3b9d>   DW_AT_decl_file   : 2
    <3b9e>   DW_AT_decl_line   : 4710
    <3ba0>   DW_AT_decl_column : 37
    <3ba1>   DW_AT_type        : <0xe9>
    <3ba5>   DW_AT_location    : 3 byte block: 91 c8 7a 	(DW_OP_fbreg: -696)
 <5><3ba9>: Abbrev Number: 0
 <4><3baa>: Abbrev Number: 0
 <3><3bab>: Abbrev Number: 64 (DW_TAG_lexical_block)
    <3bac>   DW_AT_low_pc      : 0xef23
    <3bb4>   DW_AT_high_pc     : 0x40
 <3><3bbc>: Abbrev Number: 0
 <2><3bbd>: Abbrev Number: 61 (DW_TAG_lexical_block)
    <3bbe>   DW_AT_low_pc      : 0xf119
    <3bc6>   DW_AT_high_pc     : 0x2c
    <3bce>   DW_AT_sibling     : <0x3bea>
 <3><3bd2>: Abbrev Number: 43 (DW_TAG_variable)
    <3bd3>   DW_AT_name        : (indirect string, offset: 0x4c4): opts
    <3bd7>   DW_AT_decl_file   : 2
    <3bd8>   DW_AT_decl_line   : 4756
    <3bda>   DW_AT_decl_column : 23
    <3bdb>   DW_AT_type        : <0x3d1d>
    <3bdf>   DW_AT_location    : 9 byte block: 3 28 50 2 0 0 0 0 0 	(DW_OP_addr: 25028)
 <3><3be9>: Abbrev Number: 0
 <2><3bea>: Abbrev Number: 61 (DW_TAG_lexical_block)
    <3beb>   DW_AT_low_pc      : 0xf275
    <3bf3>   DW_AT_high_pc     : 0x38
    <3bfb>   DW_AT_sibling     : <0x3c11>
 <3><3bff>: Abbrev Number: 43 (DW_TAG_variable)
    <3c00>   DW_AT_name        : (indirect string, offset: 0x1975): tmp_dir
    <3c04>   DW_AT_decl_file   : 2
    <3c05>   DW_AT_decl_line   : 4787
    <3c07>   DW_AT_decl_column : 19
    <3c08>   DW_AT_type        : <0xb9>
    <3c0c>   DW_AT_location    : 3 byte block: 91 d0 7a 	(DW_OP_fbreg: -688)
 <3><3c10>: Abbrev Number: 0
 <2><3c11>: Abbrev Number: 64 (DW_TAG_lexical_block)
    <3c12>   DW_AT_low_pc      : 0xf343
    <3c1a>   DW_AT_high_pc     : 0x52
 <2><3c22>: Abbrev Number: 61 (DW_TAG_lexical_block)
    <3c23>   DW_AT_low_pc      : 0xf39f
    <3c2b>   DW_AT_high_pc     : 0x1c
    <3c33>   DW_AT_sibling     : <0x3c4f>
 <3><3c37>: Abbrev Number: 43 (DW_TAG_variable)
    <3c38>   DW_AT_name        : (indirect string, offset: 0x4c4): opts
    <3c3c>   DW_AT_decl_file   : 2
    <3c3d>   DW_AT_decl_line   : 4812
    <3c3f>   DW_AT_decl_column : 23
    <3c40>   DW_AT_type        : <0x3d2d>
    <3c44>   DW_AT_location    : 9 byte block: 3 32 50 2 0 0 0 0 0 	(DW_OP_addr: 25032)
 <3><3c4e>: Abbrev Number: 0
 <2><3c4f>: Abbrev Number: 61 (DW_TAG_lexical_block)
    <3c50>   DW_AT_low_pc      : 0xf418
    <3c58>   DW_AT_high_pc     : 0x99
    <3c60>   DW_AT_sibling     : <0x3c97>
 <3><3c64>: Abbrev Number: 43 (DW_TAG_variable)
    <3c65>   DW_AT_name        : (indirect string, offset: 0x897): sortfiles
    <3c69>   DW_AT_decl_file   : 2
    <3c6a>   DW_AT_decl_line   : 4830
    <3c6c>   DW_AT_decl_column : 24
    <3c6d>   DW_AT_type        : <0x3d3d>
    <3c71>   DW_AT_location    : 3 byte block: 91 e8 7a 	(DW_OP_fbreg: -664)
 <3><3c75>: Abbrev Number: 63 (DW_TAG_lexical_block)
    <3c76>   DW_AT_low_pc      : 0xf433
    <3c7e>   DW_AT_high_pc     : 0x5c
 <4><3c86>: Abbrev Number: 44 (DW_TAG_variable)
    <3c87>   DW_AT_name        : i
    <3c89>   DW_AT_decl_file   : 2
    <3c8a>   DW_AT_decl_line   : 4832
    <3c8c>   DW_AT_decl_column : 19
    <3c8d>   DW_AT_type        : <0x1f4>
    <3c91>   DW_AT_location    : 3 byte block: 91 a8 7a 	(DW_OP_fbreg: -728)
 <4><3c95>: Abbrev Number: 0
 <3><3c96>: Abbrev Number: 0
 <2><3c97>: Abbrev Number: 63 (DW_TAG_lexical_block)
    <3c98>   DW_AT_low_pc      : 0xf4b6
    <3ca0>   DW_AT_high_pc     : 0x86
 <3><3ca8>: Abbrev Number: 43 (DW_TAG_variable)
    <3ca9>   DW_AT_name        : (indirect string, offset: 0x41): nthreads_max
    <3cad>   DW_AT_decl_file   : 2
    <3cae>   DW_AT_decl_line   : 4846
    <3cb0>   DW_AT_decl_column : 14
    <3cb1>   DW_AT_type        : <0x1f4>
    <3cb5>   DW_AT_location    : 3 byte block: 91 e0 7a 	(DW_OP_fbreg: -672)
 <3><3cb9>: Abbrev Number: 63 (DW_TAG_lexical_block)
    <3cba>   DW_AT_low_pc      : 0xf4c0
    <3cc2>   DW_AT_high_pc     : 0x2b
 <4><3cca>: Abbrev Number: 44 (DW_TAG_variable)
    <3ccb>   DW_AT_name        : np
    <3cce>   DW_AT_decl_file   : 2
    <3ccf>   DW_AT_decl_line   : 4841
    <3cd1>   DW_AT_decl_column : 29
    <3cd2>   DW_AT_type        : <0xe9>
    <3cd6>   DW_AT_location    : 3 byte block: 91 d8 7a 	(DW_OP_fbreg: -680)
 <4><3cda>: Abbrev Number: 0
 <3><3cdb>: Abbrev Number: 0
 <2><3cdc>: Abbrev Number: 0
 <1><3cdd>: Abbrev Number: 13 (DW_TAG_array_type)
    <3cde>   DW_AT_type        : <0x50>
    <3ce2>   DW_AT_sibling     : <0x3ced>
 <2><3ce6>: Abbrev Number: 14 (DW_TAG_subrange_type)
    <3ce7>   DW_AT_type        : <0xe9>
    <3ceb>   DW_AT_upper_bound : 4
 <2><3cec>: Abbrev Number: 0
 <1><3ced>: Abbrev Number: 4 (DW_TAG_const_type)
    <3cee>   DW_AT_type        : <0x3cdd>
 <1><3cf2>: Abbrev Number: 3 (DW_TAG_pointer_type)
    <3cf3>   DW_AT_byte_size   : 8
    <3cf4>   DW_AT_type        : <0xd26>
 <1><3cf8>: Abbrev Number: 13 (DW_TAG_array_type)
    <3cf9>   DW_AT_type        : <0x6d>
    <3cfd>   DW_AT_sibling     : <0x3d08>
 <2><3d01>: Abbrev Number: 14 (DW_TAG_subrange_type)
    <3d02>   DW_AT_type        : <0xe9>
    <3d06>   DW_AT_upper_bound : 10
 <2><3d07>: Abbrev Number: 0
 <1><3d08>: Abbrev Number: 4 (DW_TAG_const_type)
    <3d09>   DW_AT_type        : <0x3cf8>
 <1><3d0d>: Abbrev Number: 13 (DW_TAG_array_type)
    <3d0e>   DW_AT_type        : <0x49>
    <3d12>   DW_AT_sibling     : <0x3d1d>
 <2><3d16>: Abbrev Number: 14 (DW_TAG_subrange_type)
    <3d17>   DW_AT_type        : <0xe9>
    <3d1b>   DW_AT_upper_bound : 1
 <2><3d1c>: Abbrev Number: 0
 <1><3d1d>: Abbrev Number: 13 (DW_TAG_array_type)
    <3d1e>   DW_AT_type        : <0x49>
    <3d22>   DW_AT_sibling     : <0x3d2d>
 <2><3d26>: Abbrev Number: 14 (DW_TAG_subrange_type)
    <3d27>   DW_AT_type        : <0xe9>
    <3d2b>   DW_AT_upper_bound : 9
